(lp0
(S'abapGit'
p1
S'larshp'
p2
S'larshp/abapGit'
p3
tp4
a(S'ZICA_ML'
p5
S'lucattelli'
p6
S'lucattelli/ZICA_ML'
p7
tp8
a(S'ABAP'
p9
S'mauriciolauffer'
p10
S'mauriciolauffer/ABAP'
p11
tp12
a(S'abap-cli'
p13
S'abramsba'
p14
S'abramsba/abap-cli'
p15
tp16
a(S'Codigos'
p17
S'coutinhogui'
p18
S'coutinhogui/Codigos'
p19
tp20
a(S'abap-markdown'
p21
S'koemaeda'
p22
S'koemaeda/abap-markdown'
p23
tp24
a(S'ABAP-OOP-Library'
p25
S'penty78'
p26
S'penty78/ABAP-OOP-Library'
p27
tp28
a(S'ABAP-Regex-Training'
p29
S'rvanmil'
p30
S'rvanmil/ABAP-Regex-Training'
p31
tp32
a(S'abap'
p33
S'webipy'
p34
S'webipy/abap'
p35
tp36
a(S'Codigos'
p37
S'rafaelmayer'
p38
S'rafaelmayer/Codigos'
p39
tp40
a(S'ABAPDesignPattern'
p41
S'moreus'
p42
S'moreus/ABAPDesignPattern'
p43
tp44
a(S'abap_sup_dcn'
p45
S'cesar-sap'
p46
S'cesar-sap/abap_sup_dcn'
p47
tp48
a(S'ZICA_SEARCH_SOURCE'
p49
S'lucattelli'
p50
S'lucattelli/ZICA_SEARCH_SOURCE'
p51
tp52
a(S'ABAP'
p53
S'wwsheng009'
p54
S'wwsheng009/ABAP'
p55
tp56
a(S'abapOpenChecks'
p57
S'larshp'
p58
S'larshp/abapOpenChecks'
p59
tp60
a(S'abap'
p61
S'sulonen'
p62
S'sulonen/abap'
p63
tp64
a(S'ZICA_ENIGMA'
p65
S'lucattelli'
p66
S'lucattelli/ZICA_ENIGMA'
p67
tp68
a(S'ABAP-Commons'
p69
S'HannesRempel'
p70
S'HannesRempel/ABAP-Commons'
p71
tp72
a(S'AbapExamples'
p73
S'abramsba'
p74
S'abramsba/AbapExamples'
p75
tp76
a(S'AES'
p77
S'Sumu-Ning'
p78
S'Sumu-Ning/AES'
p79
tp80
a(S'adsadi'
p81
S'RubyNunatak'
p82
S'RubyNunatak/adsadi'
p83
tp84
a(S'ABAP-Logger'
p85
S'epeterson320'
p86
S'epeterson320/ABAP-Logger'
p87
tp88
a(S'ABAP-OOP-Library'
p89
S'rvanmil'
p90
S'rvanmil/ABAP-OOP-Library'
p91
tp92
a(S'ABAP-Regex-Training'
p93
S'sonicby'
p94
S'sonicby/ABAP-Regex-Training'
p95
tp96
a(S'ABAP-Utils'
p97
S'adsworth'
p98
S'adsworth/ABAP-Utils'
p99
tp100
a.