(lp0
(S'Corruption-of-Champions-Mod'
p1
S'Kitteh6660'
p2
S'Kitteh6660/Corruption-of-Champions-Mod'
p3
tp4
a(S'Starling-Framework'
p5
S'Gamua'
p6
S'Gamua/Starling-Framework'
p7
tp8
a(S'as3corelib'
p9
S'mikechambers'
p10
S'mikechambers/as3corelib'
p11
tp12
a(S'flixel'
p13
S'AdamAtomic'
p14
S'AdamAtomic/flixel'
p15
tp16
a(S'as3-signals'
p17
S'robertpenner'
p18
S'robertpenner/as3-signals'
p19
tp20
a(S'robotlegs-framework'
p21
S'robotlegs'
p22
S'robotlegs/robotlegs-framework'
p23
tp24
a(S'feathers'
p25
S'BowlerHatLLC'
p26
S'BowlerHatLLC/feathers'
p27
tp28
a(S'away3d-core-fp11'
p29
S'away3d'
p30
S'away3d/away3d-core-fp11'
p31
tp32
a(S'mapgen2'
p33
S'amitp'
p34
S'amitp/mapgen2'
p35
tp36
a(S'scratch-flash'
p37
S'LLK'
p38
S'LLK/scratch-flash'
p39
tp40
a(S'minimalcomps'
p41
S'minimalcomps'
p42
S'minimalcomps/minimalcomps'
p43
tp44
a(S'webcamjs'
p45
S'jhuckaby'
p46
S'jhuckaby/webcamjs'
p47
tp48
a(S'as3swf'
p49
S'claus'
p50
S'claus/as3swf'
p51
tp52
a(S'Citrus-Engine'
p53
S'DaVikingCode'
p54
S'DaVikingCode/Citrus-Engine'
p55
tp56
a(S'flashls'
p57
S'mangui'
p58
S'mangui/flashls'
p59
tp60
a(S'Alternativa3D'
p61
S'AlternativaPlatform'
p62
S'AlternativaPlatform/Alternativa3D'
p63
tp64
a(S'wck'
p65
S'jesses'
p66
S'jesses/wck'
p67
tp68
a(S'jQuery-webcam'
p69
S'infusion'
p70
S'infusion/jQuery-webcam'
p71
tp72
a(S'Gestouch'
p73
S'fljot'
p74
S'fljot/Gestouch'
p75
tp76
a(S'FlashPunk'
p77
S'useflashpunk'
p78
S'useflashpunk/FlashPunk'
p79
tp80
a(S'Ash'
p81
S'richardlord'
p82
S'richardlord/Ash'
p83
tp84
a(S'AS3Libs'
p85
S'gskinner'
p86
S'gskinner/AS3Libs'
p87
tp88
a(S'nd2d'
p89
S'lrrrs'
p90
S'lrrrs/nd2d'
p91
tp92
a(S'restfulx_framework'
p93
S'dima'
p94
S'dima/restfulx_framework'
p95
tp96
a(S's3-swf-upload-plugin'
p97
S'nathancolgate'
p98
S'nathancolgate/s3-swf-upload-plugin'
p99
tp100
a(S'starling-builder-editor'
p101
S'mindjolt'
p102
S'mindjolt/starling-builder-editor'
p103
tp104
a(S'Starling-Framework'
p105
S'Gamua'
p106
S'Gamua/Starling-Framework'
p107
tp108
a(S'scratch-flash'
p109
S'LLK'
p110
S'LLK/scratch-flash'
p111
tp112
a(S'StarlingGAFPlayer'
p113
S'CatalystApps'
p114
S'CatalystApps/StarlingGAFPlayer'
p115
tp116
a(S'as3corelib'
p117
S'mikechambers'
p118
S'mikechambers/as3corelib'
p119
tp120
a(S'flixel'
p121
S'AdamAtomic'
p122
S'AdamAtomic/flixel'
p123
tp124
a(S'as3-signals'
p125
S'robertpenner'
p126
S'robertpenner/as3-signals'
p127
tp128
a(S'robotlegs-framework'
p129
S'robotlegs'
p130
S'robotlegs/robotlegs-framework'
p131
tp132
a(S'feathers'
p133
S'BowlerHatLLC'
p134
S'BowlerHatLLC/feathers'
p135
tp136
a(S'away3d-core-fp11'
p137
S'away3d'
p138
S'away3d/away3d-core-fp11'
p139
tp140
a(S'mapgen2'
p141
S'amitp'
p142
S'amitp/mapgen2'
p143
tp144
a(S'minimalcomps'
p145
S'minimalcomps'
p146
S'minimalcomps/minimalcomps'
p147
tp148
a(S'webcamjs'
p149
S'jhuckaby'
p150
S'jhuckaby/webcamjs'
p151
tp152
a(S'as3swf'
p153
S'claus'
p154
S'claus/as3swf'
p155
tp156
a(S'Citrus-Engine'
p157
S'DaVikingCode'
p158
S'DaVikingCode/Citrus-Engine'
p159
tp160
a(S'flashls'
p161
S'mangui'
p162
S'mangui/flashls'
p163
tp164
a(S'Alternativa3D'
p165
S'AlternativaPlatform'
p166
S'AlternativaPlatform/Alternativa3D'
p167
tp168
a(S'wck'
p169
S'jesses'
p170
S'jesses/wck'
p171
tp172
a(S'jQuery-webcam'
p173
S'infusion'
p174
S'infusion/jQuery-webcam'
p175
tp176
a(S'Gestouch'
p177
S'fljot'
p178
S'fljot/Gestouch'
p179
tp180
a(S'FlashPunk'
p181
S'useflashpunk'
p182
S'useflashpunk/FlashPunk'
p183
tp184
a(S'Ash'
p185
S'richardlord'
p186
S'richardlord/Ash'
p187
tp188
a(S'AS3Libs'
p189
S'gskinner'
p190
S'gskinner/AS3Libs'
p191
tp192
a(S'nd2d'
p193
S'lrrrs'
p194
S'lrrrs/nd2d'
p195
tp196
a(S'restfulx_framework'
p197
S'dima'
p198
S'dima/restfulx_framework'
p199
tp200
a(S'flashls'
p201
S'mangui'
p202
S'mangui/flashls'
p203
tp204
a(S'starling-builder-editor'
p205
S'mindjolt'
p206
S'mindjolt/starling-builder-editor'
p207
tp208
a(S'Starling-Framework'
p209
S'Gamua'
p210
S'Gamua/Starling-Framework'
p211
tp212
a(S'scratch-flash'
p213
S'LLK'
p214
S'LLK/scratch-flash'
p215
tp216
a(S'feathers'
p217
S'BowlerHatLLC'
p218
S'BowlerHatLLC/feathers'
p219
tp220
a(S'Weave'
p221
S'WeaveTeam'
p222
S'WeaveTeam/Weave'
p223
tp224
a(S'firefly-sdk'
p225
S'in4ray'
p226
S'in4ray/firefly-sdk'
p227
tp228
a(S'as3corelib'
p229
S'mikechambers'
p230
S'mikechambers/as3corelib'
p231
tp232
a(S'flixel'
p233
S'AdamAtomic'
p234
S'AdamAtomic/flixel'
p235
tp236
a(S'as3-signals'
p237
S'robertpenner'
p238
S'robertpenner/as3-signals'
p239
tp240
a(S'robotlegs-framework'
p241
S'robotlegs'
p242
S'robotlegs/robotlegs-framework'
p243
tp244
a(S'away3d-core-fp11'
p245
S'away3d'
p246
S'away3d/away3d-core-fp11'
p247
tp248
a(S'mapgen2'
p249
S'amitp'
p250
S'amitp/mapgen2'
p251
tp252
a(S'minimalcomps'
p253
S'minimalcomps'
p254
S'minimalcomps/minimalcomps'
p255
tp256
a(S'webcamjs'
p257
S'jhuckaby'
p258
S'jhuckaby/webcamjs'
p259
tp260
a(S'as3swf'
p261
S'claus'
p262
S'claus/as3swf'
p263
tp264
a(S'Citrus-Engine'
p265
S'DaVikingCode'
p266
S'DaVikingCode/Citrus-Engine'
p267
tp268
a(S'Alternativa3D'
p269
S'AlternativaPlatform'
p270
S'AlternativaPlatform/Alternativa3D'
p271
tp272
a(S'wck'
p273
S'jesses'
p274
S'jesses/wck'
p275
tp276
a(S'jQuery-webcam'
p277
S'infusion'
p278
S'infusion/jQuery-webcam'
p279
tp280
a(S'Gestouch'
p281
S'fljot'
p282
S'fljot/Gestouch'
p283
tp284
a(S'FlashPunk'
p285
S'useflashpunk'
p286
S'useflashpunk/FlashPunk'
p287
tp288
a(S'Ash'
p289
S'richardlord'
p290
S'richardlord/Ash'
p291
tp292
a(S'AS3Libs'
p293
S'gskinner'
p294
S'gskinner/AS3Libs'
p295
tp296
a(S'nd2d'
p297
S'lrrrs'
p298
S'lrrrs/nd2d'
p299
tp300
a.