(lp0
(S'AdaDoom3'
p1
S'AdaDoom3'
p2
S'AdaDoom3/AdaDoom3'
p3
tp4
a(S'tamp'
p5
S'Lucretia'
p6
S'Lucretia/tamp'
p7
tp8
a(S'Ada-Crypto-Library'
p9
S'cforler'
p10
S'cforler/Ada-Crypto-Library'
p11
tp12
a(S'bare_bones'
p13
S'Lucretia'
p14
S'Lucretia/bare_bones'
p15
tp16
a(S'whitakers-words'
p17
S'mk270'
p18
S'mk270/whitakers-words'
p19
tp20
a(S'OpenGLAda'
p21
S'flyx'
p22
S'flyx/OpenGLAda'
p23
tp24
a(S'zeromq-Ada'
p25
S'persan'
p26
S'persan/zeromq-Ada'
p27
tp28
a(S'tinywm-ada'
p29
S'rtyler'
p30
S'rtyler/tinywm-ada'
p31
tp32
a(S'sdlada'
p33
S'Lucretia'
p34
S'Lucretia/sdlada'
p35
tp36
a(S'old-lumen'
p37
S'karakalo'
p38
S'karakalo/old-lumen'
p39
tp40
a(S'SparForte'
p41
S'kburtch'
p42
S'kburtch/SparForte'
p43
tp44
a(S'lumen'
p45
S'karakalo'
p46
S'karakalo/lumen'
p47
tp48
a(S'yolk'
p49
S'ThomasLocke'
p50
S'ThomasLocke/yolk'
p51
tp52
a(S'Words'
p53
S'dsanson'
p54
S'dsanson/Words'
p55
tp56
a(S'drake'
p57
S'ytomino'
p58
S'ytomino/drake'
p59
tp60
a(S'ada-lua'
p61
S'AdaCore'
p62
S'AdaCore/ada-lua'
p63
tp64
a(S'PHCpack'
p65
S'janverschelde'
p66
S'janverschelde/PHCpack'
p67
tp68
a(S'OpenCLAda'
p69
S'flyx'
p70
S'flyx/OpenCLAda'
p71
tp72
a(S'thumper'
p73
S'pchapin'
p74
S'pchapin/thumper'
p75
tp76
a(S'eagle-lander'
p77
S'Fabien-Chouteau'
p78
S'Fabien-Chouteau/eagle-lander'
p79
tp80
a(S'AdaForMicrocontrollers'
p81
S'rowsail'
p82
S'rowsail/AdaForMicrocontrollers'
p83
tp84
a(S'stablematch'
p85
S'vishnuravi'
p86
S'vishnuravi/stablematch'
p87
tp88
a(S'ether'
p89
S'Lucretia'
p90
S'Lucretia/ether'
p91
tp92
a(S'aforth'
p93
S'samueltardieu'
p94
S'samueltardieu/aforth'
p95
tp96
a(S'Jaba'
p97
S'subjrs'
p98
S'subjrs/Jaba'
p99
tp100
a(S'AdaDoom3'
p101
S'AdaDoom3'
p102
S'AdaDoom3/AdaDoom3'
p103
tp104
a(S'tamp'
p105
S'Lucretia'
p106
S'Lucretia/tamp'
p107
tp108
a(S'Ada-Crypto-Library'
p109
S'cforler'
p110
S'cforler/Ada-Crypto-Library'
p111
tp112
a(S'bare_bones'
p113
S'Lucretia'
p114
S'Lucretia/bare_bones'
p115
tp116
a(S'whitakers-words'
p117
S'mk270'
p118
S'mk270/whitakers-words'
p119
tp120
a(S'OpenGLAda'
p121
S'flyx'
p122
S'flyx/OpenGLAda'
p123
tp124
a(S'zeromq-Ada'
p125
S'persan'
p126
S'persan/zeromq-Ada'
p127
tp128
a(S'tinywm-ada'
p129
S'rtyler'
p130
S'rtyler/tinywm-ada'
p131
tp132
a(S'sdlada'
p133
S'Lucretia'
p134
S'Lucretia/sdlada'
p135
tp136
a(S'old-lumen'
p137
S'karakalo'
p138
S'karakalo/old-lumen'
p139
tp140
a(S'SparForte'
p141
S'kburtch'
p142
S'kburtch/SparForte'
p143
tp144
a(S'lumen'
p145
S'karakalo'
p146
S'karakalo/lumen'
p147
tp148
a(S'yolk'
p149
S'ThomasLocke'
p150
S'ThomasLocke/yolk'
p151
tp152
a(S'Words'
p153
S'dsanson'
p154
S'dsanson/Words'
p155
tp156
a(S'drake'
p157
S'ytomino'
p158
S'ytomino/drake'
p159
tp160
a(S'ada-lua'
p161
S'AdaCore'
p162
S'AdaCore/ada-lua'
p163
tp164
a(S'PHCpack'
p165
S'janverschelde'
p166
S'janverschelde/PHCpack'
p167
tp168
a(S'OpenCLAda'
p169
S'flyx'
p170
S'flyx/OpenCLAda'
p171
tp172
a(S'thumper'
p173
S'pchapin'
p174
S'pchapin/thumper'
p175
tp176
a(S'eagle-lander'
p177
S'Fabien-Chouteau'
p178
S'Fabien-Chouteau/eagle-lander'
p179
tp180
a(S'AdaForMicrocontrollers'
p181
S'rowsail'
p182
S'rowsail/AdaForMicrocontrollers'
p183
tp184
a(S'stablematch'
p185
S'vishnuravi'
p186
S'vishnuravi/stablematch'
p187
tp188
a(S'ether'
p189
S'Lucretia'
p190
S'Lucretia/ether'
p191
tp192
a(S'aforth'
p193
S'samueltardieu'
p194
S'samueltardieu/aforth'
p195
tp196
a(S'Jaba'
p197
S'subjrs'
p198
S'subjrs/Jaba'
p199
tp200
a(S'AdaDoom3'
p201
S'AdaDoom3'
p202
S'AdaDoom3/AdaDoom3'
p203
tp204
a(S'tamp'
p205
S'Lucretia'
p206
S'Lucretia/tamp'
p207
tp208
a(S'Ada-Crypto-Library'
p209
S'cforler'
p210
S'cforler/Ada-Crypto-Library'
p211
tp212
a(S'bare_bones'
p213
S'Lucretia'
p214
S'Lucretia/bare_bones'
p215
tp216
a(S'whitakers-words'
p217
S'mk270'
p218
S'mk270/whitakers-words'
p219
tp220
a(S'OpenGLAda'
p221
S'flyx'
p222
S'flyx/OpenGLAda'
p223
tp224
a(S'zeromq-Ada'
p225
S'persan'
p226
S'persan/zeromq-Ada'
p227
tp228
a(S'tinywm-ada'
p229
S'rtyler'
p230
S'rtyler/tinywm-ada'
p231
tp232
a(S'sdlada'
p233
S'Lucretia'
p234
S'Lucretia/sdlada'
p235
tp236
a(S'old-lumen'
p237
S'karakalo'
p238
S'karakalo/old-lumen'
p239
tp240
a(S'SparForte'
p241
S'kburtch'
p242
S'kburtch/SparForte'
p243
tp244
a(S'lumen'
p245
S'karakalo'
p246
S'karakalo/lumen'
p247
tp248
a(S'yolk'
p249
S'ThomasLocke'
p250
S'ThomasLocke/yolk'
p251
tp252
a(S'Words'
p253
S'dsanson'
p254
S'dsanson/Words'
p255
tp256
a(S'drake'
p257
S'ytomino'
p258
S'ytomino/drake'
p259
tp260
a(S'ada-lua'
p261
S'AdaCore'
p262
S'AdaCore/ada-lua'
p263
tp264
a(S'PHCpack'
p265
S'janverschelde'
p266
S'janverschelde/PHCpack'
p267
tp268
a(S'OpenCLAda'
p269
S'flyx'
p270
S'flyx/OpenCLAda'
p271
tp272
a(S'thumper'
p273
S'pchapin'
p274
S'pchapin/thumper'
p275
tp276
a(S'eagle-lander'
p277
S'Fabien-Chouteau'
p278
S'Fabien-Chouteau/eagle-lander'
p279
tp280
a(S'AdaForMicrocontrollers'
p281
S'rowsail'
p282
S'rowsail/AdaForMicrocontrollers'
p283
tp284
a(S'stablematch'
p285
S'vishnuravi'
p286
S'vishnuravi/stablematch'
p287
tp288
a(S'ether'
p289
S'Lucretia'
p290
S'Lucretia/ether'
p291
tp292
a(S'aforth'
p293
S'samueltardieu'
p294
S'samueltardieu/aforth'
p295
tp296
a(S'Jaba'
p297
S'subjrs'
p298
S'subjrs/Jaba'
p299
tp300
a.