(lp0
(S'HoTT-Agda'
p1
S'HoTT'
p2
S'HoTT/HoTT-Agda'
p3
tp4
a(S'agda-stdlib'
p5
S'agda'
p6
S'agda/agda-stdlib'
p7
tp8
a(S'categories'
p9
S'copumpkin'
p10
S'copumpkin/categories'
p11
tp12
a(S'TypeFunc'
p13
S'williamdemeo'
p14
S'williamdemeo/TypeFunc'
p15
tp16
a(S'why-dependent-types-matter'
p17
S'jstolarek'
p18
S'jstolarek/why-dependent-types-matter'
p19
tp20
a(S'CS410-14'
p21
S'pigworker'
p22
S'pigworker/CS410-14'
p23
tp24
a(S'hott-agda'
p25
S'dlicata335'
p26
S'dlicata335/hott-agda'
p27
tp28
a(S'agda-summer-school'
p29
S'UlfNorell'
p30
S'UlfNorell/agda-summer-school'
p31
tp32
a(S'spire'
p33
S'spire'
p34
S'spire/spire'
p35
tp36
a(S'CS410-15'
p37
S'pigworker'
p38
S'pigworker/CS410-15'
p39
tp40
a(S'crypto-agda'
p41
S'crypto-agda'
p42
S'crypto-agda/crypto-agda'
p43
tp44
a(S'miller'
p45
S'Saizan'
p46
S'Saizan/miller'
p47
tp48
a(S'CS410-13'
p49
S'pigworker'
p50
S'pigworker/CS410-13'
p51
tp52
a(S'Pivotal'
p53
S'pigworker'
p54
S'pigworker/Pivotal'
p55
tp56
a(S'agda-frp-ltl'
p57
S'agda'
p58
S'agda/agda-frp-ltl'
p59
tp60
a(S'agda-base'
p61
S'pcapriotti'
p62
S'pcapriotti/agda-base'
p63
tp64
a(S'agda-software-foundations'
p65
S'rodrigogribeiro'
p66
S'rodrigogribeiro/agda-software-foundations'
p67
tp68
a(S'homotopy'
p69
S'favonia'
p70
S'favonia/homotopy'
p71
tp72
a(S'sorting-types'
p73
S'bobatkey'
p74
S'bobatkey/sorting-types'
p75
tp76
a(S'agda-prelude'
p77
S'UlfNorell'
p78
S'UlfNorell/agda-prelude'
p79
tp80
a(S'lr-agda'
p81
S'ezyang'
p82
S'ezyang/lr-agda'
p83
tp84
a(S'aGdaREP'
p85
S'gallais'
p86
S'gallais/aGdaREP'
p87
tp88
a(S'AutoInAgda'
p89
S'pepijnkokke'
p90
S'pepijnkokke/AutoInAgda'
p91
tp92
a(S'SubstructuralLogicsInAgda'
p93
S'pepijnkokke'
p94
S'pepijnkokke/SubstructuralLogicsInAgda'
p95
tp96
a(S'agda-brouwerian-mathematics'
p97
S'jonsterling'
p98
S'jonsterling/agda-brouwerian-mathematics'
p99
tp100
a(S'HoTT-Agda'
p101
S'HoTT'
p102
S'HoTT/HoTT-Agda'
p103
tp104
a(S'agda-stdlib'
p105
S'agda'
p106
S'agda/agda-stdlib'
p107
tp108
a(S'categories'
p109
S'copumpkin'
p110
S'copumpkin/categories'
p111
tp112
a(S'TypeFunc'
p113
S'williamdemeo'
p114
S'williamdemeo/TypeFunc'
p115
tp116
a(S'why-dependent-types-matter'
p117
S'jstolarek'
p118
S'jstolarek/why-dependent-types-matter'
p119
tp120
a(S'CS410-14'
p121
S'pigworker'
p122
S'pigworker/CS410-14'
p123
tp124
a(S'hott-agda'
p125
S'dlicata335'
p126
S'dlicata335/hott-agda'
p127
tp128
a(S'agda-summer-school'
p129
S'UlfNorell'
p130
S'UlfNorell/agda-summer-school'
p131
tp132
a(S'spire'
p133
S'spire'
p134
S'spire/spire'
p135
tp136
a(S'CS410-15'
p137
S'pigworker'
p138
S'pigworker/CS410-15'
p139
tp140
a(S'crypto-agda'
p141
S'crypto-agda'
p142
S'crypto-agda/crypto-agda'
p143
tp144
a(S'miller'
p145
S'Saizan'
p146
S'Saizan/miller'
p147
tp148
a(S'CS410-13'
p149
S'pigworker'
p150
S'pigworker/CS410-13'
p151
tp152
a(S'Pivotal'
p153
S'pigworker'
p154
S'pigworker/Pivotal'
p155
tp156
a(S'agda-frp-ltl'
p157
S'agda'
p158
S'agda/agda-frp-ltl'
p159
tp160
a(S'agda-base'
p161
S'pcapriotti'
p162
S'pcapriotti/agda-base'
p163
tp164
a(S'agda-software-foundations'
p165
S'rodrigogribeiro'
p166
S'rodrigogribeiro/agda-software-foundations'
p167
tp168
a(S'homotopy'
p169
S'favonia'
p170
S'favonia/homotopy'
p171
tp172
a(S'sorting-types'
p173
S'bobatkey'
p174
S'bobatkey/sorting-types'
p175
tp176
a(S'agda-prelude'
p177
S'UlfNorell'
p178
S'UlfNorell/agda-prelude'
p179
tp180
a(S'lr-agda'
p181
S'ezyang'
p182
S'ezyang/lr-agda'
p183
tp184
a(S'aGdaREP'
p185
S'gallais'
p186
S'gallais/aGdaREP'
p187
tp188
a(S'AutoInAgda'
p189
S'pepijnkokke'
p190
S'pepijnkokke/AutoInAgda'
p191
tp192
a(S'SubstructuralLogicsInAgda'
p193
S'pepijnkokke'
p194
S'pepijnkokke/SubstructuralLogicsInAgda'
p195
tp196
a(S'agda-brouwerian-mathematics'
p197
S'jonsterling'
p198
S'jonsterling/agda-brouwerian-mathematics'
p199
tp200
a(S'CS410-15'
p201
S'pigworker'
p202
S'pigworker/CS410-15'
p203
tp204
a(S'HoTT-Agda'
p205
S'HoTT'
p206
S'HoTT/HoTT-Agda'
p207
tp208
a(S'agda-stdlib'
p209
S'agda'
p210
S'agda/agda-stdlib'
p211
tp212
a(S'categories'
p213
S'copumpkin'
p214
S'copumpkin/categories'
p215
tp216
a(S'TypeFunc'
p217
S'williamdemeo'
p218
S'williamdemeo/TypeFunc'
p219
tp220
a(S'why-dependent-types-matter'
p221
S'jstolarek'
p222
S'jstolarek/why-dependent-types-matter'
p223
tp224
a(S'CS410-14'
p225
S'pigworker'
p226
S'pigworker/CS410-14'
p227
tp228
a(S'hott-agda'
p229
S'dlicata335'
p230
S'dlicata335/hott-agda'
p231
tp232
a(S'agda-summer-school'
p233
S'UlfNorell'
p234
S'UlfNorell/agda-summer-school'
p235
tp236
a(S'spire'
p237
S'spire'
p238
S'spire/spire'
p239
tp240
a(S'crypto-agda'
p241
S'crypto-agda'
p242
S'crypto-agda/crypto-agda'
p243
tp244
a(S'miller'
p245
S'Saizan'
p246
S'Saizan/miller'
p247
tp248
a(S'CS410-13'
p249
S'pigworker'
p250
S'pigworker/CS410-13'
p251
tp252
a(S'Pivotal'
p253
S'pigworker'
p254
S'pigworker/Pivotal'
p255
tp256
a(S'agda-frp-ltl'
p257
S'agda'
p258
S'agda/agda-frp-ltl'
p259
tp260
a(S'agda-base'
p261
S'pcapriotti'
p262
S'pcapriotti/agda-base'
p263
tp264
a(S'agda-software-foundations'
p265
S'rodrigogribeiro'
p266
S'rodrigogribeiro/agda-software-foundations'
p267
tp268
a(S'sorting-types'
p269
S'bobatkey'
p270
S'bobatkey/sorting-types'
p271
tp272
a(S'agda-prelude'
p273
S'UlfNorell'
p274
S'UlfNorell/agda-prelude'
p275
tp276
a(S'homotopy'
p277
S'favonia'
p278
S'favonia/homotopy'
p279
tp280
a(S'lr-agda'
p281
S'ezyang'
p282
S'ezyang/lr-agda'
p283
tp284
a(S'aGdaREP'
p285
S'gallais'
p286
S'gallais/aGdaREP'
p287
tp288
a(S'SubstructuralLogicsInAgda'
p289
S'pepijnkokke'
p290
S'pepijnkokke/SubstructuralLogicsInAgda'
p291
tp292
a(S'agda-brouwerian-mathematics'
p293
S'jonsterling'
p294
S'jonsterling/agda-brouwerian-mathematics'
p295
tp296
a(S'AutoInAgda'
p297
S'pepijnkokke'
p298
S'pepijnkokke/AutoInAgda'
p299
tp300
a.