(lp0
(S'tquery'
p1
S'jeromeetienne'
p2
S'jeromeetienne/tquery'
p3
tp4
a(S'autoexechack'
p5
S'KonradIT'
p6
S'KonradIT/autoexechack'
p7
tp8
a(S'XiaomiYi'
p9
S'funneld'
p10
S'funneld/XiaomiYi'
p11
tp12
a(S'XB-PointStream'
p13
S'asalga'
p14
S'asalga/XB-PointStream'
p15
tp16
a(S'eBook-Template'
p17
S'akosma'
p18
S'akosma/eBook-Template'
p19
tp20
a(S'pycircuit'
p21
S'henjo'
p22
S'henjo/pycircuit'
p23
tp24
a(S'PGPy'
p25
S'SecurityInnovation'
p26
S'SecurityInnovation/PGPy'
p27
tp28
a(S'hockeypuck'
p29
S'cmars'
p30
S'cmars/hockeypuck'
p31
tp32
a(S'Xiaomi_Yi_autoexec'
p33
S'PJanisio'
p34
S'PJanisio/Xiaomi_Yi_autoexec'
p35
tp36
a(S'quantum-diceware'
p37
S'roryk'
p38
S'roryk/quantum-diceware'
p39
tp40
a(S'camino-mejor-programador'
p41
S'emanchado'
p42
S'emanchado/camino-mejor-programador'
p43
tp44
a(S'tsunami'
p45
S'arachnidlabs'
p46
S'arachnidlabs/tsunami'
p47
tp48
a(S'tracmass'
p49
S'TRACMASS'
p50
S'TRACMASS/tracmass'
p51
tp52
a(S'A2300'
p53
S'myriadrf'
p54
S'myriadrf/A2300'
p55
tp56
a(S'0xA000'
p57
S'hodefoting'
p58
S'hodefoting/0xA000'
p59
tp60
a(S'World-Citizenship'
p61
S'Bit-Nation'
p62
S'Bit-Nation/World-Citizenship'
p63
tp64
a(S'sqlalchemy-tutorial'
p65
S'simeonf'
p66
S'simeonf/sqlalchemy-tutorial'
p67
tp68
a(S'introducao-a-programacao-livro'
p69
S'ufpb-computacao'
p70
S'ufpb-computacao/introducao-a-programacao-livro'
p71
tp72
a(S'AmiExtFDD'
p73
S'Sakura-IT'
p74
S'Sakura-IT/AmiExtFDD'
p75
tp76
a(S'geoserver-on-openshift'
p77
S'thesteve0'
p78
S'thesteve0/geoserver-on-openshift'
p79
tp80
a(S'extropians'
p81
S'weidai11'
p82
S'weidai11/extropians'
p83
tp84
a(S'Auto-2-day-HCCS'
p85
S'Malurth'
p86
S'Malurth/Auto-2-day-HCCS'
p87
tp88
a(S'Guide'
p89
S'Ezandora'
p90
S'Ezandora/Guide'
p91
tp92
a(S'embedded-tools'
p93
S'rapid7'
p94
S'rapid7/embedded-tools'
p95
tp96
a(S'BlueBrainProjectShowcase'
p97
S'OpenSourceBrain'
p98
S'OpenSourceBrain/BlueBrainProjectShowcase'
p99
tp100
a(S'tquery'
p101
S'jeromeetienne'
p102
S'jeromeetienne/tquery'
p103
tp104
a(S'autoexechack'
p105
S'KonradIT'
p106
S'KonradIT/autoexechack'
p107
tp108
a(S'XiaomiYi'
p109
S'funneld'
p110
S'funneld/XiaomiYi'
p111
tp112
a(S'XB-PointStream'
p113
S'asalga'
p114
S'asalga/XB-PointStream'
p115
tp116
a(S'eBook-Template'
p117
S'akosma'
p118
S'akosma/eBook-Template'
p119
tp120
a(S'pycircuit'
p121
S'henjo'
p122
S'henjo/pycircuit'
p123
tp124
a(S'PGPy'
p125
S'SecurityInnovation'
p126
S'SecurityInnovation/PGPy'
p127
tp128
a(S'hockeypuck'
p129
S'cmars'
p130
S'cmars/hockeypuck'
p131
tp132
a(S'Xiaomi_Yi_autoexec'
p133
S'PJanisio'
p134
S'PJanisio/Xiaomi_Yi_autoexec'
p135
tp136
a(S'quantum-diceware'
p137
S'roryk'
p138
S'roryk/quantum-diceware'
p139
tp140
a(S'camino-mejor-programador'
p141
S'emanchado'
p142
S'emanchado/camino-mejor-programador'
p143
tp144
a(S'tsunami'
p145
S'arachnidlabs'
p146
S'arachnidlabs/tsunami'
p147
tp148
a(S'tracmass'
p149
S'TRACMASS'
p150
S'TRACMASS/tracmass'
p151
tp152
a(S'A2300'
p153
S'myriadrf'
p154
S'myriadrf/A2300'
p155
tp156
a(S'0xA000'
p157
S'hodefoting'
p158
S'hodefoting/0xA000'
p159
tp160
a(S'World-Citizenship'
p161
S'Bit-Nation'
p162
S'Bit-Nation/World-Citizenship'
p163
tp164
a(S'sqlalchemy-tutorial'
p165
S'simeonf'
p166
S'simeonf/sqlalchemy-tutorial'
p167
tp168
a(S'introducao-a-programacao-livro'
p169
S'ufpb-computacao'
p170
S'ufpb-computacao/introducao-a-programacao-livro'
p171
tp172
a(S'AmiExtFDD'
p173
S'Sakura-IT'
p174
S'Sakura-IT/AmiExtFDD'
p175
tp176
a(S'geoserver-on-openshift'
p177
S'thesteve0'
p178
S'thesteve0/geoserver-on-openshift'
p179
tp180
a(S'extropians'
p181
S'weidai11'
p182
S'weidai11/extropians'
p183
tp184
a(S'Auto-2-day-HCCS'
p185
S'Malurth'
p186
S'Malurth/Auto-2-day-HCCS'
p187
tp188
a(S'Guide'
p189
S'Ezandora'
p190
S'Ezandora/Guide'
p191
tp192
a(S'embedded-tools'
p193
S'rapid7'
p194
S'rapid7/embedded-tools'
p195
tp196
a(S'BlueBrainProjectShowcase'
p197
S'OpenSourceBrain'
p198
S'OpenSourceBrain/BlueBrainProjectShowcase'
p199
tp200
a(S'tquery'
p201
S'jeromeetienne'
p202
S'jeromeetienne/tquery'
p203
tp204
a(S'autoexechack'
p205
S'KonradIT'
p206
S'KonradIT/autoexechack'
p207
tp208
a(S'XiaomiYi'
p209
S'funneld'
p210
S'funneld/XiaomiYi'
p211
tp212
a(S'XB-PointStream'
p213
S'asalga'
p214
S'asalga/XB-PointStream'
p215
tp216
a(S'eBook-Template'
p217
S'akosma'
p218
S'akosma/eBook-Template'
p219
tp220
a(S'pycircuit'
p221
S'henjo'
p222
S'henjo/pycircuit'
p223
tp224
a(S'PGPy'
p225
S'SecurityInnovation'
p226
S'SecurityInnovation/PGPy'
p227
tp228
a(S'hockeypuck'
p229
S'cmars'
p230
S'cmars/hockeypuck'
p231
tp232
a(S'Xiaomi_Yi_autoexec'
p233
S'PJanisio'
p234
S'PJanisio/Xiaomi_Yi_autoexec'
p235
tp236
a(S'quantum-diceware'
p237
S'roryk'
p238
S'roryk/quantum-diceware'
p239
tp240
a(S'camino-mejor-programador'
p241
S'emanchado'
p242
S'emanchado/camino-mejor-programador'
p243
tp244
a(S'tsunami'
p245
S'arachnidlabs'
p246
S'arachnidlabs/tsunami'
p247
tp248
a(S'tracmass'
p249
S'TRACMASS'
p250
S'TRACMASS/tracmass'
p251
tp252
a(S'A2300'
p253
S'myriadrf'
p254
S'myriadrf/A2300'
p255
tp256
a(S'0xA000'
p257
S'hodefoting'
p258
S'hodefoting/0xA000'
p259
tp260
a(S'World-Citizenship'
p261
S'Bit-Nation'
p262
S'Bit-Nation/World-Citizenship'
p263
tp264
a(S'sqlalchemy-tutorial'
p265
S'simeonf'
p266
S'simeonf/sqlalchemy-tutorial'
p267
tp268
a(S'introducao-a-programacao-livro'
p269
S'ufpb-computacao'
p270
S'ufpb-computacao/introducao-a-programacao-livro'
p271
tp272
a(S'AmiExtFDD'
p273
S'Sakura-IT'
p274
S'Sakura-IT/AmiExtFDD'
p275
tp276
a(S'geoserver-on-openshift'
p277
S'thesteve0'
p278
S'thesteve0/geoserver-on-openshift'
p279
tp280
a(S'extropians'
p281
S'weidai11'
p282
S'weidai11/extropians'
p283
tp284
a(S'Auto-2-day-HCCS'
p285
S'Malurth'
p286
S'Malurth/Auto-2-day-HCCS'
p287
tp288
a(S'Guide'
p289
S'Ezandora'
p290
S'Ezandora/Guide'
p291
tp292
a(S'embedded-tools'
p293
S'rapid7'
p294
S'rapid7/embedded-tools'
p295
tp296
a(S'BlueBrainProjectShowcase'
p297
S'OpenSourceBrain'
p298
S'OpenSourceBrain/BlueBrainProjectShowcase'
p299
tp300
a.