(lp0
(S'midihack'
p1
S'DavW'
p2
S'DavW/midihack'
p3
tp4
a(S'Ableton-Live-tools'
p5
S'danielbayley'
p6
S'danielbayley/Ableton-Live-tools'
p7
tp8
a(S'js-live-api-humanize-midi-clips'
p9
S'adamjmurray'
p10
S'adamjmurray/js-live-api-humanize-midi-clips'
p11
tp12
a(S'mIRC-BattleArena'
p13
S'Iyouboushi'
p14
S'Iyouboushi/mIRC-BattleArena'
p15
tp16
a(S'occiware.github.io'
p17
S'occiware'
p18
S'occiware/occiware.github.io'
p19
tp20
a(S'alloy-fish'
p21
S'lorin'
p22
S'lorin/alloy-fish'
p23
tp24
a(S'Alloy-Model-of-MCA'
p25
S'SaberMirzaei'
p26
S'SaberMirzaei/Alloy-Model-of-MCA'
p27
tp28
a(S'alloy-coin'
p29
S'kepae'
p30
S'kepae/alloy-coin'
p31
tp32
a(S'logica.alloy'
p33
S'samueltcsantos'
p34
S'samueltcsantos/logica.alloy'
p35
tp36
a(S'cs195y-final'
p37
S'aishamidori'
p38
S'aishamidori/cs195y-final'
p39
tp40
a(S'bootstrap-base-song-for-live9'
p41
S'Binomio'
p42
S'Binomio/bootstrap-base-song-for-live9'
p43
tp44
a(S'Architetture'
p45
S'CsUnipa'
p46
S'CsUnipa/Architetture'
p47
tp48
a(S'websecmodel'
p49
S'devd'
p50
S'devd/websecmodel'
p51
tp52
a(S'alloy_book'
p53
S'fstakem'
p54
S'fstakem/alloy_book'
p55
tp56
a(S'track-52314'
p57
S'z64'
p58
S'z64/track-52314'
p59
tp60
a(S'alloy-tutorial'
p61
S'rossgore'
p62
S'rossgore/alloy-tutorial'
p63
tp64
a(S'hero_chamber'
p65
S'usdivad'
p66
S'usdivad/hero_chamber'
p67
tp68
a(S'ArcherCraft_Maya'
p69
S'ArcherCraftStore'
p70
S'ArcherCraftStore/ArcherCraft_Maya'
p71
tp72
a(S'ada_sib'
p73
S'usdivad'
p74
S'usdivad/ada_sib'
p75
tp76
a(S'ReliableDataTransfer'
p77
S'millerns'
p78
S'millerns/ReliableDataTransfer'
p79
tp80
a(S'teslamusic'
p81
S'cpmpercussion'
p82
S'cpmpercussion/teslamusic'
p83
tp84
a(S'amazon-snapshot-spec'
p85
S'pron'
p86
S'pron/amazon-snapshot-spec'
p87
tp88
a(S'zigbee-alloy-svn-to-git'
p89
S'BGCX261'
p90
S'BGCX261/zigbee-alloy-svn-to-git'
p91
tp92
a(S'maya_model'
p93
S'mravella'
p94
S'mravella/maya_model'
p95
tp96
a(S'projetoDeLogica'
p97
S'felippeSales'
p98
S'felippeSales/projetoDeLogica'
p99
tp100
a(S'midihack'
p101
S'DavW'
p102
S'DavW/midihack'
p103
tp104
a(S'Ableton-Live-tools'
p105
S'danielbayley'
p106
S'danielbayley/Ableton-Live-tools'
p107
tp108
a(S'js-live-api-humanize-midi-clips'
p109
S'adamjmurray'
p110
S'adamjmurray/js-live-api-humanize-midi-clips'
p111
tp112
a(S'mIRC-BattleArena'
p113
S'Iyouboushi'
p114
S'Iyouboushi/mIRC-BattleArena'
p115
tp116
a(S'occiware.github.io'
p117
S'occiware'
p118
S'occiware/occiware.github.io'
p119
tp120
a(S'alloy-fish'
p121
S'lorin'
p122
S'lorin/alloy-fish'
p123
tp124
a(S'Alloy-Model-of-MCA'
p125
S'SaberMirzaei'
p126
S'SaberMirzaei/Alloy-Model-of-MCA'
p127
tp128
a(S'alloy-coin'
p129
S'kepae'
p130
S'kepae/alloy-coin'
p131
tp132
a(S'logica.alloy'
p133
S'samueltcsantos'
p134
S'samueltcsantos/logica.alloy'
p135
tp136
a(S'cs195y-final'
p137
S'aishamidori'
p138
S'aishamidori/cs195y-final'
p139
tp140
a(S'bootstrap-base-song-for-live9'
p141
S'Binomio'
p142
S'Binomio/bootstrap-base-song-for-live9'
p143
tp144
a(S'Architetture'
p145
S'CsUnipa'
p146
S'CsUnipa/Architetture'
p147
tp148
a(S'websecmodel'
p149
S'devd'
p150
S'devd/websecmodel'
p151
tp152
a(S'alloy_book'
p153
S'fstakem'
p154
S'fstakem/alloy_book'
p155
tp156
a(S'track-52314'
p157
S'z64'
p158
S'z64/track-52314'
p159
tp160
a(S'alloy-tutorial'
p161
S'rossgore'
p162
S'rossgore/alloy-tutorial'
p163
tp164
a(S'hero_chamber'
p165
S'usdivad'
p166
S'usdivad/hero_chamber'
p167
tp168
a(S'ArcherCraft_Maya'
p169
S'ArcherCraftStore'
p170
S'ArcherCraftStore/ArcherCraft_Maya'
p171
tp172
a(S'ada_sib'
p173
S'usdivad'
p174
S'usdivad/ada_sib'
p175
tp176
a(S'ReliableDataTransfer'
p177
S'millerns'
p178
S'millerns/ReliableDataTransfer'
p179
tp180
a(S'teslamusic'
p181
S'cpmpercussion'
p182
S'cpmpercussion/teslamusic'
p183
tp184
a(S'amazon-snapshot-spec'
p185
S'pron'
p186
S'pron/amazon-snapshot-spec'
p187
tp188
a(S'zigbee-alloy-svn-to-git'
p189
S'BGCX261'
p190
S'BGCX261/zigbee-alloy-svn-to-git'
p191
tp192
a(S'maya_model'
p193
S'mravella'
p194
S'mravella/maya_model'
p195
tp196
a(S'projetoDeLogica'
p197
S'felippeSales'
p198
S'felippeSales/projetoDeLogica'
p199
tp200
a(S'midihack'
p201
S'DavW'
p202
S'DavW/midihack'
p203
tp204
a(S'Ableton-Live-tools'
p205
S'danielbayley'
p206
S'danielbayley/Ableton-Live-tools'
p207
tp208
a(S'js-live-api-humanize-midi-clips'
p209
S'adamjmurray'
p210
S'adamjmurray/js-live-api-humanize-midi-clips'
p211
tp212
a(S'mIRC-BattleArena'
p213
S'Iyouboushi'
p214
S'Iyouboushi/mIRC-BattleArena'
p215
tp216
a(S'occiware.github.io'
p217
S'occiware'
p218
S'occiware/occiware.github.io'
p219
tp220
a(S'alloy-fish'
p221
S'lorin'
p222
S'lorin/alloy-fish'
p223
tp224
a(S'Alloy-Model-of-MCA'
p225
S'SaberMirzaei'
p226
S'SaberMirzaei/Alloy-Model-of-MCA'
p227
tp228
a(S'alloy-coin'
p229
S'kepae'
p230
S'kepae/alloy-coin'
p231
tp232
a(S'logica.alloy'
p233
S'samueltcsantos'
p234
S'samueltcsantos/logica.alloy'
p235
tp236
a(S'cs195y-final'
p237
S'aishamidori'
p238
S'aishamidori/cs195y-final'
p239
tp240
a(S'bootstrap-base-song-for-live9'
p241
S'Binomio'
p242
S'Binomio/bootstrap-base-song-for-live9'
p243
tp244
a(S'Architetture'
p245
S'CsUnipa'
p246
S'CsUnipa/Architetture'
p247
tp248
a(S'websecmodel'
p249
S'devd'
p250
S'devd/websecmodel'
p251
tp252
a(S'alloy_book'
p253
S'fstakem'
p254
S'fstakem/alloy_book'
p255
tp256
a(S'track-52314'
p257
S'z64'
p258
S'z64/track-52314'
p259
tp260
a(S'alloy-tutorial'
p261
S'rossgore'
p262
S'rossgore/alloy-tutorial'
p263
tp264
a(S'hero_chamber'
p265
S'usdivad'
p266
S'usdivad/hero_chamber'
p267
tp268
a(S'ArcherCraft_Maya'
p269
S'ArcherCraftStore'
p270
S'ArcherCraftStore/ArcherCraft_Maya'
p271
tp272
a(S'ada_sib'
p273
S'usdivad'
p274
S'usdivad/ada_sib'
p275
tp276
a(S'ReliableDataTransfer'
p277
S'millerns'
p278
S'millerns/ReliableDataTransfer'
p279
tp280
a(S'teslamusic'
p281
S'cpmpercussion'
p282
S'cpmpercussion/teslamusic'
p283
tp284
a(S'amazon-snapshot-spec'
p285
S'pron'
p286
S'pron/amazon-snapshot-spec'
p287
tp288
a(S'zigbee-alloy-svn-to-git'
p289
S'BGCX261'
p290
S'BGCX261/zigbee-alloy-svn-to-git'
p291
tp292
a(S'maya_model'
p293
S'mravella'
p294
S'mravella/maya_model'
p295
tp296
a(S'projetoDeLogica'
p297
S'felippeSales'
p298
S'felippeSales/projetoDeLogica'
p299
tp300
a.