(lp0
(S'amuse'
p1
S'amusecode'
p2
S'amusecode/amuse'
p3
tp4
a(S'ancientreligions'
p5
S'xirsoi'
p6
S'xirsoi/ancientreligions'
p7
tp8
a(S'EU4-equestria-mod'
p9
S'm00nnsplit'
p10
S'm00nnsplit/EU4-equestria-mod'
p11
tp12
a(S'IndustrialMathProgramming'
p13
S'pavan-or'
p14
S'pavan-or/IndustrialMathProgramming'
p15
tp16
a(S'global-optimization'
p17
S'ampl'
p18
S'ampl/global-optimization'
p19
tp20
a(S'DSGE_mod'
p21
S'JohannesPfeifer'
p22
S'JohannesPfeifer/DSGE_mod'
p23
tp24
a(S'fpccheck'
p25
S'proofcert'
p26
S'proofcert/fpccheck'
p27
tp28
a(S'AllenInstituteNeuroML'
p29
S'OpenSourceBrain'
p30
S'OpenSourceBrain/AllenInstituteNeuroML'
p31
tp32
a(S'SCIRunTestData'
p33
S'CIBC-Internal'
p34
S'CIBC-Internal/SCIRunTestData'
p35
tp36
a(S'FwdInvToolkit'
p37
S'SCIInstitute'
p38
S'SCIInstitute/FwdInvToolkit'
p39
tp40
a(S'UIControlAPI'
p41
S'eliw00d'
p42
S'eliw00d/UIControlAPI'
p43
tp44
a(S'OmicronsCheats'
p45
S'lucky13pjn'
p46
S'lucky13pjn/OmicronsCheats'
p47
tp48
a(S'Unit-pack'
p49
S'Feas2016'
p50
S'Feas2016/Unit-pack'
p51
tp52
a(S'coh2-back-to-basics'
p53
S'AGameAnx'
p54
S'AGameAnx/coh2-back-to-basics'
p55
tp56
a(S'Kavli_mbrown'
p57
S'marksubbarao'
p58
S'marksubbarao/Kavli_mbrown'
p59
tp60
a(S'EU4-Heresy-Rising'
p61
S'IntrepidBrit'
p62
S'IntrepidBrit/EU4-Heresy-Rising'
p63
tp64
a(S'Event-picture'
p65
S'Feas2016'
p66
S'Feas2016/Event-picture'
p67
tp68
a(S'org.geppetto.simulator.external'
p69
S'openworm'
p70
S'openworm/org.geppetto.simulator.external'
p71
tp72
a(S'ckii_galego'
p73
S'coegho'
p74
S'coegho/ckii_galego'
p75
tp76
a(S'paper01'
p77
S'ttungl'
p78
S'ttungl/paper01'
p79
tp80
a(S'MyFirstWinConditionPack'
p81
S'eliw00d'
p82
S'eliw00d/MyFirstWinConditionPack'
p83
tp84
a(S'extropt1'
p85
S'andrewpaek'
p86
S'andrewpaek/extropt1'
p87
tp88
a(S'feynarts-mirror'
p89
S'FeynCalc'
p90
S'FeynCalc/feynarts-mirror'
p91
tp92
a(S'EU4-Omega-Mod'
p93
S'GabeKagan'
p94
S'GabeKagan/EU4-Omega-Mod'
p95
tp96
a(S'FeynArts'
p97
S'HEPcodes'
p98
S'HEPcodes/FeynArts'
p99
tp100
a(S'amuse'
p101
S'amusecode'
p102
S'amusecode/amuse'
p103
tp104
a(S'ancientreligions'
p105
S'xirsoi'
p106
S'xirsoi/ancientreligions'
p107
tp108
a(S'EU4-equestria-mod'
p109
S'm00nnsplit'
p110
S'm00nnsplit/EU4-equestria-mod'
p111
tp112
a(S'IndustrialMathProgramming'
p113
S'pavan-or'
p114
S'pavan-or/IndustrialMathProgramming'
p115
tp116
a(S'global-optimization'
p117
S'ampl'
p118
S'ampl/global-optimization'
p119
tp120
a(S'DSGE_mod'
p121
S'JohannesPfeifer'
p122
S'JohannesPfeifer/DSGE_mod'
p123
tp124
a(S'fpccheck'
p125
S'proofcert'
p126
S'proofcert/fpccheck'
p127
tp128
a(S'AllenInstituteNeuroML'
p129
S'OpenSourceBrain'
p130
S'OpenSourceBrain/AllenInstituteNeuroML'
p131
tp132
a(S'SCIRunTestData'
p133
S'CIBC-Internal'
p134
S'CIBC-Internal/SCIRunTestData'
p135
tp136
a(S'FwdInvToolkit'
p137
S'SCIInstitute'
p138
S'SCIInstitute/FwdInvToolkit'
p139
tp140
a(S'UIControlAPI'
p141
S'eliw00d'
p142
S'eliw00d/UIControlAPI'
p143
tp144
a(S'OmicronsCheats'
p145
S'lucky13pjn'
p146
S'lucky13pjn/OmicronsCheats'
p147
tp148
a(S'Unit-pack'
p149
S'Feas2016'
p150
S'Feas2016/Unit-pack'
p151
tp152
a(S'coh2-back-to-basics'
p153
S'AGameAnx'
p154
S'AGameAnx/coh2-back-to-basics'
p155
tp156
a(S'Kavli_mbrown'
p157
S'marksubbarao'
p158
S'marksubbarao/Kavli_mbrown'
p159
tp160
a(S'EU4-Heresy-Rising'
p161
S'IntrepidBrit'
p162
S'IntrepidBrit/EU4-Heresy-Rising'
p163
tp164
a(S'Event-picture'
p165
S'Feas2016'
p166
S'Feas2016/Event-picture'
p167
tp168
a(S'org.geppetto.simulator.external'
p169
S'openworm'
p170
S'openworm/org.geppetto.simulator.external'
p171
tp172
a(S'ckii_galego'
p173
S'coegho'
p174
S'coegho/ckii_galego'
p175
tp176
a(S'paper01'
p177
S'ttungl'
p178
S'ttungl/paper01'
p179
tp180
a(S'MyFirstWinConditionPack'
p181
S'eliw00d'
p182
S'eliw00d/MyFirstWinConditionPack'
p183
tp184
a(S'extropt1'
p185
S'andrewpaek'
p186
S'andrewpaek/extropt1'
p187
tp188
a(S'feynarts-mirror'
p189
S'FeynCalc'
p190
S'FeynCalc/feynarts-mirror'
p191
tp192
a(S'EU4-Omega-Mod'
p193
S'GabeKagan'
p194
S'GabeKagan/EU4-Omega-Mod'
p195
tp196
a(S'FeynArts'
p197
S'HEPcodes'
p198
S'HEPcodes/FeynArts'
p199
tp200
a(S'amuse'
p201
S'amusecode'
p202
S'amusecode/amuse'
p203
tp204
a(S'ancientreligions'
p205
S'xirsoi'
p206
S'xirsoi/ancientreligions'
p207
tp208
a(S'EU4-equestria-mod'
p209
S'm00nnsplit'
p210
S'm00nnsplit/EU4-equestria-mod'
p211
tp212
a(S'IndustrialMathProgramming'
p213
S'pavan-or'
p214
S'pavan-or/IndustrialMathProgramming'
p215
tp216
a(S'global-optimization'
p217
S'ampl'
p218
S'ampl/global-optimization'
p219
tp220
a(S'DSGE_mod'
p221
S'JohannesPfeifer'
p222
S'JohannesPfeifer/DSGE_mod'
p223
tp224
a(S'fpccheck'
p225
S'proofcert'
p226
S'proofcert/fpccheck'
p227
tp228
a(S'AllenInstituteNeuroML'
p229
S'OpenSourceBrain'
p230
S'OpenSourceBrain/AllenInstituteNeuroML'
p231
tp232
a(S'SCIRunTestData'
p233
S'CIBC-Internal'
p234
S'CIBC-Internal/SCIRunTestData'
p235
tp236
a(S'FwdInvToolkit'
p237
S'SCIInstitute'
p238
S'SCIInstitute/FwdInvToolkit'
p239
tp240
a(S'UIControlAPI'
p241
S'eliw00d'
p242
S'eliw00d/UIControlAPI'
p243
tp244
a(S'OmicronsCheats'
p245
S'lucky13pjn'
p246
S'lucky13pjn/OmicronsCheats'
p247
tp248
a(S'Unit-pack'
p249
S'Feas2016'
p250
S'Feas2016/Unit-pack'
p251
tp252
a(S'coh2-back-to-basics'
p253
S'AGameAnx'
p254
S'AGameAnx/coh2-back-to-basics'
p255
tp256
a(S'Kavli_mbrown'
p257
S'marksubbarao'
p258
S'marksubbarao/Kavli_mbrown'
p259
tp260
a(S'EU4-Heresy-Rising'
p261
S'IntrepidBrit'
p262
S'IntrepidBrit/EU4-Heresy-Rising'
p263
tp264
a(S'Event-picture'
p265
S'Feas2016'
p266
S'Feas2016/Event-picture'
p267
tp268
a(S'org.geppetto.simulator.external'
p269
S'openworm'
p270
S'openworm/org.geppetto.simulator.external'
p271
tp272
a(S'ckii_galego'
p273
S'coegho'
p274
S'coegho/ckii_galego'
p275
tp276
a(S'paper01'
p277
S'ttungl'
p278
S'ttungl/paper01'
p279
tp280
a(S'MyFirstWinConditionPack'
p281
S'eliw00d'
p282
S'eliw00d/MyFirstWinConditionPack'
p283
tp284
a(S'extropt1'
p285
S'andrewpaek'
p286
S'andrewpaek/extropt1'
p287
tp288
a(S'feynarts-mirror'
p289
S'FeynCalc'
p290
S'FeynCalc/feynarts-mirror'
p291
tp292
a(S'EU4-Omega-Mod'
p293
S'GabeKagan'
p294
S'GabeKagan/EU4-Omega-Mod'
p295
tp296
a(S'FeynArts'
p297
S'HEPcodes'
p298
S'HEPcodes/FeynArts'
p299
tp300
a.