(lp0
(S'aggregate-1'
p1
S'polysome'
p2
S'polysome/aggregate-1'
p3
tp4
a(S'jet'
p5
S'brettwooldridge'
p6
S'brettwooldridge/jet'
p7
tp8
a(S'rrd-antlr4'
p9
S'bkiers'
p10
S'bkiers/rrd-antlr4'
p11
tp12
a(S'er'
p13
S'fenollp'
p14
S'fenollp/er'
p15
tp16
a(S'Pixhawk_OS_Hardware'
p17
S'3drobotics'
p18
S'3drobotics/Pixhawk_OS_Hardware'
p19
tp20
a(S'java-semantic-diff'
p21
S'le-moulin-studio'
p22
S'le-moulin-studio/java-semantic-diff'
p23
tp24
a(S'Ogu'
p25
S'lnds'
p26
S'lnds/Ogu'
p27
tp28
a(S'py3antlr4book'
p29
S'jszheng'
p30
S'jszheng/py3antlr4book'
p31
tp32
a(S'perl6-ANTLR4'
p33
S'drforr'
p34
S'drforr/perl6-ANTLR4'
p35
tp36
a(S'antlr4-grammar-postgresql'
p37
S'tunnelvisionlabs'
p38
S'tunnelvisionlabs/antlr4-grammar-postgresql'
p39
tp40
a(S'grammars-v4'
p41
S'lrlucena'
p42
S'lrlucena/grammars-v4'
p43
tp44
a(S'pcre-parser'
p45
S'bkiers'
p46
S'bkiers/pcre-parser'
p47
tp48
a(S'papa-carlos-aunt'
p49
S'nightscape'
p50
S'nightscape/papa-carlos-aunt'
p51
tp52
a(S'HackaZynq'
p53
S'AnttiLukats'
p54
S'AnttiLukats/HackaZynq'
p55
tp56
a(S'oli-java'
p57
S'oli-lang'
p58
S'oli-lang/oli-java'
p59
tp60
a(S'Soft-Propeller'
p61
S'AnttiLukats'
p62
S'AnttiLukats/Soft-Propeller'
p63
tp64
a(S'PGN-parser'
p65
S'bkiers'
p66
S'bkiers/PGN-parser'
p67
tp68
a(S'jerl5'
p69
S'claesjac'
p70
S'claesjac/jerl5'
p71
tp72
a(S'lab.clj.antlr'
p73
S'mobileink'
p74
S'mobileink/lab.clj.antlr'
p75
tp76
a(S'JavafryskJ'
p77
S'wandernauta'
p78
S'wandernauta/JavafryskJ'
p79
tp80
a(S'xpath3-parser'
p81
S'exquery'
p82
S'exquery/xpath3-parser'
p83
tp84
a(S'miod'
p85
S'exhu'
p86
S'exhu/miod'
p87
tp88
a(S'bard'
p89
S'adobni'
p90
S'adobni/bard'
p91
tp92
a(S'osinfo-antlr'
p93
S'rgolangh'
p94
S'rgolangh/osinfo-antlr'
p95
tp96
a(S'adl_ebnf'
p97
S'aanastasiou'
p98
S'aanastasiou/adl_ebnf'
p99
tp100
a(S'aggregate-1'
p101
S'polysome'
p102
S'polysome/aggregate-1'
p103
tp104
a(S'jet'
p105
S'brettwooldridge'
p106
S'brettwooldridge/jet'
p107
tp108
a(S'rrd-antlr4'
p109
S'bkiers'
p110
S'bkiers/rrd-antlr4'
p111
tp112
a(S'er'
p113
S'fenollp'
p114
S'fenollp/er'
p115
tp116
a(S'Pixhawk_OS_Hardware'
p117
S'3drobotics'
p118
S'3drobotics/Pixhawk_OS_Hardware'
p119
tp120
a(S'java-semantic-diff'
p121
S'le-moulin-studio'
p122
S'le-moulin-studio/java-semantic-diff'
p123
tp124
a(S'Ogu'
p125
S'lnds'
p126
S'lnds/Ogu'
p127
tp128
a(S'py3antlr4book'
p129
S'jszheng'
p130
S'jszheng/py3antlr4book'
p131
tp132
a(S'perl6-ANTLR4'
p133
S'drforr'
p134
S'drforr/perl6-ANTLR4'
p135
tp136
a(S'antlr4-grammar-postgresql'
p137
S'tunnelvisionlabs'
p138
S'tunnelvisionlabs/antlr4-grammar-postgresql'
p139
tp140
a(S'grammars-v4'
p141
S'lrlucena'
p142
S'lrlucena/grammars-v4'
p143
tp144
a(S'pcre-parser'
p145
S'bkiers'
p146
S'bkiers/pcre-parser'
p147
tp148
a(S'papa-carlos-aunt'
p149
S'nightscape'
p150
S'nightscape/papa-carlos-aunt'
p151
tp152
a(S'HackaZynq'
p153
S'AnttiLukats'
p154
S'AnttiLukats/HackaZynq'
p155
tp156
a(S'oli-java'
p157
S'oli-lang'
p158
S'oli-lang/oli-java'
p159
tp160
a(S'Soft-Propeller'
p161
S'AnttiLukats'
p162
S'AnttiLukats/Soft-Propeller'
p163
tp164
a(S'PGN-parser'
p165
S'bkiers'
p166
S'bkiers/PGN-parser'
p167
tp168
a(S'jerl5'
p169
S'claesjac'
p170
S'claesjac/jerl5'
p171
tp172
a(S'lab.clj.antlr'
p173
S'mobileink'
p174
S'mobileink/lab.clj.antlr'
p175
tp176
a(S'JavafryskJ'
p177
S'wandernauta'
p178
S'wandernauta/JavafryskJ'
p179
tp180
a(S'xpath3-parser'
p181
S'exquery'
p182
S'exquery/xpath3-parser'
p183
tp184
a(S'miod'
p185
S'exhu'
p186
S'exhu/miod'
p187
tp188
a(S'bard'
p189
S'adobni'
p190
S'adobni/bard'
p191
tp192
a(S'osinfo-antlr'
p193
S'rgolangh'
p194
S'rgolangh/osinfo-antlr'
p195
tp196
a(S'adl_ebnf'
p197
S'aanastasiou'
p198
S'aanastasiou/adl_ebnf'
p199
tp200
a(S'aggregate-1'
p201
S'polysome'
p202
S'polysome/aggregate-1'
p203
tp204
a(S'jet'
p205
S'brettwooldridge'
p206
S'brettwooldridge/jet'
p207
tp208
a(S'rrd-antlr4'
p209
S'bkiers'
p210
S'bkiers/rrd-antlr4'
p211
tp212
a(S'er'
p213
S'fenollp'
p214
S'fenollp/er'
p215
tp216
a(S'Pixhawk_OS_Hardware'
p217
S'3drobotics'
p218
S'3drobotics/Pixhawk_OS_Hardware'
p219
tp220
a(S'java-semantic-diff'
p221
S'le-moulin-studio'
p222
S'le-moulin-studio/java-semantic-diff'
p223
tp224
a(S'Ogu'
p225
S'lnds'
p226
S'lnds/Ogu'
p227
tp228
a(S'py3antlr4book'
p229
S'jszheng'
p230
S'jszheng/py3antlr4book'
p231
tp232
a(S'perl6-ANTLR4'
p233
S'drforr'
p234
S'drforr/perl6-ANTLR4'
p235
tp236
a(S'antlr4-grammar-postgresql'
p237
S'tunnelvisionlabs'
p238
S'tunnelvisionlabs/antlr4-grammar-postgresql'
p239
tp240
a(S'grammars-v4'
p241
S'lrlucena'
p242
S'lrlucena/grammars-v4'
p243
tp244
a(S'pcre-parser'
p245
S'bkiers'
p246
S'bkiers/pcre-parser'
p247
tp248
a(S'papa-carlos-aunt'
p249
S'nightscape'
p250
S'nightscape/papa-carlos-aunt'
p251
tp252
a(S'HackaZynq'
p253
S'AnttiLukats'
p254
S'AnttiLukats/HackaZynq'
p255
tp256
a(S'oli-java'
p257
S'oli-lang'
p258
S'oli-lang/oli-java'
p259
tp260
a(S'Soft-Propeller'
p261
S'AnttiLukats'
p262
S'AnttiLukats/Soft-Propeller'
p263
tp264
a(S'PGN-parser'
p265
S'bkiers'
p266
S'bkiers/PGN-parser'
p267
tp268
a(S'jerl5'
p269
S'claesjac'
p270
S'claesjac/jerl5'
p271
tp272
a(S'lab.clj.antlr'
p273
S'mobileink'
p274
S'mobileink/lab.clj.antlr'
p275
tp276
a(S'JavafryskJ'
p277
S'wandernauta'
p278
S'wandernauta/JavafryskJ'
p279
tp280
a(S'xpath3-parser'
p281
S'exquery'
p282
S'exquery/xpath3-parser'
p283
tp284
a(S'miod'
p285
S'exhu'
p286
S'exhu/miod'
p287
tp288
a(S'bard'
p289
S'adobni'
p290
S'adobni/bard'
p291
tp292
a(S'osinfo-antlr'
p293
S'rgolangh'
p294
S'rgolangh/osinfo-antlr'
p295
tp296
a(S'adl_ebnf'
p297
S'aanastasiou'
p298
S'aanastasiou/adl_ebnf'
p299
tp300
a.