(lp0
(S'essential-javascript-links'
p1
S'ericelliott'
p2
S'ericelliott/essential-javascript-links'
p3
tp4
a(S'angular-slick'
p5
S'vasyabigi'
p6
S'vasyabigi/angular-slick'
p7
tp8
a(S'mobile-boilerplate'
p9
S'h5bp'
p10
S'h5bp/mobile-boilerplate'
p11
tp12
a(S'pushy'
p13
S'christophery'
p14
S'christophery/pushy'
p15
tp16
a(S'vagrant-examples'
p17
S'patrickdlee'
p18
S'patrickdlee/vagrant-examples'
p19
tp20
a(S'angular-gestures'
p21
S'wzr1337'
p22
S'wzr1337/angular-gestures'
p23
tp24
a(S'markdown-pdf'
p25
S'alanshaw'
p26
S'alanshaw/markdown-pdf'
p27
tp28
a(S'webdesignerschecklist'
p29
S'grayghostvisuals'
p30
S'grayghostvisuals/webdesignerschecklist'
p31
tp32
a(S'html5boilerplate.com'
p33
S'h5bp'
p34
S'h5bp/html5boilerplate.com'
p35
tp36
a(S'geany-themes'
p37
S'codebrainz'
p38
S'codebrainz/geany-themes'
p39
tp40
a(S'fixubuntu'
p41
S'micahflee'
p42
S'micahflee/fixubuntu'
p43
tp44
a(S'angular-webrtc'
p45
S'mgechev'
p46
S'mgechev/angular-webrtc'
p47
tp48
a(S'startupnotes'
p49
S'gkoberger'
p50
S'gkoberger/startupnotes'
p51
tp52
a(S'fleet-ui'
p53
S'purpleworks'
p54
S'purpleworks/fleet-ui'
p55
tp56
a(S'interactive'
p57
S'twitter'
p58
S'twitter/interactive'
p59
tp60
a(S'ansible-rails'
p61
S'j-mcnally'
p62
S'j-mcnally/ansible-rails'
p63
tp64
a(S'apache-nginx-referral-spam-blacklist'
p65
S'Stevie-Ray'
p66
S'Stevie-Ray/apache-nginx-referral-spam-blacklist'
p67
tp68
a(S'ansible-best-practices'
p69
S'fdavis'
p70
S'fdavis/ansible-best-practices'
p71
tp72
a(S'htaccess'
p73
S'cferdinandi'
p74
S'cferdinandi/htaccess'
p75
tp76
a(S'Harvest'
p77
S'ryanbenson'
p78
S'ryanbenson/Harvest'
p79
tp80
a(S'typo3-cms-speciality-distribution'
p81
S'Ecodev'
p82
S'Ecodev/typo3-cms-speciality-distribution'
p83
tp84
a(S'magento-htaccess'
p85
S'Creare'
p86
S'Creare/magento-htaccess'
p87
tp88
a(S'daneden.me'
p89
S'daneden'
p90
S'daneden/daneden.me'
p91
tp92
a(S'logstashbook-code'
p93
S'jamtur01'
p94
S'jamtur01/logstashbook-code'
p95
tp96
a(S'etcfiles'
p97
S'kamipo'
p98
S'kamipo/etcfiles'
p99
tp100
a(S'essential-javascript-links'
p101
S'ericelliott'
p102
S'ericelliott/essential-javascript-links'
p103
tp104
a(S'html5boilerplate.com'
p105
S'h5bp'
p106
S'h5bp/html5boilerplate.com'
p107
tp108
a(S'w3id.org'
p109
S'perma-id'
p110
S'perma-id/w3id.org'
p111
tp112
a(S'mobile-boilerplate'
p113
S'h5bp'
p114
S'h5bp/mobile-boilerplate'
p115
tp116
a(S'pushy'
p117
S'christophery'
p118
S'christophery/pushy'
p119
tp120
a(S'vagrant-examples'
p121
S'patrickdlee'
p122
S'patrickdlee/vagrant-examples'
p123
tp124
a(S'angular-gestures'
p125
S'wzr1337'
p126
S'wzr1337/angular-gestures'
p127
tp128
a(S'markdown-pdf'
p129
S'alanshaw'
p130
S'alanshaw/markdown-pdf'
p131
tp132
a(S'webdesignerschecklist'
p133
S'grayghostvisuals'
p134
S'grayghostvisuals/webdesignerschecklist'
p135
tp136
a(S'geany-themes'
p137
S'codebrainz'
p138
S'codebrainz/geany-themes'
p139
tp140
a(S'angular-slick'
p141
S'vasyabigi'
p142
S'vasyabigi/angular-slick'
p143
tp144
a(S'fixubuntu'
p145
S'micahflee'
p146
S'micahflee/fixubuntu'
p147
tp148
a(S'angular-webrtc'
p149
S'mgechev'
p150
S'mgechev/angular-webrtc'
p151
tp152
a(S'startupnotes'
p153
S'gkoberger'
p154
S'gkoberger/startupnotes'
p155
tp156
a(S'fleet-ui'
p157
S'purpleworks'
p158
S'purpleworks/fleet-ui'
p159
tp160
a(S'interactive'
p161
S'twitter'
p162
S'twitter/interactive'
p163
tp164
a(S'ansible-rails'
p165
S'j-mcnally'
p166
S'j-mcnally/ansible-rails'
p167
tp168
a(S'apache-nginx-referral-spam-blacklist'
p169
S'Stevie-Ray'
p170
S'Stevie-Ray/apache-nginx-referral-spam-blacklist'
p171
tp172
a(S'ansible-best-practices'
p173
S'fdavis'
p174
S'fdavis/ansible-best-practices'
p175
tp176
a(S'htaccess'
p177
S'cferdinandi'
p178
S'cferdinandi/htaccess'
p179
tp180
a(S'Harvest'
p181
S'ryanbenson'
p182
S'ryanbenson/Harvest'
p183
tp184
a(S'typo3-cms-speciality-distribution'
p185
S'Ecodev'
p186
S'Ecodev/typo3-cms-speciality-distribution'
p187
tp188
a(S'magento-htaccess'
p189
S'Creare'
p190
S'Creare/magento-htaccess'
p191
tp192
a(S'daneden.me'
p193
S'daneden'
p194
S'daneden/daneden.me'
p195
tp196
a(S'logstashbook-code'
p197
S'jamtur01'
p198
S'jamtur01/logstashbook-code'
p199
tp200
a(S'essential-javascript-links'
p201
S'ericelliott'
p202
S'ericelliott/essential-javascript-links'
p203
tp204
a(S'angular-slick'
p205
S'vasyabigi'
p206
S'vasyabigi/angular-slick'
p207
tp208
a(S'html5boilerplate.com'
p209
S'h5bp'
p210
S'h5bp/html5boilerplate.com'
p211
tp212
a(S'w3id.org'
p213
S'perma-id'
p214
S'perma-id/w3id.org'
p215
tp216
a(S'mobile-boilerplate'
p217
S'h5bp'
p218
S'h5bp/mobile-boilerplate'
p219
tp220
a(S'pushy'
p221
S'christophery'
p222
S'christophery/pushy'
p223
tp224
a(S'vagrant-examples'
p225
S'patrickdlee'
p226
S'patrickdlee/vagrant-examples'
p227
tp228
a(S'angular-gestures'
p229
S'wzr1337'
p230
S'wzr1337/angular-gestures'
p231
tp232
a(S'markdown-pdf'
p233
S'alanshaw'
p234
S'alanshaw/markdown-pdf'
p235
tp236
a(S'webdesignerschecklist'
p237
S'grayghostvisuals'
p238
S'grayghostvisuals/webdesignerschecklist'
p239
tp240
a(S'geany-themes'
p241
S'codebrainz'
p242
S'codebrainz/geany-themes'
p243
tp244
a(S'fixubuntu'
p245
S'micahflee'
p246
S'micahflee/fixubuntu'
p247
tp248
a(S'angular-webrtc'
p249
S'mgechev'
p250
S'mgechev/angular-webrtc'
p251
tp252
a(S'startupnotes'
p253
S'gkoberger'
p254
S'gkoberger/startupnotes'
p255
tp256
a(S'fleet-ui'
p257
S'purpleworks'
p258
S'purpleworks/fleet-ui'
p259
tp260
a(S'interactive'
p261
S'twitter'
p262
S'twitter/interactive'
p263
tp264
a(S'ansible-rails'
p265
S'j-mcnally'
p266
S'j-mcnally/ansible-rails'
p267
tp268
a(S'apache-nginx-referral-spam-blacklist'
p269
S'Stevie-Ray'
p270
S'Stevie-Ray/apache-nginx-referral-spam-blacklist'
p271
tp272
a(S'ansible-best-practices'
p273
S'fdavis'
p274
S'fdavis/ansible-best-practices'
p275
tp276
a(S'htaccess'
p277
S'cferdinandi'
p278
S'cferdinandi/htaccess'
p279
tp280
a(S'Harvest'
p281
S'ryanbenson'
p282
S'ryanbenson/Harvest'
p283
tp284
a(S'typo3-cms-speciality-distribution'
p285
S'Ecodev'
p286
S'Ecodev/typo3-cms-speciality-distribution'
p287
tp288
a(S'magento-htaccess'
p289
S'Creare'
p290
S'Creare/magento-htaccess'
p291
tp292
a(S'daneden.me'
p293
S'daneden'
p294
S'daneden/daneden.me'
p295
tp296
a(S'logstashbook-code'
p297
S'jamtur01'
p298
S'jamtur01/logstashbook-code'
p299
tp300
a.