(lp0
(S'Cumulus'
p1
S'SalesforceFoundation'
p2
S'SalesforceFoundation/Cumulus'
p3
tp4
a(S'apex-mdapi'
p5
S'financialforcedev'
p6
S'financialforcedev/apex-mdapi'
p7
tp8
a(S'Milestones-PM'
p9
S'ForceDotComLabs'
p10
S'ForceDotComLabs/Milestones-PM'
p11
tp12
a(S'SmartFactory-for-Force.com'
p13
S'mbotos'
p14
S'mbotos/SmartFactory-for-Force.com'
p15
tp16
a(S'fflib-apex-common'
p17
S'financialforcedev'
p18
S'financialforcedev/fflib-apex-common'
p19
tp20
a(S'declarative-lookup-rollup-summaries'
p21
S'afawcett'
p22
S'afawcett/declarative-lookup-rollup-summaries'
p23
tp24
a(S'twilio-salesforce'
p25
S'twilio'
p26
S'twilio/twilio-salesforce'
p27
tp28
a(S'sfdc-trigger-framework'
p29
S'kevinohara80'
p30
S'kevinohara80/sfdc-trigger-framework'
p31
tp32
a(S'StratoSource'
p33
S'StratoSource'
p34
S'StratoSource/StratoSource'
p35
tp36
a(S'Batch-Entry-for-Salesforce.com'
p37
S'SalesforceFoundation'
p38
S'SalesforceFoundation/Batch-Entry-for-Salesforce.com'
p39
tp40
a(S'df12-deployment-tools'
p41
S'financialforcedev'
p42
S'financialforcedev/df12-deployment-tools'
p43
tp44
a(S'Salesforce-Lookup-Rollup-Summaries'
p45
S'abhinavguptas'
p46
S'abhinavguptas/Salesforce-Lookup-Rollup-Summaries'
p47
tp48
a(S'Automated-Testing-for-Force.com'
p49
S'mbotos'
p50
S'mbotos/Automated-Testing-for-Force.com'
p51
tp52
a(S'visualforce-table-grid'
p53
S'Up2Go'
p54
S'Up2Go/visualforce-table-grid'
p55
tp56
a(S'df12-apex-enterprise-patterns'
p57
S'financialforcedev'
p58
S'financialforcedev/df12-apex-enterprise-patterns'
p59
tp60
a(S'Visualforce-Multiselect-Picklist'
p61
S'metadaddy-sfdc'
p62
S'metadaddy-sfdc/Visualforce-Multiselect-Picklist'
p63
tp64
a(S'sObject-Remote'
p65
S'TehNrd'
p66
S'TehNrd/sObject-Remote'
p67
tp68
a(S'apex-toolingapi'
p69
S'afawcett'
p70
S'afawcett/apex-toolingapi'
p71
tp72
a(S'Force.com-Helper-Classes'
p73
S'kevinohara80'
p74
S'kevinohara80/Force.com-Helper-Classes'
p75
tp76
a(S'sfdc-oauth-playground'
p77
S'jesperfj'
p78
S'jesperfj/sfdc-oauth-playground'
p79
tp80
a(S'fflib-apex-mocks'
p81
S'financialforcedev'
p82
S'financialforcedev/fflib-apex-mocks'
p83
tp84
a(S'cinnamon'
p85
S'forcedotcom'
p86
S'forcedotcom/cinnamon'
p87
tp88
a(S'ForceDotComSprintWall'
p89
S'financialforcedev'
p90
S'financialforcedev/ForceDotComSprintWall'
p91
tp92
a(S'MavensMate-Templates'
p93
S'joeferraro'
p94
S'joeferraro/MavensMate-Templates'
p95
tp96
a(S'Salesforce-Test-Factory'
p97
S'dhoechst'
p98
S'dhoechst/Salesforce-Test-Factory'
p99
tp100
a(S'apex-mdapi'
p101
S'financialforcedev'
p102
S'financialforcedev/apex-mdapi'
p103
tp104
a(S'Milestones-PM'
p105
S'ForceDotComLabs'
p106
S'ForceDotComLabs/Milestones-PM'
p107
tp108
a(S'SmartFactory-for-Force.com'
p109
S'mbotos'
p110
S'mbotos/SmartFactory-for-Force.com'
p111
tp112
a(S'fflib-apex-common'
p113
S'financialforcedev'
p114
S'financialforcedev/fflib-apex-common'
p115
tp116
a(S'declarative-lookup-rollup-summaries'
p117
S'afawcett'
p118
S'afawcett/declarative-lookup-rollup-summaries'
p119
tp120
a(S'twilio-salesforce'
p121
S'twilio'
p122
S'twilio/twilio-salesforce'
p123
tp124
a(S'sfdc-trigger-framework'
p125
S'kevinohara80'
p126
S'kevinohara80/sfdc-trigger-framework'
p127
tp128
a(S'Cumulus'
p129
S'SalesforceFoundation'
p130
S'SalesforceFoundation/Cumulus'
p131
tp132
a(S'StratoSource'
p133
S'StratoSource'
p134
S'StratoSource/StratoSource'
p135
tp136
a(S'Batch-Entry-for-Salesforce.com'
p137
S'SalesforceFoundation'
p138
S'SalesforceFoundation/Batch-Entry-for-Salesforce.com'
p139
tp140
a(S'df12-deployment-tools'
p141
S'financialforcedev'
p142
S'financialforcedev/df12-deployment-tools'
p143
tp144
a(S'Salesforce-Lookup-Rollup-Summaries'
p145
S'abhinavguptas'
p146
S'abhinavguptas/Salesforce-Lookup-Rollup-Summaries'
p147
tp148
a(S'Automated-Testing-for-Force.com'
p149
S'mbotos'
p150
S'mbotos/Automated-Testing-for-Force.com'
p151
tp152
a(S'visualforce-table-grid'
p153
S'Up2Go'
p154
S'Up2Go/visualforce-table-grid'
p155
tp156
a(S'df12-apex-enterprise-patterns'
p157
S'financialforcedev'
p158
S'financialforcedev/df12-apex-enterprise-patterns'
p159
tp160
a(S'Visualforce-Multiselect-Picklist'
p161
S'metadaddy-sfdc'
p162
S'metadaddy-sfdc/Visualforce-Multiselect-Picklist'
p163
tp164
a(S'sObject-Remote'
p165
S'TehNrd'
p166
S'TehNrd/sObject-Remote'
p167
tp168
a(S'Force.com-Helper-Classes'
p169
S'kevinohara80'
p170
S'kevinohara80/Force.com-Helper-Classes'
p171
tp172
a(S'apex-toolingapi'
p173
S'afawcett'
p174
S'afawcett/apex-toolingapi'
p175
tp176
a(S'sfdc-oauth-playground'
p177
S'jesperfj'
p178
S'jesperfj/sfdc-oauth-playground'
p179
tp180
a(S'fflib-apex-mocks'
p181
S'financialforcedev'
p182
S'financialforcedev/fflib-apex-mocks'
p183
tp184
a(S'cinnamon'
p185
S'forcedotcom'
p186
S'forcedotcom/cinnamon'
p187
tp188
a(S'ForceDotComSprintWall'
p189
S'financialforcedev'
p190
S'financialforcedev/ForceDotComSprintWall'
p191
tp192
a(S'MobileTemplates-JumpstartApp'
p193
S'developerforce'
p194
S'developerforce/MobileTemplates-JumpstartApp'
p195
tp196
a(S'MavensMate-Templates'
p197
S'joeferraro'
p198
S'joeferraro/MavensMate-Templates'
p199
tp200
a(S'declarative-lookup-rollup-summaries'
p201
S'afawcett'
p202
S'afawcett/declarative-lookup-rollup-summaries'
p203
tp204
a(S'apex-mdapi'
p205
S'financialforcedev'
p206
S'financialforcedev/apex-mdapi'
p207
tp208
a(S'Milestones-PM'
p209
S'ForceDotComLabs'
p210
S'ForceDotComLabs/Milestones-PM'
p211
tp212
a(S'SmartFactory-for-Force.com'
p213
S'mbotos'
p214
S'mbotos/SmartFactory-for-Force.com'
p215
tp216
a(S'fflib-apex-common'
p217
S'financialforcedev'
p218
S'financialforcedev/fflib-apex-common'
p219
tp220
a(S'twilio-salesforce'
p221
S'twilio'
p222
S'twilio/twilio-salesforce'
p223
tp224
a(S'sfdc-trigger-framework'
p225
S'kevinohara80'
p226
S'kevinohara80/sfdc-trigger-framework'
p227
tp228
a(S'Cumulus'
p229
S'SalesforceFoundation'
p230
S'SalesforceFoundation/Cumulus'
p231
tp232
a(S'StratoSource'
p233
S'StratoSource'
p234
S'StratoSource/StratoSource'
p235
tp236
a(S'Batch-Entry-for-Salesforce.com'
p237
S'SalesforceFoundation'
p238
S'SalesforceFoundation/Batch-Entry-for-Salesforce.com'
p239
tp240
a(S'df12-deployment-tools'
p241
S'financialforcedev'
p242
S'financialforcedev/df12-deployment-tools'
p243
tp244
a(S'Salesforce-Lookup-Rollup-Summaries'
p245
S'abhinavguptas'
p246
S'abhinavguptas/Salesforce-Lookup-Rollup-Summaries'
p247
tp248
a(S'Automated-Testing-for-Force.com'
p249
S'mbotos'
p250
S'mbotos/Automated-Testing-for-Force.com'
p251
tp252
a(S'visualforce-table-grid'
p253
S'Up2Go'
p254
S'Up2Go/visualforce-table-grid'
p255
tp256
a(S'df12-apex-enterprise-patterns'
p257
S'financialforcedev'
p258
S'financialforcedev/df12-apex-enterprise-patterns'
p259
tp260
a(S'Visualforce-Multiselect-Picklist'
p261
S'metadaddy-sfdc'
p262
S'metadaddy-sfdc/Visualforce-Multiselect-Picklist'
p263
tp264
a(S'sObject-Remote'
p265
S'TehNrd'
p266
S'TehNrd/sObject-Remote'
p267
tp268
a(S'apex-toolingapi'
p269
S'afawcett'
p270
S'afawcett/apex-toolingapi'
p271
tp272
a(S'Force.com-Helper-Classes'
p273
S'kevinohara80'
p274
S'kevinohara80/Force.com-Helper-Classes'
p275
tp276
a(S'sfdc-oauth-playground'
p277
S'jesperfj'
p278
S'jesperfj/sfdc-oauth-playground'
p279
tp280
a(S'fflib-apex-mocks'
p281
S'financialforcedev'
p282
S'financialforcedev/fflib-apex-mocks'
p283
tp284
a(S'cinnamon'
p285
S'forcedotcom'
p286
S'forcedotcom/cinnamon'
p287
tp288
a(S'ForceDotComSprintWall'
p289
S'financialforcedev'
p290
S'financialforcedev/ForceDotComSprintWall'
p291
tp292
a(S'Salesforce-Test-Factory'
p293
S'dhoechst'
p294
S'dhoechst/Salesforce-Test-Factory'
p295
tp296
a(S'MobileTemplates-JumpstartApp'
p297
S'developerforce'
p298
S'developerforce/MobileTemplates-JumpstartApp'
p299
tp300
a.