(lp0
(S'XcodeServer-API-Docs'
p1
S'czechboy0'
p2
S'czechboy0/XcodeServer-API-Docs'
p3
tp4
a(S'apidocs'
p5
S'the-grid'
p6
S'the-grid/apidocs'
p7
tp8
a(S'gooddata-api-docs'
p9
S'gooddata'
p10
S'gooddata/gooddata-api-docs'
p11
tp12
a(S'api'
p13
S'fakturoid'
p14
S'fakturoid/api'
p15
tp16
a(S'REST-main'
p17
S'ascribe'
p18
S'ascribe/REST-main'
p19
tp20
a(S'api-blueprint-focus-booster'
p21
S'saamo'
p22
S'saamo/api-blueprint-focus-booster'
p23
tp24
a(S'api'
p25
S'HiTask'
p26
S'HiTask/api'
p27
tp28
a(S'slash-developers'
p29
S'contentful'
p30
S'contentful/slash-developers'
p31
tp32
a(S'youxiaapi'
p33
S'greensea'
p34
S'greensea/youxiaapi'
p35
tp36
a(S'rnv-api'
p37
S'silsha'
p38
S'silsha/rnv-api'
p39
tp40
a(S'api.scaleway.com'
p41
S'scaleway'
p42
S'scaleway/api.scaleway.com'
p43
tp44
a(S'rainmachine-api'
p45
S'nicupavel'
p46
S'nicupavel/rainmachine-api'
p47
tp48
a(S'dealini-api'
p49
S'MatthiasEgli'
p50
S'MatthiasEgli/dealini-api'
p51
tp52
a(S'MarketStem'
p53
S'marketstem'
p54
S'marketstem/MarketStem'
p55
tp56
a(S'atmosphere-apiary-docs'
p57
S'iPlantCollaborativeOpenSource'
p58
S'iPlantCollaborativeOpenSource/atmosphere-apiary-docs'
p59
tp60
a(S'documentation'
p61
S'plantbreeding'
p62
S'plantbreeding/documentation'
p63
tp64
a(S'gizwits_api'
p65
S'ax003d'
p66
S'ax003d/gizwits_api'
p67
tp68
a(S'MOM_APIary'
p69
S'elsafy'
p70
S'elsafy/MOM_APIary'
p71
tp72
a(S'scheduler-donut'
p73
S'mallowigi'
p74
S'mallowigi/scheduler-donut'
p75
tp76
a(S'API'
p77
S'SIMKL'
p78
S'SIMKL/API'
p79
tp80
a(S'ekbapi'
p81
S'linkeddatacenter'
p82
S'linkeddatacenter/ekbapi'
p83
tp84
a(S'livingroomofsatoshi'
p85
S'livingroomofsatoshi'
p86
S'livingroomofsatoshi/livingroomofsatoshi'
p87
tp88
a(S'instela-api'
p89
S'thehivecluster'
p90
S'thehivecluster/instela-api'
p91
tp92
a(S'delijn-api'
p93
S'MichielDeMey'
p94
S'MichielDeMey/delijn-api'
p95
tp96
a(S'public-api-docs'
p97
S'InitialState'
p98
S'InitialState/public-api-docs'
p99
tp100
a(S'XcodeServer-API-Docs'
p101
S'czechboy0'
p102
S'czechboy0/XcodeServer-API-Docs'
p103
tp104
a(S'apidocs'
p105
S'the-grid'
p106
S'the-grid/apidocs'
p107
tp108
a(S'gooddata-api-docs'
p109
S'gooddata'
p110
S'gooddata/gooddata-api-docs'
p111
tp112
a(S'api'
p113
S'fakturoid'
p114
S'fakturoid/api'
p115
tp116
a(S'REST-main'
p117
S'ascribe'
p118
S'ascribe/REST-main'
p119
tp120
a(S'api-blueprint-focus-booster'
p121
S'saamo'
p122
S'saamo/api-blueprint-focus-booster'
p123
tp124
a(S'api'
p125
S'HiTask'
p126
S'HiTask/api'
p127
tp128
a(S'slash-developers'
p129
S'contentful'
p130
S'contentful/slash-developers'
p131
tp132
a(S'youxiaapi'
p133
S'greensea'
p134
S'greensea/youxiaapi'
p135
tp136
a(S'rnv-api'
p137
S'silsha'
p138
S'silsha/rnv-api'
p139
tp140
a(S'api.scaleway.com'
p141
S'scaleway'
p142
S'scaleway/api.scaleway.com'
p143
tp144
a(S'rainmachine-api'
p145
S'nicupavel'
p146
S'nicupavel/rainmachine-api'
p147
tp148
a(S'dealini-api'
p149
S'MatthiasEgli'
p150
S'MatthiasEgli/dealini-api'
p151
tp152
a(S'MarketStem'
p153
S'marketstem'
p154
S'marketstem/MarketStem'
p155
tp156
a(S'atmosphere-apiary-docs'
p157
S'iPlantCollaborativeOpenSource'
p158
S'iPlantCollaborativeOpenSource/atmosphere-apiary-docs'
p159
tp160
a(S'documentation'
p161
S'plantbreeding'
p162
S'plantbreeding/documentation'
p163
tp164
a(S'gizwits_api'
p165
S'ax003d'
p166
S'ax003d/gizwits_api'
p167
tp168
a(S'MOM_APIary'
p169
S'elsafy'
p170
S'elsafy/MOM_APIary'
p171
tp172
a(S'scheduler-donut'
p173
S'mallowigi'
p174
S'mallowigi/scheduler-donut'
p175
tp176
a(S'API'
p177
S'SIMKL'
p178
S'SIMKL/API'
p179
tp180
a(S'ekbapi'
p181
S'linkeddatacenter'
p182
S'linkeddatacenter/ekbapi'
p183
tp184
a(S'livingroomofsatoshi'
p185
S'livingroomofsatoshi'
p186
S'livingroomofsatoshi/livingroomofsatoshi'
p187
tp188
a(S'instela-api'
p189
S'thehivecluster'
p190
S'thehivecluster/instela-api'
p191
tp192
a(S'delijn-api'
p193
S'MichielDeMey'
p194
S'MichielDeMey/delijn-api'
p195
tp196
a(S'public-api-docs'
p197
S'InitialState'
p198
S'InitialState/public-api-docs'
p199
tp200
a(S'XcodeServer-API-Docs'
p201
S'czechboy0'
p202
S'czechboy0/XcodeServer-API-Docs'
p203
tp204
a(S'apidocs'
p205
S'the-grid'
p206
S'the-grid/apidocs'
p207
tp208
a(S'gooddata-api-docs'
p209
S'gooddata'
p210
S'gooddata/gooddata-api-docs'
p211
tp212
a(S'api'
p213
S'fakturoid'
p214
S'fakturoid/api'
p215
tp216
a(S'REST-main'
p217
S'ascribe'
p218
S'ascribe/REST-main'
p219
tp220
a(S'api-blueprint-focus-booster'
p221
S'saamo'
p222
S'saamo/api-blueprint-focus-booster'
p223
tp224
a(S'api'
p225
S'HiTask'
p226
S'HiTask/api'
p227
tp228
a(S'slash-developers'
p229
S'contentful'
p230
S'contentful/slash-developers'
p231
tp232
a(S'youxiaapi'
p233
S'greensea'
p234
S'greensea/youxiaapi'
p235
tp236
a(S'rnv-api'
p237
S'silsha'
p238
S'silsha/rnv-api'
p239
tp240
a(S'api.scaleway.com'
p241
S'scaleway'
p242
S'scaleway/api.scaleway.com'
p243
tp244
a(S'rainmachine-api'
p245
S'nicupavel'
p246
S'nicupavel/rainmachine-api'
p247
tp248
a(S'dealini-api'
p249
S'MatthiasEgli'
p250
S'MatthiasEgli/dealini-api'
p251
tp252
a(S'MarketStem'
p253
S'marketstem'
p254
S'marketstem/MarketStem'
p255
tp256
a(S'atmosphere-apiary-docs'
p257
S'iPlantCollaborativeOpenSource'
p258
S'iPlantCollaborativeOpenSource/atmosphere-apiary-docs'
p259
tp260
a(S'documentation'
p261
S'plantbreeding'
p262
S'plantbreeding/documentation'
p263
tp264
a(S'gizwits_api'
p265
S'ax003d'
p266
S'ax003d/gizwits_api'
p267
tp268
a(S'MOM_APIary'
p269
S'elsafy'
p270
S'elsafy/MOM_APIary'
p271
tp272
a(S'scheduler-donut'
p273
S'mallowigi'
p274
S'mallowigi/scheduler-donut'
p275
tp276
a(S'API'
p277
S'SIMKL'
p278
S'SIMKL/API'
p279
tp280
a(S'ekbapi'
p281
S'linkeddatacenter'
p282
S'linkeddatacenter/ekbapi'
p283
tp284
a(S'livingroomofsatoshi'
p285
S'livingroomofsatoshi'
p286
S'livingroomofsatoshi/livingroomofsatoshi'
p287
tp288
a(S'instela-api'
p289
S'thehivecluster'
p290
S'thehivecluster/instela-api'
p291
tp292
a(S'delijn-api'
p293
S'MichielDeMey'
p294
S'MichielDeMey/delijn-api'
p295
tp296
a(S'public-api-docs'
p297
S'InitialState'
p298
S'InitialState/public-api-docs'
p299
tp300
a.