(lp0
(S'Co-dfns'
p1
S'arcfide'
p2
S'arcfide/Co-dfns'
p3
tp4
a(S'APLEditor'
p5
S'blakemcbride'
p6
S'blakemcbride/APLEditor'
p7
tp8
a(S'vecdb'
p9
S'Dyalog'
p10
S'Dyalog/vecdb'
p11
tp12
a(S'bb'
p13
S'Dyalog'
p14
S'Dyalog/bb'
p15
tp16
a(S'apl-pkg'
p17
S'TieDyedDevil'
p18
S'TieDyedDevil/apl-pkg'
p19
tp20
a(S'AWPL'
p21
S'alexcweiner'
p22
S'alexcweiner/AWPL'
p23
tp24
a(S'APLUnit'
p25
S'Gianfrancoalongi'
p26
S'Gianfrancoalongi/APLUnit'
p27
tp28
a(S'APLComponentFiles'
p29
S'blakemcbride'
p30
S'blakemcbride/APLComponentFiles'
p31
tp32
a(S'DeepakChopra_APL'
p33
S'StoneCypher'
p34
S'StoneCypher/DeepakChopra_APL'
p35
tp36
a(S'trying.apl'
p37
S'vendethiel'
p38
S'vendethiel/trying.apl'
p39
tp40
a(S'Selenium'
p41
S'Dyalog'
p42
S'Dyalog/Selenium'
p43
tp44
a(S'MiSites'
p45
S'Dyalog'
p46
S'Dyalog/MiSites'
p47
tp48
a(S'APLEditor'
p49
S'r0ml'
p50
S'r0ml/APLEditor'
p51
tp52
a(S'apl-bayesian-classifier'
p53
S'mattcunningham'
p54
S'mattcunningham/apl-bayesian-classifier'
p55
tp56
a(S'APL.js.User'
p57
S'plj541'
p58
S'plj541/APL.js.User'
p59
tp60
a(S'Collateral-Manager'
p61
S'zaulychny'
p62
S'zaulychny/Collateral-Manager'
p63
tp64
a(S'apl-sha256'
p65
S'TieDyedDevil'
p66
S'TieDyedDevil/apl-sha256'
p67
tp68
a(S'MISCAPL'
p69
S'alexcweiner'
p70
S'alexcweiner/MISCAPL'
p71
tp72
a(S'project-euler-apl'
p73
S'spyrosoft'
p74
S'spyrosoft/project-euler-apl'
p75
tp76
a(S'Selenium'
p77
S'mbaas2'
p78
S'mbaas2/Selenium'
p79
tp80
a(S'test'
p81
S'Infopulse'
p82
S'Infopulse/test'
p83
tp84
a(S'playground'
p85
S'msikalo'
p86
S'msikalo/playground'
p87
tp88
a(S'SAWS'
p89
S'Dyalog'
p90
S'Dyalog/SAWS'
p91
tp92
a(S'apl-nlf'
p93
S'TieDyedDevil'
p94
S'TieDyedDevil/apl-nlf'
p95
tp96
a(S'iso-apl-cf'
p97
S'TieDyedDevil'
p98
S'TieDyedDevil/iso-apl-cf'
p99
tp100
a(S'Co-dfns'
p101
S'arcfide'
p102
S'arcfide/Co-dfns'
p103
tp104
a(S'APLEditor'
p105
S'blakemcbride'
p106
S'blakemcbride/APLEditor'
p107
tp108
a(S'vecdb'
p109
S'Dyalog'
p110
S'Dyalog/vecdb'
p111
tp112
a(S'bb'
p113
S'Dyalog'
p114
S'Dyalog/bb'
p115
tp116
a(S'apl-pkg'
p117
S'TieDyedDevil'
p118
S'TieDyedDevil/apl-pkg'
p119
tp120
a(S'AWPL'
p121
S'alexcweiner'
p122
S'alexcweiner/AWPL'
p123
tp124
a(S'APLUnit'
p125
S'Gianfrancoalongi'
p126
S'Gianfrancoalongi/APLUnit'
p127
tp128
a(S'APLComponentFiles'
p129
S'blakemcbride'
p130
S'blakemcbride/APLComponentFiles'
p131
tp132
a(S'DeepakChopra_APL'
p133
S'StoneCypher'
p134
S'StoneCypher/DeepakChopra_APL'
p135
tp136
a(S'trying.apl'
p137
S'vendethiel'
p138
S'vendethiel/trying.apl'
p139
tp140
a(S'Selenium'
p141
S'Dyalog'
p142
S'Dyalog/Selenium'
p143
tp144
a(S'MiSites'
p145
S'Dyalog'
p146
S'Dyalog/MiSites'
p147
tp148
a(S'APLEditor'
p149
S'r0ml'
p150
S'r0ml/APLEditor'
p151
tp152
a(S'apl-bayesian-classifier'
p153
S'mattcunningham'
p154
S'mattcunningham/apl-bayesian-classifier'
p155
tp156
a(S'APL.js.User'
p157
S'plj541'
p158
S'plj541/APL.js.User'
p159
tp160
a(S'Collateral-Manager'
p161
S'zaulychny'
p162
S'zaulychny/Collateral-Manager'
p163
tp164
a(S'apl-sha256'
p165
S'TieDyedDevil'
p166
S'TieDyedDevil/apl-sha256'
p167
tp168
a(S'MISCAPL'
p169
S'alexcweiner'
p170
S'alexcweiner/MISCAPL'
p171
tp172
a(S'project-euler-apl'
p173
S'spyrosoft'
p174
S'spyrosoft/project-euler-apl'
p175
tp176
a(S'Selenium'
p177
S'mbaas2'
p178
S'mbaas2/Selenium'
p179
tp180
a(S'test'
p181
S'Infopulse'
p182
S'Infopulse/test'
p183
tp184
a(S'playground'
p185
S'msikalo'
p186
S'msikalo/playground'
p187
tp188
a(S'SAWS'
p189
S'Dyalog'
p190
S'Dyalog/SAWS'
p191
tp192
a(S'apl-nlf'
p193
S'TieDyedDevil'
p194
S'TieDyedDevil/apl-nlf'
p195
tp196
a(S'iso-apl-cf'
p197
S'TieDyedDevil'
p198
S'TieDyedDevil/iso-apl-cf'
p199
tp200
a(S'Co-dfns'
p201
S'arcfide'
p202
S'arcfide/Co-dfns'
p203
tp204
a(S'APLEditor'
p205
S'blakemcbride'
p206
S'blakemcbride/APLEditor'
p207
tp208
a(S'vecdb'
p209
S'Dyalog'
p210
S'Dyalog/vecdb'
p211
tp212
a(S'bb'
p213
S'Dyalog'
p214
S'Dyalog/bb'
p215
tp216
a(S'apl-pkg'
p217
S'TieDyedDevil'
p218
S'TieDyedDevil/apl-pkg'
p219
tp220
a(S'AWPL'
p221
S'alexcweiner'
p222
S'alexcweiner/AWPL'
p223
tp224
a(S'APLUnit'
p225
S'Gianfrancoalongi'
p226
S'Gianfrancoalongi/APLUnit'
p227
tp228
a(S'APLComponentFiles'
p229
S'blakemcbride'
p230
S'blakemcbride/APLComponentFiles'
p231
tp232
a(S'DeepakChopra_APL'
p233
S'StoneCypher'
p234
S'StoneCypher/DeepakChopra_APL'
p235
tp236
a(S'trying.apl'
p237
S'vendethiel'
p238
S'vendethiel/trying.apl'
p239
tp240
a(S'Selenium'
p241
S'Dyalog'
p242
S'Dyalog/Selenium'
p243
tp244
a(S'MiSites'
p245
S'Dyalog'
p246
S'Dyalog/MiSites'
p247
tp248
a(S'APLEditor'
p249
S'r0ml'
p250
S'r0ml/APLEditor'
p251
tp252
a(S'apl-bayesian-classifier'
p253
S'mattcunningham'
p254
S'mattcunningham/apl-bayesian-classifier'
p255
tp256
a(S'APL.js.User'
p257
S'plj541'
p258
S'plj541/APL.js.User'
p259
tp260
a(S'Collateral-Manager'
p261
S'zaulychny'
p262
S'zaulychny/Collateral-Manager'
p263
tp264
a(S'apl-sha256'
p265
S'TieDyedDevil'
p266
S'TieDyedDevil/apl-sha256'
p267
tp268
a(S'MISCAPL'
p269
S'alexcweiner'
p270
S'alexcweiner/MISCAPL'
p271
tp272
a(S'project-euler-apl'
p273
S'spyrosoft'
p274
S'spyrosoft/project-euler-apl'
p275
tp276
a(S'Selenium'
p277
S'mbaas2'
p278
S'mbaas2/Selenium'
p279
tp280
a(S'test'
p281
S'Infopulse'
p282
S'Infopulse/test'
p283
tp284
a(S'playground'
p285
S'msikalo'
p286
S'msikalo/playground'
p287
tp288
a(S'SAWS'
p289
S'Dyalog'
p290
S'Dyalog/SAWS'
p291
tp292
a(S'apl-nlf'
p293
S'TieDyedDevil'
p294
S'TieDyedDevil/apl-nlf'
p295
tp296
a(S'iso-apl-cf'
p297
S'TieDyedDevil'
p298
S'TieDyedDevil/iso-apl-cf'
p299
tp300
a.