(lp0
(S'termtile'
p1
S'apaszke'
p2
S'apaszke/termtile'
p3
tp4
a(S'alfred-workflows'
p5
S'franzheidl'
p6
S'franzheidl/alfred-workflows'
p7
tp8
a(S'YosemiteAndElCapitanSystemFontPatcher'
p9
S'dtinth'
p10
S'dtinth/YosemiteAndElCapitanSystemFontPatcher'
p11
tp12
a(S'iOS-Screenshot-Automator'
p13
S'toursprung'
p14
S'toursprung/iOS-Screenshot-Automator'
p15
tp16
a(S'SpotifyControl'
p17
S'dronir'
p18
S'dronir/SpotifyControl'
p19
tp20
a(S'jenkins-app'
p21
S'stisti'
p22
S'stisti/jenkins-app'
p23
tp24
a(S'tree-tools'
p25
S'RobTrew'
p26
S'RobTrew/tree-tools'
p27
tp28
a(S'layouts'
p29
S'jgallen23'
p30
S'jgallen23/layouts'
p31
tp32
a(S'custom-iterm-applescripts-for-alfred'
p33
S'stuartcryan'
p34
S'stuartcryan/custom-iterm-applescripts-for-alfred'
p35
tp36
a(S'templates'
p37
S'lemonmade'
p38
S'lemonmade/templates'
p39
tp40
a(S'LaunchBar-Scripts'
p41
S'Zettt'
p42
S'Zettt/LaunchBar-Scripts'
p43
tp44
a(S'test_files'
p45
S'SheetJS'
p46
S'SheetJS/test_files'
p47
tp48
a(S'hubot-imessage'
p49
S'lazerwalker'
p50
S'lazerwalker/hubot-imessage'
p51
tp52
a(S'open-in-sublime'
p53
S'pjv'
p54
S'pjv/open-in-sublime'
p55
tp56
a(S'madever'
p57
S'sandai'
p58
S'sandai/madever'
p59
tp60
a(S'Apple-ID-AppleScript'
p61
S'aaronfreimark'
p62
S'aaronfreimark/Apple-ID-AppleScript'
p63
tp64
a(S'Open-in-Chrome'
p65
S'lhagan'
p66
S'lhagan/Open-in-Chrome'
p67
tp68
a(S'mac-taskpaper'
p69
S'dataduke'
p70
S'dataduke/mac-taskpaper'
p71
tp72
a(S'coda2-mode-jquery'
p73
S'rayman813'
p74
S'rayman813/coda2-mode-jquery'
p75
tp76
a(S'marked-bonus-pack'
p77
S'kotfu'
p78
S'kotfu/marked-bonus-pack'
p79
tp80
a(S'notes-export'
p81
S'pmatiello'
p82
S'pmatiello/notes-export'
p83
tp84
a(S'evernote-backup'
p85
S'jamietr1'
p86
S'jamietr1/evernote-backup'
p87
tp88
a(S'omnifocus-scripts'
p89
S'dbyler'
p90
S'dbyler/omnifocus-scripts'
p91
tp92
a(S'OpenPlex'
p93
S'wahlmanj'
p94
S'wahlmanj/OpenPlex'
p95
tp96
a(S'Coda-2-Modes'
p97
S'zenangst'
p98
S'zenangst/Coda-2-Modes'
p99
tp100
a(S'termtile'
p101
S'apaszke'
p102
S'apaszke/termtile'
p103
tp104
a(S'alfred-workflows'
p105
S'franzheidl'
p106
S'franzheidl/alfred-workflows'
p107
tp108
a(S'YosemiteAndElCapitanSystemFontPatcher'
p109
S'dtinth'
p110
S'dtinth/YosemiteAndElCapitanSystemFontPatcher'
p111
tp112
a(S'iOS-Screenshot-Automator'
p113
S'toursprung'
p114
S'toursprung/iOS-Screenshot-Automator'
p115
tp116
a(S'SpotifyControl'
p117
S'dronir'
p118
S'dronir/SpotifyControl'
p119
tp120
a(S'jenkins-app'
p121
S'stisti'
p122
S'stisti/jenkins-app'
p123
tp124
a(S'tree-tools'
p125
S'RobTrew'
p126
S'RobTrew/tree-tools'
p127
tp128
a(S'layouts'
p129
S'jgallen23'
p130
S'jgallen23/layouts'
p131
tp132
a(S'custom-iterm-applescripts-for-alfred'
p133
S'stuartcryan'
p134
S'stuartcryan/custom-iterm-applescripts-for-alfred'
p135
tp136
a(S'templates'
p137
S'lemonmade'
p138
S'lemonmade/templates'
p139
tp140
a(S'LaunchBar-Scripts'
p141
S'Zettt'
p142
S'Zettt/LaunchBar-Scripts'
p143
tp144
a(S'test_files'
p145
S'SheetJS'
p146
S'SheetJS/test_files'
p147
tp148
a(S'hubot-imessage'
p149
S'lazerwalker'
p150
S'lazerwalker/hubot-imessage'
p151
tp152
a(S'open-in-sublime'
p153
S'pjv'
p154
S'pjv/open-in-sublime'
p155
tp156
a(S'madever'
p157
S'sandai'
p158
S'sandai/madever'
p159
tp160
a(S'Apple-ID-AppleScript'
p161
S'aaronfreimark'
p162
S'aaronfreimark/Apple-ID-AppleScript'
p163
tp164
a(S'Open-in-Chrome'
p165
S'lhagan'
p166
S'lhagan/Open-in-Chrome'
p167
tp168
a(S'mac-taskpaper'
p169
S'dataduke'
p170
S'dataduke/mac-taskpaper'
p171
tp172
a(S'coda2-mode-jquery'
p173
S'rayman813'
p174
S'rayman813/coda2-mode-jquery'
p175
tp176
a(S'marked-bonus-pack'
p177
S'kotfu'
p178
S'kotfu/marked-bonus-pack'
p179
tp180
a(S'notes-export'
p181
S'pmatiello'
p182
S'pmatiello/notes-export'
p183
tp184
a(S'evernote-backup'
p185
S'jamietr1'
p186
S'jamietr1/evernote-backup'
p187
tp188
a(S'omnifocus-scripts'
p189
S'dbyler'
p190
S'dbyler/omnifocus-scripts'
p191
tp192
a(S'OpenPlex'
p193
S'wahlmanj'
p194
S'wahlmanj/OpenPlex'
p195
tp196
a(S'Coda-2-Modes'
p197
S'zenangst'
p198
S'zenangst/Coda-2-Modes'
p199
tp200
a(S'Apple-ID-AppleScript'
p201
S'brandonusher'
p202
S'brandonusher/Apple-ID-AppleScript'
p203
tp204
a(S'termtile'
p205
S'apaszke'
p206
S'apaszke/termtile'
p207
tp208
a(S'alfred-workflows'
p209
S'franzheidl'
p210
S'franzheidl/alfred-workflows'
p211
tp212
a(S'YosemiteAndElCapitanSystemFontPatcher'
p213
S'dtinth'
p214
S'dtinth/YosemiteAndElCapitanSystemFontPatcher'
p215
tp216
a(S'iOS-Screenshot-Automator'
p217
S'toursprung'
p218
S'toursprung/iOS-Screenshot-Automator'
p219
tp220
a(S'SpotifyControl'
p221
S'dronir'
p222
S'dronir/SpotifyControl'
p223
tp224
a(S'jenkins-app'
p225
S'stisti'
p226
S'stisti/jenkins-app'
p227
tp228
a(S'tree-tools'
p229
S'RobTrew'
p230
S'RobTrew/tree-tools'
p231
tp232
a(S'layouts'
p233
S'jgallen23'
p234
S'jgallen23/layouts'
p235
tp236
a(S'custom-iterm-applescripts-for-alfred'
p237
S'stuartcryan'
p238
S'stuartcryan/custom-iterm-applescripts-for-alfred'
p239
tp240
a(S'templates'
p241
S'lemonmade'
p242
S'lemonmade/templates'
p243
tp244
a(S'LaunchBar-Scripts'
p245
S'Zettt'
p246
S'Zettt/LaunchBar-Scripts'
p247
tp248
a(S'test_files'
p249
S'SheetJS'
p250
S'SheetJS/test_files'
p251
tp252
a(S'hubot-imessage'
p253
S'lazerwalker'
p254
S'lazerwalker/hubot-imessage'
p255
tp256
a(S'madever'
p257
S'sandai'
p258
S'sandai/madever'
p259
tp260
a(S'open-in-sublime'
p261
S'pjv'
p262
S'pjv/open-in-sublime'
p263
tp264
a(S'Apple-ID-AppleScript'
p265
S'aaronfreimark'
p266
S'aaronfreimark/Apple-ID-AppleScript'
p267
tp268
a(S'Open-in-Chrome'
p269
S'lhagan'
p270
S'lhagan/Open-in-Chrome'
p271
tp272
a(S'mac-taskpaper'
p273
S'dataduke'
p274
S'dataduke/mac-taskpaper'
p275
tp276
a(S'coda2-mode-jquery'
p277
S'rayman813'
p278
S'rayman813/coda2-mode-jquery'
p279
tp280
a(S'marked-bonus-pack'
p281
S'kotfu'
p282
S'kotfu/marked-bonus-pack'
p283
tp284
a(S'notes-export'
p285
S'pmatiello'
p286
S'pmatiello/notes-export'
p287
tp288
a(S'evernote-backup'
p289
S'jamietr1'
p290
S'jamietr1/evernote-backup'
p291
tp292
a(S'OpenPlex'
p293
S'wahlmanj'
p294
S'wahlmanj/OpenPlex'
p295
tp296
a(S'omnifocus-scripts'
p297
S'dbyler'
p298
S'dbyler/omnifocus-scripts'
p299
tp300
a.