(lp0
(S'anarki'
p1
S'arclanguage'
p2
S'arclanguage/anarki'
p3
tp4
a(S'hackernews'
p5
S'wting'
p6
S'wting/hackernews'
p7
tp8
a(S'bixo'
p9
S'bixo'
p10
S'bixo/bixo'
p11
tp12
a(S'arc-nu'
p13
S'arclanguage'
p14
S'arclanguage/arc-nu'
p15
tp16
a(S'rainbow'
p17
S'conanite'
p18
S'conanite/rainbow'
p19
tp20
a(S'Reggie'
p21
S'Treeki'
p22
S'Treeki/Reggie'
p23
tp24
a(S'arc2c'
p25
S'sacado'
p26
S'sacado/arc2c'
p27
tp28
a(S'rainbow-js'
p29
S'arclanguage'
p30
S'arclanguage/rainbow-js'
p31
tp32
a(S'ar'
p33
S'awwx'
p34
S'awwx/ar'
p35
tp36
a(S'SweetScript'
p37
S'evanrmurphy'
p38
S'evanrmurphy/SweetScript'
p39
tp40
a(S'arc'
p41
S'rick2047'
p42
S'rick2047/arc'
p43
tp44
a(S'arc'
p45
S'akkartik'
p46
S'akkartik/arc'
p47
tp48
a(S'sehm'
p49
S'hasenj'
p50
S'hasenj/sehm'
p51
tp52
a(S'Data-Hub'
p53
S'lsauer'
p54
S'lsauer/Data-Hub'
p55
tp56
a(S'CDX-Writer'
p57
S'rajbot'
p58
S'rajbot/CDX-Writer'
p59
tp60
a(S'elco'
p61
S'esden'
p62
S'esden/elco'
p63
tp64
a(S'arc-mg'
p65
S'mgiken'
p66
S'mgiken/arc-mg'
p67
tp68
a(S'swank-arc'
p69
S'hchbaw'
p70
S'hchbaw/swank-arc'
p71
tp72
a(S'CDX-Writer'
p73
S'internetarchive'
p74
S'internetarchive/CDX-Writer'
p75
tp76
a(S'webarchive-test-suite'
p77
S'ukwa'
p78
S'ukwa/webarchive-test-suite'
p79
tp80
a(S'hawarp'
p81
S'openpreserve'
p82
S'openpreserve/hawarp'
p83
tp84
a(S'arc'
p85
S'KirinDave'
p86
S'KirinDave/arc'
p87
tp88
a(S'penknife'
p89
S'rocketnia'
p90
S'rocketnia/penknife'
p91
tp92
a(S'lispy-html'
p93
S'evanrmurphy'
p94
S'evanrmurphy/lispy-html'
p95
tp96
a(S'arc'
p97
S'hornbeck'
p98
S'hornbeck/arc'
p99
tp100
a(S'anarki'
p101
S'arclanguage'
p102
S'arclanguage/anarki'
p103
tp104
a(S'hackernews'
p105
S'wting'
p106
S'wting/hackernews'
p107
tp108
a(S'bixo'
p109
S'bixo'
p110
S'bixo/bixo'
p111
tp112
a(S'arc-nu'
p113
S'arclanguage'
p114
S'arclanguage/arc-nu'
p115
tp116
a(S'rainbow'
p117
S'conanite'
p118
S'conanite/rainbow'
p119
tp120
a(S'Reggie'
p121
S'Treeki'
p122
S'Treeki/Reggie'
p123
tp124
a(S'arc2c'
p125
S'sacado'
p126
S'sacado/arc2c'
p127
tp128
a(S'rainbow-js'
p129
S'arclanguage'
p130
S'arclanguage/rainbow-js'
p131
tp132
a(S'ar'
p133
S'awwx'
p134
S'awwx/ar'
p135
tp136
a(S'SweetScript'
p137
S'evanrmurphy'
p138
S'evanrmurphy/SweetScript'
p139
tp140
a(S'arc'
p141
S'rick2047'
p142
S'rick2047/arc'
p143
tp144
a(S'arc'
p145
S'akkartik'
p146
S'akkartik/arc'
p147
tp148
a(S'sehm'
p149
S'hasenj'
p150
S'hasenj/sehm'
p151
tp152
a(S'Data-Hub'
p153
S'lsauer'
p154
S'lsauer/Data-Hub'
p155
tp156
a(S'CDX-Writer'
p157
S'rajbot'
p158
S'rajbot/CDX-Writer'
p159
tp160
a(S'elco'
p161
S'esden'
p162
S'esden/elco'
p163
tp164
a(S'arc-mg'
p165
S'mgiken'
p166
S'mgiken/arc-mg'
p167
tp168
a(S'swank-arc'
p169
S'hchbaw'
p170
S'hchbaw/swank-arc'
p171
tp172
a(S'CDX-Writer'
p173
S'internetarchive'
p174
S'internetarchive/CDX-Writer'
p175
tp176
a(S'webarchive-test-suite'
p177
S'ukwa'
p178
S'ukwa/webarchive-test-suite'
p179
tp180
a(S'hawarp'
p181
S'openpreserve'
p182
S'openpreserve/hawarp'
p183
tp184
a(S'arc'
p185
S'KirinDave'
p186
S'KirinDave/arc'
p187
tp188
a(S'penknife'
p189
S'rocketnia'
p190
S'rocketnia/penknife'
p191
tp192
a(S'lispy-html'
p193
S'evanrmurphy'
p194
S'evanrmurphy/lispy-html'
p195
tp196
a(S'arc'
p197
S'hornbeck'
p198
S'hornbeck/arc'
p199
tp200
a(S'anarki'
p201
S'arclanguage'
p202
S'arclanguage/anarki'
p203
tp204
a(S'hackernews'
p205
S'wting'
p206
S'wting/hackernews'
p207
tp208
a(S'bixo'
p209
S'bixo'
p210
S'bixo/bixo'
p211
tp212
a(S'arc-nu'
p213
S'arclanguage'
p214
S'arclanguage/arc-nu'
p215
tp216
a(S'rainbow'
p217
S'conanite'
p218
S'conanite/rainbow'
p219
tp220
a(S'Reggie'
p221
S'Treeki'
p222
S'Treeki/Reggie'
p223
tp224
a(S'arc2c'
p225
S'sacado'
p226
S'sacado/arc2c'
p227
tp228
a(S'rainbow-js'
p229
S'arclanguage'
p230
S'arclanguage/rainbow-js'
p231
tp232
a(S'ar'
p233
S'awwx'
p234
S'awwx/ar'
p235
tp236
a(S'SweetScript'
p237
S'evanrmurphy'
p238
S'evanrmurphy/SweetScript'
p239
tp240
a(S'arc'
p241
S'rick2047'
p242
S'rick2047/arc'
p243
tp244
a(S'arc'
p245
S'akkartik'
p246
S'akkartik/arc'
p247
tp248
a(S'sehm'
p249
S'hasenj'
p250
S'hasenj/sehm'
p251
tp252
a(S'Data-Hub'
p253
S'lsauer'
p254
S'lsauer/Data-Hub'
p255
tp256
a(S'CDX-Writer'
p257
S'rajbot'
p258
S'rajbot/CDX-Writer'
p259
tp260
a(S'elco'
p261
S'esden'
p262
S'esden/elco'
p263
tp264
a(S'arc-mg'
p265
S'mgiken'
p266
S'mgiken/arc-mg'
p267
tp268
a(S'swank-arc'
p269
S'hchbaw'
p270
S'hchbaw/swank-arc'
p271
tp272
a(S'CDX-Writer'
p273
S'internetarchive'
p274
S'internetarchive/CDX-Writer'
p275
tp276
a(S'webarchive-test-suite'
p277
S'ukwa'
p278
S'ukwa/webarchive-test-suite'
p279
tp280
a(S'hawarp'
p281
S'openpreserve'
p282
S'openpreserve/hawarp'
p283
tp284
a(S'arc'
p285
S'KirinDave'
p286
S'KirinDave/arc'
p287
tp288
a(S'penknife'
p289
S'rocketnia'
p290
S'rocketnia/penknife'
p291
tp292
a(S'lispy-html'
p293
S'evanrmurphy'
p294
S'evanrmurphy/lispy-html'
p295
tp296
a(S'arc'
p297
S'hornbeck'
p298
S'hornbeck/arc'
p299
tp300
a.