(lp0
(S'avocado'
p1
S'ideo'
p2
S'ideo/avocado'
p3
tp4
a(S'Webduino'
p5
S'sirleech'
p6
S'sirleech/Webduino'
p7
tp8
a(S'usbdriveby'
p9
S'samyk'
p10
S'samyk/usbdriveby'
p11
tp12
a(S'OpenLog'
p13
S'sparkfun'
p14
S'sparkfun/OpenLog'
p15
tp16
a(S'TinyWebServer'
p17
S'ovidiucp'
p18
S'ovidiucp/TinyWebServer'
p19
tp20
a(S'KalmanFilter'
p21
S'TKJElectronics'
p22
S'TKJElectronics/KalmanFilter'
p23
tp24
a(S'razor-9dof-ahrs'
p25
S'ptrbrtz'
p26
S'ptrbrtz/razor-9dof-ahrs'
p27
tp28
a(S'arduino-lelo-remote'
p29
S'scanlime'
p30
S'scanlime/arduino-lelo-remote'
p31
tp32
a(S'proxygambit'
p33
S'samyk'
p34
S'samyk/proxygambit'
p35
tp36
a(S'cellphone2'
p37
S'damellis'
p38
S'damellis/cellphone2'
p39
tp40
a(S'logic_analyzer'
p41
S'gillham'
p42
S'gillham/logic_analyzer'
p43
tp44
a(S'ArduinoPlaysTimberman'
p45
S'vheun'
p46
S'vheun/ArduinoPlaysTimberman'
p47
tp48
a(S'AHRobot'
p49
S'JJulio'
p50
S'JJulio/AHRobot'
p51
tp52
a(S'Example-Sketch-for-IMU-including-Kalman-filter'
p53
S'TKJElectronics'
p54
S'TKJElectronics/Example-Sketch-for-IMU-including-Kalman-filter'
p55
tp56
a(S'iCloudHacker'
p57
S'knoy'
p58
S'knoy/iCloudHacker'
p59
tp60
a(S'stc1000p'
p61
S'matsstaff'
p62
S'matsstaff/stc1000p'
p63
tp64
a(S'emonTxFirmware'
p65
S'openenergymonitor'
p66
S'openenergymonitor/emonTxFirmware'
p67
tp68
a(S'Raw-IR-decoder-for-Arduino'
p69
S'adafruit'
p70
S'adafruit/Raw-IR-decoder-for-Arduino'
p71
tp72
a(S'TinyGPSPlus'
p73
S'mikalhart'
p74
S'mikalhart/TinyGPSPlus'
p75
tp76
a(S'OptiLoader'
p77
S'WestfW'
p78
S'WestfW/OptiLoader'
p79
tp80
a(S'rainbow'
p81
S'ozh'
p82
S'ozh/rainbow'
p83
tp84
a(S'arduino_sketches'
p85
S'nickgammon'
p86
S'nickgammon/arduino_sketches'
p87
tp88
a(S'openct'
p89
S'tricorderproject'
p90
S'tricorderproject/openct'
p91
tp92
a(S'plotclock'
p93
S'9a'
p94
S'9a/plotclock'
p95
tp96
a(S'RFM12B'
p97
S'LowPowerLab'
p98
S'LowPowerLab/RFM12B'
p99
tp100
a(S'Talkie'
p101
S'going-digital'
p102
S'going-digital/Talkie'
p103
tp104
a(S'avocado'
p105
S'ideo'
p106
S'ideo/avocado'
p107
tp108
a(S'Webduino'
p109
S'sirleech'
p110
S'sirleech/Webduino'
p111
tp112
a(S'usbdriveby'
p113
S'samyk'
p114
S'samyk/usbdriveby'
p115
tp116
a(S'OpenLog'
p117
S'sparkfun'
p118
S'sparkfun/OpenLog'
p119
tp120
a(S'TinyWebServer'
p121
S'ovidiucp'
p122
S'ovidiucp/TinyWebServer'
p123
tp124
a(S'KalmanFilter'
p125
S'TKJElectronics'
p126
S'TKJElectronics/KalmanFilter'
p127
tp128
a(S'razor-9dof-ahrs'
p129
S'ptrbrtz'
p130
S'ptrbrtz/razor-9dof-ahrs'
p131
tp132
a(S'arduino-lelo-remote'
p133
S'scanlime'
p134
S'scanlime/arduino-lelo-remote'
p135
tp136
a(S'proxygambit'
p137
S'samyk'
p138
S'samyk/proxygambit'
p139
tp140
a(S'cellphone2'
p141
S'damellis'
p142
S'damellis/cellphone2'
p143
tp144
a(S'logic_analyzer'
p145
S'gillham'
p146
S'gillham/logic_analyzer'
p147
tp148
a(S'ArduinoPlaysTimberman'
p149
S'vheun'
p150
S'vheun/ArduinoPlaysTimberman'
p151
tp152
a(S'AHRobot'
p153
S'JJulio'
p154
S'JJulio/AHRobot'
p155
tp156
a(S'Example-Sketch-for-IMU-including-Kalman-filter'
p157
S'TKJElectronics'
p158
S'TKJElectronics/Example-Sketch-for-IMU-including-Kalman-filter'
p159
tp160
a(S'iCloudHacker'
p161
S'knoy'
p162
S'knoy/iCloudHacker'
p163
tp164
a(S'stc1000p'
p165
S'matsstaff'
p166
S'matsstaff/stc1000p'
p167
tp168
a(S'emonTxFirmware'
p169
S'openenergymonitor'
p170
S'openenergymonitor/emonTxFirmware'
p171
tp172
a(S'Raw-IR-decoder-for-Arduino'
p173
S'adafruit'
p174
S'adafruit/Raw-IR-decoder-for-Arduino'
p175
tp176
a(S'TinyGPSPlus'
p177
S'mikalhart'
p178
S'mikalhart/TinyGPSPlus'
p179
tp180
a(S'OptiLoader'
p181
S'WestfW'
p182
S'WestfW/OptiLoader'
p183
tp184
a(S'rainbow'
p185
S'ozh'
p186
S'ozh/rainbow'
p187
tp188
a(S'arduino_sketches'
p189
S'nickgammon'
p190
S'nickgammon/arduino_sketches'
p191
tp192
a(S'openct'
p193
S'tricorderproject'
p194
S'tricorderproject/openct'
p195
tp196
a(S'plotclock'
p197
S'9a'
p198
S'9a/plotclock'
p199
tp200
a(S'avocado'
p201
S'ideo'
p202
S'ideo/avocado'
p203
tp204
a(S'Webduino'
p205
S'sirleech'
p206
S'sirleech/Webduino'
p207
tp208
a(S'usbdriveby'
p209
S'samyk'
p210
S'samyk/usbdriveby'
p211
tp212
a(S'OpenLog'
p213
S'sparkfun'
p214
S'sparkfun/OpenLog'
p215
tp216
a(S'TinyWebServer'
p217
S'ovidiucp'
p218
S'ovidiucp/TinyWebServer'
p219
tp220
a(S'KalmanFilter'
p221
S'TKJElectronics'
p222
S'TKJElectronics/KalmanFilter'
p223
tp224
a(S'razor-9dof-ahrs'
p225
S'ptrbrtz'
p226
S'ptrbrtz/razor-9dof-ahrs'
p227
tp228
a(S'arduino-lelo-remote'
p229
S'scanlime'
p230
S'scanlime/arduino-lelo-remote'
p231
tp232
a(S'proxygambit'
p233
S'samyk'
p234
S'samyk/proxygambit'
p235
tp236
a(S'cellphone2'
p237
S'damellis'
p238
S'damellis/cellphone2'
p239
tp240
a(S'logic_analyzer'
p241
S'gillham'
p242
S'gillham/logic_analyzer'
p243
tp244
a(S'ArduinoPlaysTimberman'
p245
S'vheun'
p246
S'vheun/ArduinoPlaysTimberman'
p247
tp248
a(S'AHRobot'
p249
S'JJulio'
p250
S'JJulio/AHRobot'
p251
tp252
a(S'Example-Sketch-for-IMU-including-Kalman-filter'
p253
S'TKJElectronics'
p254
S'TKJElectronics/Example-Sketch-for-IMU-including-Kalman-filter'
p255
tp256
a(S'iCloudHacker'
p257
S'knoy'
p258
S'knoy/iCloudHacker'
p259
tp260
a(S'stc1000p'
p261
S'matsstaff'
p262
S'matsstaff/stc1000p'
p263
tp264
a(S'emonTxFirmware'
p265
S'openenergymonitor'
p266
S'openenergymonitor/emonTxFirmware'
p267
tp268
a(S'Raw-IR-decoder-for-Arduino'
p269
S'adafruit'
p270
S'adafruit/Raw-IR-decoder-for-Arduino'
p271
tp272
a(S'TinyGPSPlus'
p273
S'mikalhart'
p274
S'mikalhart/TinyGPSPlus'
p275
tp276
a(S'OptiLoader'
p277
S'WestfW'
p278
S'WestfW/OptiLoader'
p279
tp280
a(S'rainbow'
p281
S'ozh'
p282
S'ozh/rainbow'
p283
tp284
a(S'arduino_sketches'
p285
S'nickgammon'
p286
S'nickgammon/arduino_sketches'
p287
tp288
a(S'openct'
p289
S'tricorderproject'
p290
S'tricorderproject/openct'
p291
tp292
a(S'plotclock'
p293
S'9a'
p294
S'9a/plotclock'
p295
tp296
a(S'RFM12B'
p297
S'LowPowerLab'
p298
S'LowPowerLab/RFM12B'
p299
tp300
a.