(lp0
(S'fuzzdb'
p1
S'rustyrobot'
p2
S'rustyrobot/fuzzdb'
p3
tp4
a(S'zendesk_jwt_sso_examples'
p5
S'zendesk'
p6
S'zendesk/zendesk_jwt_sso_examples'
p7
tp8
a(S'My-Library'
p9
S'david-mark'
p10
S'david-mark/My-Library'
p11
tp12
a(S'easyasp'
p13
S'coldstone'
p14
S'coldstone/easyasp'
p15
tp16
a(S'SQLServerPerformanceDashboard'
p17
S'oazabir'
p18
S'oazabir/SQLServerPerformanceDashboard'
p19
tp20
a(S'Classic-ASP-VBScript-OAuth'
p21
S'sdesapio'
p22
S'sdesapio/Classic-ASP-VBScript-OAuth'
p23
tp24
a(S'Deleporter'
p25
S'SteveSanderson'
p26
S'SteveSanderson/Deleporter'
p27
tp28
a(S'AdvancedTomato-V2'
p29
S'Jackysi'
p30
S'Jackysi/AdvancedTomato-V2'
p31
tp32
a(S'HammerFlex'
p33
S'ChrisHammond'
p34
S'ChrisHammond/HammerFlex'
p35
tp36
a(S'cmdsql'
p37
S'NetSPI'
p38
S'NetSPI/cmdsql'
p39
tp40
a(S'HTML5-Photo-Upload'
p41
S'DynamsoftRD'
p42
S'DynamsoftRD/HTML5-Photo-Upload'
p43
tp44
a(S'IISDeploy'
p45
S'tshwangq'
p46
S'tshwangq/IISDeploy'
p47
tp48
a(S'UmbracoOAuthLogin'
p49
S'PetrSnobelt'
p50
S'PetrSnobelt/UmbracoOAuthLogin'
p51
tp52
a(S'CommerceStarterKit'
p53
S'OXXAS'
p54
S'OXXAS/CommerceStarterKit'
p55
tp56
a(S'Nettest'
p57
S'anderssonjohan'
p58
S'anderssonjohan/Nettest'
p59
tp60
a(S'Quicksilver'
p61
S'episerver'
p62
S'episerver/Quicksilver'
p63
tp64
a(S'debug-recipes'
p65
S'lowleveldesign'
p66
S'lowleveldesign/debug-recipes'
p67
tp68
a(S'ExtNetModernUI'
p69
S'fedecheller'
p70
S'fedecheller/ExtNetModernUI'
p71
tp72
a(S'demo'
p73
S'xuliuzhu1834'
p74
S'xuliuzhu1834/demo'
p75
tp76
a(S'zblogasp'
p77
S'zblogcn'
p78
S'zblogcn/zblogasp'
p79
tp80
a(S'aspJSON'
p81
S'rcdmk'
p82
S'rcdmk/aspJSON'
p83
tp84
a(S'ClassicASP-FirePHP'
p85
S'dmeagor'
p86
S'dmeagor/ClassicASP-FirePHP'
p87
tp88
a(S'shockingly-good-2d-lightning-effects-unity'
p89
S'tutsplus'
p90
S'tutsplus/shockingly-good-2d-lightning-effects-unity'
p91
tp92
a(S'ASP.NET'
p93
S'Dheer-Rajpoot'
p94
S'Dheer-Rajpoot/ASP.NET'
p95
tp96
a(S'netopenspace'
p97
S'agross'
p98
S'agross/netopenspace'
p99
tp100
a(S'fuzzdb'
p101
S'rustyrobot'
p102
S'rustyrobot/fuzzdb'
p103
tp104
a(S'zendesk_jwt_sso_examples'
p105
S'zendesk'
p106
S'zendesk/zendesk_jwt_sso_examples'
p107
tp108
a(S'My-Library'
p109
S'david-mark'
p110
S'david-mark/My-Library'
p111
tp112
a(S'easyasp'
p113
S'coldstone'
p114
S'coldstone/easyasp'
p115
tp116
a(S'SQLServerPerformanceDashboard'
p117
S'oazabir'
p118
S'oazabir/SQLServerPerformanceDashboard'
p119
tp120
a(S'Classic-ASP-VBScript-OAuth'
p121
S'sdesapio'
p122
S'sdesapio/Classic-ASP-VBScript-OAuth'
p123
tp124
a(S'Deleporter'
p125
S'SteveSanderson'
p126
S'SteveSanderson/Deleporter'
p127
tp128
a(S'AdvancedTomato-V2'
p129
S'Jackysi'
p130
S'Jackysi/AdvancedTomato-V2'
p131
tp132
a(S'HammerFlex'
p133
S'ChrisHammond'
p134
S'ChrisHammond/HammerFlex'
p135
tp136
a(S'cmdsql'
p137
S'NetSPI'
p138
S'NetSPI/cmdsql'
p139
tp140
a(S'HTML5-Photo-Upload'
p141
S'DynamsoftRD'
p142
S'DynamsoftRD/HTML5-Photo-Upload'
p143
tp144
a(S'IISDeploy'
p145
S'tshwangq'
p146
S'tshwangq/IISDeploy'
p147
tp148
a(S'UmbracoOAuthLogin'
p149
S'PetrSnobelt'
p150
S'PetrSnobelt/UmbracoOAuthLogin'
p151
tp152
a(S'CommerceStarterKit'
p153
S'OXXAS'
p154
S'OXXAS/CommerceStarterKit'
p155
tp156
a(S'Nettest'
p157
S'anderssonjohan'
p158
S'anderssonjohan/Nettest'
p159
tp160
a(S'Quicksilver'
p161
S'episerver'
p162
S'episerver/Quicksilver'
p163
tp164
a(S'debug-recipes'
p165
S'lowleveldesign'
p166
S'lowleveldesign/debug-recipes'
p167
tp168
a(S'ExtNetModernUI'
p169
S'fedecheller'
p170
S'fedecheller/ExtNetModernUI'
p171
tp172
a(S'demo'
p173
S'xuliuzhu1834'
p174
S'xuliuzhu1834/demo'
p175
tp176
a(S'zblogasp'
p177
S'zblogcn'
p178
S'zblogcn/zblogasp'
p179
tp180
a(S'aspJSON'
p181
S'rcdmk'
p182
S'rcdmk/aspJSON'
p183
tp184
a(S'ClassicASP-FirePHP'
p185
S'dmeagor'
p186
S'dmeagor/ClassicASP-FirePHP'
p187
tp188
a(S'shockingly-good-2d-lightning-effects-unity'
p189
S'tutsplus'
p190
S'tutsplus/shockingly-good-2d-lightning-effects-unity'
p191
tp192
a(S'ASP.NET'
p193
S'Dheer-Rajpoot'
p194
S'Dheer-Rajpoot/ASP.NET'
p195
tp196
a(S'netopenspace'
p197
S'agross'
p198
S'agross/netopenspace'
p199
tp200
a(S'fuzzdb'
p201
S'rustyrobot'
p202
S'rustyrobot/fuzzdb'
p203
tp204
a(S'zendesk_jwt_sso_examples'
p205
S'zendesk'
p206
S'zendesk/zendesk_jwt_sso_examples'
p207
tp208
a(S'My-Library'
p209
S'david-mark'
p210
S'david-mark/My-Library'
p211
tp212
a(S'easyasp'
p213
S'coldstone'
p214
S'coldstone/easyasp'
p215
tp216
a(S'SQLServerPerformanceDashboard'
p217
S'oazabir'
p218
S'oazabir/SQLServerPerformanceDashboard'
p219
tp220
a(S'Classic-ASP-VBScript-OAuth'
p221
S'sdesapio'
p222
S'sdesapio/Classic-ASP-VBScript-OAuth'
p223
tp224
a(S'Deleporter'
p225
S'SteveSanderson'
p226
S'SteveSanderson/Deleporter'
p227
tp228
a(S'AdvancedTomato-V2'
p229
S'Jackysi'
p230
S'Jackysi/AdvancedTomato-V2'
p231
tp232
a(S'HammerFlex'
p233
S'ChrisHammond'
p234
S'ChrisHammond/HammerFlex'
p235
tp236
a(S'cmdsql'
p237
S'NetSPI'
p238
S'NetSPI/cmdsql'
p239
tp240
a(S'HTML5-Photo-Upload'
p241
S'DynamsoftRD'
p242
S'DynamsoftRD/HTML5-Photo-Upload'
p243
tp244
a(S'IISDeploy'
p245
S'tshwangq'
p246
S'tshwangq/IISDeploy'
p247
tp248
a(S'UmbracoOAuthLogin'
p249
S'PetrSnobelt'
p250
S'PetrSnobelt/UmbracoOAuthLogin'
p251
tp252
a(S'CommerceStarterKit'
p253
S'OXXAS'
p254
S'OXXAS/CommerceStarterKit'
p255
tp256
a(S'Nettest'
p257
S'anderssonjohan'
p258
S'anderssonjohan/Nettest'
p259
tp260
a(S'Quicksilver'
p261
S'episerver'
p262
S'episerver/Quicksilver'
p263
tp264
a(S'debug-recipes'
p265
S'lowleveldesign'
p266
S'lowleveldesign/debug-recipes'
p267
tp268
a(S'ExtNetModernUI'
p269
S'fedecheller'
p270
S'fedecheller/ExtNetModernUI'
p271
tp272
a(S'demo'
p273
S'xuliuzhu1834'
p274
S'xuliuzhu1834/demo'
p275
tp276
a(S'zblogasp'
p277
S'zblogcn'
p278
S'zblogcn/zblogasp'
p279
tp280
a(S'aspJSON'
p281
S'rcdmk'
p282
S'rcdmk/aspJSON'
p283
tp284
a(S'ClassicASP-FirePHP'
p285
S'dmeagor'
p286
S'dmeagor/ClassicASP-FirePHP'
p287
tp288
a(S'shockingly-good-2d-lightning-effects-unity'
p289
S'tutsplus'
p290
S'tutsplus/shockingly-good-2d-lightning-effects-unity'
p291
tp292
a(S'ASP.NET'
p293
S'Dheer-Rajpoot'
p294
S'Dheer-Rajpoot/ASP.NET'
p295
tp296
a(S'netopenspace'
p297
S'agross'
p298
S'agross/netopenspace'
p299
tp300
a.