(lp0
(S'devcenter-spring-mvc-hibernate'
p1
S'heroku'
p2
S'heroku/devcenter-spring-mvc-hibernate'
p3
tp4
a(S'spring-roo-in-action-examples'
p5
S'krimple'
p6
S'krimple/spring-roo-in-action-examples'
p7
tp8
a(S'scalac-aspects'
p9
S'gkossakowski'
p10
S'gkossakowski/scalac-aspects'
p11
tp12
a(S'lotsofcoresbook2code'
p13
S'ryancoleman'
p14
S'ryancoleman/lotsofcoresbook2code'
p15
tp16
a(S'State-Records-Search'
p17
S'srnsw'
p18
S'srnsw/State-Records-Search'
p19
tp20
a(S'neerogi'
p21
S'neerogi'
p22
S'neerogi/neerogi'
p23
tp24
a(S'myexam'
p25
S'luyanfei'
p26
S'luyanfei/myexam'
p27
tp28
a(S'getsporty-Old'
p29
S'darkhorsesports'
p30
S'darkhorsesports/getsporty-Old'
p31
tp32
a(S'lri-reboot-2.0'
p33
S'inbloom'
p34
S'inbloom/lri-reboot-2.0'
p35
tp36
a(S'FantasyBasketball'
p37
S'Dolmio'
p38
S'Dolmio/FantasyBasketball'
p39
tp40
a(S'lifeforachild'
p41
S'serenapotts'
p42
S'serenapotts/lifeforachild'
p43
tp44
a(S'esup-dematec'
p45
S'EsupPortail'
p46
S'EsupPortail/esup-dematec'
p47
tp48
a(S'fanbar'
p49
S'dav0'
p50
S'dav0/fanbar'
p51
tp52
a(S'hedwig-weaver'
p53
S'joey-he8x'
p54
S'joey-he8x/hedwig-weaver'
p55
tp56
a(S'churchserviceplanner'
p57
S'raginggoblin'
p58
S'raginggoblin/churchserviceplanner'
p59
tp60
a(S'SpringRoo'
p61
S'nishantraut'
p62
S'nishantraut/SpringRoo'
p63
tp64
a(S'contacts'
p65
S'jbbarquero'
p66
S'jbbarquero/contacts'
p67
tp68
a(S'qrserver'
p69
S'volodymyrd'
p70
S'volodymyrd/qrserver'
p71
tp72
a(S'roo-yelp'
p73
S'ithunt'
p74
S'ithunt/roo-yelp'
p75
tp76
a(S'cpmnws'
p77
S'vbonamy'
p78
S'vbonamy/cpmnws'
p79
tp80
a(S'PizzaShopApp'
p81
S'vishal-biyani'
p82
S'vishal-biyani/PizzaShopApp'
p83
tp84
a(S'openshift-test'
p85
S'nathanpower78'
p86
S'nathanpower78/openshift-test'
p87
tp88
a(S'ToyExample-LayeredAspects'
p89
S'rcaa'
p90
S'rcaa/ToyExample-LayeredAspects'
p91
tp92
a(S'GolfAdminRoo'
p93
S'eugenebell'
p94
S'eugenebell/GolfAdminRoo'
p95
tp96
a(S'rentistry'
p97
S'Fingel'
p98
S'Fingel/rentistry'
p99
tp100
a(S'devcenter-spring-mvc-hibernate'
p101
S'heroku'
p102
S'heroku/devcenter-spring-mvc-hibernate'
p103
tp104
a(S'spring-roo-in-action-examples'
p105
S'krimple'
p106
S'krimple/spring-roo-in-action-examples'
p107
tp108
a(S'scalac-aspects'
p109
S'gkossakowski'
p110
S'gkossakowski/scalac-aspects'
p111
tp112
a(S'lotsofcoresbook2code'
p113
S'ryancoleman'
p114
S'ryancoleman/lotsofcoresbook2code'
p115
tp116
a(S'State-Records-Search'
p117
S'srnsw'
p118
S'srnsw/State-Records-Search'
p119
tp120
a(S'neerogi'
p121
S'neerogi'
p122
S'neerogi/neerogi'
p123
tp124
a(S'myexam'
p125
S'luyanfei'
p126
S'luyanfei/myexam'
p127
tp128
a(S'getsporty-Old'
p129
S'darkhorsesports'
p130
S'darkhorsesports/getsporty-Old'
p131
tp132
a(S'lri-reboot-2.0'
p133
S'inbloom'
p134
S'inbloom/lri-reboot-2.0'
p135
tp136
a(S'FantasyBasketball'
p137
S'Dolmio'
p138
S'Dolmio/FantasyBasketball'
p139
tp140
a(S'lifeforachild'
p141
S'serenapotts'
p142
S'serenapotts/lifeforachild'
p143
tp144
a(S'esup-dematec'
p145
S'EsupPortail'
p146
S'EsupPortail/esup-dematec'
p147
tp148
a(S'fanbar'
p149
S'dav0'
p150
S'dav0/fanbar'
p151
tp152
a(S'hedwig-weaver'
p153
S'joey-he8x'
p154
S'joey-he8x/hedwig-weaver'
p155
tp156
a(S'churchserviceplanner'
p157
S'raginggoblin'
p158
S'raginggoblin/churchserviceplanner'
p159
tp160
a(S'SpringRoo'
p161
S'nishantraut'
p162
S'nishantraut/SpringRoo'
p163
tp164
a(S'contacts'
p165
S'jbbarquero'
p166
S'jbbarquero/contacts'
p167
tp168
a(S'qrserver'
p169
S'volodymyrd'
p170
S'volodymyrd/qrserver'
p171
tp172
a(S'roo-yelp'
p173
S'ithunt'
p174
S'ithunt/roo-yelp'
p175
tp176
a(S'cpmnws'
p177
S'vbonamy'
p178
S'vbonamy/cpmnws'
p179
tp180
a(S'PizzaShopApp'
p181
S'vishal-biyani'
p182
S'vishal-biyani/PizzaShopApp'
p183
tp184
a(S'openshift-test'
p185
S'nathanpower78'
p186
S'nathanpower78/openshift-test'
p187
tp188
a(S'ToyExample-LayeredAspects'
p189
S'rcaa'
p190
S'rcaa/ToyExample-LayeredAspects'
p191
tp192
a(S'GolfAdminRoo'
p193
S'eugenebell'
p194
S'eugenebell/GolfAdminRoo'
p195
tp196
a(S'rentistry'
p197
S'Fingel'
p198
S'Fingel/rentistry'
p199
tp200
a(S'devcenter-spring-mvc-hibernate'
p201
S'heroku'
p202
S'heroku/devcenter-spring-mvc-hibernate'
p203
tp204
a(S'spring-roo-in-action-examples'
p205
S'krimple'
p206
S'krimple/spring-roo-in-action-examples'
p207
tp208
a(S'scalac-aspects'
p209
S'gkossakowski'
p210
S'gkossakowski/scalac-aspects'
p211
tp212
a(S'lotsofcoresbook2code'
p213
S'ryancoleman'
p214
S'ryancoleman/lotsofcoresbook2code'
p215
tp216
a(S'State-Records-Search'
p217
S'srnsw'
p218
S'srnsw/State-Records-Search'
p219
tp220
a(S'neerogi'
p221
S'neerogi'
p222
S'neerogi/neerogi'
p223
tp224
a(S'myexam'
p225
S'luyanfei'
p226
S'luyanfei/myexam'
p227
tp228
a(S'getsporty-Old'
p229
S'darkhorsesports'
p230
S'darkhorsesports/getsporty-Old'
p231
tp232
a(S'lri-reboot-2.0'
p233
S'inbloom'
p234
S'inbloom/lri-reboot-2.0'
p235
tp236
a(S'FantasyBasketball'
p237
S'Dolmio'
p238
S'Dolmio/FantasyBasketball'
p239
tp240
a(S'lifeforachild'
p241
S'serenapotts'
p242
S'serenapotts/lifeforachild'
p243
tp244
a(S'esup-dematec'
p245
S'EsupPortail'
p246
S'EsupPortail/esup-dematec'
p247
tp248
a(S'fanbar'
p249
S'dav0'
p250
S'dav0/fanbar'
p251
tp252
a(S'hedwig-weaver'
p253
S'joey-he8x'
p254
S'joey-he8x/hedwig-weaver'
p255
tp256
a(S'churchserviceplanner'
p257
S'raginggoblin'
p258
S'raginggoblin/churchserviceplanner'
p259
tp260
a(S'SpringRoo'
p261
S'nishantraut'
p262
S'nishantraut/SpringRoo'
p263
tp264
a(S'contacts'
p265
S'jbbarquero'
p266
S'jbbarquero/contacts'
p267
tp268
a(S'qrserver'
p269
S'volodymyrd'
p270
S'volodymyrd/qrserver'
p271
tp272
a(S'roo-yelp'
p273
S'ithunt'
p274
S'ithunt/roo-yelp'
p275
tp276
a(S'cpmnws'
p277
S'vbonamy'
p278
S'vbonamy/cpmnws'
p279
tp280
a(S'PizzaShopApp'
p281
S'vishal-biyani'
p282
S'vishal-biyani/PizzaShopApp'
p283
tp284
a(S'openshift-test'
p285
S'nathanpower78'
p286
S'nathanpower78/openshift-test'
p287
tp288
a(S'ToyExample-LayeredAspects'
p289
S'rcaa'
p290
S'rcaa/ToyExample-LayeredAspects'
p291
tp292
a(S'GolfAdminRoo'
p293
S'eugenebell'
p294
S'eugenebell/GolfAdminRoo'
p295
tp296
a(S'rentistry'
p297
S'Fingel'
p298
S'Fingel/rentistry'
p299
tp300
a.