(lp0
(S'hello-world'
p1
S'docker-library'
p2
S'docker-library/hello-world'
p3
tp4
a(S'Prince-of-Persia-Apple-II'
p5
S'jmechner'
p6
S'jmechner/Prince-of-Persia-Apple-II'
p7
tp8
a(S'cjdns'
p9
S'cjdelisle'
p10
S'cjdelisle/cjdns'
p11
tp12
a(S'asmttpd'
p13
S'nemasu'
p14
S'nemasu/asmttpd'
p15
tp16
a(S'BareMetal-OS'
p17
S'ReturnInfinity'
p18
S'ReturnInfinity/BareMetal-OS'
p19
tp20
a(S'hello-world'
p21
S'leachim6'
p22
S'leachim6/hello-world'
p23
tp24
a(S'raspberrypi'
p25
S'dwelch67'
p26
S'dwelch67/raspberrypi'
p27
tp28
a(S'cpuminer'
p29
S'pooler'
p30
S'pooler/cpuminer'
p31
tp32
a(S'MineAssemble'
p33
S'Overv'
p34
S'Overv/MineAssemble'
p35
tp36
a(S'floppybird'
p37
S'icebreaker'
p38
S'icebreaker/floppybird'
p39
tp40
a(S'pokecrystal'
p41
S'pret'
p42
S'pret/pokecrystal'
p43
tp44
a(S'KnightOS'
p45
S'KnightOS'
p46
S'KnightOS/KnightOS'
p47
tp48
a(S'sinkhole'
p49
S'xoreaxeaxeax'
p50
S'xoreaxeaxeax/sinkhole'
p51
tp52
a(S'pokered'
p53
S'pret'
p54
S'pret/pokered'
p55
tp56
a(S'tgy'
p57
S'sim-'
p58
S'sim-/tgy'
p59
tp60
a(S'asm'
p61
S'0xAX'
p62
S'0xAX/asm'
p63
tp64
a(S'DocumentServer'
p65
S'ONLYOFFICE'
p66
S'ONLYOFFICE/DocumentServer'
p67
tp68
a(S'PiFox'
p69
S'ICTeam28'
p70
S'ICTeam28/PiFox'
p71
tp72
a(S'8086tiny'
p73
S'adriancable'
p74
S'adriancable/8086tiny'
p75
tp76
a(S'Tuff.gb'
p77
S'BonsaiDen'
p78
S'BonsaiDen/Tuff.gb'
p79
tp80
a(S'Unix-1st-Edition-jun72'
p81
S'c3x04'
p82
S'c3x04/Unix-1st-Edition-jun72'
p83
tp84
a(S'Pure64'
p85
S'ReturnInfinity'
p86
S'ReturnInfinity/Pure64'
p87
tp88
a(S'BLHeli'
p89
S'bitdump'
p90
S'bitdump/BLHeli'
p91
tp92
a(S'jonesforth'
p93
S'nornagon'
p94
S'nornagon/jonesforth'
p95
tp96
a(S'regionthree'
p97
S'smealum'
p98
S'smealum/regionthree'
p99
tp100
a(S'hrm-solutions'
p101
S'atesgoral'
p102
S'atesgoral/hrm-solutions'
p103
tp104
a(S'cjdns'
p105
S'cjdelisle'
p106
S'cjdelisle/cjdns'
p107
tp108
a(S'ring'
p109
S'briansmith'
p110
S'briansmith/ring'
p111
tp112
a(S'hello-world'
p113
S'leachim6'
p114
S'leachim6/hello-world'
p115
tp116
a(S'HoustonTracker2'
p117
S'utz82'
p118
S'utz82/HoustonTracker2'
p119
tp120
a(S'KnightOS'
p121
S'KnightOS'
p122
S'KnightOS/KnightOS'
p123
tp124
a(S'Prince-of-Persia-Apple-II'
p125
S'jmechner'
p126
S'jmechner/Prince-of-Persia-Apple-II'
p127
tp128
a(S'asmttpd'
p129
S'nemasu'
p130
S'nemasu/asmttpd'
p131
tp132
a(S'BareMetal-OS'
p133
S'ReturnInfinity'
p134
S'ReturnInfinity/BareMetal-OS'
p135
tp136
a(S'raspberrypi'
p137
S'dwelch67'
p138
S'dwelch67/raspberrypi'
p139
tp140
a(S'cpuminer'
p141
S'pooler'
p142
S'pooler/cpuminer'
p143
tp144
a(S'MineAssemble'
p145
S'Overv'
p146
S'Overv/MineAssemble'
p147
tp148
a(S'floppybird'
p149
S'icebreaker'
p150
S'icebreaker/floppybird'
p151
tp152
a(S'pokecrystal'
p153
S'pret'
p154
S'pret/pokecrystal'
p155
tp156
a(S'sinkhole'
p157
S'xoreaxeaxeax'
p158
S'xoreaxeaxeax/sinkhole'
p159
tp160
a(S'pokered'
p161
S'pret'
p162
S'pret/pokered'
p163
tp164
a(S'tgy'
p165
S'sim-'
p166
S'sim-/tgy'
p167
tp168
a(S'asm'
p169
S'0xAX'
p170
S'0xAX/asm'
p171
tp172
a(S'DocumentServer'
p173
S'ONLYOFFICE'
p174
S'ONLYOFFICE/DocumentServer'
p175
tp176
a(S'PiFox'
p177
S'ICTeam28'
p178
S'ICTeam28/PiFox'
p179
tp180
a(S'8086tiny'
p181
S'adriancable'
p182
S'adriancable/8086tiny'
p183
tp184
a(S'Tuff.gb'
p185
S'BonsaiDen'
p186
S'BonsaiDen/Tuff.gb'
p187
tp188
a(S'Unix-1st-Edition-jun72'
p189
S'c3x04'
p190
S'c3x04/Unix-1st-Edition-jun72'
p191
tp192
a(S'Pure64'
p193
S'ReturnInfinity'
p194
S'ReturnInfinity/Pure64'
p195
tp196
a(S'BLHeli'
p197
S'bitdump'
p198
S'bitdump/BLHeli'
p199
tp200
a(S'HoustonTracker2'
p201
S'utz82'
p202
S'utz82/HoustonTracker2'
p203
tp204
a(S'hrm-solutions'
p205
S'atesgoral'
p206
S'atesgoral/hrm-solutions'
p207
tp208
a(S'cjdns'
p209
S'cjdelisle'
p210
S'cjdelisle/cjdns'
p211
tp212
a(S'hello-world'
p213
S'leachim6'
p214
S'leachim6/hello-world'
p215
tp216
a(S'pokecrystal'
p217
S'pret'
p218
S'pret/pokecrystal'
p219
tp220
a(S'KnightOS'
p221
S'KnightOS'
p222
S'KnightOS/KnightOS'
p223
tp224
a(S'ring'
p225
S'briansmith'
p226
S'briansmith/ring'
p227
tp228
a(S'tgy'
p229
S'sim-'
p230
S'sim-/tgy'
p231
tp232
a(S'x265'
p233
S'videolan'
p234
S'videolan/x265'
p235
tp236
a(S'Prince-of-Persia-Apple-II'
p237
S'jmechner'
p238
S'jmechner/Prince-of-Persia-Apple-II'
p239
tp240
a(S'asmttpd'
p241
S'nemasu'
p242
S'nemasu/asmttpd'
p243
tp244
a(S'BareMetal-OS'
p245
S'ReturnInfinity'
p246
S'ReturnInfinity/BareMetal-OS'
p247
tp248
a(S'raspberrypi'
p249
S'dwelch67'
p250
S'dwelch67/raspberrypi'
p251
tp252
a(S'cpuminer'
p253
S'pooler'
p254
S'pooler/cpuminer'
p255
tp256
a(S'MineAssemble'
p257
S'Overv'
p258
S'Overv/MineAssemble'
p259
tp260
a(S'floppybird'
p261
S'icebreaker'
p262
S'icebreaker/floppybird'
p263
tp264
a(S'sinkhole'
p265
S'xoreaxeaxeax'
p266
S'xoreaxeaxeax/sinkhole'
p267
tp268
a(S'pokered'
p269
S'pret'
p270
S'pret/pokered'
p271
tp272
a(S'asm'
p273
S'0xAX'
p274
S'0xAX/asm'
p275
tp276
a(S'DocumentServer'
p277
S'ONLYOFFICE'
p278
S'ONLYOFFICE/DocumentServer'
p279
tp280
a(S'PiFox'
p281
S'ICTeam28'
p282
S'ICTeam28/PiFox'
p283
tp284
a(S'8086tiny'
p285
S'adriancable'
p286
S'adriancable/8086tiny'
p287
tp288
a(S'Tuff.gb'
p289
S'BonsaiDen'
p290
S'BonsaiDen/Tuff.gb'
p291
tp292
a(S'Unix-1st-Edition-jun72'
p293
S'c3x04'
p294
S'c3x04/Unix-1st-Edition-jun72'
p295
tp296
a(S'Pure64'
p297
S'ReturnInfinity'
p298
S'ReturnInfinity/Pure64'
p299
tp300
a.