(lp0
(S'ATS-Postiats'
p1
S'githwxi'
p2
S'githwxi/ATS-Postiats'
p3
tp4
a(S'ATS-Postiats-contrib'
p5
S'githwxi'
p6
S'githwxi/ATS-Postiats-contrib'
p7
tp8
a(S'ats-examples'
p9
S'chrisdone'
p10
S'chrisdone/ats-examples'
p11
tp12
a(S'ATS-Postiats-test'
p13
S'githwxi'
p14
S'githwxi/ATS-Postiats-test'
p15
tp16
a(S'ATSPresentation'
p17
S'deech'
p18
S'deech/ATSPresentation'
p19
tp20
a(S'Pak128.Sweden-Ex'
p21
S'VictorErik'
p22
S'VictorErik/Pak128.Sweden-Ex'
p23
tp24
a(S'ATS-Postiats'
p25
S'wdblair'
p26
S'wdblair/ATS-Postiats'
p27
tp28
a(S'ats-parcc'
p29
S'steinwaywhw'
p30
S'steinwaywhw/ats-parcc'
p31
tp32
a(S'elvysh-main'
p33
S'shlevy'
p34
S'shlevy/elvysh-main'
p35
tp36
a(S'ats-pilot'
p37
S'wdblair'
p38
S'wdblair/ats-pilot'
p39
tp40
a(S'freebsd-ports-1'
p41
S'jamiepg1'
p42
S'jamiepg1/freebsd-ports-1'
p43
tp44
a(S'ATS-Postiats'
p45
S'mandel59'
p46
S'mandel59/ATS-Postiats'
p47
tp48
a(S'ATS-Postiats-contrib'
p49
S'jamiepg1'
p50
S'jamiepg1/ATS-Postiats-contrib'
p51
tp52
a(S'ATS-Postiats'
p53
S'mrd'
p54
S'mrd/ATS-Postiats'
p55
tp56
a(S'ATS-Postiats-contrib'
p57
S'ashalkhakov'
p58
S'ashalkhakov/ATS-Postiats-contrib'
p59
tp60
a(S'ATS-Postiats-contrib'
p61
S'bbarker'
p62
S'bbarker/ATS-Postiats-contrib'
p63
tp64
a(S'learning-ats'
p65
S'noisesmith'
p66
S'noisesmith/learning-ats'
p67
tp68
a(S'ATS-Postiats'
p69
S'alex-ren'
p70
S'alex-ren/ATS-Postiats'
p71
tp72
a(S'ats2'
p73
S'thisismiller'
p74
S'thisismiller/ats2'
p75
tp76
a(S'ATS-Postiats-contrib'
p77
S'wdblair'
p78
S'wdblair/ATS-Postiats-contrib'
p79
tp80
a(S'ATS-Postiats'
p81
S'bbarker'
p82
S'bbarker/ATS-Postiats'
p83
tp84
a(S'ATS-Postiats'
p85
S'jats-ug'
p86
S'jats-ug/ATS-Postiats'
p87
tp88
a(S'ATS-Postiats'
p89
S'ashalkhakov'
p90
S'ashalkhakov/ATS-Postiats'
p91
tp92
a(S'ATS-Postiats'
p93
S'DawidvC'
p94
S'DawidvC/ATS-Postiats'
p95
tp96
a(S'ATS-Postiats'
p97
S'master-q'
p98
S'master-q/ATS-Postiats'
p99
tp100
a(S'ATS-Postiats'
p101
S'githwxi'
p102
S'githwxi/ATS-Postiats'
p103
tp104
a(S'ATS-Postiats-contrib'
p105
S'githwxi'
p106
S'githwxi/ATS-Postiats-contrib'
p107
tp108
a(S'ats-examples'
p109
S'chrisdone'
p110
S'chrisdone/ats-examples'
p111
tp112
a(S'ATS-Postiats-test'
p113
S'githwxi'
p114
S'githwxi/ATS-Postiats-test'
p115
tp116
a(S'ATSPresentation'
p117
S'deech'
p118
S'deech/ATSPresentation'
p119
tp120
a(S'Pak128.Sweden-Ex'
p121
S'VictorErik'
p122
S'VictorErik/Pak128.Sweden-Ex'
p123
tp124
a(S'ATS-Postiats'
p125
S'wdblair'
p126
S'wdblair/ATS-Postiats'
p127
tp128
a(S'ats-parcc'
p129
S'steinwaywhw'
p130
S'steinwaywhw/ats-parcc'
p131
tp132
a(S'elvysh-main'
p133
S'shlevy'
p134
S'shlevy/elvysh-main'
p135
tp136
a(S'ats-pilot'
p137
S'wdblair'
p138
S'wdblair/ats-pilot'
p139
tp140
a(S'freebsd-ports-1'
p141
S'jamiepg1'
p142
S'jamiepg1/freebsd-ports-1'
p143
tp144
a(S'ATS-Postiats'
p145
S'mandel59'
p146
S'mandel59/ATS-Postiats'
p147
tp148
a(S'ATS-Postiats-contrib'
p149
S'jamiepg1'
p150
S'jamiepg1/ATS-Postiats-contrib'
p151
tp152
a(S'ATS-Postiats'
p153
S'mrd'
p154
S'mrd/ATS-Postiats'
p155
tp156
a(S'ATS-Postiats-contrib'
p157
S'ashalkhakov'
p158
S'ashalkhakov/ATS-Postiats-contrib'
p159
tp160
a(S'ATS-Postiats-contrib'
p161
S'bbarker'
p162
S'bbarker/ATS-Postiats-contrib'
p163
tp164
a(S'learning-ats'
p165
S'noisesmith'
p166
S'noisesmith/learning-ats'
p167
tp168
a(S'ATS-Postiats'
p169
S'alex-ren'
p170
S'alex-ren/ATS-Postiats'
p171
tp172
a(S'ats2'
p173
S'thisismiller'
p174
S'thisismiller/ats2'
p175
tp176
a(S'ATS-Postiats-contrib'
p177
S'wdblair'
p178
S'wdblair/ATS-Postiats-contrib'
p179
tp180
a(S'ATS-Postiats'
p181
S'bbarker'
p182
S'bbarker/ATS-Postiats'
p183
tp184
a(S'ATS-Postiats'
p185
S'jats-ug'
p186
S'jats-ug/ATS-Postiats'
p187
tp188
a(S'ATS-Postiats'
p189
S'ashalkhakov'
p190
S'ashalkhakov/ATS-Postiats'
p191
tp192
a(S'ATS-Postiats'
p193
S'DawidvC'
p194
S'DawidvC/ATS-Postiats'
p195
tp196
a(S'ATS-Postiats'
p197
S'master-q'
p198
S'master-q/ATS-Postiats'
p199
tp200
a(S'ATS-Postiats'
p201
S'githwxi'
p202
S'githwxi/ATS-Postiats'
p203
tp204
a(S'ATS-Postiats-contrib'
p205
S'githwxi'
p206
S'githwxi/ATS-Postiats-contrib'
p207
tp208
a(S'ats-examples'
p209
S'chrisdone'
p210
S'chrisdone/ats-examples'
p211
tp212
a(S'ATS-Postiats-test'
p213
S'githwxi'
p214
S'githwxi/ATS-Postiats-test'
p215
tp216
a(S'ATSPresentation'
p217
S'deech'
p218
S'deech/ATSPresentation'
p219
tp220
a(S'Pak128.Sweden-Ex'
p221
S'VictorErik'
p222
S'VictorErik/Pak128.Sweden-Ex'
p223
tp224
a(S'ATS-Postiats'
p225
S'wdblair'
p226
S'wdblair/ATS-Postiats'
p227
tp228
a(S'ats-parcc'
p229
S'steinwaywhw'
p230
S'steinwaywhw/ats-parcc'
p231
tp232
a(S'elvysh-main'
p233
S'shlevy'
p234
S'shlevy/elvysh-main'
p235
tp236
a(S'ats-pilot'
p237
S'wdblair'
p238
S'wdblair/ats-pilot'
p239
tp240
a(S'freebsd-ports-1'
p241
S'jamiepg1'
p242
S'jamiepg1/freebsd-ports-1'
p243
tp244
a(S'ATS-Postiats'
p245
S'mandel59'
p246
S'mandel59/ATS-Postiats'
p247
tp248
a(S'ATS-Postiats-contrib'
p249
S'jamiepg1'
p250
S'jamiepg1/ATS-Postiats-contrib'
p251
tp252
a(S'ATS-Postiats'
p253
S'mrd'
p254
S'mrd/ATS-Postiats'
p255
tp256
a(S'ATS-Postiats-contrib'
p257
S'ashalkhakov'
p258
S'ashalkhakov/ATS-Postiats-contrib'
p259
tp260
a(S'ATS-Postiats-contrib'
p261
S'bbarker'
p262
S'bbarker/ATS-Postiats-contrib'
p263
tp264
a(S'learning-ats'
p265
S'noisesmith'
p266
S'noisesmith/learning-ats'
p267
tp268
a(S'ATS-Postiats'
p269
S'alex-ren'
p270
S'alex-ren/ATS-Postiats'
p271
tp272
a(S'ats2'
p273
S'thisismiller'
p274
S'thisismiller/ats2'
p275
tp276
a(S'ATS-Postiats-contrib'
p277
S'wdblair'
p278
S'wdblair/ATS-Postiats-contrib'
p279
tp280
a(S'ATS-Postiats'
p281
S'bbarker'
p282
S'bbarker/ATS-Postiats'
p283
tp284
a(S'ATS-Postiats'
p285
S'jats-ug'
p286
S'jats-ug/ATS-Postiats'
p287
tp288
a(S'ATS-Postiats'
p289
S'ashalkhakov'
p290
S'ashalkhakov/ATS-Postiats'
p291
tp292
a(S'ATS-Postiats'
p293
S'DawidvC'
p294
S'DawidvC/ATS-Postiats'
p295
tp296
a(S'ATS-Postiats'
p297
S'master-q'
p298
S'master-q/ATS-Postiats'
p299
tp300
a.