(lp0
(S'augeas'
p1
S'hercules-team'
p2
S'hercules-team/augeas'
p3
tp4
a(S'augeas-do-not-use'
p5
S'hercules-team'
p6
S'hercules-team/augeas-do-not-use'
p7
tp8
a(S'puppet-haproxy_c2c'
p9
S'camptocamp'
p10
S'camptocamp/puppet-haproxy_c2c'
p11
tp12
a(S'puppet-haproxy'
p13
S'rodjek'
p14
S'rodjek/puppet-haproxy'
p15
tp16
a(S'config-augeas-validator'
p17
S'raphink'
p18
S'raphink/config-augeas-validator'
p19
tp20
a(S'augeas'
p21
S'giraldeau'
p22
S'giraldeau/augeas'
p23
tp24
a(S'augeas'
p25
S'lutter'
p26
S'lutter/augeas'
p27
tp28
a(S'augeas'
p29
S'raphink'
p30
S'raphink/augeas'
p31
tp32
a(S'augeas'
p33
S'dprince'
p34
S'dprince/augeas'
p35
tp36
a(S'augeas'
p37
S'flebel'
p38
S'flebel/augeas'
p39
tp40
a(S'haproxy-augeas-lens'
p41
S'uty'
p42
S'uty/haproxy-augeas-lens'
p43
tp44
a(S'puppet-etckeeper'
p45
S'stengah33'
p46
S'stengah33/puppet-etckeeper'
p47
tp48
a(S'qpid_fabric'
p49
S'prelegalwonder'
p50
S'prelegalwonder/qpid_fabric'
p51
tp52
a(S'augeas_bacula'
p53
S'domenkozar'
p54
S'domenkozar/augeas_bacula'
p55
tp56
a(S'augeas-trafficserver'
p57
S'wanderingbort'
p58
S'wanderingbort/augeas-trafficserver'
p59
tp60
a(S'puppet-cups'
p61
S'raphink'
p62
S'raphink/puppet-cups'
p63
tp64
a(S'puppet-sudo'
p65
S'jamiepg1'
p66
S'jamiepg1/puppet-sudo'
p67
tp68
a(S'puppet-sudo'
p69
S'DataRecognitionCorporation'
p70
S'DataRecognitionCorporation/puppet-sudo'
p71
tp72
a(S'puppet-sudo'
p73
S'Deveryware'
p74
S'Deveryware/puppet-sudo'
p75
tp76
a(S'puppet-sudo'
p77
S'nanliu'
p78
S'nanliu/puppet-sudo'
p79
tp80
a(S'puppet-sudo'
p81
S'netson'
p82
S'netson/puppet-sudo'
p83
tp84
a(S'puppet-sudo'
p85
S'mafredri'
p86
S'mafredri/puppet-sudo'
p87
tp88
a(S'docker-puppetserver'
p89
S'camptocamp'
p90
S'camptocamp/docker-puppetserver'
p91
tp92
a(S'puppet-sudo'
p93
S'softecspa'
p94
S'softecspa/puppet-sudo'
p95
tp96
a(S'puppet-augeas-module'
p97
S'openescalar'
p98
S'openescalar/puppet-augeas-module'
p99
tp100
a(S'augeas'
p101
S'hercules-team'
p102
S'hercules-team/augeas'
p103
tp104
a(S'augeas-do-not-use'
p105
S'hercules-team'
p106
S'hercules-team/augeas-do-not-use'
p107
tp108
a(S'puppet-haproxy_c2c'
p109
S'camptocamp'
p110
S'camptocamp/puppet-haproxy_c2c'
p111
tp112
a(S'puppet-haproxy'
p113
S'rodjek'
p114
S'rodjek/puppet-haproxy'
p115
tp116
a(S'config-augeas-validator'
p117
S'raphink'
p118
S'raphink/config-augeas-validator'
p119
tp120
a(S'augeas'
p121
S'giraldeau'
p122
S'giraldeau/augeas'
p123
tp124
a(S'augeas'
p125
S'lutter'
p126
S'lutter/augeas'
p127
tp128
a(S'augeas'
p129
S'raphink'
p130
S'raphink/augeas'
p131
tp132
a(S'augeas'
p133
S'dprince'
p134
S'dprince/augeas'
p135
tp136
a(S'augeas'
p137
S'flebel'
p138
S'flebel/augeas'
p139
tp140
a(S'haproxy-augeas-lens'
p141
S'uty'
p142
S'uty/haproxy-augeas-lens'
p143
tp144
a(S'puppet-etckeeper'
p145
S'stengah33'
p146
S'stengah33/puppet-etckeeper'
p147
tp148
a(S'qpid_fabric'
p149
S'prelegalwonder'
p150
S'prelegalwonder/qpid_fabric'
p151
tp152
a(S'augeas_bacula'
p153
S'domenkozar'
p154
S'domenkozar/augeas_bacula'
p155
tp156
a(S'augeas-trafficserver'
p157
S'wanderingbort'
p158
S'wanderingbort/augeas-trafficserver'
p159
tp160
a(S'puppet-cups'
p161
S'raphink'
p162
S'raphink/puppet-cups'
p163
tp164
a(S'puppet-sudo'
p165
S'jamiepg1'
p166
S'jamiepg1/puppet-sudo'
p167
tp168
a(S'puppet-sudo'
p169
S'DataRecognitionCorporation'
p170
S'DataRecognitionCorporation/puppet-sudo'
p171
tp172
a(S'puppet-sudo'
p173
S'Deveryware'
p174
S'Deveryware/puppet-sudo'
p175
tp176
a(S'puppet-sudo'
p177
S'nanliu'
p178
S'nanliu/puppet-sudo'
p179
tp180
a(S'puppet-sudo'
p181
S'netson'
p182
S'netson/puppet-sudo'
p183
tp184
a(S'puppet-sudo'
p185
S'mafredri'
p186
S'mafredri/puppet-sudo'
p187
tp188
a(S'docker-puppetserver'
p189
S'camptocamp'
p190
S'camptocamp/docker-puppetserver'
p191
tp192
a(S'puppet-sudo'
p193
S'softecspa'
p194
S'softecspa/puppet-sudo'
p195
tp196
a(S'puppet-augeas-module'
p197
S'openescalar'
p198
S'openescalar/puppet-augeas-module'
p199
tp200
a(S'augeas'
p201
S'hercules-team'
p202
S'hercules-team/augeas'
p203
tp204
a(S'augeas-do-not-use'
p205
S'hercules-team'
p206
S'hercules-team/augeas-do-not-use'
p207
tp208
a(S'puppet-haproxy_c2c'
p209
S'camptocamp'
p210
S'camptocamp/puppet-haproxy_c2c'
p211
tp212
a(S'puppet-haproxy'
p213
S'rodjek'
p214
S'rodjek/puppet-haproxy'
p215
tp216
a(S'config-augeas-validator'
p217
S'raphink'
p218
S'raphink/config-augeas-validator'
p219
tp220
a(S'augeas'
p221
S'giraldeau'
p222
S'giraldeau/augeas'
p223
tp224
a(S'augeas'
p225
S'lutter'
p226
S'lutter/augeas'
p227
tp228
a(S'augeas'
p229
S'raphink'
p230
S'raphink/augeas'
p231
tp232
a(S'augeas'
p233
S'dprince'
p234
S'dprince/augeas'
p235
tp236
a(S'augeas'
p237
S'flebel'
p238
S'flebel/augeas'
p239
tp240
a(S'haproxy-augeas-lens'
p241
S'uty'
p242
S'uty/haproxy-augeas-lens'
p243
tp244
a(S'puppet-etckeeper'
p245
S'stengah33'
p246
S'stengah33/puppet-etckeeper'
p247
tp248
a(S'qpid_fabric'
p249
S'prelegalwonder'
p250
S'prelegalwonder/qpid_fabric'
p251
tp252
a(S'augeas_bacula'
p253
S'domenkozar'
p254
S'domenkozar/augeas_bacula'
p255
tp256
a(S'augeas-trafficserver'
p257
S'wanderingbort'
p258
S'wanderingbort/augeas-trafficserver'
p259
tp260
a(S'puppet-cups'
p261
S'raphink'
p262
S'raphink/puppet-cups'
p263
tp264
a(S'puppet-sudo'
p265
S'jamiepg1'
p266
S'jamiepg1/puppet-sudo'
p267
tp268
a(S'puppet-sudo'
p269
S'DataRecognitionCorporation'
p270
S'DataRecognitionCorporation/puppet-sudo'
p271
tp272
a(S'puppet-sudo'
p273
S'Deveryware'
p274
S'Deveryware/puppet-sudo'
p275
tp276
a(S'puppet-sudo'
p277
S'nanliu'
p278
S'nanliu/puppet-sudo'
p279
tp280
a(S'puppet-sudo'
p281
S'netson'
p282
S'netson/puppet-sudo'
p283
tp284
a(S'puppet-sudo'
p285
S'mafredri'
p286
S'mafredri/puppet-sudo'
p287
tp288
a(S'docker-puppetserver'
p289
S'camptocamp'
p290
S'camptocamp/docker-puppetserver'
p291
tp292
a(S'puppet-sudo'
p293
S'softecspa'
p294
S'softecspa/puppet-sudo'
p295
tp296
a(S'puppet-augeas-module'
p297
S'openescalar'
p298
S'openescalar/puppet-augeas-module'
p299
tp300
a.