(lp0
(S'bug.n'
p1
S'fuhsjr00'
p2
S'fuhsjr00/bug.n'
p3
tp4
a(S'belvedere'
p5
S'mshorts'
p6
S'mshorts/belvedere'
p7
tp8
a(S'texter'
p9
S'adampash'
p10
S'adampash/texter'
p11
tp12
a(S'mintty-quake-console'
p13
S'lonepie'
p14
S'lonepie/mintty-quake-console'
p15
tp16
a(S'mDesktop'
p17
S'octalmage'
p18
S'octalmage/mDesktop'
p19
tp20
a(S'WindowPadX'
p21
S'hoppfrosch'
p22
S'hoppfrosch/WindowPadX'
p23
tp24
a(S'belvedere'
p25
S'adampash'
p26
S'adampash/belvedere'
p27
tp28
a(S'GridMove'
p29
S'jgpaiva'
p30
S'jgpaiva/GridMove'
p31
tp32
a(S'DevKeyboard'
p33
S'babin101'
p34
S'babin101/DevKeyboard'
p35
tp36
a(S'Clipjump'
p37
S'aviaryan'
p38
S'aviaryan/Clipjump'
p39
tp40
a(S'Ahk2Exe'
p41
S'fincs'
p42
S'fincs/Ahk2Exe'
p43
tp44
a(S'SciTE4AutoHotkey'
p45
S'fincs'
p46
S'fincs/SciTE4AutoHotkey'
p47
tp48
a(S'yingwa'
p49
S'dallascao'
p50
S'dallascao/yingwa'
p51
tp52
a(S'PuloversMacroCreator'
p53
S'Pulover'
p54
S'Pulover/PuloversMacroCreator'
p55
tp56
a(S'7plus'
p57
S'7plus'
p58
S'7plus/7plus'
p59
tp60
a(S'ahk-libs'
p61
S'rshipp'
p62
S'rshipp/ahk-libs'
p63
tp64
a(S'AutoHotkey_L-Docs'
p65
S'Lexikos'
p66
S'Lexikos/AutoHotkey_L-Docs'
p67
tp68
a(S'AHK-Studio'
p69
S'maestrith'
p70
S'maestrith/AHK-Studio'
p71
tp72
a(S'AutoHotkey-Scripts'
p73
S'polyethene'
p74
S'polyethene/AutoHotkey-Scripts'
p75
tp76
a(S'Autohotkey-scripts-.ahk'
p77
S'Drugoy'
p78
S'Drugoy/Autohotkey-scripts-.ahk'
p79
tp80
a(S'vimdesktop'
p81
S'victorwoo'
p82
S'victorwoo/vimdesktop'
p83
tp84
a(S'Breeze-Angular-Meetup-20130312'
p85
S'wardbell'
p86
S'wardbell/Breeze-Angular-Meetup-20130312'
p87
tp88
a(S'autohotkey-scripts'
p89
S'aviaryan'
p90
S'aviaryan/autohotkey-scripts'
p91
tp92
a(S'autohotkey-windows-mac-keyboard'
p93
S'stroebjo'
p94
S'stroebjo/autohotkey-windows-mac-keyboard'
p95
tp96
a(S'AHKs'
p97
S'camerb'
p98
S'camerb/AHKs'
p99
tp100
a(S'bug.n'
p101
S'fuhsjr00'
p102
S'fuhsjr00/bug.n'
p103
tp104
a(S'belvedere'
p105
S'mshorts'
p106
S'mshorts/belvedere'
p107
tp108
a(S'texter'
p109
S'adampash'
p110
S'adampash/texter'
p111
tp112
a(S'mintty-quake-console'
p113
S'lonepie'
p114
S'lonepie/mintty-quake-console'
p115
tp116
a(S'mDesktop'
p117
S'octalmage'
p118
S'octalmage/mDesktop'
p119
tp120
a(S'WindowPadX'
p121
S'hoppfrosch'
p122
S'hoppfrosch/WindowPadX'
p123
tp124
a(S'belvedere'
p125
S'adampash'
p126
S'adampash/belvedere'
p127
tp128
a(S'GridMove'
p129
S'jgpaiva'
p130
S'jgpaiva/GridMove'
p131
tp132
a(S'DevKeyboard'
p133
S'babin101'
p134
S'babin101/DevKeyboard'
p135
tp136
a(S'Clipjump'
p137
S'aviaryan'
p138
S'aviaryan/Clipjump'
p139
tp140
a(S'Ahk2Exe'
p141
S'fincs'
p142
S'fincs/Ahk2Exe'
p143
tp144
a(S'SciTE4AutoHotkey'
p145
S'fincs'
p146
S'fincs/SciTE4AutoHotkey'
p147
tp148
a(S'yingwa'
p149
S'dallascao'
p150
S'dallascao/yingwa'
p151
tp152
a(S'PuloversMacroCreator'
p153
S'Pulover'
p154
S'Pulover/PuloversMacroCreator'
p155
tp156
a(S'7plus'
p157
S'7plus'
p158
S'7plus/7plus'
p159
tp160
a(S'ahk-libs'
p161
S'rshipp'
p162
S'rshipp/ahk-libs'
p163
tp164
a(S'AutoHotkey_L-Docs'
p165
S'Lexikos'
p166
S'Lexikos/AutoHotkey_L-Docs'
p167
tp168
a(S'AHK-Studio'
p169
S'maestrith'
p170
S'maestrith/AHK-Studio'
p171
tp172
a(S'AutoHotkey-Scripts'
p173
S'polyethene'
p174
S'polyethene/AutoHotkey-Scripts'
p175
tp176
a(S'Autohotkey-scripts-.ahk'
p177
S'Drugoy'
p178
S'Drugoy/Autohotkey-scripts-.ahk'
p179
tp180
a(S'vimdesktop'
p181
S'victorwoo'
p182
S'victorwoo/vimdesktop'
p183
tp184
a(S'Breeze-Angular-Meetup-20130312'
p185
S'wardbell'
p186
S'wardbell/Breeze-Angular-Meetup-20130312'
p187
tp188
a(S'autohotkey-scripts'
p189
S'aviaryan'
p190
S'aviaryan/autohotkey-scripts'
p191
tp192
a(S'autohotkey-windows-mac-keyboard'
p193
S'stroebjo'
p194
S'stroebjo/autohotkey-windows-mac-keyboard'
p195
tp196
a(S'AHKs'
p197
S'camerb'
p198
S'camerb/AHKs'
p199
tp200
a(S'bug.n'
p201
S'fuhsjr00'
p202
S'fuhsjr00/bug.n'
p203
tp204
a(S'belvedere'
p205
S'mshorts'
p206
S'mshorts/belvedere'
p207
tp208
a(S'texter'
p209
S'adampash'
p210
S'adampash/texter'
p211
tp212
a(S'mintty-quake-console'
p213
S'lonepie'
p214
S'lonepie/mintty-quake-console'
p215
tp216
a(S'mDesktop'
p217
S'octalmage'
p218
S'octalmage/mDesktop'
p219
tp220
a(S'WindowPadX'
p221
S'hoppfrosch'
p222
S'hoppfrosch/WindowPadX'
p223
tp224
a(S'belvedere'
p225
S'adampash'
p226
S'adampash/belvedere'
p227
tp228
a(S'GridMove'
p229
S'jgpaiva'
p230
S'jgpaiva/GridMove'
p231
tp232
a(S'DevKeyboard'
p233
S'babin101'
p234
S'babin101/DevKeyboard'
p235
tp236
a(S'Clipjump'
p237
S'aviaryan'
p238
S'aviaryan/Clipjump'
p239
tp240
a(S'Ahk2Exe'
p241
S'fincs'
p242
S'fincs/Ahk2Exe'
p243
tp244
a(S'SciTE4AutoHotkey'
p245
S'fincs'
p246
S'fincs/SciTE4AutoHotkey'
p247
tp248
a(S'yingwa'
p249
S'dallascao'
p250
S'dallascao/yingwa'
p251
tp252
a(S'PuloversMacroCreator'
p253
S'Pulover'
p254
S'Pulover/PuloversMacroCreator'
p255
tp256
a(S'7plus'
p257
S'7plus'
p258
S'7plus/7plus'
p259
tp260
a(S'ahk-libs'
p261
S'rshipp'
p262
S'rshipp/ahk-libs'
p263
tp264
a(S'AutoHotkey_L-Docs'
p265
S'Lexikos'
p266
S'Lexikos/AutoHotkey_L-Docs'
p267
tp268
a(S'AHK-Studio'
p269
S'maestrith'
p270
S'maestrith/AHK-Studio'
p271
tp272
a(S'AutoHotkey-Scripts'
p273
S'polyethene'
p274
S'polyethene/AutoHotkey-Scripts'
p275
tp276
a(S'Autohotkey-scripts-.ahk'
p277
S'Drugoy'
p278
S'Drugoy/Autohotkey-scripts-.ahk'
p279
tp280
a(S'vimdesktop'
p281
S'victorwoo'
p282
S'victorwoo/vimdesktop'
p283
tp284
a(S'Breeze-Angular-Meetup-20130312'
p285
S'wardbell'
p286
S'wardbell/Breeze-Angular-Meetup-20130312'
p287
tp288
a(S'autohotkey-scripts'
p289
S'aviaryan'
p290
S'aviaryan/autohotkey-scripts'
p291
tp292
a(S'autohotkey-windows-mac-keyboard'
p293
S'stroebjo'
p294
S'stroebjo/autohotkey-windows-mac-keyboard'
p295
tp296
a(S'AHKs'
p297
S'camerb'
p298
S'camerb/AHKs'
p299
tp300
a.