(lp0
(S'Portable-VirtualBox'
p1
S'vboxme'
p2
S'vboxme/Portable-VirtualBox'
p3
tp4
a(S'APKtoJava'
p5
S'broodplank'
p6
S'broodplank/APKtoJava'
p7
tp8
a(S'dataloader'
p9
S'forcedotcom'
p10
S'forcedotcom/dataloader'
p11
tp12
a(S'Enigma'
p13
S'Kaelri'
p14
S'Kaelri/Enigma'
p15
tp16
a(S'BrokenBot'
p17
S'codebroken'
p18
S'codebroken/BrokenBot'
p19
tp20
a(S'cgb-modded'
p21
S'kaganus'
p22
S'kaganus/cgb-modded'
p23
tp24
a(S'Omnimo'
p25
S'fediaFedia'
p26
S'fediaFedia/Omnimo'
p27
tp28
a(S'Mft2Csv'
p29
S'jschicht'
p30
S'jschicht/Mft2Csv'
p31
tp32
a(S'ClAsHbOt'
p33
S'CodeSlinger69'
p34
S'CodeSlinger69/ClAsHbOt'
p35
tp36
a(S'RawCopy'
p37
S'jschicht'
p38
S'jschicht/RawCopy'
p39
tp40
a(S'win10privacyfix'
p41
S'lordfiSh'
p42
S'lordfiSh/win10privacyfix'
p43
tp44
a(S'Vistumbler'
p45
S'RIEI'
p46
S'RIEI/Vistumbler'
p47
tp48
a(S'cgb-unofficial-v3'
p49
S'Blaze5145'
p50
S'Blaze5145/cgb-unofficial-v3'
p51
tp52
a(S'MyBot'
p53
S'MyBotRun'
p54
S'MyBotRun/MyBot'
p55
tp56
a(S'Broken_Clashbot'
p57
S'cool7su'
p58
S'cool7su/Broken_Clashbot'
p59
tp60
a(S'LogFileParser'
p61
S'jschicht'
p62
S'jschicht/LogFileParser'
p63
tp64
a(S'l2bot'
p65
S'ellysh'
p66
S'ellysh/l2bot'
p67
tp68
a(S'au3_uiautomation'
p69
S'jvanegmond'
p70
S'jvanegmond/au3_uiautomation'
p71
tp72
a(S'LDWin'
p73
S'chall32'
p74
S'chall32/LDWin'
p75
tp76
a(S'ExtractUsnJrnl'
p77
S'jschicht'
p78
S'jschicht/ExtractUsnJrnl'
p79
tp80
a(S'MaterialDesign'
p81
S'danielhickman'
p82
S'danielhickman/MaterialDesign'
p83
tp84
a(S'cgb-unofficial'
p85
S'Blaze5145'
p86
S'Blaze5145/cgb-unofficial'
p87
tp88
a(S'AutoIt-Uplay'
p89
S'admiralmachado'
p90
S'admiralmachado/AutoIt-Uplay'
p91
tp92
a(S'D3ROS-ArreatCore'
p93
S'MoriceD3'
p94
S'MoriceD3/D3ROS-ArreatCore'
p95
tp96
a(S'habohitron'
p97
S'habohitron'
p98
S'habohitron/habohitron'
p99
tp100
a(S'Portable-VirtualBox'
p101
S'vboxme'
p102
S'vboxme/Portable-VirtualBox'
p103
tp104
a(S'APKtoJava'
p105
S'broodplank'
p106
S'broodplank/APKtoJava'
p107
tp108
a(S'dataloader'
p109
S'forcedotcom'
p110
S'forcedotcom/dataloader'
p111
tp112
a(S'Enigma'
p113
S'Kaelri'
p114
S'Kaelri/Enigma'
p115
tp116
a(S'BrokenBot'
p117
S'codebroken'
p118
S'codebroken/BrokenBot'
p119
tp120
a(S'cgb-modded'
p121
S'kaganus'
p122
S'kaganus/cgb-modded'
p123
tp124
a(S'Omnimo'
p125
S'fediaFedia'
p126
S'fediaFedia/Omnimo'
p127
tp128
a(S'Mft2Csv'
p129
S'jschicht'
p130
S'jschicht/Mft2Csv'
p131
tp132
a(S'ClAsHbOt'
p133
S'CodeSlinger69'
p134
S'CodeSlinger69/ClAsHbOt'
p135
tp136
a(S'RawCopy'
p137
S'jschicht'
p138
S'jschicht/RawCopy'
p139
tp140
a(S'win10privacyfix'
p141
S'lordfiSh'
p142
S'lordfiSh/win10privacyfix'
p143
tp144
a(S'Vistumbler'
p145
S'RIEI'
p146
S'RIEI/Vistumbler'
p147
tp148
a(S'cgb-unofficial-v3'
p149
S'Blaze5145'
p150
S'Blaze5145/cgb-unofficial-v3'
p151
tp152
a(S'MyBot'
p153
S'MyBotRun'
p154
S'MyBotRun/MyBot'
p155
tp156
a(S'Broken_Clashbot'
p157
S'cool7su'
p158
S'cool7su/Broken_Clashbot'
p159
tp160
a(S'LogFileParser'
p161
S'jschicht'
p162
S'jschicht/LogFileParser'
p163
tp164
a(S'l2bot'
p165
S'ellysh'
p166
S'ellysh/l2bot'
p167
tp168
a(S'au3_uiautomation'
p169
S'jvanegmond'
p170
S'jvanegmond/au3_uiautomation'
p171
tp172
a(S'LDWin'
p173
S'chall32'
p174
S'chall32/LDWin'
p175
tp176
a(S'ExtractUsnJrnl'
p177
S'jschicht'
p178
S'jschicht/ExtractUsnJrnl'
p179
tp180
a(S'MaterialDesign'
p181
S'danielhickman'
p182
S'danielhickman/MaterialDesign'
p183
tp184
a(S'cgb-unofficial'
p185
S'Blaze5145'
p186
S'Blaze5145/cgb-unofficial'
p187
tp188
a(S'AutoIt-Uplay'
p189
S'admiralmachado'
p190
S'admiralmachado/AutoIt-Uplay'
p191
tp192
a(S'D3ROS-ArreatCore'
p193
S'MoriceD3'
p194
S'MoriceD3/D3ROS-ArreatCore'
p195
tp196
a(S'habohitron'
p197
S'habohitron'
p198
S'habohitron/habohitron'
p199
tp200
a(S'Portable-VirtualBox'
p201
S'vboxme'
p202
S'vboxme/Portable-VirtualBox'
p203
tp204
a(S'APKtoJava'
p205
S'broodplank'
p206
S'broodplank/APKtoJava'
p207
tp208
a(S'dataloader'
p209
S'forcedotcom'
p210
S'forcedotcom/dataloader'
p211
tp212
a(S'Enigma'
p213
S'Kaelri'
p214
S'Kaelri/Enigma'
p215
tp216
a(S'BrokenBot'
p217
S'codebroken'
p218
S'codebroken/BrokenBot'
p219
tp220
a(S'cgb-modded'
p221
S'kaganus'
p222
S'kaganus/cgb-modded'
p223
tp224
a(S'Omnimo'
p225
S'fediaFedia'
p226
S'fediaFedia/Omnimo'
p227
tp228
a(S'Mft2Csv'
p229
S'jschicht'
p230
S'jschicht/Mft2Csv'
p231
tp232
a(S'ClAsHbOt'
p233
S'CodeSlinger69'
p234
S'CodeSlinger69/ClAsHbOt'
p235
tp236
a(S'RawCopy'
p237
S'jschicht'
p238
S'jschicht/RawCopy'
p239
tp240
a(S'win10privacyfix'
p241
S'lordfiSh'
p242
S'lordfiSh/win10privacyfix'
p243
tp244
a(S'Vistumbler'
p245
S'RIEI'
p246
S'RIEI/Vistumbler'
p247
tp248
a(S'cgb-unofficial-v3'
p249
S'Blaze5145'
p250
S'Blaze5145/cgb-unofficial-v3'
p251
tp252
a(S'MyBot'
p253
S'MyBotRun'
p254
S'MyBotRun/MyBot'
p255
tp256
a(S'Broken_Clashbot'
p257
S'cool7su'
p258
S'cool7su/Broken_Clashbot'
p259
tp260
a(S'LogFileParser'
p261
S'jschicht'
p262
S'jschicht/LogFileParser'
p263
tp264
a(S'l2bot'
p265
S'ellysh'
p266
S'ellysh/l2bot'
p267
tp268
a(S'au3_uiautomation'
p269
S'jvanegmond'
p270
S'jvanegmond/au3_uiautomation'
p271
tp272
a(S'LDWin'
p273
S'chall32'
p274
S'chall32/LDWin'
p275
tp276
a(S'ExtractUsnJrnl'
p277
S'jschicht'
p278
S'jschicht/ExtractUsnJrnl'
p279
tp280
a(S'MaterialDesign'
p281
S'danielhickman'
p282
S'danielhickman/MaterialDesign'
p283
tp284
a(S'cgb-unofficial'
p285
S'Blaze5145'
p286
S'Blaze5145/cgb-unofficial'
p287
tp288
a(S'AutoIt-Uplay'
p289
S'admiralmachado'
p290
S'admiralmachado/AutoIt-Uplay'
p291
tp292
a(S'D3ROS-ArreatCore'
p293
S'MoriceD3'
p294
S'MoriceD3/D3ROS-ArreatCore'
p295
tp296
a(S'habohitron'
p297
S'habohitron'
p298
S'habohitron/habohitron'
p299
tp300
a.