(lp0
(S'translate-shell'
p1
S'soimort'
p2
S'soimort/translate-shell'
p3
tp4
a(S'awklisp'
p5
S'darius'
p6
S'darius/awklisp'
p7
tp8
a(S'docker-haskell'
p9
S'freebroccolo'
p10
S'freebroccolo/docker-haskell'
p11
tp12
a(S'php-ini-cleanup'
p13
S'perusio'
p14
S'perusio/php-ini-cleanup'
p15
tp16
a(S'JSON.awk'
p17
S'step-'
p18
S'step-/JSON.awk'
p19
tp20
a(S'zodiac'
p21
S'nuex'
p22
S'nuex/zodiac'
p23
tp24
a(S'fontconfig-infinality'
p25
S'Infinality'
p26
S'Infinality/fontconfig-infinality'
p27
tp28
a(S'awk-libs'
p29
S'e36freak'
p30
S'e36freak/awk-libs'
p31
tp32
a(S'vlogdump'
p33
S'cosimo'
p34
S'cosimo/vlogdump'
p35
tp36
a(S'log-ninja'
p37
S'mrmanc'
p38
S'mrmanc/log-ninja'
p39
tp40
a(S'jsonv.sh'
p41
S'archan937'
p42
S'archan937/jsonv.sh'
p43
tp44
a(S'awkenough'
p45
S'dubiousjim'
p46
S'dubiousjim/awkenough'
p47
tp48
a(S'openWordnet-PT'
p49
S'own-pt'
p50
S'own-pt/openWordnet-PT'
p51
tp52
a(S'situation-clock'
p53
S'benbalter'
p54
S'benbalter/situation-clock'
p55
tp56
a(S'sw'
p57
S'jroimartin'
p58
S'jroimartin/sw'
p59
tp60
a(S'runawk'
p61
S'cheusov'
p62
S'cheusov/runawk'
p63
tp64
a(S'Log-Dissector'
p65
S'PaulReiber'
p66
S'PaulReiber/Log-Dissector'
p67
tp68
a(S'simple-static'
p69
S'wlangstroth'
p70
S'wlangstroth/simple-static'
p71
tp72
a(S'optd'
p73
S'opentraveldata'
p74
S'opentraveldata/optd'
p75
tp76
a(S'humdrum'
p77
S'kroger'
p78
S'kroger/humdrum'
p79
tp80
a(S'icinga-to-graphite'
p81
S'roidelapluie'
p82
S'roidelapluie/icinga-to-graphite'
p83
tp84
a(S'showlinenum'
p85
S'jay'
p86
S'jay/showlinenum'
p87
tp88
a(S'bashprof'
p89
S'sstephenson'
p90
S'sstephenson/bashprof'
p91
tp92
a(S'awk-for-apache-nginx-logs'
p93
S'lapsedtheorist'
p94
S'lapsedtheorist/awk-for-apache-nginx-logs'
p95
tp96
a(S'cellout'
p97
S'cdown'
p98
S'cdown/cellout'
p99
tp100
a(S'translate-shell'
p101
S'soimort'
p102
S'soimort/translate-shell'
p103
tp104
a(S'awklisp'
p105
S'darius'
p106
S'darius/awklisp'
p107
tp108
a(S'docker-haskell'
p109
S'freebroccolo'
p110
S'freebroccolo/docker-haskell'
p111
tp112
a(S'php-ini-cleanup'
p113
S'perusio'
p114
S'perusio/php-ini-cleanup'
p115
tp116
a(S'JSON.awk'
p117
S'step-'
p118
S'step-/JSON.awk'
p119
tp120
a(S'zodiac'
p121
S'nuex'
p122
S'nuex/zodiac'
p123
tp124
a(S'fontconfig-infinality'
p125
S'Infinality'
p126
S'Infinality/fontconfig-infinality'
p127
tp128
a(S'awk-libs'
p129
S'e36freak'
p130
S'e36freak/awk-libs'
p131
tp132
a(S'vlogdump'
p133
S'cosimo'
p134
S'cosimo/vlogdump'
p135
tp136
a(S'log-ninja'
p137
S'mrmanc'
p138
S'mrmanc/log-ninja'
p139
tp140
a(S'jsonv.sh'
p141
S'archan937'
p142
S'archan937/jsonv.sh'
p143
tp144
a(S'awkenough'
p145
S'dubiousjim'
p146
S'dubiousjim/awkenough'
p147
tp148
a(S'openWordnet-PT'
p149
S'own-pt'
p150
S'own-pt/openWordnet-PT'
p151
tp152
a(S'situation-clock'
p153
S'benbalter'
p154
S'benbalter/situation-clock'
p155
tp156
a(S'sw'
p157
S'jroimartin'
p158
S'jroimartin/sw'
p159
tp160
a(S'runawk'
p161
S'cheusov'
p162
S'cheusov/runawk'
p163
tp164
a(S'Log-Dissector'
p165
S'PaulReiber'
p166
S'PaulReiber/Log-Dissector'
p167
tp168
a(S'simple-static'
p169
S'wlangstroth'
p170
S'wlangstroth/simple-static'
p171
tp172
a(S'optd'
p173
S'opentraveldata'
p174
S'opentraveldata/optd'
p175
tp176
a(S'humdrum'
p177
S'kroger'
p178
S'kroger/humdrum'
p179
tp180
a(S'icinga-to-graphite'
p181
S'roidelapluie'
p182
S'roidelapluie/icinga-to-graphite'
p183
tp184
a(S'showlinenum'
p185
S'jay'
p186
S'jay/showlinenum'
p187
tp188
a(S'bashprof'
p189
S'sstephenson'
p190
S'sstephenson/bashprof'
p191
tp192
a(S'awk-for-apache-nginx-logs'
p193
S'lapsedtheorist'
p194
S'lapsedtheorist/awk-for-apache-nginx-logs'
p195
tp196
a(S'cellout'
p197
S'cdown'
p198
S'cdown/cellout'
p199
tp200
a(S'translate-shell'
p201
S'soimort'
p202
S'soimort/translate-shell'
p203
tp204
a(S'awklisp'
p205
S'darius'
p206
S'darius/awklisp'
p207
tp208
a(S'docker-haskell'
p209
S'freebroccolo'
p210
S'freebroccolo/docker-haskell'
p211
tp212
a(S'php-ini-cleanup'
p213
S'perusio'
p214
S'perusio/php-ini-cleanup'
p215
tp216
a(S'JSON.awk'
p217
S'step-'
p218
S'step-/JSON.awk'
p219
tp220
a(S'zodiac'
p221
S'nuex'
p222
S'nuex/zodiac'
p223
tp224
a(S'fontconfig-infinality'
p225
S'Infinality'
p226
S'Infinality/fontconfig-infinality'
p227
tp228
a(S'awk-libs'
p229
S'e36freak'
p230
S'e36freak/awk-libs'
p231
tp232
a(S'vlogdump'
p233
S'cosimo'
p234
S'cosimo/vlogdump'
p235
tp236
a(S'log-ninja'
p237
S'mrmanc'
p238
S'mrmanc/log-ninja'
p239
tp240
a(S'jsonv.sh'
p241
S'archan937'
p242
S'archan937/jsonv.sh'
p243
tp244
a(S'awkenough'
p245
S'dubiousjim'
p246
S'dubiousjim/awkenough'
p247
tp248
a(S'openWordnet-PT'
p249
S'own-pt'
p250
S'own-pt/openWordnet-PT'
p251
tp252
a(S'situation-clock'
p253
S'benbalter'
p254
S'benbalter/situation-clock'
p255
tp256
a(S'sw'
p257
S'jroimartin'
p258
S'jroimartin/sw'
p259
tp260
a(S'runawk'
p261
S'cheusov'
p262
S'cheusov/runawk'
p263
tp264
a(S'Log-Dissector'
p265
S'PaulReiber'
p266
S'PaulReiber/Log-Dissector'
p267
tp268
a(S'simple-static'
p269
S'wlangstroth'
p270
S'wlangstroth/simple-static'
p271
tp272
a(S'optd'
p273
S'opentraveldata'
p274
S'opentraveldata/optd'
p275
tp276
a(S'humdrum'
p277
S'kroger'
p278
S'kroger/humdrum'
p279
tp280
a(S'icinga-to-graphite'
p281
S'roidelapluie'
p282
S'roidelapluie/icinga-to-graphite'
p283
tp284
a(S'showlinenum'
p285
S'jay'
p286
S'jay/showlinenum'
p287
tp288
a(S'bashprof'
p289
S'sstephenson'
p290
S'sstephenson/bashprof'
p291
tp292
a(S'awk-for-apache-nginx-logs'
p293
S'lapsedtheorist'
p294
S'lapsedtheorist/awk-for-apache-nginx-logs'
p295
tp296
a(S'cellout'
p297
S'cdown'
p298
S'cdown/cellout'
p299
tp300
a.