(lp0
(S'python-guide'
p1
S'kennethreitz'
p2
S'kennethreitz/python-guide'
p3
tp4
a(S'RevokeChinaCerts'
p5
S'chengr28'
p6
S'chengr28/RevokeChinaCerts'
p7
tp8
a(S'gibo'
p9
S'simonwhitaker'
p10
S'simonwhitaker/gibo'
p11
tp12
a(S'tron'
p13
S'bmrf'
p14
S'bmrf/tron'
p15
tp16
a(S'less.js-windows'
p17
S'duncansmart'
p18
S'duncansmart/less.js-windows'
p19
tp20
a(S'BlockWindows'
p21
S'WindowsLies'
p22
S'WindowsLies/BlockWindows'
p23
tp24
a(S'nodejs-portable'
p25
S'crazy-max'
p26
S'crazy-max/nodejs-portable'
p27
tp28
a(S'linux_kernel_driver'
p29
S'shihyu'
p30
S'shihyu/linux_kernel_driver'
p31
tp32
a(S'Entropy'
p33
S'aspnet'
p34
S'aspnet/Entropy'
p35
tp36
a(S'simpleu'
p37
S'vokins'
p38
S'vokins/simpleu'
p39
tp40
a(S'wps_i18n'
p41
S'wps-community'
p42
S'wps-community/wps_i18n'
p43
tp44
a(S'iCatalyst'
p45
S'lorents17'
p46
S'lorents17/iCatalyst'
p47
tp48
a(S'skin.refocus'
p49
S'jeroenpardon'
p50
S'jeroenpardon/skin.refocus'
p51
tp52
a(S'tomcat-slf4j-logback'
p53
S'grgrzybek'
p54
S'grgrzybek/tomcat-slf4j-logback'
p55
tp56
a(S'PurpleprintKit'
p57
S'Hevedy'
p58
S'Hevedy/PurpleprintKit'
p59
tp60
a(S'Qlikview-Components'
p61
S'RobWunderlich'
p62
S'RobWunderlich/Qlikview-Components'
p63
tp64
a(S'onekey-decompile-apk'
p65
S'ufologist'
p66
S'ufologist/onekey-decompile-apk'
p67
tp68
a(S'oramod-ra2'
p69
S'Phrohdoh'
p70
S'Phrohdoh/oramod-ra2'
p71
tp72
a(S'WhatsApp-Key-DB-Extractor-UnOfficial'
p73
S'AbinashBishoyi'
p74
S'AbinashBishoyi/WhatsApp-Key-DB-Extractor-UnOfficial'
p75
tp76
a(S'packer-qemu-templates'
p77
S'jakobadam'
p78
S'jakobadam/packer-qemu-templates'
p79
tp80
a(S'smarthosts'
p81
S'abngsa'
p82
S'abngsa/smarthosts'
p83
tp84
a(S'vagrantfile-windows-iis-mssql'
p85
S'dmitry-zaets'
p86
S'dmitry-zaets/vagrantfile-windows-iis-mssql'
p87
tp88
a(S'After-Effects-Scripting-Sublime-Text-Package'
p89
S'seblavoie'
p90
S'seblavoie/After-Effects-Scripting-Sublime-Text-Package'
p91
tp92
a(S'AWS.tools'
p93
S'armstrtw'
p94
S'armstrtw/AWS.tools'
p95
tp96
a(S'standalone_scripts'
p97
S'bmrf'
p98
S'bmrf/standalone_scripts'
p99
tp100
a(S'python-guide'
p101
S'kennethreitz'
p102
S'kennethreitz/python-guide'
p103
tp104
a(S'tron'
p105
S'bmrf'
p106
S'bmrf/tron'
p107
tp108
a(S'skin.refocus'
p109
S'jeroenpardon'
p110
S'jeroenpardon/skin.refocus'
p111
tp112
a(S'RevokeChinaCerts'
p113
S'chengr28'
p114
S'chengr28/RevokeChinaCerts'
p115
tp116
a(S'gibo'
p117
S'simonwhitaker'
p118
S'simonwhitaker/gibo'
p119
tp120
a(S'less.js-windows'
p121
S'duncansmart'
p122
S'duncansmart/less.js-windows'
p123
tp124
a(S'BlockWindows'
p125
S'WindowsLies'
p126
S'WindowsLies/BlockWindows'
p127
tp128
a(S'nodejs-portable'
p129
S'crazy-max'
p130
S'crazy-max/nodejs-portable'
p131
tp132
a(S'linux_kernel_driver'
p133
S'shihyu'
p134
S'shihyu/linux_kernel_driver'
p135
tp136
a(S'Entropy'
p137
S'aspnet'
p138
S'aspnet/Entropy'
p139
tp140
a(S'simpleu'
p141
S'vokins'
p142
S'vokins/simpleu'
p143
tp144
a(S'wps_i18n'
p145
S'wps-community'
p146
S'wps-community/wps_i18n'
p147
tp148
a(S'iCatalyst'
p149
S'lorents17'
p150
S'lorents17/iCatalyst'
p151
tp152
a(S'tomcat-slf4j-logback'
p153
S'grgrzybek'
p154
S'grgrzybek/tomcat-slf4j-logback'
p155
tp156
a(S'PurpleprintKit'
p157
S'Hevedy'
p158
S'Hevedy/PurpleprintKit'
p159
tp160
a(S'Qlikview-Components'
p161
S'RobWunderlich'
p162
S'RobWunderlich/Qlikview-Components'
p163
tp164
a(S'onekey-decompile-apk'
p165
S'ufologist'
p166
S'ufologist/onekey-decompile-apk'
p167
tp168
a(S'oramod-ra2'
p169
S'Phrohdoh'
p170
S'Phrohdoh/oramod-ra2'
p171
tp172
a(S'WhatsApp-Key-DB-Extractor-UnOfficial'
p173
S'AbinashBishoyi'
p174
S'AbinashBishoyi/WhatsApp-Key-DB-Extractor-UnOfficial'
p175
tp176
a(S'packer-qemu-templates'
p177
S'jakobadam'
p178
S'jakobadam/packer-qemu-templates'
p179
tp180
a(S'vagrantfile-windows-iis-mssql'
p181
S'dmitry-zaets'
p182
S'dmitry-zaets/vagrantfile-windows-iis-mssql'
p183
tp184
a(S'smarthosts'
p185
S'abngsa'
p186
S'abngsa/smarthosts'
p187
tp188
a(S'After-Effects-Scripting-Sublime-Text-Package'
p189
S'seblavoie'
p190
S'seblavoie/After-Effects-Scripting-Sublime-Text-Package'
p191
tp192
a(S'AWS.tools'
p193
S'armstrtw'
p194
S'armstrtw/AWS.tools'
p195
tp196
a(S'standalone_scripts'
p197
S'bmrf'
p198
S'bmrf/standalone_scripts'
p199
tp200
a(S'python-guide'
p201
S'kennethreitz'
p202
S'kennethreitz/python-guide'
p203
tp204
a(S'tron'
p205
S'bmrf'
p206
S'bmrf/tron'
p207
tp208
a(S'simpleu'
p209
S'vokins'
p210
S'vokins/simpleu'
p211
tp212
a(S'skin.refocus'
p213
S'jeroenpardon'
p214
S'jeroenpardon/skin.refocus'
p215
tp216
a(S'RevokeChinaCerts'
p217
S'chengr28'
p218
S'chengr28/RevokeChinaCerts'
p219
tp220
a(S'gibo'
p221
S'simonwhitaker'
p222
S'simonwhitaker/gibo'
p223
tp224
a(S'less.js-windows'
p225
S'duncansmart'
p226
S'duncansmart/less.js-windows'
p227
tp228
a(S'BlockWindows'
p229
S'WindowsLies'
p230
S'WindowsLies/BlockWindows'
p231
tp232
a(S'nodejs-portable'
p233
S'crazy-max'
p234
S'crazy-max/nodejs-portable'
p235
tp236
a(S'linux_kernel_driver'
p237
S'shihyu'
p238
S'shihyu/linux_kernel_driver'
p239
tp240
a(S'Entropy'
p241
S'aspnet'
p242
S'aspnet/Entropy'
p243
tp244
a(S'wps_i18n'
p245
S'wps-community'
p246
S'wps-community/wps_i18n'
p247
tp248
a(S'iCatalyst'
p249
S'lorents17'
p250
S'lorents17/iCatalyst'
p251
tp252
a(S'tomcat-slf4j-logback'
p253
S'grgrzybek'
p254
S'grgrzybek/tomcat-slf4j-logback'
p255
tp256
a(S'PurpleprintKit'
p257
S'Hevedy'
p258
S'Hevedy/PurpleprintKit'
p259
tp260
a(S'Qlikview-Components'
p261
S'RobWunderlich'
p262
S'RobWunderlich/Qlikview-Components'
p263
tp264
a(S'onekey-decompile-apk'
p265
S'ufologist'
p266
S'ufologist/onekey-decompile-apk'
p267
tp268
a(S'oramod-ra2'
p269
S'Phrohdoh'
p270
S'Phrohdoh/oramod-ra2'
p271
tp272
a(S'WhatsApp-Key-DB-Extractor-UnOfficial'
p273
S'AbinashBishoyi'
p274
S'AbinashBishoyi/WhatsApp-Key-DB-Extractor-UnOfficial'
p275
tp276
a(S'packer-qemu-templates'
p277
S'jakobadam'
p278
S'jakobadam/packer-qemu-templates'
p279
tp280
a(S'vagrantfile-windows-iis-mssql'
p281
S'dmitry-zaets'
p282
S'dmitry-zaets/vagrantfile-windows-iis-mssql'
p283
tp284
a(S'smarthosts'
p285
S'abngsa'
p286
S'abngsa/smarthosts'
p287
tp288
a(S'After-Effects-Scripting-Sublime-Text-Package'
p289
S'seblavoie'
p290
S'seblavoie/After-Effects-Scripting-Sublime-Text-Package'
p291
tp292
a(S'AWS.tools'
p293
S'armstrtw'
p294
S'armstrtw/AWS.tools'
p295
tp296
a(S'standalone_scripts'
p297
S'bmrf'
p298
S'bmrf/standalone_scripts'
p299
tp300
a.