(lp0
(S'classp'
p1
S'google'
p2
S'google/classp'
p3
tp4
a(S'rust-grammar'
p5
S'bleibig'
p6
S'bleibig/rust-grammar'
p7
tp8
a(S'reconstructing-ruby'
p9
S'halogenandtoast'
p10
S'halogenandtoast/reconstructing-ruby'
p11
tp12
a(S'language-fortran'
p13
S'dagit'
p14
S'dagit/language-fortran'
p15
tp16
a(S'xhp-php5-extension'
p17
S'facebookarchive'
p18
S'facebookarchive/xhp-php5-extension'
p19
tp20
a(S'newicktools'
p21
S'lindenb'
p22
S'lindenb/newicktools'
p23
tp24
a(S'dragon'
p25
S'javierhonduco'
p26
S'javierhonduco/dragon'
p27
tp28
a(S'Compilador-C88'
p29
S'Psicodelico'
p30
S'Psicodelico/Compilador-C88'
p31
tp32
a(S'sql-parser'
p33
S'soforth'
p34
S'soforth/sql-parser'
p35
tp36
a(S'Parser'
p37
S'nicolas-grekas'
p38
S'nicolas-grekas/Parser'
p39
tp40
a(S'cmm_compiler'
p41
S'FlyingPenguins'
p42
S'FlyingPenguins/cmm_compiler'
p43
tp44
a(S'happy-example'
p45
S'ghulette'
p46
S'ghulette/happy-example'
p47
tp48
a(S'tap-parser'
p49
S'ligurio'
p50
S'ligurio/tap-parser'
p51
tp52
a(S'aw'
p53
S'lkuper'
p54
S'lkuper/aw'
p55
tp56
a(S'compilador'
p57
S'Franderg'
p58
S'Franderg/compilador'
p59
tp60
a(S'Prim'
p61
S'jcolag'
p62
S'jcolag/Prim'
p63
tp64
a(S'systemverilog_vhdl_tools_collection'
p65
S'bert-t'
p66
S'bert-t/systemverilog_vhdl_tools_collection'
p67
tp68
a(S'calc'
p69
S'antkowiak'
p70
S'antkowiak/calc'
p71
tp72
a(S'mips-as'
p73
S'hchunhui'
p74
S'hchunhui/mips-as'
p75
tp76
a(S'sunday-lang'
p77
S'leonixyz'
p78
S'leonixyz/sunday-lang'
p79
tp80
a(S'GHouan'
p81
S'Vancy'
p82
S'Vancy/GHouan'
p83
tp84
a(S'language-bison'
p85
S'toroidal-code'
p86
S'toroidal-code/language-bison'
p87
tp88
a(S'mhm'
p89
S'pbrenna'
p90
S'pbrenna/mhm'
p91
tp92
a(S'logcut'
p93
S'yasuoka'
p94
S'yasuoka/logcut'
p95
tp96
a(S'piano'
p97
S'linusyang'
p98
S'linusyang/piano'
p99
tp100
a(S'classp'
p101
S'google'
p102
S'google/classp'
p103
tp104
a(S'rust-grammar'
p105
S'bleibig'
p106
S'bleibig/rust-grammar'
p107
tp108
a(S'reconstructing-ruby'
p109
S'halogenandtoast'
p110
S'halogenandtoast/reconstructing-ruby'
p111
tp112
a(S'language-fortran'
p113
S'dagit'
p114
S'dagit/language-fortran'
p115
tp116
a(S'xhp-php5-extension'
p117
S'facebookarchive'
p118
S'facebookarchive/xhp-php5-extension'
p119
tp120
a(S'newicktools'
p121
S'lindenb'
p122
S'lindenb/newicktools'
p123
tp124
a(S'dragon'
p125
S'javierhonduco'
p126
S'javierhonduco/dragon'
p127
tp128
a(S'Compilador-C88'
p129
S'Psicodelico'
p130
S'Psicodelico/Compilador-C88'
p131
tp132
a(S'sql-parser'
p133
S'soforth'
p134
S'soforth/sql-parser'
p135
tp136
a(S'Parser'
p137
S'nicolas-grekas'
p138
S'nicolas-grekas/Parser'
p139
tp140
a(S'cmm_compiler'
p141
S'FlyingPenguins'
p142
S'FlyingPenguins/cmm_compiler'
p143
tp144
a(S'happy-example'
p145
S'ghulette'
p146
S'ghulette/happy-example'
p147
tp148
a(S'tap-parser'
p149
S'ligurio'
p150
S'ligurio/tap-parser'
p151
tp152
a(S'aw'
p153
S'lkuper'
p154
S'lkuper/aw'
p155
tp156
a(S'compilador'
p157
S'Franderg'
p158
S'Franderg/compilador'
p159
tp160
a(S'Prim'
p161
S'jcolag'
p162
S'jcolag/Prim'
p163
tp164
a(S'systemverilog_vhdl_tools_collection'
p165
S'bert-t'
p166
S'bert-t/systemverilog_vhdl_tools_collection'
p167
tp168
a(S'calc'
p169
S'antkowiak'
p170
S'antkowiak/calc'
p171
tp172
a(S'mips-as'
p173
S'hchunhui'
p174
S'hchunhui/mips-as'
p175
tp176
a(S'sunday-lang'
p177
S'leonixyz'
p178
S'leonixyz/sunday-lang'
p179
tp180
a(S'GHouan'
p181
S'Vancy'
p182
S'Vancy/GHouan'
p183
tp184
a(S'language-bison'
p185
S'toroidal-code'
p186
S'toroidal-code/language-bison'
p187
tp188
a(S'mhm'
p189
S'pbrenna'
p190
S'pbrenna/mhm'
p191
tp192
a(S'logcut'
p193
S'yasuoka'
p194
S'yasuoka/logcut'
p195
tp196
a(S'piano'
p197
S'linusyang'
p198
S'linusyang/piano'
p199
tp200
a(S'classp'
p201
S'google'
p202
S'google/classp'
p203
tp204
a(S'rust-grammar'
p205
S'bleibig'
p206
S'bleibig/rust-grammar'
p207
tp208
a(S'reconstructing-ruby'
p209
S'halogenandtoast'
p210
S'halogenandtoast/reconstructing-ruby'
p211
tp212
a(S'language-fortran'
p213
S'dagit'
p214
S'dagit/language-fortran'
p215
tp216
a(S'xhp-php5-extension'
p217
S'facebookarchive'
p218
S'facebookarchive/xhp-php5-extension'
p219
tp220
a(S'newicktools'
p221
S'lindenb'
p222
S'lindenb/newicktools'
p223
tp224
a(S'dragon'
p225
S'javierhonduco'
p226
S'javierhonduco/dragon'
p227
tp228
a(S'Compilador-C88'
p229
S'Psicodelico'
p230
S'Psicodelico/Compilador-C88'
p231
tp232
a(S'sql-parser'
p233
S'soforth'
p234
S'soforth/sql-parser'
p235
tp236
a(S'Parser'
p237
S'nicolas-grekas'
p238
S'nicolas-grekas/Parser'
p239
tp240
a(S'cmm_compiler'
p241
S'FlyingPenguins'
p242
S'FlyingPenguins/cmm_compiler'
p243
tp244
a(S'happy-example'
p245
S'ghulette'
p246
S'ghulette/happy-example'
p247
tp248
a(S'tap-parser'
p249
S'ligurio'
p250
S'ligurio/tap-parser'
p251
tp252
a(S'aw'
p253
S'lkuper'
p254
S'lkuper/aw'
p255
tp256
a(S'compilador'
p257
S'Franderg'
p258
S'Franderg/compilador'
p259
tp260
a(S'Prim'
p261
S'jcolag'
p262
S'jcolag/Prim'
p263
tp264
a(S'systemverilog_vhdl_tools_collection'
p265
S'bert-t'
p266
S'bert-t/systemverilog_vhdl_tools_collection'
p267
tp268
a(S'calc'
p269
S'antkowiak'
p270
S'antkowiak/calc'
p271
tp272
a(S'mips-as'
p273
S'hchunhui'
p274
S'hchunhui/mips-as'
p275
tp276
a(S'sunday-lang'
p277
S'leonixyz'
p278
S'leonixyz/sunday-lang'
p279
tp280
a(S'GHouan'
p281
S'Vancy'
p282
S'Vancy/GHouan'
p283
tp284
a(S'language-bison'
p285
S'toroidal-code'
p286
S'toroidal-code/language-bison'
p287
tp288
a(S'mhm'
p289
S'pbrenna'
p290
S'pbrenna/mhm'
p291
tp292
a(S'logcut'
p293
S'yasuoka'
p294
S'yasuoka/logcut'
p295
tp296
a(S'piano'
p297
S'linusyang'
p298
S'linusyang/piano'
p299
tp300
a.