(lp0
(S'meta-fsl-arm'
p1
S'Freescale'
p2
S'Freescale/meta-fsl-arm'
p3
tp4
a(S'meta-ros'
p5
S'bmwcarit'
p6
S'bmwcarit/meta-ros'
p7
tp8
a(S'meta-qt5'
p9
S'meta-qt5'
p10
S'meta-qt5/meta-qt5'
p11
tp12
a(S'meta-resin'
p13
S'resin-io'
p14
S'resin-io/meta-resin'
p15
tp16
a(S'meta-angstrom'
p17
S'Angstrom-distribution'
p18
S'Angstrom-distribution/meta-angstrom'
p19
tp20
a(S'meta-openembedded'
p21
S'openembedded'
p22
S'openembedded/meta-openembedded'
p23
tp24
a(S'meta-fsl-arm-extra'
p25
S'Freescale'
p26
S'Freescale/meta-fsl-arm-extra'
p27
tp28
a(S'oe-alliance-core'
p29
S'oe-alliance'
p30
S'oe-alliance/oe-alliance-core'
p31
tp32
a(S'meta-debian'
p33
S'meta-debian'
p34
S'meta-debian/meta-debian'
p35
tp36
a(S'meta-parallella'
p37
S'nathanrossi'
p38
S'nathanrossi/meta-parallella'
p39
tp40
a(S'meta-browser'
p41
S'OSSystems'
p42
S'OSSystems/meta-browser'
p43
tp44
a(S'meta-fsl-demos'
p45
S'Freescale'
p46
S'Freescale/meta-fsl-demos'
p47
tp48
a(S'meta-atmel'
p49
S'linux4sam'
p50
S'linux4sam/meta-atmel'
p51
tp52
a(S'meta-sdr'
p53
S'balister'
p54
S'balister/meta-sdr'
p55
tp56
a(S'meta-mali'
p57
S'ARM-software'
p58
S'ARM-software/meta-mali'
p59
tp60
a(S'openpli-oe-core'
p61
S'OpenPLi'
p62
S'OpenPLi/openpli-oe-core'
p63
tp64
a(S'meta-gumstix'
p65
S'gumstix'
p66
S'gumstix/meta-gumstix'
p67
tp68
a(S'meta-smartphone'
p69
S'shr-distribution'
p70
S'shr-distribution/meta-smartphone'
p71
tp72
a(S'meta-clang'
p73
S'kraj'
p74
S'kraj/meta-clang'
p75
tp76
a(S'meta-webos-ports'
p77
S'webOS-ports'
p78
S'webOS-ports/meta-webos-ports'
p79
tp80
a(S'meta-jetson-tk1'
p81
S'cubicool'
p82
S'cubicool/meta-jetson-tk1'
p83
tp84
a(S'meta-rockchip'
p85
S'linux-rockchip'
p86
S'linux-rockchip/meta-rockchip'
p87
tp88
a(S'meta-soletta'
p89
S'solettaproject'
p90
S'solettaproject/meta-soletta'
p91
tp92
a(S'meta-opie'
p93
S'bluelightning'
p94
S'bluelightning/meta-opie'
p95
tp96
a(S'meta-qt5-extra'
p97
S'schnitzeltony'
p98
S'schnitzeltony/meta-qt5-extra'
p99
tp100
a(S'meta-qt5'
p101
S'meta-qt5'
p102
S'meta-qt5/meta-qt5'
p103
tp104
a(S'meta-fsl-arm-extra'
p105
S'Freescale'
p106
S'Freescale/meta-fsl-arm-extra'
p107
tp108
a(S'meta-openembedded'
p109
S'openembedded'
p110
S'openembedded/meta-openembedded'
p111
tp112
a(S'meta-fsl-arm'
p113
S'Freescale'
p114
S'Freescale/meta-fsl-arm'
p115
tp116
a(S'meta-ros'
p117
S'bmwcarit'
p118
S'bmwcarit/meta-ros'
p119
tp120
a(S'meta-resin'
p121
S'resin-io'
p122
S'resin-io/meta-resin'
p123
tp124
a(S'meta-angstrom'
p125
S'Angstrom-distribution'
p126
S'Angstrom-distribution/meta-angstrom'
p127
tp128
a(S'oe-alliance-core'
p129
S'oe-alliance'
p130
S'oe-alliance/oe-alliance-core'
p131
tp132
a(S'meta-debian'
p133
S'meta-debian'
p134
S'meta-debian/meta-debian'
p135
tp136
a(S'meta-parallella'
p137
S'nathanrossi'
p138
S'nathanrossi/meta-parallella'
p139
tp140
a(S'meta-browser'
p141
S'OSSystems'
p142
S'OSSystems/meta-browser'
p143
tp144
a(S'meta-fsl-demos'
p145
S'Freescale'
p146
S'Freescale/meta-fsl-demos'
p147
tp148
a(S'meta-atmel'
p149
S'linux4sam'
p150
S'linux4sam/meta-atmel'
p151
tp152
a(S'meta-sdr'
p153
S'balister'
p154
S'balister/meta-sdr'
p155
tp156
a(S'meta-mali'
p157
S'ARM-software'
p158
S'ARM-software/meta-mali'
p159
tp160
a(S'openpli-oe-core'
p161
S'OpenPLi'
p162
S'OpenPLi/openpli-oe-core'
p163
tp164
a(S'meta-gumstix'
p165
S'gumstix'
p166
S'gumstix/meta-gumstix'
p167
tp168
a(S'meta-clang'
p169
S'kraj'
p170
S'kraj/meta-clang'
p171
tp172
a(S'meta-smartphone'
p173
S'shr-distribution'
p174
S'shr-distribution/meta-smartphone'
p175
tp176
a(S'meta-webos-ports'
p177
S'webOS-ports'
p178
S'webOS-ports/meta-webos-ports'
p179
tp180
a(S'meta-soletta'
p181
S'solettaproject'
p182
S'solettaproject/meta-soletta'
p183
tp184
a(S'meta-opie'
p185
S'bluelightning'
p186
S'bluelightning/meta-opie'
p187
tp188
a(S'meta-rockchip'
p189
S'linux-rockchip'
p190
S'linux-rockchip/meta-rockchip'
p191
tp192
a(S'meta-jetson-tk1'
p193
S'cubicool'
p194
S'cubicool/meta-jetson-tk1'
p195
tp196
a(S'meta-measured'
p197
S'flihp'
p198
S'flihp/meta-measured'
p199
tp200
a(S'meta-fsl-arm-extra'
p201
S'Freescale'
p202
S'Freescale/meta-fsl-arm-extra'
p203
tp204
a(S'meta-fsl-arm'
p205
S'Freescale'
p206
S'Freescale/meta-fsl-arm'
p207
tp208
a(S'meta-ros'
p209
S'bmwcarit'
p210
S'bmwcarit/meta-ros'
p211
tp212
a(S'meta-qt5'
p213
S'meta-qt5'
p214
S'meta-qt5/meta-qt5'
p215
tp216
a(S'meta-resin'
p217
S'resin-io'
p218
S'resin-io/meta-resin'
p219
tp220
a(S'meta-angstrom'
p221
S'Angstrom-distribution'
p222
S'Angstrom-distribution/meta-angstrom'
p223
tp224
a(S'meta-openembedded'
p225
S'openembedded'
p226
S'openembedded/meta-openembedded'
p227
tp228
a(S'oe-alliance-core'
p229
S'oe-alliance'
p230
S'oe-alliance/oe-alliance-core'
p231
tp232
a(S'meta-debian'
p233
S'meta-debian'
p234
S'meta-debian/meta-debian'
p235
tp236
a(S'meta-parallella'
p237
S'nathanrossi'
p238
S'nathanrossi/meta-parallella'
p239
tp240
a(S'meta-browser'
p241
S'OSSystems'
p242
S'OSSystems/meta-browser'
p243
tp244
a(S'meta-fsl-demos'
p245
S'Freescale'
p246
S'Freescale/meta-fsl-demos'
p247
tp248
a(S'meta-atmel'
p249
S'linux4sam'
p250
S'linux4sam/meta-atmel'
p251
tp252
a(S'meta-sdr'
p253
S'balister'
p254
S'balister/meta-sdr'
p255
tp256
a(S'openpli-oe-core'
p257
S'OpenPLi'
p258
S'OpenPLi/openpli-oe-core'
p259
tp260
a(S'meta-mali'
p261
S'ARM-software'
p262
S'ARM-software/meta-mali'
p263
tp264
a(S'meta-smartphone'
p265
S'shr-distribution'
p266
S'shr-distribution/meta-smartphone'
p267
tp268
a(S'meta-clang'
p269
S'kraj'
p270
S'kraj/meta-clang'
p271
tp272
a(S'meta-gumstix'
p273
S'gumstix'
p274
S'gumstix/meta-gumstix'
p275
tp276
a(S'meta-webos-ports'
p277
S'webOS-ports'
p278
S'webOS-ports/meta-webos-ports'
p279
tp280
a(S'meta-rockchip'
p281
S'linux-rockchip'
p282
S'linux-rockchip/meta-rockchip'
p283
tp284
a(S'meta-jetson-tk1'
p285
S'cubicool'
p286
S'cubicool/meta-jetson-tk1'
p287
tp288
a(S'meta-soletta'
p289
S'solettaproject'
p290
S'solettaproject/meta-soletta'
p291
tp292
a(S'meta-opie'
p293
S'bluelightning'
p294
S'bluelightning/meta-opie'
p295
tp296
a(S'meta-alext-edison'
p297
S'alext-mkrs'
p298
S'alext-mkrs/meta-alext-edison'
p299
tp300
a.