(lp0
(S'meta-webos'
p1
S'openwebos'
p2
S'openwebos/meta-webos'
p3
tp4
a(S'meta-ti'
p5
S'Angstrom-distribution'
p6
S'Angstrom-distribution/meta-ti'
p7
tp8
a(S'meta-java'
p9
S'woglinde'
p10
S'woglinde/meta-java'
p11
tp12
a(S'e2openplugins'
p13
S'E2OpenPlugins'
p14
S'E2OpenPlugins/e2openplugins'
p15
tp16
a(S'meta-igep'
p17
S'ebutera'
p18
S'ebutera/meta-igep'
p19
tp20
a(S'meta-rockchip'
p21
S'neo-technologies'
p22
S'neo-technologies/meta-rockchip'
p23
tp24
a(S'meta-stlinux'
p25
S'project-magpie'
p26
S'project-magpie/meta-stlinux'
p27
tp28
a(S'oe-core'
p29
S'Angstrom-distribution'
p30
S'Angstrom-distribution/oe-core'
p31
tp32
a(S'meta-kf5'
p33
S'e8johan'
p34
S'e8johan/meta-kf5'
p35
tp36
a(S'dm368ipnc'
p37
S'MikhailZinovkin'
p38
S'MikhailZinovkin/dm368ipnc'
p39
tp40
a(S'meta-zynq-gnuradio'
p41
S'jpendlum'
p42
S'jpendlum/meta-zynq-gnuradio'
p43
tp44
a(S'meta-opencpn'
p45
S'alan-mushi'
p46
S'alan-mushi/meta-opencpn'
p47
tp48
a(S'GENIVI-Gemini-Release'
p49
S'rCarUSA'
p50
S'rCarUSA/GENIVI-Gemini-Release'
p51
tp52
a(S'meta-linaro'
p53
S'Angstrom-distribution'
p54
S'Angstrom-distribution/meta-linaro'
p55
tp56
a(S'fbtft-yocto-recipe'
p57
S'wallacezq'
p58
S'wallacezq/fbtft-yocto-recipe'
p59
tp60
a(S'oe-alliance-core'
p61
S'sklnet'
p62
S'sklnet/oe-alliance-core'
p63
tp64
a(S'meta-ts'
p65
S'embeddedarm'
p66
S'embeddedarm/meta-ts'
p67
tp68
a(S'meta-stef'
p69
S'wolfgar'
p70
S'wolfgar/meta-stef'
p71
tp72
a(S'meta-xilinx'
p73
S'balister'
p74
S'balister/meta-xilinx'
p75
tp76
a(S'meta-hisilicon'
p77
S'hisilicon'
p78
S'hisilicon/meta-hisilicon'
p79
tp80
a(S'meta-cubox'
p81
S'dv1'
p82
S'dv1/meta-cubox'
p83
tp84
a(S'meta-mingw'
p85
S'fgretief'
p86
S'fgretief/meta-mingw'
p87
tp88
a(S'meta-magpie'
p89
S'project-magpie'
p90
S'project-magpie/meta-magpie'
p91
tp92
a(S'meta-ro-rootfs'
p93
S'MentorEmbedded'
p94
S'MentorEmbedded/meta-ro-rootfs'
p95
tp96
a(S'yocto_gumstix_dspbridge'
p97
S'plastikos'
p98
S'plastikos/yocto_gumstix_dspbridge'
p99
tp100
a(S'meta-webos'
p101
S'openwebos'
p102
S'openwebos/meta-webos'
p103
tp104
a(S'meta-ti'
p105
S'Angstrom-distribution'
p106
S'Angstrom-distribution/meta-ti'
p107
tp108
a(S'meta-java'
p109
S'woglinde'
p110
S'woglinde/meta-java'
p111
tp112
a(S'e2openplugins'
p113
S'E2OpenPlugins'
p114
S'E2OpenPlugins/e2openplugins'
p115
tp116
a(S'meta-igep'
p117
S'ebutera'
p118
S'ebutera/meta-igep'
p119
tp120
a(S'meta-rockchip'
p121
S'neo-technologies'
p122
S'neo-technologies/meta-rockchip'
p123
tp124
a(S'meta-stlinux'
p125
S'project-magpie'
p126
S'project-magpie/meta-stlinux'
p127
tp128
a(S'oe-core'
p129
S'Angstrom-distribution'
p130
S'Angstrom-distribution/oe-core'
p131
tp132
a(S'meta-kf5'
p133
S'e8johan'
p134
S'e8johan/meta-kf5'
p135
tp136
a(S'dm368ipnc'
p137
S'MikhailZinovkin'
p138
S'MikhailZinovkin/dm368ipnc'
p139
tp140
a(S'meta-zynq-gnuradio'
p141
S'jpendlum'
p142
S'jpendlum/meta-zynq-gnuradio'
p143
tp144
a(S'meta-opencpn'
p145
S'alan-mushi'
p146
S'alan-mushi/meta-opencpn'
p147
tp148
a(S'GENIVI-Gemini-Release'
p149
S'rCarUSA'
p150
S'rCarUSA/GENIVI-Gemini-Release'
p151
tp152
a(S'meta-linaro'
p153
S'Angstrom-distribution'
p154
S'Angstrom-distribution/meta-linaro'
p155
tp156
a(S'fbtft-yocto-recipe'
p157
S'wallacezq'
p158
S'wallacezq/fbtft-yocto-recipe'
p159
tp160
a(S'oe-alliance-core'
p161
S'sklnet'
p162
S'sklnet/oe-alliance-core'
p163
tp164
a(S'meta-ts'
p165
S'embeddedarm'
p166
S'embeddedarm/meta-ts'
p167
tp168
a(S'meta-stef'
p169
S'wolfgar'
p170
S'wolfgar/meta-stef'
p171
tp172
a(S'meta-xilinx'
p173
S'balister'
p174
S'balister/meta-xilinx'
p175
tp176
a(S'meta-hisilicon'
p177
S'hisilicon'
p178
S'hisilicon/meta-hisilicon'
p179
tp180
a(S'meta-cubox'
p181
S'dv1'
p182
S'dv1/meta-cubox'
p183
tp184
a(S'meta-mingw'
p185
S'fgretief'
p186
S'fgretief/meta-mingw'
p187
tp188
a(S'meta-magpie'
p189
S'project-magpie'
p190
S'project-magpie/meta-magpie'
p191
tp192
a(S'meta-ro-rootfs'
p193
S'MentorEmbedded'
p194
S'MentorEmbedded/meta-ro-rootfs'
p195
tp196
a(S'yocto_gumstix_dspbridge'
p197
S'plastikos'
p198
S'plastikos/yocto_gumstix_dspbridge'
p199
tp200
a(S'meta-webos'
p201
S'openwebos'
p202
S'openwebos/meta-webos'
p203
tp204
a(S'meta-ti'
p205
S'Angstrom-distribution'
p206
S'Angstrom-distribution/meta-ti'
p207
tp208
a(S'meta-java'
p209
S'woglinde'
p210
S'woglinde/meta-java'
p211
tp212
a(S'e2openplugins'
p213
S'E2OpenPlugins'
p214
S'E2OpenPlugins/e2openplugins'
p215
tp216
a(S'meta-igep'
p217
S'ebutera'
p218
S'ebutera/meta-igep'
p219
tp220
a(S'meta-rockchip'
p221
S'neo-technologies'
p222
S'neo-technologies/meta-rockchip'
p223
tp224
a(S'meta-stlinux'
p225
S'project-magpie'
p226
S'project-magpie/meta-stlinux'
p227
tp228
a(S'oe-core'
p229
S'Angstrom-distribution'
p230
S'Angstrom-distribution/oe-core'
p231
tp232
a(S'meta-kf5'
p233
S'e8johan'
p234
S'e8johan/meta-kf5'
p235
tp236
a(S'dm368ipnc'
p237
S'MikhailZinovkin'
p238
S'MikhailZinovkin/dm368ipnc'
p239
tp240
a(S'meta-zynq-gnuradio'
p241
S'jpendlum'
p242
S'jpendlum/meta-zynq-gnuradio'
p243
tp244
a(S'meta-opencpn'
p245
S'alan-mushi'
p246
S'alan-mushi/meta-opencpn'
p247
tp248
a(S'GENIVI-Gemini-Release'
p249
S'rCarUSA'
p250
S'rCarUSA/GENIVI-Gemini-Release'
p251
tp252
a(S'meta-linaro'
p253
S'Angstrom-distribution'
p254
S'Angstrom-distribution/meta-linaro'
p255
tp256
a(S'fbtft-yocto-recipe'
p257
S'wallacezq'
p258
S'wallacezq/fbtft-yocto-recipe'
p259
tp260
a(S'oe-alliance-core'
p261
S'sklnet'
p262
S'sklnet/oe-alliance-core'
p263
tp264
a(S'meta-ts'
p265
S'embeddedarm'
p266
S'embeddedarm/meta-ts'
p267
tp268
a(S'meta-stef'
p269
S'wolfgar'
p270
S'wolfgar/meta-stef'
p271
tp272
a(S'meta-xilinx'
p273
S'balister'
p274
S'balister/meta-xilinx'
p275
tp276
a(S'meta-hisilicon'
p277
S'hisilicon'
p278
S'hisilicon/meta-hisilicon'
p279
tp280
a(S'meta-cubox'
p281
S'dv1'
p282
S'dv1/meta-cubox'
p283
tp284
a(S'meta-mingw'
p285
S'fgretief'
p286
S'fgretief/meta-mingw'
p287
tp288
a(S'meta-magpie'
p289
S'project-magpie'
p290
S'project-magpie/meta-magpie'
p291
tp292
a(S'meta-ro-rootfs'
p293
S'MentorEmbedded'
p294
S'MentorEmbedded/meta-ro-rootfs'
p295
tp296
a(S'yocto_gumstix_dspbridge'
p297
S'plastikos'
p298
S'plastikos/yocto_gumstix_dspbridge'
p299
tp300
a.