(lp0
(S'TVTower'
p1
S'GWRon'
p2
S'GWRon/TVTower'
p3
tp4
a(S'ybc'
p5
S'Leushenko'
p6
S'Leushenko/ybc'
p7
tp8
a(S'bcc'
p9
S'bmx-ng'
p10
S'bmx-ng/bcc'
p11
tp12
a(S'prime.mod'
p13
S'kfprimm'
p14
S'kfprimm/prime.mod'
p15
tp16
a(S'bmx-ng'
p17
S'bmx-ng'
p18
S'bmx-ng/bmx-ng'
p19
tp20
a(S'maxide'
p21
S'nitrologic'
p22
S'nitrologic/maxide'
p23
tp24
a(S'maxgui.mod'
p25
S'bmx-ng'
p26
S'bmx-ng/maxgui.mod'
p27
tp28
a(S'brl.mod'
p29
S'maxmods'
p30
S'maxmods/brl.mod'
p31
tp32
a(S'Dig'
p33
S'GWRon'
p34
S'GWRon/Dig'
p35
tp36
a(S'duct-max'
p37
S'komiga'
p38
S'komiga/duct-max'
p39
tp40
a(S'srs.mod'
p41
S'SRSSoftware'
p42
S'SRSSoftware/srs.mod'
p43
tp44
a(S'maxb3dex.mod'
p45
S'kfprimm'
p46
S'kfprimm/maxb3dex.mod'
p47
tp48
a(S'bcc'
p49
S'jamiepg1'
p50
S'jamiepg1/bcc'
p51
tp52
a(S'TVTower'
p53
S'XtrmPrgrmmr'
p54
S'XtrmPrgrmmr/TVTower'
p55
tp56
a(S'TVTower'
p57
S'jamiepg1'
p58
S'jamiepg1/TVTower'
p59
tp60
a(S'minib3d'
p61
S'Chaduke'
p62
S'Chaduke/minib3d'
p63
tp64
a(S'SimpleCodeTester'
p65
S'woollybah'
p66
S'woollybah/SimpleCodeTester'
p67
tp68
a(S'bcc'
p69
S'GWRon'
p70
S'GWRon/bcc'
p71
tp72
a(S'Valentium-Wars'
p73
S'TME520'
p74
S'TME520/Valentium-Wars'
p75
tp76
a(S'Saturn-Wars'
p77
S'TME520'
p78
S'TME520/Saturn-Wars'
p79
tp80
a(S'armada210'
p81
S'TME520'
p82
S'TME520/armada210'
p83
tp84
a(S'SimpleCodeTester'
p85
S'GWRon'
p86
S'GWRon/SimpleCodeTester'
p87
tp88
a(S'boulderdash.game2d'
p89
S'wiebow'
p90
S'wiebow/boulderdash.game2d'
p91
tp92
a(S'mapletce'
p93
S'kfprimm'
p94
S'kfprimm/mapletce'
p95
tp96
a(S'scramblernd.game2d'
p97
S'wiebow'
p98
S'wiebow/scramblernd.game2d'
p99
tp100
a(S'TVTower'
p101
S'GWRon'
p102
S'GWRon/TVTower'
p103
tp104
a(S'ybc'
p105
S'Leushenko'
p106
S'Leushenko/ybc'
p107
tp108
a(S'bcc'
p109
S'bmx-ng'
p110
S'bmx-ng/bcc'
p111
tp112
a(S'prime.mod'
p113
S'kfprimm'
p114
S'kfprimm/prime.mod'
p115
tp116
a(S'bmx-ng'
p117
S'bmx-ng'
p118
S'bmx-ng/bmx-ng'
p119
tp120
a(S'maxide'
p121
S'nitrologic'
p122
S'nitrologic/maxide'
p123
tp124
a(S'maxgui.mod'
p125
S'bmx-ng'
p126
S'bmx-ng/maxgui.mod'
p127
tp128
a(S'brl.mod'
p129
S'maxmods'
p130
S'maxmods/brl.mod'
p131
tp132
a(S'Dig'
p133
S'GWRon'
p134
S'GWRon/Dig'
p135
tp136
a(S'duct-max'
p137
S'komiga'
p138
S'komiga/duct-max'
p139
tp140
a(S'srs.mod'
p141
S'SRSSoftware'
p142
S'SRSSoftware/srs.mod'
p143
tp144
a(S'maxb3dex.mod'
p145
S'kfprimm'
p146
S'kfprimm/maxb3dex.mod'
p147
tp148
a(S'bcc'
p149
S'jamiepg1'
p150
S'jamiepg1/bcc'
p151
tp152
a(S'TVTower'
p153
S'XtrmPrgrmmr'
p154
S'XtrmPrgrmmr/TVTower'
p155
tp156
a(S'TVTower'
p157
S'jamiepg1'
p158
S'jamiepg1/TVTower'
p159
tp160
a(S'minib3d'
p161
S'Chaduke'
p162
S'Chaduke/minib3d'
p163
tp164
a(S'SimpleCodeTester'
p165
S'woollybah'
p166
S'woollybah/SimpleCodeTester'
p167
tp168
a(S'bcc'
p169
S'GWRon'
p170
S'GWRon/bcc'
p171
tp172
a(S'Valentium-Wars'
p173
S'TME520'
p174
S'TME520/Valentium-Wars'
p175
tp176
a(S'Saturn-Wars'
p177
S'TME520'
p178
S'TME520/Saturn-Wars'
p179
tp180
a(S'armada210'
p181
S'TME520'
p182
S'TME520/armada210'
p183
tp184
a(S'SimpleCodeTester'
p185
S'GWRon'
p186
S'GWRon/SimpleCodeTester'
p187
tp188
a(S'boulderdash.game2d'
p189
S'wiebow'
p190
S'wiebow/boulderdash.game2d'
p191
tp192
a(S'mapletce'
p193
S'kfprimm'
p194
S'kfprimm/mapletce'
p195
tp196
a(S'scramblernd.game2d'
p197
S'wiebow'
p198
S'wiebow/scramblernd.game2d'
p199
tp200
a(S'TVTower'
p201
S'GWRon'
p202
S'GWRon/TVTower'
p203
tp204
a(S'ybc'
p205
S'Leushenko'
p206
S'Leushenko/ybc'
p207
tp208
a(S'bcc'
p209
S'bmx-ng'
p210
S'bmx-ng/bcc'
p211
tp212
a(S'prime.mod'
p213
S'kfprimm'
p214
S'kfprimm/prime.mod'
p215
tp216
a(S'bmx-ng'
p217
S'bmx-ng'
p218
S'bmx-ng/bmx-ng'
p219
tp220
a(S'maxide'
p221
S'nitrologic'
p222
S'nitrologic/maxide'
p223
tp224
a(S'maxgui.mod'
p225
S'bmx-ng'
p226
S'bmx-ng/maxgui.mod'
p227
tp228
a(S'brl.mod'
p229
S'maxmods'
p230
S'maxmods/brl.mod'
p231
tp232
a(S'Dig'
p233
S'GWRon'
p234
S'GWRon/Dig'
p235
tp236
a(S'duct-max'
p237
S'komiga'
p238
S'komiga/duct-max'
p239
tp240
a(S'srs.mod'
p241
S'SRSSoftware'
p242
S'SRSSoftware/srs.mod'
p243
tp244
a(S'maxb3dex.mod'
p245
S'kfprimm'
p246
S'kfprimm/maxb3dex.mod'
p247
tp248
a(S'bcc'
p249
S'jamiepg1'
p250
S'jamiepg1/bcc'
p251
tp252
a(S'TVTower'
p253
S'XtrmPrgrmmr'
p254
S'XtrmPrgrmmr/TVTower'
p255
tp256
a(S'TVTower'
p257
S'jamiepg1'
p258
S'jamiepg1/TVTower'
p259
tp260
a(S'minib3d'
p261
S'Chaduke'
p262
S'Chaduke/minib3d'
p263
tp264
a(S'SimpleCodeTester'
p265
S'woollybah'
p266
S'woollybah/SimpleCodeTester'
p267
tp268
a(S'bcc'
p269
S'GWRon'
p270
S'GWRon/bcc'
p271
tp272
a(S'Valentium-Wars'
p273
S'TME520'
p274
S'TME520/Valentium-Wars'
p275
tp276
a(S'Saturn-Wars'
p277
S'TME520'
p278
S'TME520/Saturn-Wars'
p279
tp280
a(S'armada210'
p281
S'TME520'
p282
S'TME520/armada210'
p283
tp284
a(S'SimpleCodeTester'
p285
S'GWRon'
p286
S'GWRon/SimpleCodeTester'
p287
tp288
a(S'boulderdash.game2d'
p289
S'wiebow'
p290
S'wiebow/boulderdash.game2d'
p291
tp292
a(S'mapletce'
p293
S'kfprimm'
p294
S'kfprimm/mapletce'
p295
tp296
a(S'scramblernd.game2d'
p297
S'wiebow'
p298
S'wiebow/scramblernd.game2d'
p299
tp300
a.