(lp0
(S'connectal'
p1
S'cambridgehackers'
p2
S'cambridgehackers/connectal'
p3
tp4
a(S'poi'
p5
S'opengeospatial'
p6
S'opengeospatial/poi'
p7
tp8
a(S'beri'
p9
S'CTSRD-CHERI'
p10
S'CTSRD-CHERI/beri'
p11
tp12
a(S'ssd-controller'
p13
S'lightstor'
p14
S'lightstor/ssd-controller'
p15
tp16
a(S'xbsv'
p17
S'cambridgehackers'
p18
S'cambridgehackers/xbsv'
p19
tp20
a(S'bluecheck'
p21
S'CTSRD-CHERI'
p22
S'CTSRD-CHERI/bluecheck'
p23
tp24
a(S'StructuralSpec'
p25
S'vmurali'
p26
S'vmurali/StructuralSpec'
p27
tp28
a(S'dbn'
p29
S'cambridgehackers'
p30
S'cambridgehackers/dbn'
p31
tp32
a(S'poi'
p33
S'jswz'
p34
S'jswz/poi'
p35
tp36
a(S'BlueLink'
p37
S'jeffreycassidy'
p38
S'jeffreycassidy/BlueLink'
p39
tp40
a(S'poi'
p41
S'ashleyholt'
p42
S'ashleyholt/poi'
p43
tp44
a(S'xbsv'
p45
S'chamdoo'
p46
S'chamdoo/xbsv'
p47
tp48
a(S'xbsv'
p49
S'suhaspai'
p50
S'suhaspai/xbsv'
p51
tp52
a(S'poi'
p53
S'reinij'
p54
S'reinij/poi'
p55
tp56
a(S'poi'
p57
S'ScottEvil'
p58
S'ScottEvil/poi'
p59
tp60
a(S'gymnoRTus'
p61
S'thotypous'
p62
S'thotypous/gymnoRTus'
p63
tp64
a(S'AcqSys'
p65
S'thotypous'
p66
S'thotypous/AcqSys'
p67
tp68
a(S'ByteOfPython'
p69
S'akgeni'
p70
S'akgeni/ByteOfPython'
p71
tp72
a(S'bluespec-80211atransmitter'
p73
S'freecores'
p74
S'freecores/bluespec-80211atransmitter'
p75
tp76
a(S'bluespec-h264'
p77
S'freecores'
p78
S'freecores/bluespec-h264'
p79
tp80
a(S'bluespec_md6'
p81
S'freecores'
p82
S'freecores/bluespec_md6'
p83
tp84
a(S'bluespec-reedsolomon'
p85
S'freecores'
p86
S'freecores/bluespec-reedsolomon'
p87
tp88
a(S'cryptosorter'
p89
S'freecores'
p90
S'freecores/cryptosorter'
p91
tp92
a(S'reedsolomon'
p93
S'freecores'
p94
S'freecores/reedsolomon'
p95
tp96
a(S'pixiTest'
p97
S'rishavs'
p98
S'rishavs/pixiTest'
p99
tp100
a(S'connectal'
p101
S'cambridgehackers'
p102
S'cambridgehackers/connectal'
p103
tp104
a(S'poi'
p105
S'opengeospatial'
p106
S'opengeospatial/poi'
p107
tp108
a(S'beri'
p109
S'CTSRD-CHERI'
p110
S'CTSRD-CHERI/beri'
p111
tp112
a(S'ssd-controller'
p113
S'lightstor'
p114
S'lightstor/ssd-controller'
p115
tp116
a(S'xbsv'
p117
S'cambridgehackers'
p118
S'cambridgehackers/xbsv'
p119
tp120
a(S'bluecheck'
p121
S'CTSRD-CHERI'
p122
S'CTSRD-CHERI/bluecheck'
p123
tp124
a(S'StructuralSpec'
p125
S'vmurali'
p126
S'vmurali/StructuralSpec'
p127
tp128
a(S'dbn'
p129
S'cambridgehackers'
p130
S'cambridgehackers/dbn'
p131
tp132
a(S'poi'
p133
S'jswz'
p134
S'jswz/poi'
p135
tp136
a(S'BlueLink'
p137
S'jeffreycassidy'
p138
S'jeffreycassidy/BlueLink'
p139
tp140
a(S'poi'
p141
S'ashleyholt'
p142
S'ashleyholt/poi'
p143
tp144
a(S'xbsv'
p145
S'chamdoo'
p146
S'chamdoo/xbsv'
p147
tp148
a(S'xbsv'
p149
S'suhaspai'
p150
S'suhaspai/xbsv'
p151
tp152
a(S'poi'
p153
S'reinij'
p154
S'reinij/poi'
p155
tp156
a(S'poi'
p157
S'ScottEvil'
p158
S'ScottEvil/poi'
p159
tp160
a(S'gymnoRTus'
p161
S'thotypous'
p162
S'thotypous/gymnoRTus'
p163
tp164
a(S'AcqSys'
p165
S'thotypous'
p166
S'thotypous/AcqSys'
p167
tp168
a(S'ByteOfPython'
p169
S'akgeni'
p170
S'akgeni/ByteOfPython'
p171
tp172
a(S'bluespec-80211atransmitter'
p173
S'freecores'
p174
S'freecores/bluespec-80211atransmitter'
p175
tp176
a(S'bluespec-h264'
p177
S'freecores'
p178
S'freecores/bluespec-h264'
p179
tp180
a(S'bluespec_md6'
p181
S'freecores'
p182
S'freecores/bluespec_md6'
p183
tp184
a(S'bluespec-reedsolomon'
p185
S'freecores'
p186
S'freecores/bluespec-reedsolomon'
p187
tp188
a(S'cryptosorter'
p189
S'freecores'
p190
S'freecores/cryptosorter'
p191
tp192
a(S'reedsolomon'
p193
S'freecores'
p194
S'freecores/reedsolomon'
p195
tp196
a(S'pixiTest'
p197
S'rishavs'
p198
S'rishavs/pixiTest'
p199
tp200
a(S'connectal'
p201
S'cambridgehackers'
p202
S'cambridgehackers/connectal'
p203
tp204
a(S'poi'
p205
S'opengeospatial'
p206
S'opengeospatial/poi'
p207
tp208
a(S'beri'
p209
S'CTSRD-CHERI'
p210
S'CTSRD-CHERI/beri'
p211
tp212
a(S'ssd-controller'
p213
S'lightstor'
p214
S'lightstor/ssd-controller'
p215
tp216
a(S'xbsv'
p217
S'cambridgehackers'
p218
S'cambridgehackers/xbsv'
p219
tp220
a(S'bluecheck'
p221
S'CTSRD-CHERI'
p222
S'CTSRD-CHERI/bluecheck'
p223
tp224
a(S'StructuralSpec'
p225
S'vmurali'
p226
S'vmurali/StructuralSpec'
p227
tp228
a(S'dbn'
p229
S'cambridgehackers'
p230
S'cambridgehackers/dbn'
p231
tp232
a(S'poi'
p233
S'jswz'
p234
S'jswz/poi'
p235
tp236
a(S'BlueLink'
p237
S'jeffreycassidy'
p238
S'jeffreycassidy/BlueLink'
p239
tp240
a(S'poi'
p241
S'ashleyholt'
p242
S'ashleyholt/poi'
p243
tp244
a(S'xbsv'
p245
S'chamdoo'
p246
S'chamdoo/xbsv'
p247
tp248
a(S'xbsv'
p249
S'suhaspai'
p250
S'suhaspai/xbsv'
p251
tp252
a(S'poi'
p253
S'reinij'
p254
S'reinij/poi'
p255
tp256
a(S'poi'
p257
S'ScottEvil'
p258
S'ScottEvil/poi'
p259
tp260
a(S'gymnoRTus'
p261
S'thotypous'
p262
S'thotypous/gymnoRTus'
p263
tp264
a(S'AcqSys'
p265
S'thotypous'
p266
S'thotypous/AcqSys'
p267
tp268
a(S'ByteOfPython'
p269
S'akgeni'
p270
S'akgeni/ByteOfPython'
p271
tp272
a(S'bluespec-80211atransmitter'
p273
S'freecores'
p274
S'freecores/bluespec-80211atransmitter'
p275
tp276
a(S'bluespec-h264'
p277
S'freecores'
p278
S'freecores/bluespec-h264'
p279
tp280
a(S'bluespec_md6'
p281
S'freecores'
p282
S'freecores/bluespec_md6'
p283
tp284
a(S'bluespec-reedsolomon'
p285
S'freecores'
p286
S'freecores/bluespec-reedsolomon'
p287
tp288
a(S'cryptosorter'
p289
S'freecores'
p290
S'freecores/cryptosorter'
p291
tp292
a(S'reedsolomon'
p293
S'freecores'
p294
S'freecores/reedsolomon'
p295
tp296
a(S'pixiTest'
p297
S'rishavs'
p298
S'rishavs/pixiTest'
p299
tp300
a.