(lp0
(S'unityscript'
p1
S'bamboo'
p2
S'bamboo/unityscript'
p3
tp4
a(S'boo-extensions'
p5
S'bamboo'
p6
S'bamboo/boo-extensions'
p7
tp8
a(S'unityscript'
p9
S'Unity-Technologies'
p10
S'Unity-Technologies/unityscript'
p11
tp12
a(S'hornget'
p13
S'dagda1'
p14
S'dagda1/hornget'
p15
tp16
a(S'boojay'
p17
S'bamboo'
p18
S'bamboo/boojay'
p19
tp20
a(S'euler'
p21
S'juanplopes'
p22
S'juanplopes/euler'
p23
tp24
a(S'Prospector'
p25
S'Shammah'
p26
S'Shammah/Prospector'
p27
tp28
a(S'BooBinding'
p29
S'drslump'
p30
S'drslump/BooBinding'
p31
tp32
a(S'spaceboulders'
p33
S'mikbe'
p34
S'mikbe/spaceboulders'
p35
tp36
a(S'rhino-etl'
p37
S'mvba'
p38
S'mvba/rhino-etl'
p39
tp40
a(S'boo-md-addins'
p41
S'bamboo'
p42
S'bamboo/boo-md-addins'
p43
tp44
a(S'boo-md-addins'
p45
S'Unity-Technologies'
p46
S'Unity-Technologies/boo-md-addins'
p47
tp48
a(S'Boospec'
p49
S'gbenatti'
p50
S'gbenatti/Boospec'
p51
tp52
a(S'boo-extensions'
p53
S'Unity-Technologies'
p54
S'Unity-Technologies/boo-extensions'
p55
tp56
a(S'unityscript'
p57
S'Tak'
p58
S'Tak/unityscript'
p59
tp60
a(S'machine.specifications.boo'
p61
S'drslump'
p62
S'drslump/machine.specifications.boo'
p63
tp64
a(S'Dotpack'
p65
S'daeken'
p66
S'daeken/Dotpack'
p67
tp68
a(S'SoundBlossom'
p69
S'daeken'
p70
S'daeken/SoundBlossom'
p71
tp72
a(S'boo-md-addins'
p73
S'Tak'
p74
S'Tak/boo-md-addins'
p75
tp76
a(S'Boo.Hints'
p77
S'drslump'
p78
S'drslump/Boo.Hints'
p79
tp80
a(S'rolling-santa'
p81
S'keijiro'
p82
S'keijiro/rolling-santa'
p83
tp84
a(S'BooSpec'
p85
S'willryan'
p86
S'willryan/BooSpec'
p87
tp88
a(S'Boobel'
p89
S'gbenatti'
p90
S'gbenatti/Boobel'
p91
tp92
a(S'boo-extensions'
p93
S'MaximTrushin'
p94
S'MaximTrushin/boo-extensions'
p95
tp96
a(S'BooRecordMacro'
p97
S'mausch'
p98
S'mausch/BooRecordMacro'
p99
tp100
a(S'unityscript'
p101
S'bamboo'
p102
S'bamboo/unityscript'
p103
tp104
a(S'boo-extensions'
p105
S'bamboo'
p106
S'bamboo/boo-extensions'
p107
tp108
a(S'unityscript'
p109
S'Unity-Technologies'
p110
S'Unity-Technologies/unityscript'
p111
tp112
a(S'hornget'
p113
S'dagda1'
p114
S'dagda1/hornget'
p115
tp116
a(S'boojay'
p117
S'bamboo'
p118
S'bamboo/boojay'
p119
tp120
a(S'euler'
p121
S'juanplopes'
p122
S'juanplopes/euler'
p123
tp124
a(S'Prospector'
p125
S'Shammah'
p126
S'Shammah/Prospector'
p127
tp128
a(S'BooBinding'
p129
S'drslump'
p130
S'drslump/BooBinding'
p131
tp132
a(S'spaceboulders'
p133
S'mikbe'
p134
S'mikbe/spaceboulders'
p135
tp136
a(S'rhino-etl'
p137
S'mvba'
p138
S'mvba/rhino-etl'
p139
tp140
a(S'boo-md-addins'
p141
S'bamboo'
p142
S'bamboo/boo-md-addins'
p143
tp144
a(S'boo-md-addins'
p145
S'Unity-Technologies'
p146
S'Unity-Technologies/boo-md-addins'
p147
tp148
a(S'Boospec'
p149
S'gbenatti'
p150
S'gbenatti/Boospec'
p151
tp152
a(S'boo-extensions'
p153
S'Unity-Technologies'
p154
S'Unity-Technologies/boo-extensions'
p155
tp156
a(S'unityscript'
p157
S'Tak'
p158
S'Tak/unityscript'
p159
tp160
a(S'machine.specifications.boo'
p161
S'drslump'
p162
S'drslump/machine.specifications.boo'
p163
tp164
a(S'Dotpack'
p165
S'daeken'
p166
S'daeken/Dotpack'
p167
tp168
a(S'SoundBlossom'
p169
S'daeken'
p170
S'daeken/SoundBlossom'
p171
tp172
a(S'boo-md-addins'
p173
S'Tak'
p174
S'Tak/boo-md-addins'
p175
tp176
a(S'Boo.Hints'
p177
S'drslump'
p178
S'drslump/Boo.Hints'
p179
tp180
a(S'rolling-santa'
p181
S'keijiro'
p182
S'keijiro/rolling-santa'
p183
tp184
a(S'BooSpec'
p185
S'willryan'
p186
S'willryan/BooSpec'
p187
tp188
a(S'Boobel'
p189
S'gbenatti'
p190
S'gbenatti/Boobel'
p191
tp192
a(S'boo-extensions'
p193
S'MaximTrushin'
p194
S'MaximTrushin/boo-extensions'
p195
tp196
a(S'BooRecordMacro'
p197
S'mausch'
p198
S'mausch/BooRecordMacro'
p199
tp200
a(S'unityscript'
p201
S'bamboo'
p202
S'bamboo/unityscript'
p203
tp204
a(S'boo-extensions'
p205
S'bamboo'
p206
S'bamboo/boo-extensions'
p207
tp208
a(S'unityscript'
p209
S'Unity-Technologies'
p210
S'Unity-Technologies/unityscript'
p211
tp212
a(S'hornget'
p213
S'dagda1'
p214
S'dagda1/hornget'
p215
tp216
a(S'boojay'
p217
S'bamboo'
p218
S'bamboo/boojay'
p219
tp220
a(S'euler'
p221
S'juanplopes'
p222
S'juanplopes/euler'
p223
tp224
a(S'Prospector'
p225
S'Shammah'
p226
S'Shammah/Prospector'
p227
tp228
a(S'BooBinding'
p229
S'drslump'
p230
S'drslump/BooBinding'
p231
tp232
a(S'spaceboulders'
p233
S'mikbe'
p234
S'mikbe/spaceboulders'
p235
tp236
a(S'rhino-etl'
p237
S'mvba'
p238
S'mvba/rhino-etl'
p239
tp240
a(S'boo-md-addins'
p241
S'bamboo'
p242
S'bamboo/boo-md-addins'
p243
tp244
a(S'boo-md-addins'
p245
S'Unity-Technologies'
p246
S'Unity-Technologies/boo-md-addins'
p247
tp248
a(S'Boospec'
p249
S'gbenatti'
p250
S'gbenatti/Boospec'
p251
tp252
a(S'boo-extensions'
p253
S'Unity-Technologies'
p254
S'Unity-Technologies/boo-extensions'
p255
tp256
a(S'unityscript'
p257
S'Tak'
p258
S'Tak/unityscript'
p259
tp260
a(S'machine.specifications.boo'
p261
S'drslump'
p262
S'drslump/machine.specifications.boo'
p263
tp264
a(S'Dotpack'
p265
S'daeken'
p266
S'daeken/Dotpack'
p267
tp268
a(S'SoundBlossom'
p269
S'daeken'
p270
S'daeken/SoundBlossom'
p271
tp272
a(S'boo-md-addins'
p273
S'Tak'
p274
S'Tak/boo-md-addins'
p275
tp276
a(S'Boo.Hints'
p277
S'drslump'
p278
S'drslump/Boo.Hints'
p279
tp280
a(S'rolling-santa'
p281
S'keijiro'
p282
S'keijiro/rolling-santa'
p283
tp284
a(S'BooSpec'
p285
S'willryan'
p286
S'willryan/BooSpec'
p287
tp288
a(S'Boobel'
p289
S'gbenatti'
p290
S'gbenatti/Boobel'
p291
tp292
a(S'boo-extensions'
p293
S'MaximTrushin'
p294
S'MaximTrushin/boo-extensions'
p295
tp296
a(S'BooRecordMacro'
p297
S'mausch'
p298
S'mausch/BooRecordMacro'
p299
tp300
a.