(lp0
(S'howistart'
p1
S'howistart'
p2
S'howistart/howistart'
p3
tp4
a(S'awib'
p5
S'matslina'
p6
S'matslina/awib'
p7
tp8
a(S'vim'
p9
S'hominlinx'
p10
S'hominlinx/vim'
p11
tp12
a(S'mergesort'
p13
S'hugopeixoto'
p14
S'hugopeixoto/mergesort'
p15
tp16
a(S'howistart'
p17
S'gigasquid'
p18
S'gigasquid/howistart'
p19
tp20
a(S'BF'
p21
S'segiddins'
p22
S'segiddins/BF'
p23
tp24
a(S'bfi'
p25
S'underscorejho'
p26
S'underscorejho/bfi'
p27
tp28
a(S'mapcode-java'
p29
S'mapcode-foundation'
p30
S'mapcode-foundation/mapcode-java'
p31
tp32
a(S'brainsuck'
p33
S'liancheng'
p34
S'liancheng/brainsuck'
p35
tp36
a(S'influenza_HA_evolution'
p37
S'wilkelab'
p38
S'wilkelab/influenza_HA_evolution'
p39
tp40
a(S'BICIB'
p41
S'NonerKao'
p42
S'NonerKao/BICIB'
p43
tp44
a(S'beteckna'
p45
S'jeffmcneill'
p46
S'jeffmcneill/beteckna'
p47
tp48
a(S'oj'
p49
S'atupal'
p50
S'atupal/oj'
p51
tp52
a(S'inferno-opt-skel'
p53
S'powerman'
p54
S'powerman/inferno-opt-skel'
p55
tp56
a(S'bfd'
p57
S'nomad-software'
p58
S'nomad-software/bfd'
p59
tp60
a(S'BFString2Binary'
p61
S'Deamon5550'
p62
S'Deamon5550/BFString2Binary'
p63
tp64
a(S'Trials-and-Tribulations-Series'
p65
S'qutcode'
p66
S'qutcode/Trials-and-Tribulations-Series'
p67
tp68
a(S'resume'
p69
S'37point2'
p70
S'37point2/resume'
p71
tp72
a(S'codejam-2015'
p73
S'123jimin'
p74
S'123jimin/codejam-2015'
p75
tp76
a(S'inferno-contrib-tap'
p77
S'powerman'
p78
S'powerman/inferno-contrib-tap'
p79
tp80
a(S'kazoosh-website'
p81
S'kazooshwebsite'
p82
S'kazooshwebsite/kazoosh-website'
p83
tp84
a(S'SimpleEsotericInterpreter'
p85
S'AnthonyBongers'
p86
S'AnthonyBongers/SimpleEsotericInterpreter'
p87
tp88
a(S'bf_bench'
p89
S'Wilfred'
p90
S'Wilfred/bf_bench'
p91
tp92
a(S'llvm-bf'
p93
S'nojb'
p94
S'nojb/llvm-bf'
p95
tp96
a(S'TP4info'
p97
S'MagicalLay'
p98
S'MagicalLay/TP4info'
p99
tp100
a(S'howistart'
p101
S'howistart'
p102
S'howistart/howistart'
p103
tp104
a(S'awib'
p105
S'matslina'
p106
S'matslina/awib'
p107
tp108
a(S'vim'
p109
S'hominlinx'
p110
S'hominlinx/vim'
p111
tp112
a(S'mergesort'
p113
S'hugopeixoto'
p114
S'hugopeixoto/mergesort'
p115
tp116
a(S'howistart'
p117
S'gigasquid'
p118
S'gigasquid/howistart'
p119
tp120
a(S'BF'
p121
S'segiddins'
p122
S'segiddins/BF'
p123
tp124
a(S'bfi'
p125
S'underscorejho'
p126
S'underscorejho/bfi'
p127
tp128
a(S'mapcode-java'
p129
S'mapcode-foundation'
p130
S'mapcode-foundation/mapcode-java'
p131
tp132
a(S'brainsuck'
p133
S'liancheng'
p134
S'liancheng/brainsuck'
p135
tp136
a(S'influenza_HA_evolution'
p137
S'wilkelab'
p138
S'wilkelab/influenza_HA_evolution'
p139
tp140
a(S'BICIB'
p141
S'NonerKao'
p142
S'NonerKao/BICIB'
p143
tp144
a(S'beteckna'
p145
S'jeffmcneill'
p146
S'jeffmcneill/beteckna'
p147
tp148
a(S'oj'
p149
S'atupal'
p150
S'atupal/oj'
p151
tp152
a(S'inferno-opt-skel'
p153
S'powerman'
p154
S'powerman/inferno-opt-skel'
p155
tp156
a(S'bfd'
p157
S'nomad-software'
p158
S'nomad-software/bfd'
p159
tp160
a(S'BFString2Binary'
p161
S'Deamon5550'
p162
S'Deamon5550/BFString2Binary'
p163
tp164
a(S'Trials-and-Tribulations-Series'
p165
S'qutcode'
p166
S'qutcode/Trials-and-Tribulations-Series'
p167
tp168
a(S'resume'
p169
S'37point2'
p170
S'37point2/resume'
p171
tp172
a(S'codejam-2015'
p173
S'123jimin'
p174
S'123jimin/codejam-2015'
p175
tp176
a(S'inferno-contrib-tap'
p177
S'powerman'
p178
S'powerman/inferno-contrib-tap'
p179
tp180
a(S'kazoosh-website'
p181
S'kazooshwebsite'
p182
S'kazooshwebsite/kazoosh-website'
p183
tp184
a(S'SimpleEsotericInterpreter'
p185
S'AnthonyBongers'
p186
S'AnthonyBongers/SimpleEsotericInterpreter'
p187
tp188
a(S'bf_bench'
p189
S'Wilfred'
p190
S'Wilfred/bf_bench'
p191
tp192
a(S'llvm-bf'
p193
S'nojb'
p194
S'nojb/llvm-bf'
p195
tp196
a(S'TP4info'
p197
S'MagicalLay'
p198
S'MagicalLay/TP4info'
p199
tp200
a(S'howistart'
p201
S'howistart'
p202
S'howistart/howistart'
p203
tp204
a(S'awib'
p205
S'matslina'
p206
S'matslina/awib'
p207
tp208
a(S'vim'
p209
S'hominlinx'
p210
S'hominlinx/vim'
p211
tp212
a(S'mergesort'
p213
S'hugopeixoto'
p214
S'hugopeixoto/mergesort'
p215
tp216
a(S'howistart'
p217
S'gigasquid'
p218
S'gigasquid/howistart'
p219
tp220
a(S'BF'
p221
S'segiddins'
p222
S'segiddins/BF'
p223
tp224
a(S'bfi'
p225
S'underscorejho'
p226
S'underscorejho/bfi'
p227
tp228
a(S'mapcode-java'
p229
S'mapcode-foundation'
p230
S'mapcode-foundation/mapcode-java'
p231
tp232
a(S'brainsuck'
p233
S'liancheng'
p234
S'liancheng/brainsuck'
p235
tp236
a(S'influenza_HA_evolution'
p237
S'wilkelab'
p238
S'wilkelab/influenza_HA_evolution'
p239
tp240
a(S'BICIB'
p241
S'NonerKao'
p242
S'NonerKao/BICIB'
p243
tp244
a(S'beteckna'
p245
S'jeffmcneill'
p246
S'jeffmcneill/beteckna'
p247
tp248
a(S'oj'
p249
S'atupal'
p250
S'atupal/oj'
p251
tp252
a(S'inferno-opt-skel'
p253
S'powerman'
p254
S'powerman/inferno-opt-skel'
p255
tp256
a(S'bfd'
p257
S'nomad-software'
p258
S'nomad-software/bfd'
p259
tp260
a(S'BFString2Binary'
p261
S'Deamon5550'
p262
S'Deamon5550/BFString2Binary'
p263
tp264
a(S'Trials-and-Tribulations-Series'
p265
S'qutcode'
p266
S'qutcode/Trials-and-Tribulations-Series'
p267
tp268
a(S'resume'
p269
S'37point2'
p270
S'37point2/resume'
p271
tp272
a(S'codejam-2015'
p273
S'123jimin'
p274
S'123jimin/codejam-2015'
p275
tp276
a(S'inferno-contrib-tap'
p277
S'powerman'
p278
S'powerman/inferno-contrib-tap'
p279
tp280
a(S'kazoosh-website'
p281
S'kazooshwebsite'
p282
S'kazooshwebsite/kazoosh-website'
p283
tp284
a(S'SimpleEsotericInterpreter'
p285
S'AnthonyBongers'
p286
S'AnthonyBongers/SimpleEsotericInterpreter'
p287
tp288
a(S'bf_bench'
p289
S'Wilfred'
p290
S'Wilfred/bf_bench'
p291
tp292
a(S'llvm-bf'
p293
S'nojb'
p294
S'nojb/llvm-bf'
p295
tp296
a(S'TP4info'
p297
S'MagicalLay'
p298
S'MagicalLay/TP4info'
p299
tp300
a.