(lp0
(S'roku-client-public'
p1
S'plexinc'
p2
S'plexinc/roku-client-public'
p3
tp4
a(S'rarflix'
p5
S'ljunkie'
p6
S'ljunkie/rarflix'
p7
tp8
a(S'roku-hdhomerun'
p9
S'computmaxer'
p10
S'computmaxer/roku-hdhomerun'
p11
tp12
a(S'Emby.Roku'
p13
S'MediaBrowser'
p14
S'MediaBrowser/Emby.Roku'
p15
tp16
a(S'trimeplay'
p17
S'thetrime'
p18
S'thetrime/trimeplay'
p19
tp20
a(S'Roku-Sample-App'
p21
S'BrightcoveOS'
p22
S'BrightcoveOS/Roku-Sample-App'
p23
tp24
a(S'myvideobuzz'
p25
S'Protuhj'
p26
S'Protuhj/myvideobuzz'
p27
tp28
a(S'MythRokuPlayer'
p29
S'ear9mrn'
p30
S'ear9mrn/MythRokuPlayer'
p31
tp32
a(S'roku-lib'
p33
S'dphang'
p34
S'dphang/roku-lib'
p35
tp36
a(S'roku-tinydesk'
p37
S'nprapps'
p38
S'nprapps/roku-tinydesk'
p39
tp40
a(S'roku_subsonic'
p41
S'maihde'
p42
S'maihde/roku_subsonic'
p43
tp44
a(S'TorrenTV-Roku'
p45
S'TorrenTV'
p46
S'TorrenTV/TorrenTV-Roku'
p47
tp48
a(S'myvideobuzz'
p49
S'utmostsolutions'
p50
S'utmostsolutions/myvideobuzz'
p51
tp52
a(S'HMS'
p53
S'bcl'
p54
S'bcl/HMS'
p55
tp56
a(S'brstest'
p57
S'MarkRoddy'
p58
S'MarkRoddy/brstest'
p59
tp60
a(S'jb-roku'
p61
S'cbojar'
p62
S'cbojar/jb-roku'
p63
tp64
a(S'BrightAuthor-Plugins'
p65
S'brightsign'
p66
S'brightsign/BrightAuthor-Plugins'
p67
tp68
a(S'2014AprilStirTrek'
p69
S'stirtrek'
p70
S'stirtrek/2014AprilStirTrek'
p71
tp72
a(S'putioroku'
p73
S'putdotio'
p74
S'putdotio/putioroku'
p75
tp76
a(S'zype-roku'
p77
S'zype'
p78
S'zype/zype-roku'
p79
tp80
a(S'ZDFMediathekRoku'
p81
S'thorbenprimke'
p82
S'thorbenprimke/ZDFMediathekRoku'
p83
tp84
a(S'roku-house'
p85
S'sunlightlabs'
p86
S'sunlightlabs/roku-house'
p87
tp88
a(S'tagesschau-on-roku'
p89
S'henningSaul'
p90
S'henningSaul/tagesschau-on-roku'
p91
tp92
a(S'firefox-roku'
p93
S'mozilla'
p94
S'mozilla/firefox-roku'
p95
tp96
a(S'BYU-I-Roku-Channel'
p97
S'BYUI-Web'
p98
S'BYUI-Web/BYU-I-Roku-Channel'
p99
tp100
a(S'myvideobuzz'
p101
S'Protuhj'
p102
S'Protuhj/myvideobuzz'
p103
tp104
a(S'roku-client-public'
p105
S'plexinc'
p106
S'plexinc/roku-client-public'
p107
tp108
a(S'rarflix'
p109
S'ljunkie'
p110
S'ljunkie/rarflix'
p111
tp112
a(S'roku-hdhomerun'
p113
S'computmaxer'
p114
S'computmaxer/roku-hdhomerun'
p115
tp116
a(S'Emby.Roku'
p117
S'MediaBrowser'
p118
S'MediaBrowser/Emby.Roku'
p119
tp120
a(S'trimeplay'
p121
S'thetrime'
p122
S'thetrime/trimeplay'
p123
tp124
a(S'Roku-Sample-App'
p125
S'BrightcoveOS'
p126
S'BrightcoveOS/Roku-Sample-App'
p127
tp128
a(S'MythRokuPlayer'
p129
S'ear9mrn'
p130
S'ear9mrn/MythRokuPlayer'
p131
tp132
a(S'roku-tinydesk'
p133
S'nprapps'
p134
S'nprapps/roku-tinydesk'
p135
tp136
a(S'roku-lib'
p137
S'dphang'
p138
S'dphang/roku-lib'
p139
tp140
a(S'roku_subsonic'
p141
S'maihde'
p142
S'maihde/roku_subsonic'
p143
tp144
a(S'TorrenTV-Roku'
p145
S'TorrenTV'
p146
S'TorrenTV/TorrenTV-Roku'
p147
tp148
a(S'HMS'
p149
S'bcl'
p150
S'bcl/HMS'
p151
tp152
a(S'brstest'
p153
S'MarkRoddy'
p154
S'MarkRoddy/brstest'
p155
tp156
a(S'myvideobuzz'
p157
S'utmostsolutions'
p158
S'utmostsolutions/myvideobuzz'
p159
tp160
a(S'jb-roku'
p161
S'cbojar'
p162
S'cbojar/jb-roku'
p163
tp164
a(S'BrightAuthor-Plugins'
p165
S'brightsign'
p166
S'brightsign/BrightAuthor-Plugins'
p167
tp168
a(S'2014AprilStirTrek'
p169
S'stirtrek'
p170
S'stirtrek/2014AprilStirTrek'
p171
tp172
a(S'putioroku'
p173
S'putdotio'
p174
S'putdotio/putioroku'
p175
tp176
a(S'zype-roku'
p177
S'zype'
p178
S'zype/zype-roku'
p179
tp180
a(S'ZDFMediathekRoku'
p181
S'thorbenprimke'
p182
S'thorbenprimke/ZDFMediathekRoku'
p183
tp184
a(S'roku-house'
p185
S'sunlightlabs'
p186
S'sunlightlabs/roku-house'
p187
tp188
a(S'tagesschau-on-roku'
p189
S'henningSaul'
p190
S'henningSaul/tagesschau-on-roku'
p191
tp192
a(S'firefox-roku'
p193
S'mozilla'
p194
S'mozilla/firefox-roku'
p195
tp196
a(S'rarflix'
p197
S'razorloves'
p198
S'razorloves/rarflix'
p199
tp200
a.