(lp0
(S'bro-gramming'
p1
S'michalpurzynski'
p2
S'michalpurzynski/bro-gramming'
p3
tp4
a(S'bro-scripts'
p5
S'LiamRandall'
p6
S'LiamRandall/bro-scripts'
p7
tp8
a(S'bro-scripts'
p9
S'criticalstack'
p10
S'criticalstack/bro-scripts'
p11
tp12
a(S'cs-bro'
p13
S'CrowdStrike'
p14
S'CrowdStrike/cs-bro'
p15
tp16
a(S'bro-scripts'
p17
S'sooshie'
p18
S'sooshie/bro-scripts'
p19
tp20
a(S'BroMalware-Exercise'
p21
S'LiamRandall'
p22
S'LiamRandall/BroMalware-Exercise'
p23
tp24
a(S'bro_scripts'
p25
S'JustinAzoff'
p26
S'JustinAzoff/bro_scripts'
p27
tp28
a(S'bro-scripts'
p29
S'reservoirlabs'
p30
S'reservoirlabs/bro-scripts'
p31
tp32
a(S'docker-bro'
p33
S'blacktop'
p34
S'blacktop/docker-bro'
p35
tp36
a(S'bro-apt1'
p37
S'sethhall'
p38
S'sethhall/bro-apt1'
p39
tp40
a(S'bro-scripts'
p41
S'sethhall'
p42
S'sethhall/bro-scripts'
p43
tp44
a(S'bro-scripts'
p45
S'jonschipp'
p46
S'jonschipp/bro-scripts'
p47
tp48
a(S'bro-scripts'
p49
S'bro'
p50
S'bro/bro-scripts'
p51
tp52
a(S'BotFlex'
p53
S'sheharbano'
p54
S'sheharbano/BotFlex'
p55
tp56
a(S'bro-shellshock'
p57
S'broala'
p58
S'broala/bro-shellshock'
p59
tp60
a(S'bro-scripts'
p61
S'fox-it'
p62
S'fox-it/bro-scripts'
p63
tp64
a(S'scratch_pad'
p65
S'anthonykasza'
p66
S'anthonykasza/scratch_pad'
p67
tp68
a(S'bro-junk-drawer'
p69
S'sethhall'
p70
S'sethhall/bro-junk-drawer'
p71
tp72
a(S'Bro-samples'
p73
S'aboutsecurity'
p74
S'aboutsecurity/Bro-samples'
p75
tp76
a(S'bro-snippets'
p77
S'broala'
p78
S'broala/bro-snippets'
p79
tp80
a(S'Correlation-Framework'
p81
S'sheharbano'
p82
S'sheharbano/Correlation-Framework'
p83
tp84
a(S'bro-securityonion'
p85
S'sethhall'
p86
S'sethhall/bro-securityonion'
p87
tp88
a(S'brospects'
p89
S'mavam'
p90
S'mavam/brospects'
p91
tp92
a(S'BroTraining-2013-12'
p93
S'LiamRandall'
p94
S'LiamRandall/BroTraining-2013-12'
p95
tp96
a(S'bro-file-extraction'
p97
S'hosom'
p98
S'hosom/bro-file-extraction'
p99
tp100
a(S'bro-gramming'
p101
S'michalpurzynski'
p102
S'michalpurzynski/bro-gramming'
p103
tp104
a(S'bro-scripts'
p105
S'LiamRandall'
p106
S'LiamRandall/bro-scripts'
p107
tp108
a(S'bro-scripts'
p109
S'criticalstack'
p110
S'criticalstack/bro-scripts'
p111
tp112
a(S'cs-bro'
p113
S'CrowdStrike'
p114
S'CrowdStrike/cs-bro'
p115
tp116
a(S'bro-scripts'
p117
S'sooshie'
p118
S'sooshie/bro-scripts'
p119
tp120
a(S'BroMalware-Exercise'
p121
S'LiamRandall'
p122
S'LiamRandall/BroMalware-Exercise'
p123
tp124
a(S'bro_scripts'
p125
S'JustinAzoff'
p126
S'JustinAzoff/bro_scripts'
p127
tp128
a(S'bro-scripts'
p129
S'reservoirlabs'
p130
S'reservoirlabs/bro-scripts'
p131
tp132
a(S'docker-bro'
p133
S'blacktop'
p134
S'blacktop/docker-bro'
p135
tp136
a(S'bro-apt1'
p137
S'sethhall'
p138
S'sethhall/bro-apt1'
p139
tp140
a(S'bro-scripts'
p141
S'sethhall'
p142
S'sethhall/bro-scripts'
p143
tp144
a(S'bro-scripts'
p145
S'jonschipp'
p146
S'jonschipp/bro-scripts'
p147
tp148
a(S'bro-scripts'
p149
S'bro'
p150
S'bro/bro-scripts'
p151
tp152
a(S'BotFlex'
p153
S'sheharbano'
p154
S'sheharbano/BotFlex'
p155
tp156
a(S'bro-shellshock'
p157
S'broala'
p158
S'broala/bro-shellshock'
p159
tp160
a(S'bro-scripts'
p161
S'fox-it'
p162
S'fox-it/bro-scripts'
p163
tp164
a(S'scratch_pad'
p165
S'anthonykasza'
p166
S'anthonykasza/scratch_pad'
p167
tp168
a(S'bro-junk-drawer'
p169
S'sethhall'
p170
S'sethhall/bro-junk-drawer'
p171
tp172
a(S'Bro-samples'
p173
S'aboutsecurity'
p174
S'aboutsecurity/Bro-samples'
p175
tp176
a(S'bro-snippets'
p177
S'broala'
p178
S'broala/bro-snippets'
p179
tp180
a(S'Correlation-Framework'
p181
S'sheharbano'
p182
S'sheharbano/Correlation-Framework'
p183
tp184
a(S'bro-securityonion'
p185
S'sethhall'
p186
S'sethhall/bro-securityonion'
p187
tp188
a(S'brospects'
p189
S'mavam'
p190
S'mavam/brospects'
p191
tp192
a(S'BroTraining-2013-12'
p193
S'LiamRandall'
p194
S'LiamRandall/BroTraining-2013-12'
p195
tp196
a(S'bro-file-extraction'
p197
S'hosom'
p198
S'hosom/bro-file-extraction'
p199
tp200
a(S'bro-gramming'
p201
S'michalpurzynski'
p202
S'michalpurzynski/bro-gramming'
p203
tp204
a(S'bro-scripts'
p205
S'LiamRandall'
p206
S'LiamRandall/bro-scripts'
p207
tp208
a(S'bro-scripts'
p209
S'criticalstack'
p210
S'criticalstack/bro-scripts'
p211
tp212
a(S'cs-bro'
p213
S'CrowdStrike'
p214
S'CrowdStrike/cs-bro'
p215
tp216
a(S'bro-scripts'
p217
S'sooshie'
p218
S'sooshie/bro-scripts'
p219
tp220
a(S'BroMalware-Exercise'
p221
S'LiamRandall'
p222
S'LiamRandall/BroMalware-Exercise'
p223
tp224
a(S'bro_scripts'
p225
S'JustinAzoff'
p226
S'JustinAzoff/bro_scripts'
p227
tp228
a(S'bro-scripts'
p229
S'reservoirlabs'
p230
S'reservoirlabs/bro-scripts'
p231
tp232
a(S'docker-bro'
p233
S'blacktop'
p234
S'blacktop/docker-bro'
p235
tp236
a(S'bro-apt1'
p237
S'sethhall'
p238
S'sethhall/bro-apt1'
p239
tp240
a(S'bro-scripts'
p241
S'sethhall'
p242
S'sethhall/bro-scripts'
p243
tp244
a(S'bro-scripts'
p245
S'jonschipp'
p246
S'jonschipp/bro-scripts'
p247
tp248
a(S'bro-scripts'
p249
S'bro'
p250
S'bro/bro-scripts'
p251
tp252
a(S'BotFlex'
p253
S'sheharbano'
p254
S'sheharbano/BotFlex'
p255
tp256
a(S'bro-shellshock'
p257
S'broala'
p258
S'broala/bro-shellshock'
p259
tp260
a(S'bro-scripts'
p261
S'fox-it'
p262
S'fox-it/bro-scripts'
p263
tp264
a(S'scratch_pad'
p265
S'anthonykasza'
p266
S'anthonykasza/scratch_pad'
p267
tp268
a(S'bro-junk-drawer'
p269
S'sethhall'
p270
S'sethhall/bro-junk-drawer'
p271
tp272
a(S'Bro-samples'
p273
S'aboutsecurity'
p274
S'aboutsecurity/Bro-samples'
p275
tp276
a(S'bro-snippets'
p277
S'broala'
p278
S'broala/bro-snippets'
p279
tp280
a(S'Correlation-Framework'
p281
S'sheharbano'
p282
S'sheharbano/Correlation-Framework'
p283
tp284
a(S'bro-securityonion'
p285
S'sethhall'
p286
S'sethhall/bro-securityonion'
p287
tp288
a(S'brospects'
p289
S'mavam'
p290
S'mavam/brospects'
p291
tp292
a(S'BroTraining-2013-12'
p293
S'LiamRandall'
p294
S'LiamRandall/BroTraining-2013-12'
p295
tp296
a(S'bro-file-extraction'
p297
S'hosom'
p298
S'hosom/bro-file-extraction'
p299
tp300
a.