(lp0
(S'sandbox-attacksurface-analysis-tools'
p1
S'google'
p2
S'google/sandbox-attacksurface-analysis-tools'
p3
tp4
a(S'CacheManager'
p5
S'MichaCo'
p6
S'MichaCo/CacheManager'
p7
tp8
a(S'Marten'
p9
S'JasperFx'
p10
S'JasperFx/Marten'
p11
tp12
a(S'ShareX'
p13
S'ShareX'
p14
S'ShareX/ShareX'
p15
tp16
a(S'shadowsocks-windows'
p17
S'shadowsocks'
p18
S'shadowsocks/shadowsocks-windows'
p19
tp20
a(S'PTVS'
p21
S'Microsoft'
p22
S'Microsoft/PTVS'
p23
tp24
a(S'mono'
p25
S'mono'
p26
S'mono/mono'
p27
tp28
a(S'dapper-dot-net'
p29
S'StackExchange'
p30
S'StackExchange/dapper-dot-net'
p31
tp32
a(S'Prism'
p33
S'PrismLibrary'
p34
S'PrismLibrary/Prism'
p35
tp36
a(S'Newtonsoft.Json'
p37
S'JamesNK'
p38
S'JamesNK/Newtonsoft.Json'
p39
tp40
a(S'TemplateEngine.Docx'
p41
S'UNIT6-open'
p42
S'UNIT6-open/TemplateEngine.Docx'
p43
tp44
a(S'Docs'
p45
S'aspnet'
p46
S'aspnet/Docs'
p47
tp48
a(S'coreclr'
p49
S'dotnet'
p50
S'dotnet/coreclr'
p51
tp52
a(S'vk'
p53
S'vknet'
p54
S'vknet/vk'
p55
tp56
a(S'dropbox-sdk-dotnet'
p57
S'dropbox'
p58
S'dropbox/dropbox-sdk-dotnet'
p59
tp60
a(S'libgit2sharp'
p61
S'libgit2'
p62
S'libgit2/libgit2sharp'
p63
tp64
a(S'monodroid-samples'
p65
S'xamarin'
p66
S'xamarin/monodroid-samples'
p67
tp68
a(S'Mvc'
p69
S'aspnet'
p70
S'aspnet/Mvc'
p71
tp72
a(S'MailKit'
p73
S'jstedfast'
p74
S'jstedfast/MailKit'
p75
tp76
a(S'CocosSharp'
p77
S'mono'
p78
S'mono/CocosSharp'
p79
tp80
a(S'Locale-Emulator'
p81
S'xupefei'
p82
S'xupefei/Locale-Emulator'
p83
tp84
a(S'dockpanelsuite'
p85
S'dockpanelsuite'
p86
S'dockpanelsuite/dockpanelsuite'
p87
tp88
a(S'npgsql'
p89
S'npgsql'
p90
S'npgsql/npgsql'
p91
tp92
a(S'SharpDX'
p93
S'sharpdx'
p94
S'sharpdx/SharpDX'
p95
tp96
a(S'SteamKit'
p97
S'SteamRE'
p98
S'SteamRE/SteamKit'
p99
tp100
a(S'Microphone'
p101
S'rogeralsing'
p102
S'rogeralsing/Microphone'
p103
tp104
a(S'cloudscribe'
p105
S'joeaudette'
p106
S'joeaudette/cloudscribe'
p107
tp108
a(S'sandbox-attacksurface-analysis-tools'
p109
S'google'
p110
S'google/sandbox-attacksurface-analysis-tools'
p111
tp112
a(S'ShareX'
p113
S'ShareX'
p114
S'ShareX/ShareX'
p115
tp116
a(S'roslyn'
p117
S'dotnet'
p118
S'dotnet/roslyn'
p119
tp120
a(S'TemplateEngine.Docx'
p121
S'UNIT6-open'
p122
S'UNIT6-open/TemplateEngine.Docx'
p123
tp124
a(S'shadowsocks-windows'
p125
S'shadowsocks'
p126
S'shadowsocks/shadowsocks-windows'
p127
tp128
a(S'dapper-dot-net'
p129
S'StackExchange'
p130
S'StackExchange/dapper-dot-net'
p131
tp132
a(S'EntityFramework'
p133
S'aspnet'
p134
S'aspnet/EntityFramework'
p135
tp136
a(S'corefx'
p137
S'dotnet'
p138
S'dotnet/corefx'
p139
tp140
a(S'Destroy-Windows-10-Spying'
p141
S'Nummer'
p142
S'Nummer/Destroy-Windows-10-Spying'
p143
tp144
a(S'ASP.NET-MVC-Boilerplate'
p145
S'RehanSaeed'
p146
S'RehanSaeed/ASP.NET-MVC-Boilerplate'
p147
tp148
a(S'mono'
p149
S'mono'
p150
S'mono/mono'
p151
tp152
a(S'RestSharp'
p153
S'restsharp'
p154
S'restsharp/RestSharp'
p155
tp156
a(S'coreclr'
p157
S'dotnet'
p158
S'dotnet/coreclr'
p159
tp160
a(S'AutoMapper'
p161
S'AutoMapper'
p162
S'AutoMapper/AutoMapper'
p163
tp164
a(S'Marten'
p165
S'JasperFx'
p166
S'JasperFx/Marten'
p167
tp168
a(S'orleans'
p169
S'dotnet'
p170
S'dotnet/orleans'
p171
tp172
a(S'Prism'
p173
S'PrismLibrary'
p174
S'PrismLibrary/Prism'
p175
tp176
a(S'BenchmarkDotNet'
p177
S'PerfDotNet'
p178
S'PerfDotNet/BenchmarkDotNet'
p179
tp180
a(S'Mvc'
p181
S'aspnet'
p182
S'aspnet/Mvc'
p183
tp184
a(S'Sonarr'
p185
S'Sonarr'
p186
S'Sonarr/Sonarr'
p187
tp188
a(S'Newtonsoft.Json'
p189
S'JamesNK'
p190
S'JamesNK/Newtonsoft.Json'
p191
tp192
a(S'aspnetboilerplate'
p193
S'aspnetboilerplate'
p194
S'aspnetboilerplate/aspnetboilerplate'
p195
tp196
a(S'IdentityServer3'
p197
S'IdentityServer'
p198
S'IdentityServer/IdentityServer3'
p199
tp200
a(S'ShareX'
p201
S'ShareX'
p202
S'ShareX/ShareX'
p203
tp204
a(S'roslyn'
p205
S'dotnet'
p206
S'dotnet/roslyn'
p207
tp208
a(S'shadowsocks-windows'
p209
S'shadowsocks'
p210
S'shadowsocks/shadowsocks-windows'
p211
tp212
a(S'OptiKey'
p213
S'JuliusSweetland'
p214
S'JuliusSweetland/OptiKey'
p215
tp216
a(S'corefx'
p217
S'dotnet'
p218
S'dotnet/corefx'
p219
tp220
a(S'Destroy-Windows-10-Spying'
p221
S'Nummer'
p222
S'Nummer/Destroy-Windows-10-Spying'
p223
tp224
a(S'XLParser'
p225
S'spreadsheetlab'
p226
S'spreadsheetlab/XLParser'
p227
tp228
a(S'dapper-dot-net'
p229
S'StackExchange'
p230
S'StackExchange/dapper-dot-net'
p231
tp232
a(S'EntityFramework'
p233
S'aspnet'
p234
S'aspnet/EntityFramework'
p235
tp236
a(S'mono'
p237
S'mono'
p238
S'mono/mono'
p239
tp240
a(S'Mvc'
p241
S'aspnet'
p242
S'aspnet/Mvc'
p243
tp244
a(S'coreclr'
p245
S'dotnet'
p246
S'dotnet/coreclr'
p247
tp248
a(S'Template10'
p249
S'Windows-XAML'
p250
S'Windows-XAML/Template10'
p251
tp252
a(S'Microphone'
p253
S'rogeralsing'
p254
S'rogeralsing/Microphone'
p255
tp256
a(S'RestSharp'
p257
S'restsharp'
p258
S'restsharp/RestSharp'
p259
tp260
a(S'choco'
p261
S'chocolatey'
p262
S'chocolatey/choco'
p263
tp264
a(S'Hearthstone-Deck-Tracker'
p265
S'Epix37'
p266
S'Epix37/Hearthstone-Deck-Tracker'
p267
tp268
a(S'orleans'
p269
S'dotnet'
p270
S'dotnet/orleans'
p271
tp272
a(S'cloudscribe'
p273
S'joeaudette'
p274
S'joeaudette/cloudscribe'
p275
tp276
a(S'Newtonsoft.Json'
p277
S'JamesNK'
p278
S'JamesNK/Newtonsoft.Json'
p279
tp280
a(S'Perspex'
p281
S'Perspex'
p282
S'Perspex/Perspex'
p283
tp284
a(S'akka.net'
p285
S'akkadotnet'
p286
S'akkadotnet/akka.net'
p287
tp288
a(S'Prism'
p289
S'PrismLibrary'
p290
S'PrismLibrary/Prism'
p291
tp292
a(S'Nancy'
p293
S'NancyFx'
p294
S'NancyFx/Nancy'
p295
tp296
a(S'osharp'
p297
S'i66soft'
p298
S'i66soft/osharp'
p299
tp300
a.