(lp0
(S'avian'
p1
S'ReadyTalk'
p2
S'ReadyTalk/avian'
p3
tp4
a(S'electron'
p5
S'atom'
p6
S'atom/electron'
p7
tp8
a(S'rr'
p9
S'mozilla'
p10
S'mozilla/rr'
p11
tp12
a(S'rapidjson'
p13
S'miloyip'
p14
S'miloyip/rapidjson'
p15
tp16
a(S'nw.js'
p17
S'nwjs'
p18
S'nwjs/nw.js'
p19
tp20
a(S'OpenJK'
p21
S'JACoders'
p22
S'JACoders/OpenJK'
p23
tp24
a(S'caffe'
p25
S'BVLC'
p26
S'BVLC/caffe'
p27
tp28
a(S'opencv'
p29
S'Itseez'
p30
S'Itseez/opencv'
p31
tp32
a(S'hyperscan'
p33
S'01org'
p34
S'01org/hyperscan'
p35
tp36
a(S'console'
p37
S'cbucher'
p38
S'cbucher/console'
p39
tp40
a(S'znn-release'
p41
S'seung-lab'
p42
S'seung-lab/znn-release'
p43
tp44
a(S'rethinkdb'
p45
S'rethinkdb'
p46
S'rethinkdb/rethinkdb'
p47
tp48
a(S'mxnet'
p49
S'dmlc'
p50
S'dmlc/mxnet'
p51
tp52
a(S'protobuf'
p53
S'google'
p54
S'google/protobuf'
p55
tp56
a(S'seastar'
p57
S'scylladb'
p58
S'scylladb/seastar'
p59
tp60
a(S'cocos2d-x'
p61
S'cocos2d'
p62
S'cocos2d/cocos2d-x'
p63
tp64
a(S'osquery'
p65
S'facebook'
p66
S'facebook/osquery'
p67
tp68
a(S'notepad-plus-plus'
p69
S'notepad-plus-plus'
p70
S'notepad-plus-plus/notepad-plus-plus'
p71
tp72
a(S'bitcoin'
p73
S'bitcoin'
p74
S'bitcoin/bitcoin'
p75
tp76
a(S'phantomjs'
p77
S'ariya'
p78
S'ariya/phantomjs'
p79
tp80
a(S'mongo'
p81
S'mongodb'
p82
S'mongodb/mongo'
p83
tp84
a(S'hhvm'
p85
S'facebook'
p86
S'facebook/hhvm'
p87
tp88
a(S'RedisDesktopManager'
p89
S'uglide'
p90
S'uglide/RedisDesktopManager'
p91
tp92
a(S'leetcode'
p93
S'haoel'
p94
S'haoel/leetcode'
p95
tp96
a(S'sysdig'
p97
S'draios'
p98
S'draios/sysdig'
p99
tp100
a(S'electron'
p101
S'atom'
p102
S'atom/electron'
p103
tp104
a(S'hyperscan'
p105
S'01org'
p106
S'01org/hyperscan'
p107
tp108
a(S'nw.js'
p109
S'nwjs'
p110
S'nwjs/nw.js'
p111
tp112
a(S'scylla'
p113
S'scylladb'
p114
S'scylladb/scylla'
p115
tp116
a(S'mxnet'
p117
S'dmlc'
p118
S'dmlc/mxnet'
p119
tp120
a(S'seastar'
p121
S'scylladb'
p122
S'scylladb/seastar'
p123
tp124
a(S'protobuf'
p125
S'google'
p126
S'google/protobuf'
p127
tp128
a(S'caffe'
p129
S'BVLC'
p130
S'BVLC/caffe'
p131
tp132
a(S'plex-media-player'
p133
S'plexinc'
p134
S'plexinc/plex-media-player'
p135
tp136
a(S'opencv'
p137
S'Itseez'
p138
S'Itseez/opencv'
p139
tp140
a(S'phantomjs'
p141
S'ariya'
p142
S'ariya/phantomjs'
p143
tp144
a(S'omim'
p145
S'mapsme'
p146
S'mapsme/omim'
p147
tp148
a(S'rethinkdb'
p149
S'rethinkdb'
p150
S'rethinkdb/rethinkdb'
p151
tp152
a(S'googletest'
p153
S'google'
p154
S'google/googletest'
p155
tp156
a(S'avian'
p157
S'ReadyTalk'
p158
S'ReadyTalk/avian'
p159
tp160
a(S'rapidjson'
p161
S'miloyip'
p162
S'miloyip/rapidjson'
p163
tp164
a(S'mongo'
p165
S'mongodb'
p166
S'mongodb/mongo'
p167
tp168
a(S'RedisDesktopManager'
p169
S'uglide'
p170
S'uglide/RedisDesktopManager'
p171
tp172
a(S'Akumuli'
p173
S'akumuli'
p174
S'akumuli/Akumuli'
p175
tp176
a(S'cocos2d-x'
p177
S'cocos2d'
p178
S'cocos2d/cocos2d-x'
p179
tp180
a(S'brotli'
p181
S'google'
p182
S'google/brotli'
p183
tp184
a(S'bitcoin'
p185
S'bitcoin'
p186
S'bitcoin/bitcoin'
p187
tp188
a(S'rocksdb'
p189
S'facebook'
p190
S'facebook/rocksdb'
p191
tp192
a(S'leetcode'
p193
S'haoel'
p194
S'haoel/leetcode'
p195
tp196
a(S'xgboost'
p197
S'dmlc'
p198
S'dmlc/xgboost'
p199
tp200
a(S'electron'
p201
S'atom'
p202
S'atom/electron'
p203
tp204
a(S'omim'
p205
S'mapsme'
p206
S'mapsme/omim'
p207
tp208
a(S'brotli'
p209
S'google'
p210
S'google/brotli'
p211
tp212
a(S'nw.js'
p213
S'nwjs'
p214
S'nwjs/nw.js'
p215
tp216
a(S'mxnet'
p217
S'dmlc'
p218
S'dmlc/mxnet'
p219
tp220
a(S'scylla'
p221
S'scylladb'
p222
S'scylladb/scylla'
p223
tp224
a(S'caffe'
p225
S'BVLC'
p226
S'BVLC/caffe'
p227
tp228
a(S'GSL'
p229
S'Microsoft'
p230
S'Microsoft/GSL'
p231
tp232
a(S'protobuf'
p233
S'google'
p234
S'google/protobuf'
p235
tp236
a(S'opencv'
p237
S'Itseez'
p238
S'Itseez/opencv'
p239
tp240
a(S'rethinkdb'
p241
S'rethinkdb'
p242
S'rethinkdb/rethinkdb'
p243
tp244
a(S'phantomjs'
p245
S'ariya'
p246
S'ariya/phantomjs'
p247
tp248
a(S'seastar'
p249
S'scylladb'
p250
S'scylladb/seastar'
p251
tp252
a(S'imgui'
p253
S'ocornut'
p254
S'ocornut/imgui'
p255
tp256
a(S'googletest'
p257
S'google'
p258
S'google/googletest'
p259
tp260
a(S'kudu'
p261
S'cloudera'
p262
S'cloudera/kudu'
p263
tp264
a(S'tdesktop'
p265
S'telegramdesktop'
p266
S'telegramdesktop/tdesktop'
p267
tp268
a(S'cocos2d-x'
p269
S'cocos2d'
p270
S'cocos2d/cocos2d-x'
p271
tp272
a(S'hyperscan'
p273
S'01org'
p274
S'01org/hyperscan'
p275
tp276
a(S'mongo'
p277
S'mongodb'
p278
S'mongodb/mongo'
p279
tp280
a(S'hhvm'
p281
S'facebook'
p282
S'facebook/hhvm'
p283
tp284
a(S'bitcoin'
p285
S'bitcoin'
p286
S'bitcoin/bitcoin'
p287
tp288
a(S'incubator-singa'
p289
S'apache'
p290
S'apache/incubator-singa'
p291
tp292
a(S'zulip-desktop'
p293
S'zulip'
p294
S'zulip/zulip-desktop'
p295
tp296
a(S'benchmark'
p297
S'google'
p298
S'google/benchmark'
p299
tp300
a.