(lp0
(S'Win32-OpenSSH'
p1
S'PowerShell'
p2
S'PowerShell/Win32-OpenSSH'
p3
tp4
a(S'cmus'
p5
S'cmus'
p6
S'cmus/cmus'
p7
tp8
a(S'linux'
p9
S'torvalds'
p10
S'torvalds/linux'
p11
tp12
a(S'tbox'
p13
S'waruqi'
p14
S'waruqi/tbox'
p15
tp16
a(S'Telegram'
p17
S'DrKLO'
p18
S'DrKLO/Telegram'
p19
tp20
a(S'redis'
p21
S'antirez'
p22
S'antirez/redis'
p23
tp24
a(S'git'
p25
S'git'
p26
S'git/git'
p27
tp28
a(S'vim'
p29
S'vim'
p30
S'vim/vim'
p31
tp32
a(S'ijkplayer'
p33
S'Bilibili'
p34
S'Bilibili/ijkplayer'
p35
tp36
a(S'mpv'
p37
S'mpv-player'
p38
S'mpv-player/mpv'
p39
tp40
a(S'tmux'
p41
S'tmux'
p42
S'tmux/tmux'
p43
tp44
a(S'emscripten'
p45
S'kripken'
p46
S'kripken/emscripten'
p47
tp48
a(S'Provenance'
p49
S'jasarien'
p50
S'jasarien/Provenance'
p51
tp52
a(S'the_silver_searcher'
p53
S'ggreer'
p54
S'ggreer/the_silver_searcher'
p55
tp56
a(S'swoole-src'
p57
S'swoole'
p58
S'swoole/swoole-src'
p59
tp60
a(S'GammaThingy'
p61
S'thomasfinch'
p62
S'thomasfinch/GammaThingy'
p63
tp64
a(S'How-to-Make-a-Computer-Operating-System'
p65
S'SamyPesse'
p66
S'SamyPesse/How-to-Make-a-Computer-Operating-System'
p67
tp68
a(S'grpc'
p69
S'grpc'
p70
S'grpc/grpc'
p71
tp72
a(S'redis'
p73
S'MSOpenTech'
p74
S'MSOpenTech/redis'
p75
tp76
a(S'shairport-sync'
p77
S'mikebrady'
p78
S'mikebrady/shairport-sync'
p79
tp80
a(S'css-layout'
p81
S'facebook'
p82
S'facebook/css-layout'
p83
tp84
a(S'curl'
p85
S'bagder'
p86
S'bagder/curl'
p87
tp88
a(S'toxcore'
p89
S'irungentoo'
p90
S'irungentoo/toxcore'
p91
tp92
a(S'obs-studio'
p93
S'jp9000'
p94
S'jp9000/obs-studio'
p95
tp96
a(S'pyenv'
p97
S'yyuu'
p98
S'yyuu/pyenv'
p99
tp100
a(S'Win32-OpenSSH'
p101
S'PowerShell'
p102
S'PowerShell/Win32-OpenSSH'
p103
tp104
a(S'cmus'
p105
S'cmus'
p106
S'cmus/cmus'
p107
tp108
a(S'linux'
p109
S'torvalds'
p110
S'torvalds/linux'
p111
tp112
a(S'startc'
p113
S'marssaxman'
p114
S'marssaxman/startc'
p115
tp116
a(S'openswr-mesa'
p117
S'OpenSWR'
p118
S'OpenSWR/openswr-mesa'
p119
tp120
a(S'redis'
p121
S'antirez'
p122
S'antirez/redis'
p123
tp124
a(S'git'
p125
S'git'
p126
S'git/git'
p127
tp128
a(S'tmux'
p129
S'tmux'
p130
S'tmux/tmux'
p131
tp132
a(S'micropython'
p133
S'bbcmicrobit'
p134
S'bbcmicrobit/micropython'
p135
tp136
a(S'ijkplayer'
p137
S'Bilibili'
p138
S'Bilibili/ijkplayer'
p139
tp140
a(S'mpv'
p141
S'mpv-player'
p142
S'mpv-player/mpv'
p143
tp144
a(S'tbox'
p145
S'waruqi'
p146
S'waruqi/tbox'
p147
tp148
a(S'unicorn'
p149
S'unicorn-engine'
p150
S'unicorn-engine/unicorn'
p151
tp152
a(S'The-Art-Of-Programming-By-July'
p153
S'julycoding'
p154
S'julycoding/The-Art-Of-Programming-By-July'
p155
tp156
a(S'shadowsocks-android'
p157
S'shadowsocks'
p158
S'shadowsocks/shadowsocks-android'
p159
tp160
a(S'GammaThingy'
p161
S'thomasfinch'
p162
S'thomasfinch/GammaThingy'
p163
tp164
a(S'php-src'
p165
S'php'
p166
S'php/php-src'
p167
tp168
a(S'Telegram'
p169
S'DrKLO'
p170
S'DrKLO/Telegram'
p171
tp172
a(S'vim'
p173
S'vim'
p174
S'vim/vim'
p175
tp176
a(S'swoole-src'
p177
S'swoole'
p178
S'swoole/swoole-src'
p179
tp180
a(S'grpc'
p181
S'grpc'
p182
S'grpc/grpc'
p183
tp184
a(S'jq'
p185
S'stedolan'
p186
S'stedolan/jq'
p187
tp188
a(S'the_silver_searcher'
p189
S'ggreer'
p190
S'ggreer/the_silver_searcher'
p191
tp192
a(S'torch7'
p193
S'torch'
p194
S'torch/torch7'
p195
tp196
a(S'Provenance'
p197
S'jasarien'
p198
S'jasarien/Provenance'
p199
tp200
a(S'FLIF'
p201
S'FLIF-hub'
p202
S'FLIF-hub/FLIF'
p203
tp204
a(S'linux'
p205
S'torvalds'
p206
S'torvalds/linux'
p207
tp208
a(S'Win32-OpenSSH'
p209
S'PowerShell'
p210
S'PowerShell/Win32-OpenSSH'
p211
tp212
a(S'Telegram'
p213
S'DrKLO'
p214
S'DrKLO/Telegram'
p215
tp216
a(S'ureq'
p217
S'solusipse'
p218
S'solusipse/ureq'
p219
tp220
a(S'GammaThingy'
p221
S'thomasfinch'
p222
S'thomasfinch/GammaThingy'
p223
tp224
a(S'git'
p225
S'git'
p226
S'git/git'
p227
tp228
a(S'redis'
p229
S'antirez'
p230
S'antirez/redis'
p231
tp232
a(S'yank'
p233
S'mptre'
p234
S'mptre/yank'
p235
tp236
a(S'vim'
p237
S'vim'
p238
S'vim/vim'
p239
tp240
a(S'cmus'
p241
S'cmus'
p242
S'cmus/cmus'
p243
tp244
a(S'unicorn'
p245
S'unicorn-engine'
p246
S'unicorn-engine/unicorn'
p247
tp248
a(S'goxel'
p249
S'guillaumechereau'
p250
S'guillaumechereau/goxel'
p251
tp252
a(S'php-src'
p253
S'php'
p254
S'php/php-src'
p255
tp256
a(S'shadowsocks-android'
p257
S'shadowsocks'
p258
S'shadowsocks/shadowsocks-android'
p259
tp260
a(S'the_silver_searcher'
p261
S'ggreer'
p262
S'ggreer/the_silver_searcher'
p263
tp264
a(S'The-Art-Of-Programming-By-July'
p265
S'julycoding'
p266
S'julycoding/The-Art-Of-Programming-By-July'
p267
tp268
a(S'Provenance'
p269
S'jasarien'
p270
S'jasarien/Provenance'
p271
tp272
a(S'tmux'
p273
S'tmux'
p274
S'tmux/tmux'
p275
tp276
a(S'How-to-Make-a-Computer-Operating-System'
p277
S'SamyPesse'
p278
S'SamyPesse/How-to-Make-a-Computer-Operating-System'
p279
tp280
a(S'startc'
p281
S'marssaxman'
p282
S'marssaxman/startc'
p283
tp284
a(S'ijkplayer'
p285
S'Bilibili'
p286
S'Bilibili/ijkplayer'
p287
tp288
a(S'torch7'
p289
S'torch'
p290
S'torch/torch7'
p291
tp292
a(S'git'
p293
S'git-for-windows'
p294
S'git-for-windows/git'
p295
tp296
a(S'radare2'
p297
S'radare'
p298
S'radare/radare2'
p299
tp300
a.