(lp0
(S'acronymy'
p1
S'dwrensha'
p2
S'dwrensha/acronymy'
p3
tp4
a(S'gitlab-sandstorm'
p5
S'dwrensha'
p6
S'dwrensha/gitlab-sandstorm'
p7
tp8
a(S'TextEditor'
p9
S'rchrd2'
p10
S'rchrd2/TextEditor'
p11
tp12
a(S'Kournal'
p13
S'Kournal'
p14
S'Kournal/Kournal'
p15
tp16
a(S'robocup2Dsim'
p17
S'khklau'
p18
S'khklau/robocup2Dsim'
p19
tp20
a(S'lycan-schemas'
p21
S'GreenPix'
p22
S'GreenPix/lycan-schemas'
p23
tp24
a(S'transmission-sandstorm'
p25
S'jparyani'
p26
S'jparyani/transmission-sandstorm'
p27
tp28
a(S'lobsters-sandstorm'
p29
S'dwrensha'
p30
S'dwrensha/lobsters-sandstorm'
p31
tp32
a(S'sandstorm-generic-rest-app'
p33
S'jparyani'
p34
S'jparyani/sandstorm-generic-rest-app'
p35
tp36
a(S'acronymy'
p37
S'neynah'
p38
S'neynah/acronymy'
p39
tp40
a(S'gitlab-sandstorm'
p41
S'neynah'
p42
S'neynah/gitlab-sandstorm'
p43
tp44
a(S'diaspora-sandstorm'
p45
S'jparyani'
p46
S'jparyani/diaspora-sandstorm'
p47
tp48
a(S'acronymy'
p49
S'dwrensha'
p50
S'dwrensha/acronymy'
p51
tp52
a(S'gitlab-sandstorm'
p53
S'dwrensha'
p54
S'dwrensha/gitlab-sandstorm'
p55
tp56
a(S'TextEditor'
p57
S'rchrd2'
p58
S'rchrd2/TextEditor'
p59
tp60
a(S'Kournal'
p61
S'Kournal'
p62
S'Kournal/Kournal'
p63
tp64
a(S'robocup2Dsim'
p65
S'khklau'
p66
S'khklau/robocup2Dsim'
p67
tp68
a(S'lycan-schemas'
p69
S'GreenPix'
p70
S'GreenPix/lycan-schemas'
p71
tp72
a(S'transmission-sandstorm'
p73
S'jparyani'
p74
S'jparyani/transmission-sandstorm'
p75
tp76
a(S'lobsters-sandstorm'
p77
S'dwrensha'
p78
S'dwrensha/lobsters-sandstorm'
p79
tp80
a(S'sandstorm-generic-rest-app'
p81
S'jparyani'
p82
S'jparyani/sandstorm-generic-rest-app'
p83
tp84
a(S'acronymy'
p85
S'neynah'
p86
S'neynah/acronymy'
p87
tp88
a(S'gitlab-sandstorm'
p89
S'neynah'
p90
S'neynah/gitlab-sandstorm'
p91
tp92
a(S'diaspora-sandstorm'
p93
S'jparyani'
p94
S'jparyani/diaspora-sandstorm'
p95
tp96
a(S'acronymy'
p97
S'dwrensha'
p98
S'dwrensha/acronymy'
p99
tp100
a(S'gitlab-sandstorm'
p101
S'dwrensha'
p102
S'dwrensha/gitlab-sandstorm'
p103
tp104
a(S'TextEditor'
p105
S'rchrd2'
p106
S'rchrd2/TextEditor'
p107
tp108
a(S'Kournal'
p109
S'Kournal'
p110
S'Kournal/Kournal'
p111
tp112
a(S'robocup2Dsim'
p113
S'khklau'
p114
S'khklau/robocup2Dsim'
p115
tp116
a(S'lycan-schemas'
p117
S'GreenPix'
p118
S'GreenPix/lycan-schemas'
p119
tp120
a(S'transmission-sandstorm'
p121
S'jparyani'
p122
S'jparyani/transmission-sandstorm'
p123
tp124
a(S'lobsters-sandstorm'
p125
S'dwrensha'
p126
S'dwrensha/lobsters-sandstorm'
p127
tp128
a(S'sandstorm-generic-rest-app'
p129
S'jparyani'
p130
S'jparyani/sandstorm-generic-rest-app'
p131
tp132
a(S'acronymy'
p133
S'neynah'
p134
S'neynah/acronymy'
p135
tp136
a(S'gitlab-sandstorm'
p137
S'neynah'
p138
S'neynah/gitlab-sandstorm'
p139
tp140
a(S'diaspora-sandstorm'
p141
S'jparyani'
p142
S'jparyani/diaspora-sandstorm'
p143
tp144
a.