(lp0
(S'openstreetmap-carto'
p1
S'gravitystorm'
p2
S'gravitystorm/openstreetmap-carto'
p3
tp4
a(S'HDM-CartoCSS'
p5
S'hotosm'
p6
S'hotosm/HDM-CartoCSS'
p7
tp8
a(S'toner-carto'
p9
S'stamen'
p10
S'stamen/toner-carto'
p11
tp12
a(S'mapbox-studio-osm-bright.tm2'
p13
S'mapbox'
p14
S'mapbox/mapbox-studio-osm-bright.tm2'
p15
tp16
a(S'mapbox-studio-emerald.tm2'
p17
S'mapbox'
p18
S'mapbox/mapbox-studio-emerald.tm2'
p19
tp20
a(S'osmfr-cartocss'
p21
S'cquest'
p22
S'cquest/osmfr-cartocss'
p23
tp24
a(S'super-mario-world.tm2'
p25
S'mapbox'
p26
S'mapbox/super-mario-world.tm2'
p27
tp28
a(S'CartoDB-basemaps'
p29
S'CartoDB'
p30
S'CartoDB/CartoDB-basemaps'
p31
tp32
a(S'mapbox-studio-humanitarian-print.tm2'
p33
S'osmlab'
p34
S'osmlab/mapbox-studio-humanitarian-print.tm2'
p35
tp36
a(S'mapbox-studio-satellite-outdoors.tm2'
p37
S'mapbox'
p38
S'mapbox/mapbox-studio-satellite-outdoors.tm2'
p39
tp40
a(S'OSM-Swiss-Style'
p41
S'xyztobixyz'
p42
S'xyztobixyz/OSM-Swiss-Style'
p43
tp44
a(S'OpenRiverboatMap'
p45
S'yohanboniface'
p46
S'yohanboniface/OpenRiverboatMap'
p47
tp48
a(S'gdtile'
p49
S'OsmHackTW'
p50
S'OsmHackTW/gdtile'
p51
tp52
a(S'terrain-classic'
p53
S'stamen'
p54
S'stamen/terrain-classic'
p55
tp56
a(S'mapbox-studio-woodcut.tm2'
p57
S'mapbox'
p58
S'mapbox/mapbox-studio-woodcut.tm2'
p59
tp60
a(S'geotaggers'
p61
S'ericfischer'
p62
S'ericfischer/geotaggers'
p63
tp64
a(S'thank-you-map'
p65
S'yohanboniface'
p66
S'yohanboniface/thank-you-map'
p67
tp68
a(S'weekendupdate'
p69
S'jonahadkins'
p70
S'jonahadkins/weekendupdate'
p71
tp72
a(S'osm-silent-la'
p73
S'datadesk'
p74
S'datadesk/osm-silent-la'
p75
tp76
a(S'osm-kn'
p77
S'yogiks'
p78
S'yogiks/osm-kn'
p79
tp80
a(S'jauntful_map.tm2'
p81
S'Jauntful'
p82
S'Jauntful/jauntful_map.tm2'
p83
tp84
a(S'tpe_bike_layer'
p85
S'OsmHackTW'
p86
S'OsmHackTW/tpe_bike_layer'
p87
tp88
a(S'trottoirs-de-paris'
p89
S'laem'
p90
S'laem/trottoirs-de-paris'
p91
tp92
a(S'mapbox-studio-outdoors.tm2'
p93
S'mapbox'
p94
S'mapbox/mapbox-studio-outdoors.tm2'
p95
tp96
a(S'kartkompetanse'
p97
S'alexanno'
p98
S'alexanno/kartkompetanse'
p99
tp100
a(S'openstreetmap-carto'
p101
S'gravitystorm'
p102
S'gravitystorm/openstreetmap-carto'
p103
tp104
a(S'HDM-CartoCSS'
p105
S'hotosm'
p106
S'hotosm/HDM-CartoCSS'
p107
tp108
a(S'toner-carto'
p109
S'stamen'
p110
S'stamen/toner-carto'
p111
tp112
a(S'mapbox-studio-osm-bright.tm2'
p113
S'mapbox'
p114
S'mapbox/mapbox-studio-osm-bright.tm2'
p115
tp116
a(S'mapbox-studio-emerald.tm2'
p117
S'mapbox'
p118
S'mapbox/mapbox-studio-emerald.tm2'
p119
tp120
a(S'osmfr-cartocss'
p121
S'cquest'
p122
S'cquest/osmfr-cartocss'
p123
tp124
a(S'super-mario-world.tm2'
p125
S'mapbox'
p126
S'mapbox/super-mario-world.tm2'
p127
tp128
a(S'CartoDB-basemaps'
p129
S'CartoDB'
p130
S'CartoDB/CartoDB-basemaps'
p131
tp132
a(S'mapbox-studio-humanitarian-print.tm2'
p133
S'osmlab'
p134
S'osmlab/mapbox-studio-humanitarian-print.tm2'
p135
tp136
a(S'mapbox-studio-satellite-outdoors.tm2'
p137
S'mapbox'
p138
S'mapbox/mapbox-studio-satellite-outdoors.tm2'
p139
tp140
a(S'OSM-Swiss-Style'
p141
S'xyztobixyz'
p142
S'xyztobixyz/OSM-Swiss-Style'
p143
tp144
a(S'OpenRiverboatMap'
p145
S'yohanboniface'
p146
S'yohanboniface/OpenRiverboatMap'
p147
tp148
a(S'gdtile'
p149
S'OsmHackTW'
p150
S'OsmHackTW/gdtile'
p151
tp152
a(S'terrain-classic'
p153
S'stamen'
p154
S'stamen/terrain-classic'
p155
tp156
a(S'mapbox-studio-woodcut.tm2'
p157
S'mapbox'
p158
S'mapbox/mapbox-studio-woodcut.tm2'
p159
tp160
a(S'geotaggers'
p161
S'ericfischer'
p162
S'ericfischer/geotaggers'
p163
tp164
a(S'thank-you-map'
p165
S'yohanboniface'
p166
S'yohanboniface/thank-you-map'
p167
tp168
a(S'weekendupdate'
p169
S'jonahadkins'
p170
S'jonahadkins/weekendupdate'
p171
tp172
a(S'osm-silent-la'
p173
S'datadesk'
p174
S'datadesk/osm-silent-la'
p175
tp176
a(S'osm-kn'
p177
S'yogiks'
p178
S'yogiks/osm-kn'
p179
tp180
a(S'jauntful_map.tm2'
p181
S'Jauntful'
p182
S'Jauntful/jauntful_map.tm2'
p183
tp184
a(S'tpe_bike_layer'
p185
S'OsmHackTW'
p186
S'OsmHackTW/tpe_bike_layer'
p187
tp188
a(S'trottoirs-de-paris'
p189
S'laem'
p190
S'laem/trottoirs-de-paris'
p191
tp192
a(S'mapbox-studio-outdoors.tm2'
p193
S'mapbox'
p194
S'mapbox/mapbox-studio-outdoors.tm2'
p195
tp196
a(S'kartkompetanse'
p197
S'alexanno'
p198
S'alexanno/kartkompetanse'
p199
tp200
a(S'openstreetmap-carto'
p201
S'gravitystorm'
p202
S'gravitystorm/openstreetmap-carto'
p203
tp204
a(S'HDM-CartoCSS'
p205
S'hotosm'
p206
S'hotosm/HDM-CartoCSS'
p207
tp208
a(S'toner-carto'
p209
S'stamen'
p210
S'stamen/toner-carto'
p211
tp212
a(S'mapbox-studio-osm-bright.tm2'
p213
S'mapbox'
p214
S'mapbox/mapbox-studio-osm-bright.tm2'
p215
tp216
a(S'mapbox-studio-emerald.tm2'
p217
S'mapbox'
p218
S'mapbox/mapbox-studio-emerald.tm2'
p219
tp220
a(S'osmfr-cartocss'
p221
S'cquest'
p222
S'cquest/osmfr-cartocss'
p223
tp224
a(S'super-mario-world.tm2'
p225
S'mapbox'
p226
S'mapbox/super-mario-world.tm2'
p227
tp228
a(S'mapbox-studio-humanitarian-print.tm2'
p229
S'osmlab'
p230
S'osmlab/mapbox-studio-humanitarian-print.tm2'
p231
tp232
a(S'CartoDB-basemaps'
p233
S'CartoDB'
p234
S'CartoDB/CartoDB-basemaps'
p235
tp236
a(S'mapbox-studio-satellite-outdoors.tm2'
p237
S'mapbox'
p238
S'mapbox/mapbox-studio-satellite-outdoors.tm2'
p239
tp240
a(S'gdtile'
p241
S'OsmHackTW'
p242
S'OsmHackTW/gdtile'
p243
tp244
a(S'OSM-Swiss-Style'
p245
S'xyztobixyz'
p246
S'xyztobixyz/OSM-Swiss-Style'
p247
tp248
a(S'OpenRiverboatMap'
p249
S'yohanboniface'
p250
S'yohanboniface/OpenRiverboatMap'
p251
tp252
a(S'geotaggers'
p253
S'ericfischer'
p254
S'ericfischer/geotaggers'
p255
tp256
a(S'terrain-classic'
p257
S'stamen'
p258
S'stamen/terrain-classic'
p259
tp260
a(S'mapbox-studio-woodcut.tm2'
p261
S'mapbox'
p262
S'mapbox/mapbox-studio-woodcut.tm2'
p263
tp264
a(S'thank-you-map'
p265
S'yohanboniface'
p266
S'yohanboniface/thank-you-map'
p267
tp268
a(S'weekendupdate'
p269
S'jonahadkins'
p270
S'jonahadkins/weekendupdate'
p271
tp272
a(S'osm-silent-la'
p273
S'datadesk'
p274
S'datadesk/osm-silent-la'
p275
tp276
a(S'tpe_bike_layer'
p277
S'OsmHackTW'
p278
S'OsmHackTW/tpe_bike_layer'
p279
tp280
a(S'jauntful_map.tm2'
p281
S'Jauntful'
p282
S'Jauntful/jauntful_map.tm2'
p283
tp284
a(S'osm-kn'
p285
S'yogiks'
p286
S'yogiks/osm-kn'
p287
tp288
a(S'mapbox-studio-outdoors.tm2'
p289
S'mapbox'
p290
S'mapbox/mapbox-studio-outdoors.tm2'
p291
tp292
a(S'kartkompetanse'
p293
S'alexanno'
p294
S'alexanno/kartkompetanse'
p295
tp296
a(S'trottoirs-de-paris'
p297
S'laem'
p298
S'laem/trottoirs-de-paris'
p299
tp300
a.