(lp0
(S'ceylon-sdk'
p1
S'ceylon'
p2
S'ceylon/ceylon-sdk'
p3
tp4
a(S'ceylon-cayla'
p5
S'vietj'
p6
S'vietj/ceylon-cayla'
p7
tp8
a(S'ceylon.build'
p9
S'ceylon'
p10
S'ceylon/ceylon.build'
p11
tp12
a(S'ceylon.formatter'
p13
S'ceylon'
p14
S'ceylon/ceylon.formatter'
p15
tp16
a(S'ceylon-examples'
p17
S'ceylon'
p18
S'ceylon/ceylon-examples'
p19
tp20
a(S'CeylonFX'
p21
S'renatoathaydes'
p22
S'renatoathaydes/CeylonFX'
p23
tp24
a(S'ceylon.ast'
p25
S'ceylon'
p26
S'ceylon/ceylon.ast'
p27
tp28
a(S'parcey'
p29
S'renatoathaydes'
p30
S'renatoathaydes/parcey'
p31
tp32
a(S'ceylon-promises'
p33
S'vietj'
p34
S'vietj/ceylon-promises'
p35
tp36
a(S'ceylon-walkthrough'
p37
S'ceylon'
p38
S'ceylon/ceylon-walkthrough'
p39
tp40
a(S'ceylon-vertx'
p41
S'vietj'
p42
S'vietj/ceylon-vertx'
p43
tp44
a(S'ceylon-ide-common'
p45
S'ceylon'
p46
S'ceylon/ceylon-ide-common'
p47
tp48
a(S'lahore'
p49
S'dgwave'
p50
S'dgwave/lahore'
p51
tp52
a(S'ceylon-js-interop'
p53
S'corbinu'
p54
S'corbinu/ceylon-js-interop'
p55
tp56
a(S'ceylon-style'
p57
S'drochetti'
p58
S'drochetti/ceylon-style'
p59
tp60
a(S'ceylon.time'
p61
S'luolong'
p62
S'luolong/ceylon.time'
p63
tp64
a(S'ceylon-walkthrough'
p65
S'gavinking'
p66
S'gavinking/ceylon-walkthrough'
p67
tp68
a(S'dstore'
p69
S'dc2f'
p70
S'dc2f/dstore'
p71
tp72
a(S'ceylon-html'
p73
S'drochetti'
p74
S'drochetti/ceylon-html'
p75
tp76
a(S'ceylon-random'
p77
S'jvasileff'
p78
S'jvasileff/ceylon-random'
p79
tp80
a(S'cameleon'
p81
S'davidfestal'
p82
S'davidfestal/cameleon'
p83
tp84
a(S'matcher4cl'
p85
S'jpragey'
p86
S'jpragey/matcher4cl'
p87
tp88
a(S'justceyin'
p89
S'martin-nordberg'
p90
S'martin-nordberg/justceyin'
p91
tp92
a(S'ceylon.ant'
p93
S'HenningB'
p94
S'HenningB/ceylon.ant'
p95
tp96
a(S'ceylon.parse'
p97
S'sadmac7000'
p98
S'sadmac7000/ceylon.parse'
p99
tp100
a(S'ceylon-sdk'
p101
S'ceylon'
p102
S'ceylon/ceylon-sdk'
p103
tp104
a(S'ceylon-cayla'
p105
S'vietj'
p106
S'vietj/ceylon-cayla'
p107
tp108
a(S'ceylon.build'
p109
S'ceylon'
p110
S'ceylon/ceylon.build'
p111
tp112
a(S'ceylon.formatter'
p113
S'ceylon'
p114
S'ceylon/ceylon.formatter'
p115
tp116
a(S'ceylon-examples'
p117
S'ceylon'
p118
S'ceylon/ceylon-examples'
p119
tp120
a(S'CeylonFX'
p121
S'renatoathaydes'
p122
S'renatoathaydes/CeylonFX'
p123
tp124
a(S'ceylon.ast'
p125
S'ceylon'
p126
S'ceylon/ceylon.ast'
p127
tp128
a(S'parcey'
p129
S'renatoathaydes'
p130
S'renatoathaydes/parcey'
p131
tp132
a(S'ceylon-promises'
p133
S'vietj'
p134
S'vietj/ceylon-promises'
p135
tp136
a(S'ceylon-walkthrough'
p137
S'ceylon'
p138
S'ceylon/ceylon-walkthrough'
p139
tp140
a(S'ceylon-vertx'
p141
S'vietj'
p142
S'vietj/ceylon-vertx'
p143
tp144
a(S'ceylon-ide-common'
p145
S'ceylon'
p146
S'ceylon/ceylon-ide-common'
p147
tp148
a(S'lahore'
p149
S'dgwave'
p150
S'dgwave/lahore'
p151
tp152
a(S'ceylon-js-interop'
p153
S'corbinu'
p154
S'corbinu/ceylon-js-interop'
p155
tp156
a(S'ceylon-style'
p157
S'drochetti'
p158
S'drochetti/ceylon-style'
p159
tp160
a(S'ceylon.time'
p161
S'luolong'
p162
S'luolong/ceylon.time'
p163
tp164
a(S'ceylon-walkthrough'
p165
S'gavinking'
p166
S'gavinking/ceylon-walkthrough'
p167
tp168
a(S'dstore'
p169
S'dc2f'
p170
S'dc2f/dstore'
p171
tp172
a(S'ceylon-html'
p173
S'drochetti'
p174
S'drochetti/ceylon-html'
p175
tp176
a(S'ceylon-random'
p177
S'jvasileff'
p178
S'jvasileff/ceylon-random'
p179
tp180
a(S'cameleon'
p181
S'davidfestal'
p182
S'davidfestal/cameleon'
p183
tp184
a(S'matcher4cl'
p185
S'jpragey'
p186
S'jpragey/matcher4cl'
p187
tp188
a(S'justceyin'
p189
S'martin-nordberg'
p190
S'martin-nordberg/justceyin'
p191
tp192
a(S'ceylon.ant'
p193
S'HenningB'
p194
S'HenningB/ceylon.ant'
p195
tp196
a(S'ceylon.parse'
p197
S'sadmac7000'
p198
S'sadmac7000/ceylon.parse'
p199
tp200
a(S'ceylon-sdk'
p201
S'ceylon'
p202
S'ceylon/ceylon-sdk'
p203
tp204
a(S'ceylon-cayla'
p205
S'vietj'
p206
S'vietj/ceylon-cayla'
p207
tp208
a(S'ceylon.build'
p209
S'ceylon'
p210
S'ceylon/ceylon.build'
p211
tp212
a(S'ceylon.formatter'
p213
S'ceylon'
p214
S'ceylon/ceylon.formatter'
p215
tp216
a(S'ceylon-examples'
p217
S'ceylon'
p218
S'ceylon/ceylon-examples'
p219
tp220
a(S'CeylonFX'
p221
S'renatoathaydes'
p222
S'renatoathaydes/CeylonFX'
p223
tp224
a(S'ceylon.ast'
p225
S'ceylon'
p226
S'ceylon/ceylon.ast'
p227
tp228
a(S'parcey'
p229
S'renatoathaydes'
p230
S'renatoathaydes/parcey'
p231
tp232
a(S'ceylon-promises'
p233
S'vietj'
p234
S'vietj/ceylon-promises'
p235
tp236
a(S'ceylon-walkthrough'
p237
S'ceylon'
p238
S'ceylon/ceylon-walkthrough'
p239
tp240
a(S'ceylon-vertx'
p241
S'vietj'
p242
S'vietj/ceylon-vertx'
p243
tp244
a(S'ceylon-ide-common'
p245
S'ceylon'
p246
S'ceylon/ceylon-ide-common'
p247
tp248
a(S'lahore'
p249
S'dgwave'
p250
S'dgwave/lahore'
p251
tp252
a(S'ceylon-js-interop'
p253
S'corbinu'
p254
S'corbinu/ceylon-js-interop'
p255
tp256
a(S'ceylon-style'
p257
S'drochetti'
p258
S'drochetti/ceylon-style'
p259
tp260
a(S'ceylon.time'
p261
S'luolong'
p262
S'luolong/ceylon.time'
p263
tp264
a(S'ceylon-walkthrough'
p265
S'gavinking'
p266
S'gavinking/ceylon-walkthrough'
p267
tp268
a(S'dstore'
p269
S'dc2f'
p270
S'dc2f/dstore'
p271
tp272
a(S'ceylon-html'
p273
S'drochetti'
p274
S'drochetti/ceylon-html'
p275
tp276
a(S'ceylon-random'
p277
S'jvasileff'
p278
S'jvasileff/ceylon-random'
p279
tp280
a(S'cameleon'
p281
S'davidfestal'
p282
S'davidfestal/cameleon'
p283
tp284
a(S'matcher4cl'
p285
S'jpragey'
p286
S'jpragey/matcher4cl'
p287
tp288
a(S'justceyin'
p289
S'martin-nordberg'
p290
S'martin-nordberg/justceyin'
p291
tp292
a(S'ceylon.ant'
p293
S'HenningB'
p294
S'HenningB/ceylon.ant'
p295
tp296
a(S'ceylon.parse'
p297
S'sadmac7000'
p298
S'sadmac7000/ceylon.parse'
p299
tp300
a.