(lp0
(S'chapel'
p1
S'chapel-lang'
p2
S'chapel-lang/chapel'
p3
tp4
a(S'chearch'
p5
S'briangu'
p6
S'briangu/chearch'
p7
tp8
a(S'chapel'
p9
S'ronawho'
p10
S'ronawho/chapel'
p11
tp12
a(S'chapel'
p13
S'gbtitus'
p14
S'gbtitus/chapel'
p15
tp16
a(S'chapel'
p17
S'daviditen'
p18
S'daviditen/chapel'
p19
tp20
a(S'chapel'
p21
S'bradcray'
p22
S'bradcray/chapel'
p23
tp24
a(S'chapel'
p25
S'thomasvandoren'
p26
S'thomasvandoren/chapel'
p27
tp28
a(S'chapel'
p29
S'benharsh'
p30
S'benharsh/chapel'
p31
tp32
a(S'chapel'
p33
S'safl'
p34
S'safl/chapel'
p35
tp36
a(S'chapel'
p37
S'lydia-duncan'
p38
S'lydia-duncan/chapel'
p39
tp40
a(S'chapel'
p41
S'Kyle-B'
p42
S'Kyle-B/chapel'
p43
tp44
a(S'chapel'
p45
S'hildeth'
p46
S'hildeth/chapel'
p47
tp48
a(S'libev-examples'
p49
S'briangu'
p50
S'briangu/libev-examples'
p51
tp52
a(S'chapel'
p53
S'vasslitvinov'
p54
S'vasslitvinov/chapel'
p55
tp56
a(S'chapel-attic'
p57
S'chapel-lang'
p58
S'chapel-lang/chapel-attic'
p59
tp60
a(S'cheuler'
p61
S'briangu'
p62
S'briangu/cheuler'
p63
tp64
a(S'ChapelStack'
p65
S'esaliya'
p66
S'esaliya/ChapelStack'
p67
tp68
a(S'chapel'
p69
S'konsP'
p70
S'konsP/chapel'
p71
tp72
a(S'chapel'
p73
S'aroonsharma1'
p74
S'aroonsharma1/chapel'
p75
tp76
a(S'chapel'
p77
S'mppf'
p78
S'mppf/chapel'
p79
tp80
a(S'project-euler'
p81
S'thomasvandoren'
p82
S'thomasvandoren/project-euler'
p83
tp84
a(S'chapel'
p85
S'sentinelhub'
p86
S'sentinelhub/chapel'
p87
tp88
a(S'chapel-sdl'
p89
S'mjk8ball'
p90
S'mjk8ball/chapel-sdl'
p91
tp92
a(S'chapel-tutorial'
p93
S'anandpratap'
p94
S'anandpratap/chapel-tutorial'
p95
tp96
a(S'chapel'
p97
S'iosentinel'
p98
S'iosentinel/chapel'
p99
tp100
a(S'chapel'
p101
S'chapel-lang'
p102
S'chapel-lang/chapel'
p103
tp104
a(S'chearch'
p105
S'briangu'
p106
S'briangu/chearch'
p107
tp108
a(S'chapel'
p109
S'ronawho'
p110
S'ronawho/chapel'
p111
tp112
a(S'chapel'
p113
S'gbtitus'
p114
S'gbtitus/chapel'
p115
tp116
a(S'chapel'
p117
S'daviditen'
p118
S'daviditen/chapel'
p119
tp120
a(S'chapel'
p121
S'bradcray'
p122
S'bradcray/chapel'
p123
tp124
a(S'chapel'
p125
S'thomasvandoren'
p126
S'thomasvandoren/chapel'
p127
tp128
a(S'chapel'
p129
S'benharsh'
p130
S'benharsh/chapel'
p131
tp132
a(S'chapel'
p133
S'safl'
p134
S'safl/chapel'
p135
tp136
a(S'chapel'
p137
S'lydia-duncan'
p138
S'lydia-duncan/chapel'
p139
tp140
a(S'chapel'
p141
S'Kyle-B'
p142
S'Kyle-B/chapel'
p143
tp144
a(S'chapel'
p145
S'hildeth'
p146
S'hildeth/chapel'
p147
tp148
a(S'libev-examples'
p149
S'briangu'
p150
S'briangu/libev-examples'
p151
tp152
a(S'chapel'
p153
S'vasslitvinov'
p154
S'vasslitvinov/chapel'
p155
tp156
a(S'chapel-attic'
p157
S'chapel-lang'
p158
S'chapel-lang/chapel-attic'
p159
tp160
a(S'cheuler'
p161
S'briangu'
p162
S'briangu/cheuler'
p163
tp164
a(S'ChapelStack'
p165
S'esaliya'
p166
S'esaliya/ChapelStack'
p167
tp168
a(S'chapel'
p169
S'konsP'
p170
S'konsP/chapel'
p171
tp172
a(S'chapel'
p173
S'aroonsharma1'
p174
S'aroonsharma1/chapel'
p175
tp176
a(S'chapel'
p177
S'mppf'
p178
S'mppf/chapel'
p179
tp180
a(S'project-euler'
p181
S'thomasvandoren'
p182
S'thomasvandoren/project-euler'
p183
tp184
a(S'chapel'
p185
S'sentinelhub'
p186
S'sentinelhub/chapel'
p187
tp188
a(S'chapel-sdl'
p189
S'mjk8ball'
p190
S'mjk8ball/chapel-sdl'
p191
tp192
a(S'chapel-tutorial'
p193
S'anandpratap'
p194
S'anandpratap/chapel-tutorial'
p195
tp196
a(S'chapel'
p197
S'iosentinel'
p198
S'iosentinel/chapel'
p199
tp200
a(S'chapel'
p201
S'chapel-lang'
p202
S'chapel-lang/chapel'
p203
tp204
a(S'chearch'
p205
S'briangu'
p206
S'briangu/chearch'
p207
tp208
a(S'chapel'
p209
S'ronawho'
p210
S'ronawho/chapel'
p211
tp212
a(S'chapel'
p213
S'gbtitus'
p214
S'gbtitus/chapel'
p215
tp216
a(S'chapel'
p217
S'bradcray'
p218
S'bradcray/chapel'
p219
tp220
a(S'chapel'
p221
S'daviditen'
p222
S'daviditen/chapel'
p223
tp224
a(S'chapel'
p225
S'thomasvandoren'
p226
S'thomasvandoren/chapel'
p227
tp228
a(S'chapel'
p229
S'benharsh'
p230
S'benharsh/chapel'
p231
tp232
a(S'chapel'
p233
S'safl'
p234
S'safl/chapel'
p235
tp236
a(S'chapel'
p237
S'mppf'
p238
S'mppf/chapel'
p239
tp240
a(S'chapel'
p241
S'Kyle-B'
p242
S'Kyle-B/chapel'
p243
tp244
a(S'chapel'
p245
S'hildeth'
p246
S'hildeth/chapel'
p247
tp248
a(S'chapel'
p249
S'vasslitvinov'
p250
S'vasslitvinov/chapel'
p251
tp252
a(S'libev-examples'
p253
S'briangu'
p254
S'briangu/libev-examples'
p255
tp256
a(S'chapel'
p257
S'lydia-duncan'
p258
S'lydia-duncan/chapel'
p259
tp260
a(S'chapel-attic'
p261
S'chapel-lang'
p262
S'chapel-lang/chapel-attic'
p263
tp264
a(S'cheuler'
p265
S'briangu'
p266
S'briangu/cheuler'
p267
tp268
a(S'ChapelStack'
p269
S'esaliya'
p270
S'esaliya/ChapelStack'
p271
tp272
a(S'chapel'
p273
S'sentinelhub'
p274
S'sentinelhub/chapel'
p275
tp276
a(S'chapel'
p277
S'konsP'
p278
S'konsP/chapel'
p279
tp280
a(S'project-euler'
p281
S'thomasvandoren'
p282
S'thomasvandoren/project-euler'
p283
tp284
a(S'chapel-sdl'
p285
S'mjk8ball'
p286
S'mjk8ball/chapel-sdl'
p287
tp288
a(S'chapel'
p289
S'aroonsharma1'
p290
S'aroonsharma1/chapel'
p291
tp292
a(S'chapel_aroon_benchmarks_cleaned'
p293
S'aroonsharma1'
p294
S'aroonsharma1/chapel_aroon_benchmarks_cleaned'
p295
tp296
a(S'chapel-test'
p297
S'thomasvandoren'
p298
S'thomasvandoren/chapel-test'
p299
tp300
a.