(lp0
(S'xbmc-iptv-plugin'
p1
S'ypopovych'
p2
S'ypopovych/xbmc-iptv-plugin'
p3
tp4
a(S'questplusplus'
p5
S'ghpaetzold'
p6
S'ghpaetzold/questplusplus'
p7
tp8
a(S'questplusplus'
p9
S'kashifshah'
p10
S'kashifshah/questplusplus'
p11
tp12
a(S'questplusplus'
p13
S'carolscarton'
p14
S'carolscarton/questplusplus'
p15
tp16
a(S'xbmc-iptv-plugin'
p17
S'ypopovych'
p18
S'ypopovych/xbmc-iptv-plugin'
p19
tp20
a(S'questplusplus'
p21
S'ghpaetzold'
p22
S'ghpaetzold/questplusplus'
p23
tp24
a(S'questplusplus'
p25
S'kashifshah'
p26
S'kashifshah/questplusplus'
p27
tp28
a(S'questplusplus'
p29
S'carolscarton'
p30
S'carolscarton/questplusplus'
p31
tp32
a(S'xbmc-iptv-plugin'
p33
S'ypopovych'
p34
S'ypopovych/xbmc-iptv-plugin'
p35
tp36
a(S'questplusplus'
p37
S'ghpaetzold'
p38
S'ghpaetzold/questplusplus'
p39
tp40
a(S'questplusplus'
p41
S'kashifshah'
p42
S'kashifshah/questplusplus'
p43
tp44
a(S'questplusplus'
p45
S'carolscarton'
p46
S'carolscarton/questplusplus'
p47
tp48
a.