(lp0
(S'lick'
p1
S'heuermh'
p2
S'heuermh/lick'
p3
tp4
a(S'music220a'
p5
S'ccrma'
p6
S'ccrma/music220a'
p7
tp8
a(S'Chuckery'
p9
S'scotchi'
p10
S'scotchi/Chuckery'
p11
tp12
a(S'illumaphone'
p13
S'bonniee'
p14
S'bonniee/illumaphone'
p15
tp16
a(S'EscuelaDeExperimentos'
p17
S'son0p'
p18
S'son0p/EscuelaDeExperimentos'
p19
tp20
a(S'chuck'
p21
S'zFleischman'
p22
S'zFleischman/chuck'
p23
tp24
a(S'lux'
p25
S'attejensen'
p26
S'attejensen/lux'
p27
tp28
a(S'robots'
p29
S'MTIID'
p30
S'MTIID/robots'
p31
tp32
a(S'CHmUsiCK'
p33
S'essteban'
p34
S'essteban/CHmUsiCK'
p35
tp36
a(S'ChucK-Tools'
p37
S'casperschipper'
p38
S'casperschipper/ChucK-Tools'
p39
tp40
a(S'SunSignal'
p41
S'alandub'
p42
S'alandub/SunSignal'
p43
tp44
a(S'ChucK-beat-detector'
p45
S'RemyPorter'
p46
S'RemyPorter/ChucK-beat-detector'
p47
tp48
a(S'cv-chuck'
p49
S'biikatto'
p50
S'biikatto/cv-chuck'
p51
tp52
a(S'fuguer'
p53
S'xunorus'
p54
S'xunorus/fuguer'
p55
tp56
a(S'algo-ritmos'
p57
S'son0p'
p58
S'son0p/algo-ritmos'
p59
tp60
a(S'dev'
p61
S'supabassmasta'
p62
S'supabassmasta/dev'
p63
tp64
a(S'twinkle-twinkle-little-markov'
p65
S'davidnaas'
p66
S'davidnaas/twinkle-twinkle-little-markov'
p67
tp68
a(S'triangles'
p69
S'fishs'
p70
S'fishs/triangles'
p71
tp72
a(S'scaling-bugfixes'
p73
S'Seefin'
p74
S'Seefin/scaling-bugfixes'
p75
tp76
a(S'sound-map'
p77
S'clarkenciel'
p78
S'clarkenciel/sound-map'
p79
tp80
a(S'EngineRoom'
p81
S'grahamsw'
p82
S'grahamsw/EngineRoom'
p83
tp84
a(S'tonal-soundfield'
p85
S'SIGMusic'
p86
S'SIGMusic/tonal-soundfield'
p87
tp88
a(S'code'
p89
S'chengjianyi'
p90
S'chengjianyi/code'
p91
tp92
a(S'ChucK-beat-detector'
p93
S'sjfloat'
p94
S'sjfloat/ChucK-beat-detector'
p95
tp96
a(S'audio-typing'
p97
S'Willhs'
p98
S'Willhs/audio-typing'
p99
tp100
a(S'lick'
p101
S'heuermh'
p102
S'heuermh/lick'
p103
tp104
a(S'music220a'
p105
S'ccrma'
p106
S'ccrma/music220a'
p107
tp108
a(S'Chuckery'
p109
S'scotchi'
p110
S'scotchi/Chuckery'
p111
tp112
a(S'illumaphone'
p113
S'bonniee'
p114
S'bonniee/illumaphone'
p115
tp116
a(S'EscuelaDeExperimentos'
p117
S'son0p'
p118
S'son0p/EscuelaDeExperimentos'
p119
tp120
a(S'chuck'
p121
S'zFleischman'
p122
S'zFleischman/chuck'
p123
tp124
a(S'lux'
p125
S'attejensen'
p126
S'attejensen/lux'
p127
tp128
a(S'robots'
p129
S'MTIID'
p130
S'MTIID/robots'
p131
tp132
a(S'CHmUsiCK'
p133
S'essteban'
p134
S'essteban/CHmUsiCK'
p135
tp136
a(S'ChucK-Tools'
p137
S'casperschipper'
p138
S'casperschipper/ChucK-Tools'
p139
tp140
a(S'SunSignal'
p141
S'alandub'
p142
S'alandub/SunSignal'
p143
tp144
a(S'ChucK-beat-detector'
p145
S'RemyPorter'
p146
S'RemyPorter/ChucK-beat-detector'
p147
tp148
a(S'cv-chuck'
p149
S'biikatto'
p150
S'biikatto/cv-chuck'
p151
tp152
a(S'fuguer'
p153
S'xunorus'
p154
S'xunorus/fuguer'
p155
tp156
a(S'algo-ritmos'
p157
S'son0p'
p158
S'son0p/algo-ritmos'
p159
tp160
a(S'dev'
p161
S'supabassmasta'
p162
S'supabassmasta/dev'
p163
tp164
a(S'twinkle-twinkle-little-markov'
p165
S'davidnaas'
p166
S'davidnaas/twinkle-twinkle-little-markov'
p167
tp168
a(S'triangles'
p169
S'fishs'
p170
S'fishs/triangles'
p171
tp172
a(S'scaling-bugfixes'
p173
S'Seefin'
p174
S'Seefin/scaling-bugfixes'
p175
tp176
a(S'sound-map'
p177
S'clarkenciel'
p178
S'clarkenciel/sound-map'
p179
tp180
a(S'EngineRoom'
p181
S'grahamsw'
p182
S'grahamsw/EngineRoom'
p183
tp184
a(S'tonal-soundfield'
p185
S'SIGMusic'
p186
S'SIGMusic/tonal-soundfield'
p187
tp188
a(S'code'
p189
S'chengjianyi'
p190
S'chengjianyi/code'
p191
tp192
a(S'ChucK-beat-detector'
p193
S'sjfloat'
p194
S'sjfloat/ChucK-beat-detector'
p195
tp196
a(S'audio-typing'
p197
S'Willhs'
p198
S'Willhs/audio-typing'
p199
tp200
a(S'lick'
p201
S'heuermh'
p202
S'heuermh/lick'
p203
tp204
a(S'music220a'
p205
S'ccrma'
p206
S'ccrma/music220a'
p207
tp208
a(S'Chuckery'
p209
S'scotchi'
p210
S'scotchi/Chuckery'
p211
tp212
a(S'illumaphone'
p213
S'bonniee'
p214
S'bonniee/illumaphone'
p215
tp216
a(S'EscuelaDeExperimentos'
p217
S'son0p'
p218
S'son0p/EscuelaDeExperimentos'
p219
tp220
a(S'chuck'
p221
S'zFleischman'
p222
S'zFleischman/chuck'
p223
tp224
a(S'lux'
p225
S'attejensen'
p226
S'attejensen/lux'
p227
tp228
a(S'robots'
p229
S'MTIID'
p230
S'MTIID/robots'
p231
tp232
a(S'CHmUsiCK'
p233
S'essteban'
p234
S'essteban/CHmUsiCK'
p235
tp236
a(S'ChucK-Tools'
p237
S'casperschipper'
p238
S'casperschipper/ChucK-Tools'
p239
tp240
a(S'SunSignal'
p241
S'alandub'
p242
S'alandub/SunSignal'
p243
tp244
a(S'ChucK-beat-detector'
p245
S'RemyPorter'
p246
S'RemyPorter/ChucK-beat-detector'
p247
tp248
a(S'cv-chuck'
p249
S'biikatto'
p250
S'biikatto/cv-chuck'
p251
tp252
a(S'fuguer'
p253
S'xunorus'
p254
S'xunorus/fuguer'
p255
tp256
a(S'algo-ritmos'
p257
S'son0p'
p258
S'son0p/algo-ritmos'
p259
tp260
a(S'dev'
p261
S'supabassmasta'
p262
S'supabassmasta/dev'
p263
tp264
a(S'twinkle-twinkle-little-markov'
p265
S'davidnaas'
p266
S'davidnaas/twinkle-twinkle-little-markov'
p267
tp268
a(S'triangles'
p269
S'fishs'
p270
S'fishs/triangles'
p271
tp272
a(S'scaling-bugfixes'
p273
S'Seefin'
p274
S'Seefin/scaling-bugfixes'
p275
tp276
a(S'sound-map'
p277
S'clarkenciel'
p278
S'clarkenciel/sound-map'
p279
tp280
a(S'EngineRoom'
p281
S'grahamsw'
p282
S'grahamsw/EngineRoom'
p283
tp284
a(S'tonal-soundfield'
p285
S'SIGMusic'
p286
S'SIGMusic/tonal-soundfield'
p287
tp288
a(S'code'
p289
S'chengjianyi'
p290
S'chengjianyi/code'
p291
tp292
a(S'ChucK-beat-detector'
p293
S'sjfloat'
p294
S'sjfloat/ChucK-beat-detector'
p295
tp296
a(S'audio-typing'
p297
S'Willhs'
p298
S'Willhs/audio-typing'
p299
tp300
a.