(lp0
(S'swift-is-like-go'
p1
S'jiyinyiyong'
p2
S'jiyinyiyong/swift-is-like-go'
p3
tp4
a(S'cirru-script'
p5
S'Cirru'
p6
S'Cirru/cirru-script'
p7
tp8
a(S'react-todolist'
p9
S'Memkits'
p10
S'Memkits/react-todolist'
p11
tp12
a(S'pudica-schedule'
p13
S'Memkits'
p14
S'Memkits/pudica-schedule'
p15
tp16
a(S'cirru.org'
p17
S'Cirru'
p18
S'Cirru/cirru.org'
p19
tp20
a(S'tab-searching'
p21
S'jiyinyiyong'
p22
S'jiyinyiyong/tab-searching'
p23
tp24
a(S'collections'
p25
S'react-china'
p26
S'react-china/collections'
p27
tp28
a(S'manuscript'
p29
S'Memkits'
p30
S'Memkits/manuscript'
p31
tp32
a(S'stir-template'
p33
S'mvc-works'
p34
S'mvc-works/stir-template'
p35
tp36
a(S'cirru-light-editor'
p37
S'Cirru'
p38
S'Cirru/cirru-light-editor'
p39
tp40
a(S'tiye.me'
p41
S'tiye'
p42
S'tiye/tiye.me'
p43
tp44
a(S'marked-react-editor'
p45
S'Memkits'
p46
S'Memkits/marked-react-editor'
p47
tp48
a(S'cirru-editor'
p49
S'Cirru'
p50
S'Cirru/cirru-editor'
p51
tp52
a(S'webpack-workflow'
p53
S'mvc-works'
p54
S'mvc-works/webpack-workflow'
p55
tp56
a(S'monilaria-schedule'
p57
S'Cumulo'
p58
S'Cumulo/monilaria-schedule'
p59
tp60
a(S'slide-react-in-talk'
p61
S'jiyinyiyong'
p62
S'jiyinyiyong/slide-react-in-talk'
p63
tp64
a(S'termina-app'
p65
S'Cumulo'
p66
S'Cumulo/termina-app'
p67
tp68
a(S'redux-in-cirru'
p69
S'jiyinyiyong'
p70
S'jiyinyiyong/redux-in-cirru'
p71
tp72
a(S'scirpus'
p73
S'Cirru'
p74
S'Cirru/scirpus'
p75
tp76
a(S'sepal'
p77
S'Cirru'
p78
S'Cirru/sepal'
p79
tp80
a(S'script-console'
p81
S'Cirru'
p82
S'Cirru/script-console'
p83
tp84
a(S'blog'
p85
S'tiye'
p86
S'tiye/blog'
p87
tp88
a(S'deku-in-cirru'
p89
S'jiyinyiyong'
p90
S'jiyinyiyong/deku-in-cirru'
p91
tp92
a(S'cumulo.org'
p93
S'Cumulo'
p94
S'Cumulo/cumulo.org'
p95
tp96
a(S'termina-server'
p97
S'Cumulo'
p98
S'Cumulo/termina-server'
p99
tp100
a(S'swift-is-like-go'
p101
S'jiyinyiyong'
p102
S'jiyinyiyong/swift-is-like-go'
p103
tp104
a(S'cirru-script'
p105
S'Cirru'
p106
S'Cirru/cirru-script'
p107
tp108
a(S'react-todolist'
p109
S'Memkits'
p110
S'Memkits/react-todolist'
p111
tp112
a(S'pudica-schedule'
p113
S'Memkits'
p114
S'Memkits/pudica-schedule'
p115
tp116
a(S'cirru.org'
p117
S'Cirru'
p118
S'Cirru/cirru.org'
p119
tp120
a(S'tab-searching'
p121
S'jiyinyiyong'
p122
S'jiyinyiyong/tab-searching'
p123
tp124
a(S'collections'
p125
S'react-china'
p126
S'react-china/collections'
p127
tp128
a(S'manuscript'
p129
S'Memkits'
p130
S'Memkits/manuscript'
p131
tp132
a(S'stir-template'
p133
S'mvc-works'
p134
S'mvc-works/stir-template'
p135
tp136
a(S'cirru-light-editor'
p137
S'Cirru'
p138
S'Cirru/cirru-light-editor'
p139
tp140
a(S'tiye.me'
p141
S'tiye'
p142
S'tiye/tiye.me'
p143
tp144
a(S'marked-react-editor'
p145
S'Memkits'
p146
S'Memkits/marked-react-editor'
p147
tp148
a(S'cirru-editor'
p149
S'Cirru'
p150
S'Cirru/cirru-editor'
p151
tp152
a(S'webpack-workflow'
p153
S'mvc-works'
p154
S'mvc-works/webpack-workflow'
p155
tp156
a(S'monilaria-schedule'
p157
S'Cumulo'
p158
S'Cumulo/monilaria-schedule'
p159
tp160
a(S'slide-react-in-talk'
p161
S'jiyinyiyong'
p162
S'jiyinyiyong/slide-react-in-talk'
p163
tp164
a(S'termina-app'
p165
S'Cumulo'
p166
S'Cumulo/termina-app'
p167
tp168
a(S'redux-in-cirru'
p169
S'jiyinyiyong'
p170
S'jiyinyiyong/redux-in-cirru'
p171
tp172
a(S'scirpus'
p173
S'Cirru'
p174
S'Cirru/scirpus'
p175
tp176
a(S'sepal'
p177
S'Cirru'
p178
S'Cirru/sepal'
p179
tp180
a(S'script-console'
p181
S'Cirru'
p182
S'Cirru/script-console'
p183
tp184
a(S'blog'
p185
S'tiye'
p186
S'tiye/blog'
p187
tp188
a(S'deku-in-cirru'
p189
S'jiyinyiyong'
p190
S'jiyinyiyong/deku-in-cirru'
p191
tp192
a(S'cumulo.org'
p193
S'Cumulo'
p194
S'Cumulo/cumulo.org'
p195
tp196
a(S'termina-server'
p197
S'Cumulo'
p198
S'Cumulo/termina-server'
p199
tp200
a(S'swift-is-like-go'
p201
S'jiyinyiyong'
p202
S'jiyinyiyong/swift-is-like-go'
p203
tp204
a(S'cirru-script'
p205
S'Cirru'
p206
S'Cirru/cirru-script'
p207
tp208
a(S'react-todolist'
p209
S'Memkits'
p210
S'Memkits/react-todolist'
p211
tp212
a(S'pudica-schedule'
p213
S'Memkits'
p214
S'Memkits/pudica-schedule'
p215
tp216
a(S'cirru.org'
p217
S'Cirru'
p218
S'Cirru/cirru.org'
p219
tp220
a(S'tab-searching'
p221
S'jiyinyiyong'
p222
S'jiyinyiyong/tab-searching'
p223
tp224
a(S'collections'
p225
S'react-china'
p226
S'react-china/collections'
p227
tp228
a(S'manuscript'
p229
S'Memkits'
p230
S'Memkits/manuscript'
p231
tp232
a(S'stir-template'
p233
S'mvc-works'
p234
S'mvc-works/stir-template'
p235
tp236
a(S'cirru-light-editor'
p237
S'Cirru'
p238
S'Cirru/cirru-light-editor'
p239
tp240
a(S'tiye.me'
p241
S'tiye'
p242
S'tiye/tiye.me'
p243
tp244
a(S'marked-react-editor'
p245
S'Memkits'
p246
S'Memkits/marked-react-editor'
p247
tp248
a(S'cirru-editor'
p249
S'Cirru'
p250
S'Cirru/cirru-editor'
p251
tp252
a(S'webpack-workflow'
p253
S'mvc-works'
p254
S'mvc-works/webpack-workflow'
p255
tp256
a(S'monilaria-schedule'
p257
S'Cumulo'
p258
S'Cumulo/monilaria-schedule'
p259
tp260
a(S'slide-react-in-talk'
p261
S'jiyinyiyong'
p262
S'jiyinyiyong/slide-react-in-talk'
p263
tp264
a(S'termina-app'
p265
S'Cumulo'
p266
S'Cumulo/termina-app'
p267
tp268
a(S'redux-in-cirru'
p269
S'jiyinyiyong'
p270
S'jiyinyiyong/redux-in-cirru'
p271
tp272
a(S'scirpus'
p273
S'Cirru'
p274
S'Cirru/scirpus'
p275
tp276
a(S'sepal'
p277
S'Cirru'
p278
S'Cirru/sepal'
p279
tp280
a(S'script-console'
p281
S'Cirru'
p282
S'Cirru/script-console'
p283
tp284
a(S'blog'
p285
S'tiye'
p286
S'tiye/blog'
p287
tp288
a(S'deku-in-cirru'
p289
S'jiyinyiyong'
p290
S'jiyinyiyong/deku-in-cirru'
p291
tp292
a(S'cumulo.org'
p293
S'Cumulo'
p294
S'Cumulo/cumulo.org'
p295
tp296
a(S'termina-server'
p297
S'Cumulo'
p298
S'Cumulo/termina-server'
p299
tp300
a.