(lp0
(S'clariontouch'
p1
S'softvelocity'
p2
S'softvelocity/clariontouch'
p3
tp4
a(S'ClarionMetroWizard'
p5
S'fushnisoft'
p6
S'fushnisoft/ClarionMetroWizard'
p7
tp8
a(S'ClarionCommunity'
p9
S'MarkGoldberg'
p10
S'MarkGoldberg/ClarionCommunity'
p11
tp12
a(S'ClarionCommunity'
p13
S'fushnisoft'
p14
S'fushnisoft/ClarionCommunity'
p15
tp16
a(S'ODBCClass'
p17
S'jarodav1'
p18
S'jarodav1/ODBCClass'
p19
tp20
a(S'ODBCClass'
p21
S'msarson'
p22
S'msarson/ODBCClass'
p23
tp24
a(S'DEMO-ClarionPOS'
p25
S'PPPInc'
p26
S'PPPInc/DEMO-ClarionPOS'
p27
tp28
a(S'Sp-Browse'
p29
S'Dennis-Evans'
p30
S'Dennis-Evans/Sp-Browse'
p31
tp32
a(S'PythonHTTP'
p33
S'StuxxNet'
p34
S'StuxxNet/PythonHTTP'
p35
tp36
a(S'XmlTest'
p37
S'fushnisoft'
p38
S'fushnisoft/XmlTest'
p39
tp40
a(S'ClarionClasses'
p41
S'fushnisoft'
p42
S'fushnisoft/ClarionClasses'
p43
tp44
a(S'ClarionMagLibrary'
p45
S'clarionmag'
p46
S'clarionmag/ClarionMagLibrary'
p47
tp48
a(S'Sp-Browse'
p49
S'fushnisoft'
p50
S'fushnisoft/Sp-Browse'
p51
tp52
a(S'clariontouch'
p53
S'softvelocity'
p54
S'softvelocity/clariontouch'
p55
tp56
a(S'ClarionMetroWizard'
p57
S'fushnisoft'
p58
S'fushnisoft/ClarionMetroWizard'
p59
tp60
a(S'ClarionCommunity'
p61
S'MarkGoldberg'
p62
S'MarkGoldberg/ClarionCommunity'
p63
tp64
a(S'ClarionCommunity'
p65
S'fushnisoft'
p66
S'fushnisoft/ClarionCommunity'
p67
tp68
a(S'ODBCClass'
p69
S'jarodav1'
p70
S'jarodav1/ODBCClass'
p71
tp72
a(S'ODBCClass'
p73
S'msarson'
p74
S'msarson/ODBCClass'
p75
tp76
a(S'DEMO-ClarionPOS'
p77
S'PPPInc'
p78
S'PPPInc/DEMO-ClarionPOS'
p79
tp80
a(S'Sp-Browse'
p81
S'Dennis-Evans'
p82
S'Dennis-Evans/Sp-Browse'
p83
tp84
a(S'PythonHTTP'
p85
S'StuxxNet'
p86
S'StuxxNet/PythonHTTP'
p87
tp88
a(S'XmlTest'
p89
S'fushnisoft'
p90
S'fushnisoft/XmlTest'
p91
tp92
a(S'ClarionClasses'
p93
S'fushnisoft'
p94
S'fushnisoft/ClarionClasses'
p95
tp96
a(S'ClarionMagLibrary'
p97
S'clarionmag'
p98
S'clarionmag/ClarionMagLibrary'
p99
tp100
a(S'Sp-Browse'
p101
S'fushnisoft'
p102
S'fushnisoft/Sp-Browse'
p103
tp104
a(S'clariontouch'
p105
S'softvelocity'
p106
S'softvelocity/clariontouch'
p107
tp108
a(S'ClarionMetroWizard'
p109
S'fushnisoft'
p110
S'fushnisoft/ClarionMetroWizard'
p111
tp112
a(S'ClarionCommunity'
p113
S'MarkGoldberg'
p114
S'MarkGoldberg/ClarionCommunity'
p115
tp116
a(S'ClarionCommunity'
p117
S'fushnisoft'
p118
S'fushnisoft/ClarionCommunity'
p119
tp120
a(S'ODBCClass'
p121
S'jarodav1'
p122
S'jarodav1/ODBCClass'
p123
tp124
a(S'ODBCClass'
p125
S'msarson'
p126
S'msarson/ODBCClass'
p127
tp128
a(S'DEMO-ClarionPOS'
p129
S'PPPInc'
p130
S'PPPInc/DEMO-ClarionPOS'
p131
tp132
a(S'Sp-Browse'
p133
S'Dennis-Evans'
p134
S'Dennis-Evans/Sp-Browse'
p135
tp136
a(S'PythonHTTP'
p137
S'StuxxNet'
p138
S'StuxxNet/PythonHTTP'
p139
tp140
a(S'XmlTest'
p141
S'fushnisoft'
p142
S'fushnisoft/XmlTest'
p143
tp144
a(S'ClarionClasses'
p145
S'fushnisoft'
p146
S'fushnisoft/ClarionClasses'
p147
tp148
a(S'ClarionMagLibrary'
p149
S'clarionmag'
p150
S'clarionmag/ClarionMagLibrary'
p151
tp152
a(S'Sp-Browse'
p153
S'fushnisoft'
p154
S'fushnisoft/Sp-Browse'
p155
tp156
a.