(lp0
(S'ipsysctl-tutorial'
p1
S'frznlogic'
p2
S'frznlogic/ipsysctl-tutorial'
p3
tp4
a(S'totalcmd'
p5
S'0x4a'
p6
S'0x4a/totalcmd'
p7
tp8
a(S'w3c-markup-validator-commandline'
p9
S'jjlee'
p10
S'jjlee/w3c-markup-validator-commandline'
p11
tp12
a(S'wdg-html-validator'
p13
S'robinhouston'
p14
S'robinhouston/wdg-html-validator'
p15
tp16
a(S'advanced-programming'
p17
S'Jaxan'
p18
S'Jaxan/advanced-programming'
p19
tp20
a(S'eadator'
p21
S'eadhost'
p22
S'eadhost/eadator'
p23
tp24
a(S'dotfiles'
p25
S'robgraves'
p26
S'robgraves/dotfiles'
p27
tp28
a(S'w3c-sgml-lib'
p29
S'periapt'
p30
S'periapt/w3c-sgml-lib'
p31
tp32
a(S'uCreative'
p33
S'ucha19871'
p34
S'ucha19871/uCreative'
p35
tp36
a(S'w3c-catalogs'
p37
S'webcc'
p38
S'webcc/w3c-catalogs'
p39
tp40
a(S'kde-sdk-images'
p41
S'danvratil'
p42
S'danvratil/kde-sdk-images'
p43
tp44
a(S'dotfiles'
p45
S'dolugen'
p46
S'dolugen/dotfiles'
p47
tp48
a(S'cleanwhile'
p49
S'dopefishh'
p50
S'dopefishh/cleanwhile'
p51
tp52
a(S'ap2015'
p53
S'dopefishh'
p54
S'dopefishh/ap2015'
p55
tp56
a(S'ddc'
p57
S'nisstyre56'
p58
S'nisstyre56/ddc'
p59
tp60
a(S'mlSandbox'
p61
S'BillFarber'
p62
S'BillFarber/mlSandbox'
p63
tp64
a(S'ra303p-data'
p65
S'Iran'
p66
S'Iran/ra303p-data'
p67
tp68
a(S'epub-examples'
p69
S'turesheim'
p70
S'turesheim/epub-examples'
p71
tp72
a(S'asc-dh13'
p73
S'erochest'
p74
S'erochest/asc-dh13'
p75
tp76
a(S'php-storm-colors'
p77
S'kevinhowbrook'
p78
S'kevinhowbrook/php-storm-colors'
p79
tp80
a(S'AinurOS'
p81
S'snunezcr'
p82
S'snunezcr/AinurOS'
p83
tp84
a(S'ra303p-data'
p85
S'cnc-patch'
p86
S'cnc-patch/ra303p-data'
p87
tp88
a(S'w3c-sgml-lib'
p89
S'stan3'
p90
S'stan3/w3c-sgml-lib'
p91
tp92
a(S'Functioneel-Programmeren'
p93
S'MarkVink'
p94
S'MarkVink/Functioneel-Programmeren'
p95
tp96
a(S'ipsysctl-tutorial'
p97
S'CingHu'
p98
S'CingHu/ipsysctl-tutorial'
p99
tp100
a(S'ipsysctl-tutorial'
p101
S'frznlogic'
p102
S'frznlogic/ipsysctl-tutorial'
p103
tp104
a(S'totalcmd'
p105
S'0x4a'
p106
S'0x4a/totalcmd'
p107
tp108
a(S'w3c-markup-validator-commandline'
p109
S'jjlee'
p110
S'jjlee/w3c-markup-validator-commandline'
p111
tp112
a(S'wdg-html-validator'
p113
S'robinhouston'
p114
S'robinhouston/wdg-html-validator'
p115
tp116
a(S'advanced-programming'
p117
S'Jaxan'
p118
S'Jaxan/advanced-programming'
p119
tp120
a(S'eadator'
p121
S'eadhost'
p122
S'eadhost/eadator'
p123
tp124
a(S'dotfiles'
p125
S'robgraves'
p126
S'robgraves/dotfiles'
p127
tp128
a(S'w3c-sgml-lib'
p129
S'periapt'
p130
S'periapt/w3c-sgml-lib'
p131
tp132
a(S'uCreative'
p133
S'ucha19871'
p134
S'ucha19871/uCreative'
p135
tp136
a(S'w3c-catalogs'
p137
S'webcc'
p138
S'webcc/w3c-catalogs'
p139
tp140
a(S'kde-sdk-images'
p141
S'danvratil'
p142
S'danvratil/kde-sdk-images'
p143
tp144
a(S'dotfiles'
p145
S'dolugen'
p146
S'dolugen/dotfiles'
p147
tp148
a(S'cleanwhile'
p149
S'dopefishh'
p150
S'dopefishh/cleanwhile'
p151
tp152
a(S'ap2015'
p153
S'dopefishh'
p154
S'dopefishh/ap2015'
p155
tp156
a(S'ddc'
p157
S'nisstyre56'
p158
S'nisstyre56/ddc'
p159
tp160
a(S'mlSandbox'
p161
S'BillFarber'
p162
S'BillFarber/mlSandbox'
p163
tp164
a(S'ra303p-data'
p165
S'Iran'
p166
S'Iran/ra303p-data'
p167
tp168
a(S'epub-examples'
p169
S'turesheim'
p170
S'turesheim/epub-examples'
p171
tp172
a(S'asc-dh13'
p173
S'erochest'
p174
S'erochest/asc-dh13'
p175
tp176
a(S'php-storm-colors'
p177
S'kevinhowbrook'
p178
S'kevinhowbrook/php-storm-colors'
p179
tp180
a(S'AinurOS'
p181
S'snunezcr'
p182
S'snunezcr/AinurOS'
p183
tp184
a(S'ra303p-data'
p185
S'cnc-patch'
p186
S'cnc-patch/ra303p-data'
p187
tp188
a(S'w3c-sgml-lib'
p189
S'stan3'
p190
S'stan3/w3c-sgml-lib'
p191
tp192
a(S'Functioneel-Programmeren'
p193
S'MarkVink'
p194
S'MarkVink/Functioneel-Programmeren'
p195
tp196
a(S'ipsysctl-tutorial'
p197
S'CingHu'
p198
S'CingHu/ipsysctl-tutorial'
p199
tp200
a(S'ipsysctl-tutorial'
p201
S'frznlogic'
p202
S'frznlogic/ipsysctl-tutorial'
p203
tp204
a(S'totalcmd'
p205
S'0x4a'
p206
S'0x4a/totalcmd'
p207
tp208
a(S'w3c-markup-validator-commandline'
p209
S'jjlee'
p210
S'jjlee/w3c-markup-validator-commandline'
p211
tp212
a(S'wdg-html-validator'
p213
S'robinhouston'
p214
S'robinhouston/wdg-html-validator'
p215
tp216
a(S'advanced-programming'
p217
S'Jaxan'
p218
S'Jaxan/advanced-programming'
p219
tp220
a(S'eadator'
p221
S'eadhost'
p222
S'eadhost/eadator'
p223
tp224
a(S'dotfiles'
p225
S'robgraves'
p226
S'robgraves/dotfiles'
p227
tp228
a(S'w3c-sgml-lib'
p229
S'periapt'
p230
S'periapt/w3c-sgml-lib'
p231
tp232
a(S'uCreative'
p233
S'ucha19871'
p234
S'ucha19871/uCreative'
p235
tp236
a(S'w3c-catalogs'
p237
S'webcc'
p238
S'webcc/w3c-catalogs'
p239
tp240
a(S'kde-sdk-images'
p241
S'danvratil'
p242
S'danvratil/kde-sdk-images'
p243
tp244
a(S'dotfiles'
p245
S'dolugen'
p246
S'dolugen/dotfiles'
p247
tp248
a(S'cleanwhile'
p249
S'dopefishh'
p250
S'dopefishh/cleanwhile'
p251
tp252
a(S'ap2015'
p253
S'dopefishh'
p254
S'dopefishh/ap2015'
p255
tp256
a(S'ddc'
p257
S'nisstyre56'
p258
S'nisstyre56/ddc'
p259
tp260
a(S'mlSandbox'
p261
S'BillFarber'
p262
S'BillFarber/mlSandbox'
p263
tp264
a(S'ra303p-data'
p265
S'Iran'
p266
S'Iran/ra303p-data'
p267
tp268
a(S'epub-examples'
p269
S'turesheim'
p270
S'turesheim/epub-examples'
p271
tp272
a(S'asc-dh13'
p273
S'erochest'
p274
S'erochest/asc-dh13'
p275
tp276
a(S'php-storm-colors'
p277
S'kevinhowbrook'
p278
S'kevinhowbrook/php-storm-colors'
p279
tp280
a(S'AinurOS'
p281
S'snunezcr'
p282
S'snunezcr/AinurOS'
p283
tp284
a(S'ra303p-data'
p285
S'cnc-patch'
p286
S'cnc-patch/ra303p-data'
p287
tp288
a(S'w3c-sgml-lib'
p289
S'stan3'
p290
S'stan3/w3c-sgml-lib'
p291
tp292
a(S'Functioneel-Programmeren'
p293
S'MarkVink'
p294
S'MarkVink/Functioneel-Programmeren'
p295
tp296
a(S'ipsysctl-tutorial'
p297
S'CingHu'
p298
S'CingHu/ipsysctl-tutorial'
p299
tp300
a.