(lp0
(S'ClipsLanguage'
p1
S'ricksladkey'
p2
S'ricksladkey/ClipsLanguage'
p3
tp4
a(S'ialab'
p5
S'Aterocana'
p6
S'Aterocana/ialab'
p7
tp8
a(S'housing'
p9
S'deric'
p10
S'deric/housing'
p11
tp12
a(S'electron-filesystem'
p13
S'DrItanium'
p14
S'DrItanium/electron-filesystem'
p15
tp16
a(S'ItaniumBasicBlockScheduler'
p17
S'DrItanium'
p18
S'DrItanium/ItaniumBasicBlockScheduler'
p19
tp20
a(S'ClipsLanguage'
p21
S'miki1982es'
p22
S'miki1982es/ClipsLanguage'
p23
tp24
a(S'problem0'
p25
S'DrItanium'
p26
S'DrItanium/problem0'
p27
tp28
a(S'ekspertni_projekt'
p29
S'bezidejni'
p30
S'bezidejni/ekspertni_projekt'
p31
tp32
a(S'AI2_Pitt'
p33
S'navicto'
p34
S'navicto/AI2_Pitt'
p35
tp36
a(S'tasker'
p37
S'DrItanium'
p38
S'DrItanium/tasker'
p39
tp40
a(S'catharsis'
p41
S'DrItanium'
p42
S'DrItanium/catharsis'
p43
tp44
a(S'phutballCLIPS'
p45
S'mateioprea'
p46
S'mateioprea/phutballCLIPS'
p47
tp48
a(S'LOG635-TP1'
p49
S'eurojulien'
p50
S'eurojulien/LOG635-TP1'
p51
tp52
a(S'proton'
p53
S'DrItanium'
p54
S'DrItanium/proton'
p55
tp56
a(S'InductorKBS'
p57
S'gholker'
p58
S'gholker/InductorKBS'
p59
tp60
a(S'WavefrontScheduling'
p61
S'DrItanium'
p62
S'DrItanium/WavefrontScheduling'
p63
tp64
a(S'ialab'
p65
S'axedre'
p66
S'axedre/ialab'
p67
tp68
a(S'projectSispak'
p69
S'aongko'
p70
S'aongko/projectSispak'
p71
tp72
a(S'SCUBA_Diving_ExpertSystem'
p73
S'gioce90'
p74
S'gioce90/SCUBA_Diving_ExpertSystem'
p75
tp76
a(S'jessmre'
p77
S'kirederik'
p78
S'kirederik/jessmre'
p79
tp80
a(S'tesisuca-minimental-clips'
p81
S'QueCosaSSS'
p82
S'QueCosaSSS/tesisuca-minimental-clips'
p83
tp84
a(S'CLIPS-basic-trivia'
p85
S'jossemarGT'
p86
S'jossemarGT/CLIPS-basic-trivia'
p87
tp88
a(S'log635-lab1-jess'
p89
S'marcantoinebeaulieu'
p90
S'marcantoinebeaulieu/log635-lab1-jess'
p91
tp92
a(S'jess'
p93
S'juampi'
p94
S'juampi/jess'
p95
tp96
a(S'creshendo--git'
p97
S'joaocc'
p98
S'joaocc/creshendo--git'
p99
tp100
a(S'ClipsLanguage'
p101
S'ricksladkey'
p102
S'ricksladkey/ClipsLanguage'
p103
tp104
a(S'ialab'
p105
S'Aterocana'
p106
S'Aterocana/ialab'
p107
tp108
a(S'housing'
p109
S'deric'
p110
S'deric/housing'
p111
tp112
a(S'electron-filesystem'
p113
S'DrItanium'
p114
S'DrItanium/electron-filesystem'
p115
tp116
a(S'ItaniumBasicBlockScheduler'
p117
S'DrItanium'
p118
S'DrItanium/ItaniumBasicBlockScheduler'
p119
tp120
a(S'ClipsLanguage'
p121
S'miki1982es'
p122
S'miki1982es/ClipsLanguage'
p123
tp124
a(S'problem0'
p125
S'DrItanium'
p126
S'DrItanium/problem0'
p127
tp128
a(S'ekspertni_projekt'
p129
S'bezidejni'
p130
S'bezidejni/ekspertni_projekt'
p131
tp132
a(S'AI2_Pitt'
p133
S'navicto'
p134
S'navicto/AI2_Pitt'
p135
tp136
a(S'tasker'
p137
S'DrItanium'
p138
S'DrItanium/tasker'
p139
tp140
a(S'catharsis'
p141
S'DrItanium'
p142
S'DrItanium/catharsis'
p143
tp144
a(S'phutballCLIPS'
p145
S'mateioprea'
p146
S'mateioprea/phutballCLIPS'
p147
tp148
a(S'LOG635-TP1'
p149
S'eurojulien'
p150
S'eurojulien/LOG635-TP1'
p151
tp152
a(S'proton'
p153
S'DrItanium'
p154
S'DrItanium/proton'
p155
tp156
a(S'InductorKBS'
p157
S'gholker'
p158
S'gholker/InductorKBS'
p159
tp160
a(S'WavefrontScheduling'
p161
S'DrItanium'
p162
S'DrItanium/WavefrontScheduling'
p163
tp164
a(S'ialab'
p165
S'axedre'
p166
S'axedre/ialab'
p167
tp168
a(S'projectSispak'
p169
S'aongko'
p170
S'aongko/projectSispak'
p171
tp172
a(S'SCUBA_Diving_ExpertSystem'
p173
S'gioce90'
p174
S'gioce90/SCUBA_Diving_ExpertSystem'
p175
tp176
a(S'jessmre'
p177
S'kirederik'
p178
S'kirederik/jessmre'
p179
tp180
a(S'tesisuca-minimental-clips'
p181
S'QueCosaSSS'
p182
S'QueCosaSSS/tesisuca-minimental-clips'
p183
tp184
a(S'CLIPS-basic-trivia'
p185
S'jossemarGT'
p186
S'jossemarGT/CLIPS-basic-trivia'
p187
tp188
a(S'log635-lab1-jess'
p189
S'marcantoinebeaulieu'
p190
S'marcantoinebeaulieu/log635-lab1-jess'
p191
tp192
a(S'jess'
p193
S'juampi'
p194
S'juampi/jess'
p195
tp196
a(S'creshendo--git'
p197
S'joaocc'
p198
S'joaocc/creshendo--git'
p199
tp200
a(S'ClipsLanguage'
p201
S'ricksladkey'
p202
S'ricksladkey/ClipsLanguage'
p203
tp204
a(S'ialab'
p205
S'Aterocana'
p206
S'Aterocana/ialab'
p207
tp208
a(S'housing'
p209
S'deric'
p210
S'deric/housing'
p211
tp212
a(S'electron-filesystem'
p213
S'DrItanium'
p214
S'DrItanium/electron-filesystem'
p215
tp216
a(S'ItaniumBasicBlockScheduler'
p217
S'DrItanium'
p218
S'DrItanium/ItaniumBasicBlockScheduler'
p219
tp220
a(S'ClipsLanguage'
p221
S'miki1982es'
p222
S'miki1982es/ClipsLanguage'
p223
tp224
a(S'problem0'
p225
S'DrItanium'
p226
S'DrItanium/problem0'
p227
tp228
a(S'ekspertni_projekt'
p229
S'bezidejni'
p230
S'bezidejni/ekspertni_projekt'
p231
tp232
a(S'AI2_Pitt'
p233
S'navicto'
p234
S'navicto/AI2_Pitt'
p235
tp236
a(S'tasker'
p237
S'DrItanium'
p238
S'DrItanium/tasker'
p239
tp240
a(S'catharsis'
p241
S'DrItanium'
p242
S'DrItanium/catharsis'
p243
tp244
a(S'phutballCLIPS'
p245
S'mateioprea'
p246
S'mateioprea/phutballCLIPS'
p247
tp248
a(S'LOG635-TP1'
p249
S'eurojulien'
p250
S'eurojulien/LOG635-TP1'
p251
tp252
a(S'proton'
p253
S'DrItanium'
p254
S'DrItanium/proton'
p255
tp256
a(S'InductorKBS'
p257
S'gholker'
p258
S'gholker/InductorKBS'
p259
tp260
a(S'WavefrontScheduling'
p261
S'DrItanium'
p262
S'DrItanium/WavefrontScheduling'
p263
tp264
a(S'ialab'
p265
S'axedre'
p266
S'axedre/ialab'
p267
tp268
a(S'projectSispak'
p269
S'aongko'
p270
S'aongko/projectSispak'
p271
tp272
a(S'SCUBA_Diving_ExpertSystem'
p273
S'gioce90'
p274
S'gioce90/SCUBA_Diving_ExpertSystem'
p275
tp276
a(S'jessmre'
p277
S'kirederik'
p278
S'kirederik/jessmre'
p279
tp280
a(S'tesisuca-minimental-clips'
p281
S'QueCosaSSS'
p282
S'QueCosaSSS/tesisuca-minimental-clips'
p283
tp284
a(S'CLIPS-basic-trivia'
p285
S'jossemarGT'
p286
S'jossemarGT/CLIPS-basic-trivia'
p287
tp288
a(S'log635-lab1-jess'
p289
S'marcantoinebeaulieu'
p290
S'marcantoinebeaulieu/log635-lab1-jess'
p291
tp292
a(S'jess'
p293
S'juampi'
p294
S'juampi/jess'
p295
tp296
a(S'creshendo--git'
p297
S'joaocc'
p298
S'joaocc/creshendo--git'
p299
tp300
a.