(lp0
(S'metabase'
p1
S'metabase'
p2
S'metabase/metabase'
p3
tp4
a(S'om'
p5
S'omcljs'
p6
S'omcljs/om'
p7
tp8
a(S're-frame'
p9
S'Day8'
p10
S'Day8/re-frame'
p11
tp12
a(S'training-day'
p13
S'iloveponies'
p14
S'iloveponies/training-day'
p15
tp16
a(S'clojure-cookbook'
p17
S'clojure-cookbook'
p18
S'clojure-cookbook/clojure-cookbook'
p19
tp20
a(S'manifold'
p21
S'ztellman'
p22
S'ztellman/manifold'
p23
tp24
a(S'ring-server'
p25
S'weavejester'
p26
S'weavejester/ring-server'
p27
tp28
a(S'congomongo'
p29
S'aboekhoff'
p30
S'aboekhoff/congomongo'
p31
tp32
a(S'gloss'
p33
S'ztellman'
p34
S'ztellman/gloss'
p35
tp36
a(S'clj-kdtree'
p37
S'abscondment'
p38
S'abscondment/clj-kdtree'
p39
tp40
a(S'LightTable'
p41
S'LightTable'
p42
S'LightTable/LightTable'
p43
tp44
a(S'clojurescript'
p45
S'clojure'
p46
S'clojure/clojurescript'
p47
tp48
a(S'leiningen'
p49
S'technomancy'
p50
S'technomancy/leiningen'
p51
tp52
a(S'overtone'
p53
S'overtone'
p54
S'overtone/overtone'
p55
tp56
a(S'compojure'
p57
S'weavejester'
p58
S'weavejester/compojure'
p59
tp60
a(S'riemann'
p61
S'aphyr'
p62
S'aphyr/riemann'
p63
tp64
a(S'clojure-koans'
p65
S'functional-koans'
p66
S'functional-koans/clojure-koans'
p67
tp68
a(S'mori'
p69
S'swannodette'
p70
S'swannodette/mori'
p71
tp72
a(S'ring'
p73
S'ring-clojure'
p74
S'ring-clojure/ring'
p75
tp76
a(S'modern-cljs'
p77
S'magomimmo'
p78
S'magomimmo/modern-cljs'
p79
tp80
a(S'incanter'
p81
S'incanter'
p82
S'incanter/incanter'
p83
tp84
a(S'datascript'
p85
S'tonsky'
p86
S'tonsky/datascript'
p87
tp88
a(S'reagent'
p89
S'reagent-project'
p90
S'reagent-project/reagent'
p91
tp92
a(S'pedestal'
p93
S'pedestal'
p94
S'pedestal/pedestal'
p95
tp96
a(S'icepick'
p97
S'frankiesardo'
p98
S'frankiesardo/icepick'
p99
tp100
a(S'metabase'
p101
S'metabase'
p102
S'metabase/metabase'
p103
tp104
a(S'structural-typing'
p105
S'marick'
p106
S'marick/structural-typing'
p107
tp108
a(S'om'
p109
S'omcljs'
p110
S'omcljs/om'
p111
tp112
a(S'jepsen'
p113
S'aphyr'
p114
S'aphyr/jepsen'
p115
tp116
a(S'clojurescript'
p117
S'clojure'
p118
S'clojure/clojurescript'
p119
tp120
a(S'devcards'
p121
S'bhauman'
p122
S'bhauman/devcards'
p123
tp124
a(S'datascript'
p125
S'tonsky'
p126
S'tonsky/datascript'
p127
tp128
a(S'leiningen'
p129
S'technomancy'
p130
S'technomancy/leiningen'
p131
tp132
a(S'LightTable'
p133
S'LightTable'
p134
S'LightTable/LightTable'
p135
tp136
a(S'hugsql'
p137
S'layerware'
p138
S'layerware/hugsql'
p139
tp140
a(S're-frame'
p141
S'Day8'
p142
S'Day8/re-frame'
p143
tp144
a(S'schema'
p145
S'Prismatic'
p146
S'Prismatic/schema'
p147
tp148
a(S'reagent-motion-demos'
p149
S'ducky427'
p150
S'ducky427/reagent-motion-demos'
p151
tp152
a(S'rum'
p153
S'tonsky'
p154
S'tonsky/rum'
p155
tp156
a(S'reforms'
p157
S'bilus'
p158
S'bilus/reforms'
p159
tp160
a(S'clojure-koans'
p161
S'functional-koans'
p162
S'functional-koans/clojure-koans'
p163
tp164
a(S'modern-cljs'
p165
S'magomimmo'
p166
S'magomimmo/modern-cljs'
p167
tp168
a(S'riemann'
p169
S'aphyr'
p170
S'aphyr/riemann'
p171
tp172
a(S'defprecated'
p173
S'alexander-yakushev'
p174
S'alexander-yakushev/defprecated'
p175
tp176
a(S'lein-figwheel'
p177
S'bhauman'
p178
S'bhauman/lein-figwheel'
p179
tp180
a(S'clojure-cookbook'
p181
S'clojure-cookbook'
p182
S'clojure-cookbook/clojure-cookbook'
p183
tp184
a(S'alda'
p185
S'alda-lang'
p186
S'alda-lang/alda'
p187
tp188
a(S'slacker'
p189
S'sunng87'
p190
S'sunng87/slacker'
p191
tp192
a(S'manifold'
p193
S'ztellman'
p194
S'ztellman/manifold'
p195
tp196
a(S'onyx'
p197
S'onyx-platform'
p198
S'onyx-platform/onyx'
p199
tp200
a(S'metabase'
p201
S'metabase'
p202
S'metabase/metabase'
p203
tp204
a(S'om'
p205
S'omcljs'
p206
S'omcljs/om'
p207
tp208
a(S'clojurescript'
p209
S'clojure'
p210
S'clojure/clojurescript'
p211
tp212
a(S'structural-typing'
p213
S'marick'
p214
S'marick/structural-typing'
p215
tp216
a(S'LightTable'
p217
S'LightTable'
p218
S'LightTable/LightTable'
p219
tp220
a(S'devcards'
p221
S'bhauman'
p222
S'bhauman/devcards'
p223
tp224
a(S'leiningen'
p225
S'technomancy'
p226
S'technomancy/leiningen'
p227
tp228
a(S'datascript'
p229
S'tonsky'
p230
S'tonsky/datascript'
p231
tp232
a(S're-frame'
p233
S'Day8'
p234
S'Day8/re-frame'
p235
tp236
a(S'schema'
p237
S'Prismatic'
p238
S'Prismatic/schema'
p239
tp240
a(S'jepsen'
p241
S'aphyr'
p242
S'aphyr/jepsen'
p243
tp244
a(S'lein-figwheel'
p245
S'bhauman'
p246
S'bhauman/lein-figwheel'
p247
tp248
a(S'alda'
p249
S'alda-lang'
p250
S'alda-lang/alda'
p251
tp252
a(S'riemann'
p253
S'aphyr'
p254
S'aphyr/riemann'
p255
tp256
a(S'yesql'
p257
S'krisajenkins'
p258
S'krisajenkins/yesql'
p259
tp260
a(S'clojure-koans'
p261
S'functional-koans'
p262
S'functional-koans/clojure-koans'
p263
tp264
a(S'lux'
p265
S'LuxLang'
p266
S'LuxLang/lux'
p267
tp268
a(S'reforms'
p269
S'bilus'
p270
S'bilus/reforms'
p271
tp272
a(S'Cook'
p273
S'twosigma'
p274
S'twosigma/Cook'
p275
tp276
a(S'rum'
p277
S'tonsky'
p278
S'tonsky/rum'
p279
tp280
a(S'wonderland-clojure-katas'
p281
S'gigasquid'
p282
S'gigasquid/wonderland-clojure-katas'
p283
tp284
a(S'modern-cljs'
p285
S'magomimmo'
p286
S'magomimmo/modern-cljs'
p287
tp288
a(S'frontend'
p289
S'circleci'
p290
S'circleci/frontend'
p291
tp292
a(S'drake'
p293
S'Factual'
p294
S'Factual/drake'
p295
tp296
a(S'om-next-demo'
p297
S'swannodette'
p298
S'swannodette/om-next-demo'
p299
tp300
a.