(lp0
(S'Glitter'
p1
S'Polytonic'
p2
S'Polytonic/Glitter'
p3
tp4
a(S'libcsptr'
p5
S'Snaipe'
p6
S'Snaipe/libcsptr'
p7
tp8
a(S'android-cmake'
p9
S'taka-no-me'
p10
S'taka-no-me/android-cmake'
p11
tp12
a(S'shashlik'
p13
S'shashlik'
p14
S'shashlik/shashlik'
p15
tp16
a(S'cotire'
p17
S'sakra'
p18
S'sakra/cotire'
p19
tp20
a(S'cmake-modules'
p21
S'rpavlik'
p22
S'rpavlik/cmake-modules'
p23
tp24
a(S'cmakepp'
p25
S'toeb'
p26
S'toeb/cmakepp'
p27
tp28
a(S'hunter'
p29
S'ruslo'
p30
S'ruslo/hunter'
p31
tp32
a(S'Repository'
p33
S'LuaDist'
p34
S'LuaDist/Repository'
p35
tp36
a(S'Programming_learning_resource'
p37
S'tolerious'
p38
S'tolerious/Programming_learning_resource'
p39
tp40
a(S'commotion-router'
p41
S'opentechinstitute'
p42
S'opentechinstitute/commotion-router'
p43
tp44
a(S'wiiuse'
p45
S'rpavlik'
p46
S'rpavlik/wiiuse'
p47
tp48
a(S'cob_common'
p49
S'ipa320'
p50
S'ipa320/cob_common'
p51
tp52
a(S'UseLATEX'
p53
S'kmorel'
p54
S'kmorel/UseLATEX'
p55
tp56
a(S'hge'
p57
S'kvakvs'
p58
S'kvakvs/hge'
p59
tp60
a(S'python-cmake-buildsystem'
p61
S'python-cmake-buildsystem'
p62
S'python-cmake-buildsystem/python-cmake-buildsystem'
p63
tp64
a(S'RustCMake'
p65
S'SiegeLord'
p66
S'SiegeLord/RustCMake'
p67
tp68
a(S'sffmpeg'
p69
S'pyke369'
p70
S'pyke369/sffmpeg'
p71
tp72
a(S'polly'
p73
S'ruslo'
p74
S'ruslo/polly'
p75
tp76
a(S'go-static-linking'
p77
S'shadowmint'
p78
S'shadowmint/go-static-linking'
p79
tp80
a(S'care-o-bot'
p81
S'ipa320'
p82
S'ipa320/care-o-bot'
p83
tp84
a(S'vfxcmake'
p85
S'nerdvegas'
p86
S'nerdvegas/vfxcmake'
p87
tp88
a(S'ios-cmake'
p89
S'cristeab'
p90
S'cristeab/ios-cmake'
p91
tp92
a(S'llvm-pass-skeleton'
p93
S'sampsyo'
p94
S'sampsyo/llvm-pass-skeleton'
p95
tp96
a(S'cob_environments'
p97
S'ipa320'
p98
S'ipa320/cob_environments'
p99
tp100
a(S'Programming_learning_resource'
p101
S'tolerious'
p102
S'tolerious/Programming_learning_resource'
p103
tp104
a(S'care-o-bot'
p105
S'ipa320'
p106
S'ipa320/care-o-bot'
p107
tp108
a(S'RustCMake'
p109
S'SiegeLord'
p110
S'SiegeLord/RustCMake'
p111
tp112
a(S'Glitter'
p113
S'Polytonic'
p114
S'Polytonic/Glitter'
p115
tp116
a(S'libcsptr'
p117
S'Snaipe'
p118
S'Snaipe/libcsptr'
p119
tp120
a(S'android-cmake'
p121
S'taka-no-me'
p122
S'taka-no-me/android-cmake'
p123
tp124
a(S'shashlik'
p125
S'shashlik'
p126
S'shashlik/shashlik'
p127
tp128
a(S'cotire'
p129
S'sakra'
p130
S'sakra/cotire'
p131
tp132
a(S'cmake-modules'
p133
S'rpavlik'
p134
S'rpavlik/cmake-modules'
p135
tp136
a(S'cmakepp'
p137
S'toeb'
p138
S'toeb/cmakepp'
p139
tp140
a(S'hunter'
p141
S'ruslo'
p142
S'ruslo/hunter'
p143
tp144
a(S'Repository'
p145
S'LuaDist'
p146
S'LuaDist/Repository'
p147
tp148
a(S'commotion-router'
p149
S'opentechinstitute'
p150
S'opentechinstitute/commotion-router'
p151
tp152
a(S'wiiuse'
p153
S'rpavlik'
p154
S'rpavlik/wiiuse'
p155
tp156
a(S'cob_common'
p157
S'ipa320'
p158
S'ipa320/cob_common'
p159
tp160
a(S'UseLATEX'
p161
S'kmorel'
p162
S'kmorel/UseLATEX'
p163
tp164
a(S'hge'
p165
S'kvakvs'
p166
S'kvakvs/hge'
p167
tp168
a(S'python-cmake-buildsystem'
p169
S'python-cmake-buildsystem'
p170
S'python-cmake-buildsystem/python-cmake-buildsystem'
p171
tp172
a(S'sffmpeg'
p173
S'pyke369'
p174
S'pyke369/sffmpeg'
p175
tp176
a(S'polly'
p177
S'ruslo'
p178
S'ruslo/polly'
p179
tp180
a(S'go-static-linking'
p181
S'shadowmint'
p182
S'shadowmint/go-static-linking'
p183
tp184
a(S'vfxcmake'
p185
S'nerdvegas'
p186
S'nerdvegas/vfxcmake'
p187
tp188
a(S'ios-cmake'
p189
S'cristeab'
p190
S'cristeab/ios-cmake'
p191
tp192
a(S'llvm-pass-skeleton'
p193
S'sampsyo'
p194
S'sampsyo/llvm-pass-skeleton'
p195
tp196
a(S'cob_environments'
p197
S'ipa320'
p198
S'ipa320/cob_environments'
p199
tp200
a(S'hunter'
p201
S'ruslo'
p202
S'ruslo/hunter'
p203
tp204
a(S'Programming_learning_resource'
p205
S'tolerious'
p206
S'tolerious/Programming_learning_resource'
p207
tp208
a(S'cob_common'
p209
S'ipa320'
p210
S'ipa320/cob_common'
p211
tp212
a(S'RustCMake'
p213
S'SiegeLord'
p214
S'SiegeLord/RustCMake'
p215
tp216
a(S'care-o-bot'
p217
S'ipa320'
p218
S'ipa320/care-o-bot'
p219
tp220
a(S'Glitter'
p221
S'Polytonic'
p222
S'Polytonic/Glitter'
p223
tp224
a(S'libcsptr'
p225
S'Snaipe'
p226
S'Snaipe/libcsptr'
p227
tp228
a(S'android-cmake'
p229
S'taka-no-me'
p230
S'taka-no-me/android-cmake'
p231
tp232
a(S'shashlik'
p233
S'shashlik'
p234
S'shashlik/shashlik'
p235
tp236
a(S'cotire'
p237
S'sakra'
p238
S'sakra/cotire'
p239
tp240
a(S'cmake-modules'
p241
S'rpavlik'
p242
S'rpavlik/cmake-modules'
p243
tp244
a(S'cmakepp'
p245
S'toeb'
p246
S'toeb/cmakepp'
p247
tp248
a(S'Repository'
p249
S'LuaDist'
p250
S'LuaDist/Repository'
p251
tp252
a(S'commotion-router'
p253
S'opentechinstitute'
p254
S'opentechinstitute/commotion-router'
p255
tp256
a(S'wiiuse'
p257
S'rpavlik'
p258
S'rpavlik/wiiuse'
p259
tp260
a(S'UseLATEX'
p261
S'kmorel'
p262
S'kmorel/UseLATEX'
p263
tp264
a(S'hge'
p265
S'kvakvs'
p266
S'kvakvs/hge'
p267
tp268
a(S'python-cmake-buildsystem'
p269
S'python-cmake-buildsystem'
p270
S'python-cmake-buildsystem/python-cmake-buildsystem'
p271
tp272
a(S'sffmpeg'
p273
S'pyke369'
p274
S'pyke369/sffmpeg'
p275
tp276
a(S'polly'
p277
S'ruslo'
p278
S'ruslo/polly'
p279
tp280
a(S'go-static-linking'
p281
S'shadowmint'
p282
S'shadowmint/go-static-linking'
p283
tp284
a(S'vfxcmake'
p285
S'nerdvegas'
p286
S'nerdvegas/vfxcmake'
p287
tp288
a(S'ios-cmake'
p289
S'cristeab'
p290
S'cristeab/ios-cmake'
p291
tp292
a(S'cob_environments'
p293
S'ipa320'
p294
S'ipa320/cob_environments'
p295
tp296
a(S'llvm-pass-skeleton'
p297
S'sampsyo'
p298
S'sampsyo/llvm-pass-skeleton'
p299
tp300
a.