(lp0
(S'node-cobol'
p1
S'IonicaBizau'
p2
S'IonicaBizau/node-cobol'
p3
tp4
a(S'cobol-on-wheelchair'
p5
S'azac'
p6
S'azac/cobol-on-wheelchair'
p7
tp8
a(S'sekigae2015'
p9
S'pepabo'
p10
S'pepabo/sekigae2015'
p11
tp12
a(S'COBOL'
p13
S'mquinn'
p14
S'mquinn/COBOL'
p15
tp16
a(S'project-learn-cobol'
p17
S'm3talsmith'
p18
S'm3talsmith/project-learn-cobol'
p19
tp20
a(S'cobol-unit-test'
p21
S'neopragma'
p22
S'neopragma/cobol-unit-test'
p23
tp24
a(S'Tuxedo-samples'
p25
S'TuxedoUsers'
p26
S'TuxedoUsers/Tuxedo-samples'
p27
tp28
a(S'COBOLUnit'
p29
S'gbeine'
p30
S'gbeine/COBOLUnit'
p31
tp32
a(S'COBWEB'
p33
S'addinall'
p34
S'addinall/COBWEB'
p35
tp36
a(S'CoinBoller'
p37
S'yujisakata'
p38
S'yujisakata/CoinBoller'
p39
tp40
a(S'learning-COBOL'
p41
S'Amatsukan'
p42
S'Amatsukan/learning-COBOL'
p43
tp44
a(S'Hello-Worlds'
p45
S'matthewbrulotte'
p46
S'matthewbrulotte/Hello-Worlds'
p47
tp48
a(S'openjensen'
p49
S'debinix'
p50
S'debinix/openjensen'
p51
tp52
a(S'assimp'
p53
S'tonttu'
p54
S'tonttu/assimp'
p55
tp56
a(S'GeekCode'
p57
S'rflejeune'
p58
S'rflejeune/GeekCode'
p59
tp60
a(S'cobcurses'
p61
S've3wwg'
p62
S've3wwg/cobcurses'
p63
tp64
a(S'Power-of-COBOL'
p65
S'Technology-Hatchery'
p66
S'Technology-Hatchery/Power-of-COBOL'
p67
tp68
a(S'WOPO'
p69
S'heddwch'
p70
S'heddwch/WOPO'
p71
tp72
a(S'simple-calc-langs'
p73
S'scottieinor'
p74
S'scottieinor/simple-calc-langs'
p75
tp76
a(S'trying.cob'
p77
S'vendethiel'
p78
S'vendethiel/trying.cob'
p79
tp80
a(S'Project-Euler-Cobol'
p81
S'HorizonShadow'
p82
S'HorizonShadow/Project-Euler-Cobol'
p83
tp84
a(S'assimp'
p85
S'gzorin'
p86
S'gzorin/assimp'
p87
tp88
a(S'ITP-Advanced-COBOL-FINAL'
p89
S'jnicholson'
p90
S'jnicholson/ITP-Advanced-COBOL-FINAL'
p91
tp92
a(S'aat2'
p93
S'thimberg'
p94
S'thimberg/aat2'
p95
tp96
a(S'cobol'
p97
S'Astalaseven'
p98
S'Astalaseven/cobol'
p99
tp100
a(S'node-cobol'
p101
S'IonicaBizau'
p102
S'IonicaBizau/node-cobol'
p103
tp104
a(S'cobol-on-wheelchair'
p105
S'azac'
p106
S'azac/cobol-on-wheelchair'
p107
tp108
a(S'sekigae2015'
p109
S'pepabo'
p110
S'pepabo/sekigae2015'
p111
tp112
a(S'COBOL'
p113
S'mquinn'
p114
S'mquinn/COBOL'
p115
tp116
a(S'project-learn-cobol'
p117
S'm3talsmith'
p118
S'm3talsmith/project-learn-cobol'
p119
tp120
a(S'cobol-unit-test'
p121
S'neopragma'
p122
S'neopragma/cobol-unit-test'
p123
tp124
a(S'Tuxedo-samples'
p125
S'TuxedoUsers'
p126
S'TuxedoUsers/Tuxedo-samples'
p127
tp128
a(S'COBOLUnit'
p129
S'gbeine'
p130
S'gbeine/COBOLUnit'
p131
tp132
a(S'COBWEB'
p133
S'addinall'
p134
S'addinall/COBWEB'
p135
tp136
a(S'CoinBoller'
p137
S'yujisakata'
p138
S'yujisakata/CoinBoller'
p139
tp140
a(S'learning-COBOL'
p141
S'Amatsukan'
p142
S'Amatsukan/learning-COBOL'
p143
tp144
a(S'Hello-Worlds'
p145
S'matthewbrulotte'
p146
S'matthewbrulotte/Hello-Worlds'
p147
tp148
a(S'openjensen'
p149
S'debinix'
p150
S'debinix/openjensen'
p151
tp152
a(S'assimp'
p153
S'tonttu'
p154
S'tonttu/assimp'
p155
tp156
a(S'GeekCode'
p157
S'rflejeune'
p158
S'rflejeune/GeekCode'
p159
tp160
a(S'cobcurses'
p161
S've3wwg'
p162
S've3wwg/cobcurses'
p163
tp164
a(S'Power-of-COBOL'
p165
S'Technology-Hatchery'
p166
S'Technology-Hatchery/Power-of-COBOL'
p167
tp168
a(S'WOPO'
p169
S'heddwch'
p170
S'heddwch/WOPO'
p171
tp172
a(S'simple-calc-langs'
p173
S'scottieinor'
p174
S'scottieinor/simple-calc-langs'
p175
tp176
a(S'trying.cob'
p177
S'vendethiel'
p178
S'vendethiel/trying.cob'
p179
tp180
a(S'Project-Euler-Cobol'
p181
S'HorizonShadow'
p182
S'HorizonShadow/Project-Euler-Cobol'
p183
tp184
a(S'assimp'
p185
S'gzorin'
p186
S'gzorin/assimp'
p187
tp188
a(S'ITP-Advanced-COBOL-FINAL'
p189
S'jnicholson'
p190
S'jnicholson/ITP-Advanced-COBOL-FINAL'
p191
tp192
a(S'aat2'
p193
S'thimberg'
p194
S'thimberg/aat2'
p195
tp196
a(S'cobol'
p197
S'Astalaseven'
p198
S'Astalaseven/cobol'
p199
tp200
a(S'node-cobol'
p201
S'IonicaBizau'
p202
S'IonicaBizau/node-cobol'
p203
tp204
a(S'cobol-on-wheelchair'
p205
S'azac'
p206
S'azac/cobol-on-wheelchair'
p207
tp208
a(S'sekigae2015'
p209
S'pepabo'
p210
S'pepabo/sekigae2015'
p211
tp212
a(S'COBOL'
p213
S'mquinn'
p214
S'mquinn/COBOL'
p215
tp216
a(S'project-learn-cobol'
p217
S'm3talsmith'
p218
S'm3talsmith/project-learn-cobol'
p219
tp220
a(S'cobol-unit-test'
p221
S'neopragma'
p222
S'neopragma/cobol-unit-test'
p223
tp224
a(S'Tuxedo-samples'
p225
S'TuxedoUsers'
p226
S'TuxedoUsers/Tuxedo-samples'
p227
tp228
a(S'COBOLUnit'
p229
S'gbeine'
p230
S'gbeine/COBOLUnit'
p231
tp232
a(S'COBWEB'
p233
S'addinall'
p234
S'addinall/COBWEB'
p235
tp236
a(S'CoinBoller'
p237
S'yujisakata'
p238
S'yujisakata/CoinBoller'
p239
tp240
a(S'learning-COBOL'
p241
S'Amatsukan'
p242
S'Amatsukan/learning-COBOL'
p243
tp244
a(S'Hello-Worlds'
p245
S'matthewbrulotte'
p246
S'matthewbrulotte/Hello-Worlds'
p247
tp248
a(S'openjensen'
p249
S'debinix'
p250
S'debinix/openjensen'
p251
tp252
a(S'assimp'
p253
S'tonttu'
p254
S'tonttu/assimp'
p255
tp256
a(S'GeekCode'
p257
S'rflejeune'
p258
S'rflejeune/GeekCode'
p259
tp260
a(S'cobcurses'
p261
S've3wwg'
p262
S've3wwg/cobcurses'
p263
tp264
a(S'Power-of-COBOL'
p265
S'Technology-Hatchery'
p266
S'Technology-Hatchery/Power-of-COBOL'
p267
tp268
a(S'WOPO'
p269
S'heddwch'
p270
S'heddwch/WOPO'
p271
tp272
a(S'simple-calc-langs'
p273
S'scottieinor'
p274
S'scottieinor/simple-calc-langs'
p275
tp276
a(S'trying.cob'
p277
S'vendethiel'
p278
S'vendethiel/trying.cob'
p279
tp280
a(S'Project-Euler-Cobol'
p281
S'HorizonShadow'
p282
S'HorizonShadow/Project-Euler-Cobol'
p283
tp284
a(S'assimp'
p285
S'gzorin'
p286
S'gzorin/assimp'
p287
tp288
a(S'ITP-Advanced-COBOL-FINAL'
p289
S'jnicholson'
p290
S'jnicholson/ITP-Advanced-COBOL-FINAL'
p291
tp292
a(S'aat2'
p293
S'thimberg'
p294
S'thimberg/aat2'
p295
tp296
a(S'cobol'
p297
S'Astalaseven'
p298
S'Astalaseven/cobol'
p299
tp300
a.