(lp0
(S'trix'
p1
S'basecamp'
p2
S'basecamp/trix'
p3
tp4
a(S'N1'
p5
S'nylas'
p6
S'nylas/N1'
p7
tp8
a(S'atom'
p9
S'atom'
p10
S'atom/atom'
p11
tp12
a(S'Rocket.Chat'
p13
S'RocketChat'
p14
S'RocketChat/Rocket.Chat'
p15
tp16
a(S'hubot'
p17
S'github'
p18
S'github/hubot'
p19
tp20
a(S'galley'
p21
S'twitter-fabric'
p22
S'twitter-fabric/galley'
p23
tp24
a(S'coffeescript'
p25
S'jashkenas'
p26
S'jashkenas/coffeescript'
p27
tp28
a(S'codecombat'
p29
S'codecombat'
p30
S'codecombat/codecombat'
p31
tp32
a(S'language-javascript'
p33
S'atom'
p34
S'atom/language-javascript'
p35
tp36
a(S'atom-sync-settings'
p37
S'Hackafe'
p38
S'Hackafe/atom-sync-settings'
p39
tp40
a(S'AngularJS-Atom'
p41
S'angular-ui'
p42
S'angular-ui/AngularJS-Atom'
p43
tp44
a(S'settings-view'
p45
S'atom'
p46
S'atom/settings-view'
p47
tp48
a(S'fuzzy-finder'
p49
S'atom'
p50
S'atom/fuzzy-finder'
p51
tp52
a(S'find-and-replace'
p53
S'atom'
p54
S'atom/find-and-replace'
p55
tp56
a(S'node-mssql'
p57
S'patriksimek'
p58
S'patriksimek/node-mssql'
p59
tp60
a(S'hubot-scripts'
p61
S'github'
p62
S'github/hubot-scripts'
p63
tp64
a(S'jq-console'
p65
S'replit'
p66
S'replit/jq-console'
p67
tp68
a(S'badges'
p69
S'boennemann'
p70
S'boennemann/badges'
p71
tp72
a(S'autoprefixer'
p73
S'postcss'
p74
S'postcss/autoprefixer'
p75
tp76
a(S'morris.js'
p77
S'morrisjs'
p78
S'morrisjs/morris.js'
p79
tp80
a(S'dynamics.js'
p81
S'michaelvillar'
p82
S'michaelvillar/dynamics.js'
p83
tp84
a(S'vimium'
p85
S'philc'
p86
S'philc/vimium'
p87
tp88
a(S'At.js'
p89
S'ichord'
p90
S'ichord/At.js'
p91
tp92
a(S'Framer'
p93
S'koenbok'
p94
S'koenbok/Framer'
p95
tp96
a(S'turbolinks'
p97
S'rails'
p98
S'rails/turbolinks'
p99
tp100
a(S'trix'
p101
S'basecamp'
p102
S'basecamp/trix'
p103
tp104
a(S'N1'
p105
S'nylas'
p106
S'nylas/N1'
p107
tp108
a(S'atom'
p109
S'atom'
p110
S'atom/atom'
p111
tp112
a(S'Rocket.Chat'
p113
S'RocketChat'
p114
S'RocketChat/Rocket.Chat'
p115
tp116
a(S'galley'
p117
S'twitter-fabric'
p118
S'twitter-fabric/galley'
p119
tp120
a(S'autoprefixer'
p121
S'postcss'
p122
S'postcss/autoprefixer'
p123
tp124
a(S'hubot'
p125
S'github'
p126
S'github/hubot'
p127
tp128
a(S'VoronoiImageTiles'
p129
S'TravisBarryDick'
p130
S'TravisBarryDick/VoronoiImageTiles'
p131
tp132
a(S'coffeescript'
p133
S'jashkenas'
p134
S'jashkenas/coffeescript'
p135
tp136
a(S'codecombat'
p137
S'codecombat'
p138
S'codecombat/codecombat'
p139
tp140
a(S'vimium'
p141
S'philc'
p142
S'philc/vimium'
p143
tp144
a(S'bokeh'
p145
S'bokeh'
p146
S'bokeh/bokeh'
p147
tp148
a(S'taiga-front'
p149
S'taigaio'
p150
S'taigaio/taiga-front'
p151
tp152
a(S'At.js'
p153
S'ichord'
p154
S'ichord/At.js'
p155
tp156
a(S'angular-google-maps'
p157
S'angular-ui'
p158
S'angular-ui/angular-google-maps'
p159
tp160
a(S'natal'
p161
S'dmotz'
p162
S'dmotz/natal'
p163
tp164
a(S'ngInfiniteScroll'
p165
S'sroze'
p166
S'sroze/ngInfiniteScroll'
p167
tp168
a(S'Framer'
p169
S'koenbok'
p170
S'koenbok/Framer'
p171
tp172
a(S'bootbox'
p173
S'makeusabrew'
p174
S'makeusabrew/bootbox'
p175
tp176
a(S'turbolinks'
p177
S'rails'
p178
S'rails/turbolinks'
p179
tp180
a(S'pdfkit'
p181
S'devongovett'
p182
S'devongovett/pdfkit'
p183
tp184
a(S'hubot-slack'
p185
S'slackhq'
p186
S'slackhq/hubot-slack'
p187
tp188
a(S'local_time'
p189
S'basecamp'
p190
S'basecamp/local_time'
p191
tp192
a(S'aglio'
p193
S'danielgtaylor'
p194
S'danielgtaylor/aglio'
p195
tp196
a(S'VimFx'
p197
S'akhodakivskiy'
p198
S'akhodakivskiy/VimFx'
p199
tp200
a(S'N1'
p201
S'nylas'
p202
S'nylas/N1'
p203
tp204
a(S'trix'
p205
S'basecamp'
p206
S'basecamp/trix'
p207
tp208
a(S'atom'
p209
S'atom'
p210
S'atom/atom'
p211
tp212
a(S'Rocket.Chat'
p213
S'RocketChat'
p214
S'RocketChat/Rocket.Chat'
p215
tp216
a(S'autoprefixer'
p217
S'postcss'
p218
S'postcss/autoprefixer'
p219
tp220
a(S'hubot'
p221
S'github'
p222
S'github/hubot'
p223
tp224
a(S'vimium'
p225
S'philc'
p226
S'philc/vimium'
p227
tp228
a(S'coffeescript'
p229
S'jashkenas'
p230
S'jashkenas/coffeescript'
p231
tp232
a(S'codecombat'
p233
S'codecombat'
p234
S'codecombat/codecombat'
p235
tp236
a(S'bokeh'
p237
S'bokeh'
p238
S'bokeh/bokeh'
p239
tp240
a(S'bacon.js'
p241
S'baconjs'
p242
S'baconjs/bacon.js'
p243
tp244
a(S'angular-google-maps'
p245
S'angular-ui'
p246
S'angular-ui/angular-google-maps'
p247
tp248
a(S'taiga-front'
p249
S'taigaio'
p250
S'taigaio/taiga-front'
p251
tp252
a(S'galley'
p253
S'twitter-fabric'
p254
S'twitter-fabric/galley'
p255
tp256
a(S'hubot-slack'
p257
S'slackhq'
p258
S'slackhq/hubot-slack'
p259
tp260
a(S'wordpress-hybrid-client'
p261
S'shprink'
p262
S'shprink/wordpress-hybrid-client'
p263
tp264
a(S'At.js'
p265
S'ichord'
p266
S'ichord/At.js'
p267
tp268
a(S'ngInfiniteScroll'
p269
S'sroze'
p270
S'sroze/ngInfiniteScroll'
p271
tp272
a(S'Framer'
p273
S'koenbok'
p274
S'koenbok/Framer'
p275
tp276
a(S'jquery.payment'
p277
S'stripe'
p278
S'stripe/jquery.payment'
p279
tp280
a(S'turbolinks'
p281
S'rails'
p282
S'rails/turbolinks'
p283
tp284
a(S'bootbox'
p285
S'makeusabrew'
p286
S'makeusabrew/bootbox'
p287
tp288
a(S'natal'
p289
S'dmotz'
p290
S'dmotz/natal'
p291
tp292
a(S'aglio'
p293
S'danielgtaylor'
p294
S'danielgtaylor/aglio'
p295
tp296
a(S'pdfkit'
p297
S'devongovett'
p298
S'devongovett/pdfkit'
p299
tp300
a.