(lp0
(S'coldbox-platform'
p1
S'ColdBox'
p2
S'ColdBox/coldbox-platform'
p3
tp4
a(S'fw1'
p5
S'framework-one'
p6
S'framework-one/fw1'
p7
tp8
a(S'MuraCMS'
p9
S'blueriver'
p10
S'blueriver/MuraCMS'
p11
tp12
a(S'Taffy'
p13
S'atuttle'
p14
S'atuttle/Taffy'
p15
tp16
a(S'cfwheels'
p17
S'cfwheels'
p18
S'cfwheels/cfwheels'
p19
tp20
a(S'Hoth'
p21
S'aarongreenlee'
p22
S'aarongreenlee/Hoth'
p23
tp24
a(S'di1'
p25
S'framework-one'
p26
S'framework-one/di1'
p27
tp28
a(S'BugLogHQ'
p29
S'oarevalo'
p30
S'oarevalo/BugLogHQ'
p31
tp32
a(S'cfstatic'
p33
S'teamcfadvance'
p34
S'teamcfadvance/cfstatic'
p35
tp36
a(S'slatwall'
p37
S'ten24'
p38
S'ten24/slatwall'
p39
tp40
a(S'cfmongodb'
p41
S'marcesher'
p42
S'marcesher/cfmongodb'
p43
tp44
a(S'facebook-cf-sdk'
p45
S'TheRealAgentK'
p46
S'TheRealAgentK/facebook-cf-sdk'
p47
tp48
a(S'mxunit'
p49
S'mxunit'
p50
S'mxunit/mxunit'
p51
tp52
a(S'bootstrap-data-table'
p53
S'jeffdupont'
p54
S'jeffdupont/bootstrap-data-table'
p55
tp56
a(S'xindi'
p57
S'simonbingham'
p58
S'simonbingham/xindi'
p59
tp60
a(S'CFSelenium'
p61
S'teamcfadvance'
p62
S'teamcfadvance/CFSelenium'
p63
tp64
a(S'ColdFusion-Koans'
p65
S'nodoherty'
p66
S'nodoherty/ColdFusion-Koans'
p67
tp68
a(S'razuna'
p69
S'razuna'
p70
S'razuna/razuna'
p71
tp72
a(S'UnderscoreCF'
p73
S'russplaysguitar'
p74
S'russplaysguitar/UnderscoreCF'
p75
tp76
a(S'ContentBox'
p77
S'Ortus-Solutions'
p78
S'Ortus-Solutions/ContentBox'
p79
tp80
a(S'CFScript-Community-Components'
p81
S'CFCommunity'
p82
S'CFCommunity/CFScript-Community-Components'
p83
tp84
a(S'ulmo'
p85
S'ulmo-dev'
p86
S'ulmo-dev/ulmo'
p87
tp88
a(S'cftracker'
p89
S'misterdai'
p90
S'misterdai/cftracker'
p91
tp92
a(S'Mach-II-Framework'
p93
S'Mach-II'
p94
S'Mach-II/Mach-II-Framework'
p95
tp96
a(S'cfpayment'
p97
S'ghidinelli'
p98
S'ghidinelli/cfpayment'
p99
tp100
a(S'coldbox-platform'
p101
S'ColdBox'
p102
S'ColdBox/coldbox-platform'
p103
tp104
a(S'fw1'
p105
S'framework-one'
p106
S'framework-one/fw1'
p107
tp108
a(S'MuraCMS'
p109
S'blueriver'
p110
S'blueriver/MuraCMS'
p111
tp112
a(S'Taffy'
p113
S'atuttle'
p114
S'atuttle/Taffy'
p115
tp116
a(S'cfwheels'
p117
S'cfwheels'
p118
S'cfwheels/cfwheels'
p119
tp120
a(S'Hoth'
p121
S'aarongreenlee'
p122
S'aarongreenlee/Hoth'
p123
tp124
a(S'di1'
p125
S'framework-one'
p126
S'framework-one/di1'
p127
tp128
a(S'BugLogHQ'
p129
S'oarevalo'
p130
S'oarevalo/BugLogHQ'
p131
tp132
a(S'cfstatic'
p133
S'teamcfadvance'
p134
S'teamcfadvance/cfstatic'
p135
tp136
a(S'slatwall'
p137
S'ten24'
p138
S'ten24/slatwall'
p139
tp140
a(S'cfmongodb'
p141
S'marcesher'
p142
S'marcesher/cfmongodb'
p143
tp144
a(S'facebook-cf-sdk'
p145
S'TheRealAgentK'
p146
S'TheRealAgentK/facebook-cf-sdk'
p147
tp148
a(S'mxunit'
p149
S'mxunit'
p150
S'mxunit/mxunit'
p151
tp152
a(S'bootstrap-data-table'
p153
S'jeffdupont'
p154
S'jeffdupont/bootstrap-data-table'
p155
tp156
a(S'xindi'
p157
S'simonbingham'
p158
S'simonbingham/xindi'
p159
tp160
a(S'CFSelenium'
p161
S'teamcfadvance'
p162
S'teamcfadvance/CFSelenium'
p163
tp164
a(S'razuna'
p165
S'razuna'
p166
S'razuna/razuna'
p167
tp168
a(S'ColdFusion-Koans'
p169
S'nodoherty'
p170
S'nodoherty/ColdFusion-Koans'
p171
tp172
a(S'UnderscoreCF'
p173
S'russplaysguitar'
p174
S'russplaysguitar/UnderscoreCF'
p175
tp176
a(S'ContentBox'
p177
S'Ortus-Solutions'
p178
S'Ortus-Solutions/ContentBox'
p179
tp180
a(S'CFScript-Community-Components'
p181
S'CFCommunity'
p182
S'CFCommunity/CFScript-Community-Components'
p183
tp184
a(S'ulmo'
p185
S'ulmo-dev'
p186
S'ulmo-dev/ulmo'
p187
tp188
a(S'cftracker'
p189
S'misterdai'
p190
S'misterdai/cftracker'
p191
tp192
a(S'Mach-II-Framework'
p193
S'Mach-II'
p194
S'Mach-II/Mach-II-Framework'
p195
tp196
a(S'cfpayment'
p197
S'ghidinelli'
p198
S'ghidinelli/cfpayment'
p199
tp200
a(S'cfdocs'
p201
S'foundeo'
p202
S'foundeo/cfdocs'
p203
tp204
a(S'cfml-security'
p205
S'foundeo'
p206
S'foundeo/cfml-security'
p207
tp208
a(S'coldbox-platform'
p209
S'ColdBox'
p210
S'ColdBox/coldbox-platform'
p211
tp212
a(S'fw1'
p213
S'framework-one'
p214
S'framework-one/fw1'
p215
tp216
a(S'ContentBox'
p217
S'Ortus-Solutions'
p218
S'Ortus-Solutions/ContentBox'
p219
tp220
a(S'MuraCMS'
p221
S'blueriver'
p222
S'blueriver/MuraCMS'
p223
tp224
a(S'Taffy'
p225
S'atuttle'
p226
S'atuttle/Taffy'
p227
tp228
a(S'cfwheels'
p229
S'cfwheels'
p230
S'cfwheels/cfwheels'
p231
tp232
a(S'Hoth'
p233
S'aarongreenlee'
p234
S'aarongreenlee/Hoth'
p235
tp236
a(S'di1'
p237
S'framework-one'
p238
S'framework-one/di1'
p239
tp240
a(S'BugLogHQ'
p241
S'oarevalo'
p242
S'oarevalo/BugLogHQ'
p243
tp244
a(S'cfstatic'
p245
S'teamcfadvance'
p246
S'teamcfadvance/cfstatic'
p247
tp248
a(S'slatwall'
p249
S'ten24'
p250
S'ten24/slatwall'
p251
tp252
a(S'cfmongodb'
p253
S'marcesher'
p254
S'marcesher/cfmongodb'
p255
tp256
a(S'facebook-cf-sdk'
p257
S'TheRealAgentK'
p258
S'TheRealAgentK/facebook-cf-sdk'
p259
tp260
a(S'mxunit'
p261
S'mxunit'
p262
S'mxunit/mxunit'
p263
tp264
a(S'xindi'
p265
S'simonbingham'
p266
S'simonbingham/xindi'
p267
tp268
a(S'bootstrap-data-table'
p269
S'jeffdupont'
p270
S'jeffdupont/bootstrap-data-table'
p271
tp272
a(S'CFSelenium'
p273
S'teamcfadvance'
p274
S'teamcfadvance/CFSelenium'
p275
tp276
a(S'ColdFusion-Koans'
p277
S'nodoherty'
p278
S'nodoherty/ColdFusion-Koans'
p279
tp280
a(S'razuna'
p281
S'razuna'
p282
S'razuna/razuna'
p283
tp284
a(S'UnderscoreCF'
p285
S'russplaysguitar'
p286
S'russplaysguitar/UnderscoreCF'
p287
tp288
a(S'CFScript-Community-Components'
p289
S'CFCommunity'
p290
S'CFCommunity/CFScript-Community-Components'
p291
tp292
a(S'ulmo'
p293
S'ulmo-dev'
p294
S'ulmo-dev/ulmo'
p295
tp296
a(S'cftracker'
p297
S'misterdai'
p298
S'misterdai/cftracker'
p299
tp300
a.