(lp0
(S'lisp-koans'
p1
S'google'
p2
S'google/lisp-koans'
p3
tp4
a(S'pgloader'
p5
S'dimitri'
p6
S'dimitri/pgloader'
p7
tp8
a(S'stumpwm'
p9
S'stumpwm'
p10
S'stumpwm/stumpwm'
p11
tp12
a(S'sbcl'
p13
S'sbcl'
p14
S'sbcl/sbcl'
p15
tp16
a(S'Mezzano'
p17
S'froggey'
p18
S'froggey/Mezzano'
p19
tp20
a(S'slime'
p21
S'slime'
p22
S'slime/slime'
p23
tp24
a(S'clack'
p25
S'fukamachi'
p26
S'fukamachi/clack'
p27
tp28
a(S'acl-chinese'
p29
S'acl-translation'
p30
S'acl-translation/acl-chinese'
p31
tp32
a(S'corvus'
p33
S'eudoxia0'
p34
S'eudoxia0/corvus'
p35
tp36
a(S'cmacro'
p37
S'eudoxia0'
p38
S'eudoxia0/cmacro'
p39
tp40
a(S'cl21'
p41
S'cl21'
p42
S'cl21/cl21'
p43
tp44
a(S'yalo'
p45
S'whily'
p46
S'whily/yalo'
p47
tp48
a(S'woo'
p49
S'fukamachi'
p50
S'fukamachi/woo'
p51
tp52
a(S'hunchentoot'
p53
S'edicl'
p54
S'edicl/hunchentoot'
p55
tp56
a(S'ritz'
p57
S'pallet'
p58
S'pallet/ritz'
p59
tp60
a(S'cormanlisp'
p61
S'sharplispers'
p62
S'sharplispers/cormanlisp'
p63
tp64
a(S'caveman'
p65
S'fukamachi'
p66
S'fukamachi/caveman'
p67
tp68
a(S'SICL'
p69
S'robert-strandh'
p70
S'robert-strandh/SICL'
p71
tp72
a(S'cepl'
p73
S'cbaggers'
p74
S'cbaggers/cepl'
p75
tp76
a(S'LambdaLite'
p77
S'Wukix'
p78
S'Wukix/LambdaLite'
p79
tp80
a(S'jscl'
p81
S'davazp'
p82
S'davazp/jscl'
p83
tp84
a(S'teepeedee2'
p85
S'vii'
p86
S'vii/teepeedee2'
p87
tp88
a(S'fast-http'
p89
S'fukamachi'
p90
S'fukamachi/fast-http'
p91
tp92
a(S'ceramic'
p93
S'ceramic'
p94
S'ceramic/ceramic'
p95
tp96
a(S'cl-python'
p97
S'metawilm'
p98
S'metawilm/cl-python'
p99
tp100
a(S'pgloader'
p101
S'dimitri'
p102
S'dimitri/pgloader'
p103
tp104
a(S'lisp-koans'
p105
S'google'
p106
S'google/lisp-koans'
p107
tp108
a(S'cl-test-grid'
p109
S'cl-test-grid'
p110
S'cl-test-grid/cl-test-grid'
p111
tp112
a(S'stumpwm'
p113
S'stumpwm'
p114
S'stumpwm/stumpwm'
p115
tp116
a(S'sbcl'
p117
S'sbcl'
p118
S'sbcl/sbcl'
p119
tp120
a(S'Mezzano'
p121
S'froggey'
p122
S'froggey/Mezzano'
p123
tp124
a(S'slime'
p125
S'slime'
p126
S'slime/slime'
p127
tp128
a(S'clack'
p129
S'fukamachi'
p130
S'fukamachi/clack'
p131
tp132
a(S'acl-chinese'
p133
S'acl-translation'
p134
S'acl-translation/acl-chinese'
p135
tp136
a(S'corvus'
p137
S'eudoxia0'
p138
S'eudoxia0/corvus'
p139
tp140
a(S'cmacro'
p141
S'eudoxia0'
p142
S'eudoxia0/cmacro'
p143
tp144
a(S'cl21'
p145
S'cl21'
p146
S'cl21/cl21'
p147
tp148
a(S'yalo'
p149
S'whily'
p150
S'whily/yalo'
p151
tp152
a(S'woo'
p153
S'fukamachi'
p154
S'fukamachi/woo'
p155
tp156
a(S'hunchentoot'
p157
S'edicl'
p158
S'edicl/hunchentoot'
p159
tp160
a(S'ritz'
p161
S'pallet'
p162
S'pallet/ritz'
p163
tp164
a(S'cormanlisp'
p165
S'sharplispers'
p166
S'sharplispers/cormanlisp'
p167
tp168
a(S'caveman'
p169
S'fukamachi'
p170
S'fukamachi/caveman'
p171
tp172
a(S'cepl'
p173
S'cbaggers'
p174
S'cbaggers/cepl'
p175
tp176
a(S'SICL'
p177
S'robert-strandh'
p178
S'robert-strandh/SICL'
p179
tp180
a(S'LambdaLite'
p181
S'Wukix'
p182
S'Wukix/LambdaLite'
p183
tp184
a(S'jscl'
p185
S'davazp'
p186
S'davazp/jscl'
p187
tp188
a(S'teepeedee2'
p189
S'vii'
p190
S'vii/teepeedee2'
p191
tp192
a(S'fast-http'
p193
S'fukamachi'
p194
S'fukamachi/fast-http'
p195
tp196
a(S'ceramic'
p197
S'ceramic'
p198
S'ceramic/ceramic'
p199
tp200
a(S'hermes'
p201
S'ralt'
p202
S'ralt/hermes'
p203
tp204
a(S'pgloader'
p205
S'dimitri'
p206
S'dimitri/pgloader'
p207
tp208
a(S'paulownia'
p209
S'stumpwm'
p210
S'stumpwm/paulownia'
p211
tp212
a(S'slime'
p213
S'slime'
p214
S'slime/slime'
p215
tp216
a(S'lisp-koans'
p217
S'google'
p218
S'google/lisp-koans'
p219
tp220
a(S'sbcl'
p221
S'sbcl'
p222
S'sbcl/sbcl'
p223
tp224
a(S'cl-jupyter'
p225
S'fredokun'
p226
S'fredokun/cl-jupyter'
p227
tp228
a(S'cl-autowrap'
p229
S'rpav'
p230
S'rpav/cl-autowrap'
p231
tp232
a(S'SICL'
p233
S'robert-strandh'
p234
S'robert-strandh/SICL'
p235
tp236
a(S'cffi'
p237
S'cffi'
p238
S'cffi/cffi'
p239
tp240
a(S'cl-test-grid'
p241
S'cl-test-grid'
p242
S'cl-test-grid/cl-test-grid'
p243
tp244
a(S'stumpwm'
p245
S'stumpwm'
p246
S'stumpwm/stumpwm'
p247
tp248
a(S'Mezzano'
p249
S'froggey'
p250
S'froggey/Mezzano'
p251
tp252
a(S'clack'
p253
S'fukamachi'
p254
S'fukamachi/clack'
p255
tp256
a(S'acl-chinese'
p257
S'acl-translation'
p258
S'acl-translation/acl-chinese'
p259
tp260
a(S'corvus'
p261
S'eudoxia0'
p262
S'eudoxia0/corvus'
p263
tp264
a(S'cmacro'
p265
S'eudoxia0'
p266
S'eudoxia0/cmacro'
p267
tp268
a(S'cl21'
p269
S'cl21'
p270
S'cl21/cl21'
p271
tp272
a(S'yalo'
p273
S'whily'
p274
S'whily/yalo'
p275
tp276
a(S'woo'
p277
S'fukamachi'
p278
S'fukamachi/woo'
p279
tp280
a(S'hunchentoot'
p281
S'edicl'
p282
S'edicl/hunchentoot'
p283
tp284
a(S'ritz'
p285
S'pallet'
p286
S'pallet/ritz'
p287
tp288
a(S'cormanlisp'
p289
S'sharplispers'
p290
S'sharplispers/cormanlisp'
p291
tp292
a(S'caveman'
p293
S'fukamachi'
p294
S'fukamachi/caveman'
p295
tp296
a(S'cepl'
p297
S'cbaggers'
p298
S'cbaggers/cepl'
p299
tp300
a.