(lp0
(S'canola'
p1
S'metapolator'
p2
S'metapolator/canola'
p3
tp4
a(S'delphi.libs'
p5
S'deltics'
p6
S'deltics/delphi.libs'
p7
tp8
a(S'BlackBox-Component-Framework'
p9
S'romiras'
p10
S'romiras/BlackBox-Component-Framework'
p11
tp12
a(S'Reduce3D'
p13
S'davehirsch'
p14
S'davehirsch/Reduce3D'
p15
tp16
a(S'polyworld-comm'
p17
S'sean-dougherty'
p18
S'sean-dougherty/polyworld-comm'
p19
tp20
a(S'Mill-Post-Processors'
p21
S'AutodeskCAM'
p22
S'AutodeskCAM/Mill-Post-Processors'
p23
tp24
a(S'multiscale-galactose'
p25
S'matthiaskoenig'
p26
S'matthiaskoenig/multiscale-galactose'
p27
tp28
a(S'Einstein'
p29
S'jake-b'
p30
S'jake-b/Einstein'
p31
tp32
a(S'wattsi'
p33
S'whatwg'
p34
S'whatwg/wattsi'
p35
tp36
a(S'drehbank-fraese-autodesk'
p37
S'fau-fablab'
p38
S'fau-fablab/drehbank-fraese-autodesk'
p39
tp40
a(S'Mill-Post-Processors'
p41
S'konkers'
p42
S'konkers/Mill-Post-Processors'
p43
tp44
a(S'Avid-Interplay-AAF'
p45
S'evanboyd'
p46
S'evanboyd/Avid-Interplay-AAF'
p47
tp48
a(S'einstein'
p49
S'splorp'
p50
S'splorp/einstein'
p51
tp52
a(S'polyworld-server'
p53
S'rockhowse'
p54
S'rockhowse/polyworld-server'
p55
tp56
a(S'polyworld-agent'
p57
S'rockhowse'
p58
S'rockhowse/polyworld-agent'
p59
tp60
a(S'CruiseProtocolScripts'
p61
S'BaalDL'
p62
S'BaalDL/CruiseProtocolScripts'
p63
tp64
a(S'adhesion-assay'
p65
S'dettmering'
p66
S'dettmering/adhesion-assay'
p67
tp68
a(S'polyworld'
p69
S'rockhowse'
p70
S'rockhowse/polyworld'
p71
tp72
a(S'F360-Posts-Smoothie'
p73
S'ajfoul'
p74
S'ajfoul/F360-Posts-Smoothie'
p75
tp76
a(S'open-source'
p77
S'robertctrescott'
p78
S'robertctrescott/open-source'
p79
tp80
a(S'spiked2.1'
p81
S'chuckgroom'
p82
S'chuckgroom/spiked2.1'
p83
tp84
a(S'wattsi'
p85
S'sideshowbarker'
p86
S'sideshowbarker/wattsi'
p87
tp88
a(S'cp2-pipelines'
p89
S'ayakimovich'
p90
S'ayakimovich/cp2-pipelines'
p91
tp92
a(S'Mill-Post-Processors-Maker-Machines'
p93
S'AutodeskCAM'
p94
S'AutodeskCAM/Mill-Post-Processors-Maker-Machines'
p95
tp96
a(S'Lathe-Post-Processors-2-Axis'
p97
S'AutodeskCAM'
p98
S'AutodeskCAM/Lathe-Post-Processors-2-Axis'
p99
tp100
a(S'canola'
p101
S'metapolator'
p102
S'metapolator/canola'
p103
tp104
a(S'delphi.libs'
p105
S'deltics'
p106
S'deltics/delphi.libs'
p107
tp108
a(S'BlackBox-Component-Framework'
p109
S'romiras'
p110
S'romiras/BlackBox-Component-Framework'
p111
tp112
a(S'Reduce3D'
p113
S'davehirsch'
p114
S'davehirsch/Reduce3D'
p115
tp116
a(S'polyworld-comm'
p117
S'sean-dougherty'
p118
S'sean-dougherty/polyworld-comm'
p119
tp120
a(S'Mill-Post-Processors'
p121
S'AutodeskCAM'
p122
S'AutodeskCAM/Mill-Post-Processors'
p123
tp124
a(S'multiscale-galactose'
p125
S'matthiaskoenig'
p126
S'matthiaskoenig/multiscale-galactose'
p127
tp128
a(S'Einstein'
p129
S'jake-b'
p130
S'jake-b/Einstein'
p131
tp132
a(S'wattsi'
p133
S'whatwg'
p134
S'whatwg/wattsi'
p135
tp136
a(S'drehbank-fraese-autodesk'
p137
S'fau-fablab'
p138
S'fau-fablab/drehbank-fraese-autodesk'
p139
tp140
a(S'Mill-Post-Processors'
p141
S'konkers'
p142
S'konkers/Mill-Post-Processors'
p143
tp144
a(S'Avid-Interplay-AAF'
p145
S'evanboyd'
p146
S'evanboyd/Avid-Interplay-AAF'
p147
tp148
a(S'einstein'
p149
S'splorp'
p150
S'splorp/einstein'
p151
tp152
a(S'polyworld-server'
p153
S'rockhowse'
p154
S'rockhowse/polyworld-server'
p155
tp156
a(S'polyworld-agent'
p157
S'rockhowse'
p158
S'rockhowse/polyworld-agent'
p159
tp160
a(S'CruiseProtocolScripts'
p161
S'BaalDL'
p162
S'BaalDL/CruiseProtocolScripts'
p163
tp164
a(S'adhesion-assay'
p165
S'dettmering'
p166
S'dettmering/adhesion-assay'
p167
tp168
a(S'polyworld'
p169
S'rockhowse'
p170
S'rockhowse/polyworld'
p171
tp172
a(S'F360-Posts-Smoothie'
p173
S'ajfoul'
p174
S'ajfoul/F360-Posts-Smoothie'
p175
tp176
a(S'open-source'
p177
S'robertctrescott'
p178
S'robertctrescott/open-source'
p179
tp180
a(S'spiked2.1'
p181
S'chuckgroom'
p182
S'chuckgroom/spiked2.1'
p183
tp184
a(S'wattsi'
p185
S'sideshowbarker'
p186
S'sideshowbarker/wattsi'
p187
tp188
a(S'cp2-pipelines'
p189
S'ayakimovich'
p190
S'ayakimovich/cp2-pipelines'
p191
tp192
a(S'Mill-Post-Processors-Maker-Machines'
p193
S'AutodeskCAM'
p194
S'AutodeskCAM/Mill-Post-Processors-Maker-Machines'
p195
tp196
a(S'Lathe-Post-Processors-2-Axis'
p197
S'AutodeskCAM'
p198
S'AutodeskCAM/Lathe-Post-Processors-2-Axis'
p199
tp200
a(S'canola'
p201
S'metapolator'
p202
S'metapolator/canola'
p203
tp204
a(S'delphi.libs'
p205
S'deltics'
p206
S'deltics/delphi.libs'
p207
tp208
a(S'BlackBox-Component-Framework'
p209
S'romiras'
p210
S'romiras/BlackBox-Component-Framework'
p211
tp212
a(S'Reduce3D'
p213
S'davehirsch'
p214
S'davehirsch/Reduce3D'
p215
tp216
a(S'polyworld-comm'
p217
S'sean-dougherty'
p218
S'sean-dougherty/polyworld-comm'
p219
tp220
a(S'Mill-Post-Processors'
p221
S'AutodeskCAM'
p222
S'AutodeskCAM/Mill-Post-Processors'
p223
tp224
a(S'multiscale-galactose'
p225
S'matthiaskoenig'
p226
S'matthiaskoenig/multiscale-galactose'
p227
tp228
a(S'Einstein'
p229
S'jake-b'
p230
S'jake-b/Einstein'
p231
tp232
a(S'wattsi'
p233
S'whatwg'
p234
S'whatwg/wattsi'
p235
tp236
a(S'drehbank-fraese-autodesk'
p237
S'fau-fablab'
p238
S'fau-fablab/drehbank-fraese-autodesk'
p239
tp240
a(S'Mill-Post-Processors'
p241
S'konkers'
p242
S'konkers/Mill-Post-Processors'
p243
tp244
a(S'Avid-Interplay-AAF'
p245
S'evanboyd'
p246
S'evanboyd/Avid-Interplay-AAF'
p247
tp248
a(S'einstein'
p249
S'splorp'
p250
S'splorp/einstein'
p251
tp252
a(S'polyworld-server'
p253
S'rockhowse'
p254
S'rockhowse/polyworld-server'
p255
tp256
a(S'polyworld-agent'
p257
S'rockhowse'
p258
S'rockhowse/polyworld-agent'
p259
tp260
a(S'CruiseProtocolScripts'
p261
S'BaalDL'
p262
S'BaalDL/CruiseProtocolScripts'
p263
tp264
a(S'adhesion-assay'
p265
S'dettmering'
p266
S'dettmering/adhesion-assay'
p267
tp268
a(S'polyworld'
p269
S'rockhowse'
p270
S'rockhowse/polyworld'
p271
tp272
a(S'F360-Posts-Smoothie'
p273
S'ajfoul'
p274
S'ajfoul/F360-Posts-Smoothie'
p275
tp276
a(S'open-source'
p277
S'robertctrescott'
p278
S'robertctrescott/open-source'
p279
tp280
a(S'spiked2.1'
p281
S'chuckgroom'
p282
S'chuckgroom/spiked2.1'
p283
tp284
a(S'wattsi'
p285
S'sideshowbarker'
p286
S'sideshowbarker/wattsi'
p287
tp288
a(S'cp2-pipelines'
p289
S'ayakimovich'
p290
S'ayakimovich/cp2-pipelines'
p291
tp292
a(S'Mill-Post-Processors-Maker-Machines'
p293
S'AutodeskCAM'
p294
S'AutodeskCAM/Mill-Post-Processors-Maker-Machines'
p295
tp296
a(S'Lathe-Post-Processors-2-Axis'
p297
S'AutodeskCAM'
p298
S'AutodeskCAM/Lathe-Post-Processors-2-Axis'
p299
tp300
a.