(lp0
(S'Fibonacci-Code-using-cool-language'
p1
S'meskatjahan'
p2
S'meskatjahan/Fibonacci-Code-using-cool-language'
p3
tp4
a(S'compiler'
p5
S'dogeyes'
p6
S'dogeyes/compiler'
p7
tp8
a(S'Face-recognition'
p9
S'bitemyapp'
p10
S'bitemyapp/Face-recognition'
p11
tp12
a(S'Face-recognition'
p13
S'ak4900'
p14
S'ak4900/Face-recognition'
p15
tp16
a(S'Face-recognition'
p17
S'zjwzcnjsy'
p18
S'zjwzcnjsy/Face-recognition'
p19
tp20
a(S'COOL-Lang'
p21
S'Cheukyin'
p22
S'Cheukyin/COOL-Lang'
p23
tp24
a(S'cs164-PA3'
p25
S'dkong17'
p26
S'dkong17/cs164-PA3'
p27
tp28
a(S'IntelCompiler'
p29
S'edosedgar'
p30
S'edosedgar/IntelCompiler'
p31
tp32
a(S'cool-parser'
p33
S'devanshmehta'
p34
S'devanshmehta/cool-parser'
p35
tp36
a(S'COOL'
p37
S'colinthart'
p38
S'colinthart/COOL'
p39
tp40
a(S'cool'
p41
S'shinezyy'
p42
S'shinezyy/cool'
p43
tp44
a(S'CS143'
p45
S'labyrlnth'
p46
S'labyrlnth/CS143'
p47
tp48
a(S'ansible'
p49
S'izima'
p50
S'izima/ansible'
p51
tp52
a(S'COOL-Compiler'
p53
S'vichare'
p54
S'vichare/COOL-Compiler'
p55
tp56
a(S'property-matching'
p57
S'Miyayx'
p58
S'Miyayx/property-matching'
p59
tp60
a(S'cs143-pa1'
p61
S'yuhaozhang'
p62
S'yuhaozhang/cs143-pa1'
p63
tp64
a(S'COOL'
p65
S'all60'
p66
S'all60/COOL'
p67
tp68
a(S'Fibonacci-Code-using-cool-language'
p69
S'meskatjahan'
p70
S'meskatjahan/Fibonacci-Code-using-cool-language'
p71
tp72
a(S'compiler'
p73
S'dogeyes'
p74
S'dogeyes/compiler'
p75
tp76
a(S'Face-recognition'
p77
S'bitemyapp'
p78
S'bitemyapp/Face-recognition'
p79
tp80
a(S'Face-recognition'
p81
S'ak4900'
p82
S'ak4900/Face-recognition'
p83
tp84
a(S'Face-recognition'
p85
S'zjwzcnjsy'
p86
S'zjwzcnjsy/Face-recognition'
p87
tp88
a(S'COOL-Lang'
p89
S'Cheukyin'
p90
S'Cheukyin/COOL-Lang'
p91
tp92
a(S'cs164-PA3'
p93
S'dkong17'
p94
S'dkong17/cs164-PA3'
p95
tp96
a(S'IntelCompiler'
p97
S'edosedgar'
p98
S'edosedgar/IntelCompiler'
p99
tp100
a(S'cool-parser'
p101
S'devanshmehta'
p102
S'devanshmehta/cool-parser'
p103
tp104
a(S'COOL'
p105
S'colinthart'
p106
S'colinthart/COOL'
p107
tp108
a(S'cool'
p109
S'shinezyy'
p110
S'shinezyy/cool'
p111
tp112
a(S'CS143'
p113
S'labyrlnth'
p114
S'labyrlnth/CS143'
p115
tp116
a(S'ansible'
p117
S'izima'
p118
S'izima/ansible'
p119
tp120
a(S'COOL-Compiler'
p121
S'vichare'
p122
S'vichare/COOL-Compiler'
p123
tp124
a(S'property-matching'
p125
S'Miyayx'
p126
S'Miyayx/property-matching'
p127
tp128
a(S'cs143-pa1'
p129
S'yuhaozhang'
p130
S'yuhaozhang/cs143-pa1'
p131
tp132
a(S'COOL'
p133
S'all60'
p134
S'all60/COOL'
p135
tp136
a(S'Fibonacci-Code-using-cool-language'
p137
S'meskatjahan'
p138
S'meskatjahan/Fibonacci-Code-using-cool-language'
p139
tp140
a(S'compiler'
p141
S'dogeyes'
p142
S'dogeyes/compiler'
p143
tp144
a(S'Face-recognition'
p145
S'bitemyapp'
p146
S'bitemyapp/Face-recognition'
p147
tp148
a(S'Face-recognition'
p149
S'ak4900'
p150
S'ak4900/Face-recognition'
p151
tp152
a(S'Face-recognition'
p153
S'zjwzcnjsy'
p154
S'zjwzcnjsy/Face-recognition'
p155
tp156
a(S'COOL-Lang'
p157
S'Cheukyin'
p158
S'Cheukyin/COOL-Lang'
p159
tp160
a(S'cs164-PA3'
p161
S'dkong17'
p162
S'dkong17/cs164-PA3'
p163
tp164
a(S'IntelCompiler'
p165
S'edosedgar'
p166
S'edosedgar/IntelCompiler'
p167
tp168
a(S'cool-parser'
p169
S'devanshmehta'
p170
S'devanshmehta/cool-parser'
p171
tp172
a(S'COOL'
p173
S'colinthart'
p174
S'colinthart/COOL'
p175
tp176
a(S'cool'
p177
S'shinezyy'
p178
S'shinezyy/cool'
p179
tp180
a(S'CS143'
p181
S'labyrlnth'
p182
S'labyrlnth/CS143'
p183
tp184
a(S'ansible'
p185
S'izima'
p186
S'izima/ansible'
p187
tp188
a(S'COOL-Compiler'
p189
S'vichare'
p190
S'vichare/COOL-Compiler'
p191
tp192
a(S'property-matching'
p193
S'Miyayx'
p194
S'Miyayx/property-matching'
p195
tp196
a(S'cs143-pa1'
p197
S'yuhaozhang'
p198
S'yuhaozhang/cs143-pa1'
p199
tp200
a(S'COOL'
p201
S'all60'
p202
S'all60/COOL'
p203
tp204
a.