(lp0
(S'HoTT'
p1
S'HoTT'
p2
S'HoTT/HoTT'
p3
tp4
a(S'verdi'
p5
S'uwplse'
p6
S'uwplse/verdi'
p7
tp8
a(S'Foundations'
p9
S'vladimirias'
p10
S'vladimirias/Foundations'
p11
tp12
a(S'CompCert'
p13
S'AbsInt'
p14
S'AbsInt/CompCert'
p15
tp16
a(S'jscert'
p17
S'jscert'
p18
S'jscert/jscert'
p19
tp20
a(S'UniMath'
p21
S'UniMath'
p22
S'UniMath/UniMath'
p23
tp24
a(S'coq-chick-blog'
p25
S'clarus'
p26
S'clarus/coq-chick-blog'
p27
tp28
a(S'coq-pipes'
p29
S'jwiegley'
p30
S'jwiegley/coq-pipes'
p31
tp32
a(S'dot'
p33
S'namin'
p34
S'namin/dot'
p35
tp36
a(S'mindless-coding'
p37
S'jonleivent'
p38
S'jonleivent/mindless-coding'
p39
tp40
a(S'falso'
p41
S'clarus'
p42
S'clarus/falso'
p43
tp44
a(S'category-theory'
p45
S'jwiegley'
p46
S'jwiegley/category-theory'
p47
tp48
a(S'sfja'
p49
S'sfja'
p50
S'sfja/sfja'
p51
tp52
a(S'verlang'
p53
S'tcarstens'
p54
S'tcarstens/verlang'
p55
tp56
a(S'pluto'
p57
S'coq-concurrency'
p58
S'coq-concurrency/pluto'
p59
tp60
a(S'math-classes'
p61
S'math-classes'
p62
S'math-classes/math-classes'
p63
tp64
a(S'coq-haskell'
p65
S'jwiegley'
p66
S'jwiegley/coq-haskell'
p67
tp68
a(S'fscq-impl'
p69
S'mit-pdos'
p70
S'mit-pdos/fscq-impl'
p71
tp72
a(S'distributed-data-structures'
p73
S'cmeiklejohn'
p74
S'cmeiklejohn/distributed-data-structures'
p75
tp76
a(S'coq-ext-lib'
p77
S'coq-ext-lib'
p78
S'coq-ext-lib/coq-ext-lib'
p79
tp80
a(S'corn'
p81
S'c-corn'
p82
S'c-corn/corn'
p83
tp84
a(S'ROSCoq'
p85
S'aa755'
p86
S'aa755/ROSCoq'
p87
tp88
a(S'lambda-calculus'
p89
S'pi8027'
p90
S'pi8027/lambda-calculus'
p91
tp92
a(S'iron'
p93
S'DDCSF'
p94
S'DDCSF/iron'
p95
tp96
a(S'xmonad'
p97
S'wouter-swierstra'
p98
S'wouter-swierstra/xmonad'
p99
tp100
a(S'HoTT'
p101
S'HoTT'
p102
S'HoTT/HoTT'
p103
tp104
a(S'verdi'
p105
S'uwplse'
p106
S'uwplse/verdi'
p107
tp108
a(S'Foundations'
p109
S'vladimirias'
p110
S'vladimirias/Foundations'
p111
tp112
a(S'CompCert'
p113
S'AbsInt'
p114
S'AbsInt/CompCert'
p115
tp116
a(S'jscert'
p117
S'jscert'
p118
S'jscert/jscert'
p119
tp120
a(S'UniMath'
p121
S'UniMath'
p122
S'UniMath/UniMath'
p123
tp124
a(S'coq-chick-blog'
p125
S'clarus'
p126
S'clarus/coq-chick-blog'
p127
tp128
a(S'coq-pipes'
p129
S'jwiegley'
p130
S'jwiegley/coq-pipes'
p131
tp132
a(S'dot'
p133
S'namin'
p134
S'namin/dot'
p135
tp136
a(S'mindless-coding'
p137
S'jonleivent'
p138
S'jonleivent/mindless-coding'
p139
tp140
a(S'falso'
p141
S'clarus'
p142
S'clarus/falso'
p143
tp144
a(S'category-theory'
p145
S'jwiegley'
p146
S'jwiegley/category-theory'
p147
tp148
a(S'sfja'
p149
S'sfja'
p150
S'sfja/sfja'
p151
tp152
a(S'verlang'
p153
S'tcarstens'
p154
S'tcarstens/verlang'
p155
tp156
a(S'pluto'
p157
S'coq-concurrency'
p158
S'coq-concurrency/pluto'
p159
tp160
a(S'math-classes'
p161
S'math-classes'
p162
S'math-classes/math-classes'
p163
tp164
a(S'coq-haskell'
p165
S'jwiegley'
p166
S'jwiegley/coq-haskell'
p167
tp168
a(S'fscq-impl'
p169
S'mit-pdos'
p170
S'mit-pdos/fscq-impl'
p171
tp172
a(S'distributed-data-structures'
p173
S'cmeiklejohn'
p174
S'cmeiklejohn/distributed-data-structures'
p175
tp176
a(S'coq-ext-lib'
p177
S'coq-ext-lib'
p178
S'coq-ext-lib/coq-ext-lib'
p179
tp180
a(S'corn'
p181
S'c-corn'
p182
S'c-corn/corn'
p183
tp184
a(S'ROSCoq'
p185
S'aa755'
p186
S'aa755/ROSCoq'
p187
tp188
a(S'lambda-calculus'
p189
S'pi8027'
p190
S'pi8027/lambda-calculus'
p191
tp192
a(S'iron'
p193
S'DDCSF'
p194
S'DDCSF/iron'
p195
tp196
a(S'xmonad'
p197
S'wouter-swierstra'
p198
S'wouter-swierstra/xmonad'
p199
tp200
a(S'CompCert'
p201
S'AbsInt'
p202
S'AbsInt/CompCert'
p203
tp204
a(S'UniMath'
p205
S'UniMath'
p206
S'UniMath/UniMath'
p207
tp208
a(S'verdi'
p209
S'uwplse'
p210
S'uwplse/verdi'
p211
tp212
a(S'HoTT'
p213
S'HoTT'
p214
S'HoTT/HoTT'
p215
tp216
a(S'Foundations'
p217
S'vladimirias'
p218
S'vladimirias/Foundations'
p219
tp220
a(S'jscert'
p221
S'jscert'
p222
S'jscert/jscert'
p223
tp224
a(S'coq-chick-blog'
p225
S'clarus'
p226
S'clarus/coq-chick-blog'
p227
tp228
a(S'coq-pipes'
p229
S'jwiegley'
p230
S'jwiegley/coq-pipes'
p231
tp232
a(S'dot'
p233
S'namin'
p234
S'namin/dot'
p235
tp236
a(S'mindless-coding'
p237
S'jonleivent'
p238
S'jonleivent/mindless-coding'
p239
tp240
a(S'falso'
p241
S'clarus'
p242
S'clarus/falso'
p243
tp244
a(S'category-theory'
p245
S'jwiegley'
p246
S'jwiegley/category-theory'
p247
tp248
a(S'sfja'
p249
S'sfja'
p250
S'sfja/sfja'
p251
tp252
a(S'verlang'
p253
S'tcarstens'
p254
S'tcarstens/verlang'
p255
tp256
a(S'pluto'
p257
S'coq-concurrency'
p258
S'coq-concurrency/pluto'
p259
tp260
a(S'math-classes'
p261
S'math-classes'
p262
S'math-classes/math-classes'
p263
tp264
a(S'coq-haskell'
p265
S'jwiegley'
p266
S'jwiegley/coq-haskell'
p267
tp268
a(S'fscq-impl'
p269
S'mit-pdos'
p270
S'mit-pdos/fscq-impl'
p271
tp272
a(S'distributed-data-structures'
p273
S'cmeiklejohn'
p274
S'cmeiklejohn/distributed-data-structures'
p275
tp276
a(S'coq-ext-lib'
p277
S'coq-ext-lib'
p278
S'coq-ext-lib/coq-ext-lib'
p279
tp280
a(S'corn'
p281
S'c-corn'
p282
S'c-corn/corn'
p283
tp284
a(S'ROSCoq'
p285
S'aa755'
p286
S'aa755/ROSCoq'
p287
tp288
a(S'lambda-calculus'
p289
S'pi8027'
p290
S'pi8027/lambda-calculus'
p291
tp292
a(S'iron'
p293
S'DDCSF'
p294
S'DDCSF/iron'
p295
tp296
a(S'xmonad'
p297
S'wouter-swierstra'
p298
S'wouter-swierstra/xmonad'
p299
tp300
a.