(lp0
(S'crystal'
p1
S'manastech'
p2
S'manastech/crystal'
p3
tp4
a(S'amethyst'
p5
S'Codcore'
p6
S'Codcore/amethyst'
p7
tp8
a(S'awesome-crystal'
p9
S'veelenga'
p10
S'veelenga/awesome-crystal'
p11
tp12
a(S'Moonshine'
p13
S'dhruvrajvanshi'
p14
S'dhruvrajvanshi/Moonshine'
p15
tp16
a(S'shards'
p17
S'ysbaddaden'
p18
S'ysbaddaden/shards'
p19
tp20
a(S'crystal-pg'
p21
S'will'
p22
S'will/crystal-pg'
p23
tp24
a(S'cryload'
p25
S'sdogruyol'
p26
S'sdogruyol/cryload'
p27
tp28
a(S'crul'
p29
S'porras'
p30
S'porras/crul'
p31
tp32
a(S'crystal-redis'
p33
S'stefanwille'
p34
S'stefanwille/crystal-redis'
p35
tp36
a(S'frank'
p37
S'manastech'
p38
S'manastech/frank'
p39
tp40
a(S'crsfml'
p41
S'BlaXpirit'
p42
S'BlaXpirit/crsfml'
p43
tp44
a(S'crystalline'
p45
S'jtomschroeder'
p46
S'jtomschroeder/crystalline'
p47
tp48
a(S'power_assert.cr'
p49
S'rosylilly'
p50
S'rosylilly/power_assert.cr'
p51
tp52
a(S'amatista'
p53
S'werner'
p54
S'werner/amatista'
p55
tp56
a(S'crystal_ruby'
p57
S'manastech'
p58
S'manastech/crystal_ruby'
p59
tp60
a(S'active_record.cr'
p61
S'waterlink'
p62
S'waterlink/active_record.cr'
p63
tp64
a(S'twitter-crystal'
p65
S'sferik'
p66
S'sferik/twitter-crystal'
p67
tp68
a(S'prax.cr'
p69
S'ysbaddaden'
p70
S'ysbaddaden/prax.cr'
p71
tp72
a(S'carc.in'
p73
S'jhass'
p74
S'jhass/carc.in'
p75
tp76
a(S'crystal-futures'
p77
S'dhruvrajvanshi'
p78
S'dhruvrajvanshi/crystal-futures'
p79
tp80
a(S'crystal-gl'
p81
S'ggiraldez'
p82
S'ggiraldez/crystal-gl'
p83
tp84
a(S'artanis'
p85
S'ysbaddaden'
p86
S'ysbaddaden/artanis'
p87
tp88
a(S'crystal_lib'
p89
S'manastech'
p90
S'manastech/crystal_lib'
p91
tp92
a(S'DeBot'
p93
S'jhass'
p94
S'jhass/DeBot'
p95
tp96
a(S'evented'
p97
S'krisleech'
p98
S'krisleech/evented'
p99
tp100
a(S'crystal'
p101
S'manastech'
p102
S'manastech/crystal'
p103
tp104
a(S'awesome-crystal'
p105
S'veelenga'
p106
S'veelenga/awesome-crystal'
p107
tp108
a(S'amethyst'
p109
S'Codcore'
p110
S'Codcore/amethyst'
p111
tp112
a(S'Moonshine'
p113
S'dhruvrajvanshi'
p114
S'dhruvrajvanshi/Moonshine'
p115
tp116
a(S'shards'
p117
S'ysbaddaden'
p118
S'ysbaddaden/shards'
p119
tp120
a(S'crystal-pg'
p121
S'will'
p122
S'will/crystal-pg'
p123
tp124
a(S'cryload'
p125
S'sdogruyol'
p126
S'sdogruyol/cryload'
p127
tp128
a(S'crul'
p129
S'porras'
p130
S'porras/crul'
p131
tp132
a(S'crystal-redis'
p133
S'stefanwille'
p134
S'stefanwille/crystal-redis'
p135
tp136
a(S'frank'
p137
S'manastech'
p138
S'manastech/frank'
p139
tp140
a(S'crsfml'
p141
S'BlaXpirit'
p142
S'BlaXpirit/crsfml'
p143
tp144
a(S'crystalline'
p145
S'jtomschroeder'
p146
S'jtomschroeder/crystalline'
p147
tp148
a(S'power_assert.cr'
p149
S'rosylilly'
p150
S'rosylilly/power_assert.cr'
p151
tp152
a(S'amatista'
p153
S'werner'
p154
S'werner/amatista'
p155
tp156
a(S'crystal_ruby'
p157
S'manastech'
p158
S'manastech/crystal_ruby'
p159
tp160
a(S'active_record.cr'
p161
S'waterlink'
p162
S'waterlink/active_record.cr'
p163
tp164
a(S'twitter-crystal'
p165
S'sferik'
p166
S'sferik/twitter-crystal'
p167
tp168
a(S'prax.cr'
p169
S'ysbaddaden'
p170
S'ysbaddaden/prax.cr'
p171
tp172
a(S'carc.in'
p173
S'jhass'
p174
S'jhass/carc.in'
p175
tp176
a(S'crystal-gl'
p177
S'ggiraldez'
p178
S'ggiraldez/crystal-gl'
p179
tp180
a(S'crystal_lib'
p181
S'manastech'
p182
S'manastech/crystal_lib'
p183
tp184
a(S'crystal-futures'
p185
S'dhruvrajvanshi'
p186
S'dhruvrajvanshi/crystal-futures'
p187
tp188
a(S'DeBot'
p189
S'jhass'
p190
S'jhass/DeBot'
p191
tp192
a(S'artanis'
p193
S'ysbaddaden'
p194
S'ysbaddaden/artanis'
p195
tp196
a(S'evented'
p197
S'krisleech'
p198
S'krisleech/evented'
p199
tp200
a(S'crystal'
p201
S'manastech'
p202
S'manastech/crystal'
p203
tp204
a(S'awesome-crystal'
p205
S'veelenga'
p206
S'veelenga/awesome-crystal'
p207
tp208
a(S'shards'
p209
S'ysbaddaden'
p210
S'ysbaddaden/shards'
p211
tp212
a(S'amethyst'
p213
S'Codcore'
p214
S'Codcore/amethyst'
p215
tp216
a(S'Moonshine'
p217
S'dhruvrajvanshi'
p218
S'dhruvrajvanshi/Moonshine'
p219
tp220
a(S'crystal-redis'
p221
S'stefanwille'
p222
S'stefanwille/crystal-redis'
p223
tp224
a(S'amatista'
p225
S'werner'
p226
S'werner/amatista'
p227
tp228
a(S'crystal-pg'
p229
S'will'
p230
S'will/crystal-pg'
p231
tp232
a(S'cryload'
p233
S'sdogruyol'
p234
S'sdogruyol/cryload'
p235
tp236
a(S'crul'
p237
S'porras'
p238
S'porras/crul'
p239
tp240
a(S'frank'
p241
S'manastech'
p242
S'manastech/frank'
p243
tp244
a(S'crsfml'
p245
S'BlaXpirit'
p246
S'BlaXpirit/crsfml'
p247
tp248
a(S'crystalline'
p249
S'jtomschroeder'
p250
S'jtomschroeder/crystalline'
p251
tp252
a(S'power_assert.cr'
p253
S'rosylilly'
p254
S'rosylilly/power_assert.cr'
p255
tp256
a(S'crystal_ruby'
p257
S'manastech'
p258
S'manastech/crystal_ruby'
p259
tp260
a(S'active_record.cr'
p261
S'waterlink'
p262
S'waterlink/active_record.cr'
p263
tp264
a(S'twitter-crystal'
p265
S'sferik'
p266
S'sferik/twitter-crystal'
p267
tp268
a(S'prax.cr'
p269
S'ysbaddaden'
p270
S'ysbaddaden/prax.cr'
p271
tp272
a(S'carc.in'
p273
S'jhass'
p274
S'jhass/carc.in'
p275
tp276
a(S'crystal-futures'
p277
S'dhruvrajvanshi'
p278
S'dhruvrajvanshi/crystal-futures'
p279
tp280
a(S'artanis'
p281
S'ysbaddaden'
p282
S'ysbaddaden/artanis'
p283
tp284
a(S'DeBot'
p285
S'jhass'
p286
S'jhass/DeBot'
p287
tp288
a(S'crystal-gl'
p289
S'ggiraldez'
p290
S'ggiraldez/crystal-gl'
p291
tp292
a(S'crystal_lib'
p293
S'manastech'
p294
S'manastech/crystal_lib'
p295
tp296
a(S'crystal-sqlite3'
p297
S'manastech'
p298
S'manastech/crystal-sqlite3'
p299
tp300
a.