(lp0
(S'photon'
p1
S'connors'
p2
S'connors/photon'
p3
tp4
a(S'Spoon-Knife'
p5
S'octocat'
p6
S'octocat/Spoon-Knife'
p7
tp8
a(S'bootstrap'
p9
S'twbs'
p10
S'twbs/bootstrap'
p11
tp12
a(S'weui'
p13
S'weui'
p14
S'weui/weui'
p15
tp16
a(S'Flatabulous'
p17
S'anmoljagetia'
p18
S'anmoljagetia/Flatabulous'
p19
tp20
a(S'material-design-lite'
p21
S'google'
p22
S'google/material-design-lite'
p23
tp24
a(S'materialize'
p25
S'Dogfalo'
p26
S'Dogfalo/materialize'
p27
tp28
a(S'Hover'
p29
S'IanLunn'
p30
S'IanLunn/Hover'
p31
tp32
a(S'animated-gameboy-in-css'
p33
S'bchanx'
p34
S'bchanx/animated-gameboy-in-css'
p35
tp36
a(S'jekyll-now'
p37
S'barryclark'
p38
S'barryclark/jekyll-now'
p39
tp40
a(S'front-end-handbook'
p41
S'FrontendMasters'
p42
S'FrontendMasters/front-end-handbook'
p43
tp44
a(S'Skeleton'
p45
S'dhg'
p46
S'dhg/Skeleton'
p47
tp48
a(S'sanitize.css'
p49
S'10up'
p50
S'10up/sanitize.css'
p51
tp52
a(S'hackathon-starter'
p53
S'sahat'
p54
S'sahat/hackathon-starter'
p55
tp56
a(S'foundation'
p57
S'zurb'
p58
S'zurb/foundation'
p59
tp60
a(S'Arc-theme'
p61
S'horst3180'
p62
S'horst3180/Arc-theme'
p63
tp64
a(S'django-jet'
p65
S'geex-arts'
p66
S'geex-arts/django-jet'
p67
tp68
a(S'web-design-standards'
p69
S'18F'
p70
S'18F/web-design-standards'
p71
tp72
a(S'hexo-theme-next'
p73
S'iissnan'
p74
S'iissnan/hexo-theme-next'
p75
tp76
a(S'PageStackNavigation'
p77
S'codrops'
p78
S'codrops/PageStackNavigation'
p79
tp80
a(S'the-swift-programming-language-in-chinese'
p81
S'numbbbbb'
p82
S'numbbbbb/the-swift-programming-language-in-chinese'
p83
tp84
a(S'SpinKit'
p85
S'tobiasahlin'
p86
S'tobiasahlin/SpinKit'
p87
tp88
a(S'gcm-playground'
p89
S'googlesamples'
p90
S'googlesamples/gcm-playground'
p91
tp92
a(S'mejorandogit'
p93
S'platzi'
p94
S'platzi/mejorandogit'
p95
tp96
a(S'landing-page-theme'
p97
S'swcool'
p98
S'swcool/landing-page-theme'
p99
tp100
a(S'photon'
p101
S'connors'
p102
S'connors/photon'
p103
tp104
a(S'weui'
p105
S'weui'
p106
S'weui/weui'
p107
tp108
a(S'bootstrap'
p109
S'twbs'
p110
S'twbs/bootstrap'
p111
tp112
a(S'Spoon-Knife'
p113
S'octocat'
p114
S'octocat/Spoon-Knife'
p115
tp116
a(S'materialize'
p117
S'Dogfalo'
p118
S'Dogfalo/materialize'
p119
tp120
a(S'material-design-lite'
p121
S'google'
p122
S'google/material-design-lite'
p123
tp124
a(S'front-end-handbook'
p125
S'FrontendMasters'
p126
S'FrontendMasters/front-end-handbook'
p127
tp128
a(S'the-swift-programming-language-in-chinese'
p129
S'numbbbbb'
p130
S'numbbbbb/the-swift-programming-language-in-chinese'
p131
tp132
a(S'Hover'
p133
S'IanLunn'
p134
S'IanLunn/Hover'
p135
tp136
a(S'web-design-standards'
p137
S'18F'
p138
S'18F/web-design-standards'
p139
tp140
a(S'Flatabulous'
p141
S'anmoljagetia'
p142
S'anmoljagetia/Flatabulous'
p143
tp144
a(S'foundation'
p145
S'zurb'
p146
S'zurb/foundation'
p147
tp148
a(S'Skeleton'
p149
S'dhg'
p150
S'dhg/Skeleton'
p151
tp152
a(S'jekyll-now'
p153
S'barryclark'
p154
S'barryclark/jekyll-now'
p155
tp156
a(S'neutroncss'
p157
S'NeutronCSS'
p158
S'NeutronCSS/neutroncss'
p159
tp160
a(S'Arc-theme'
p161
S'horst3180'
p162
S'horst3180/Arc-theme'
p163
tp164
a(S'littleosbook'
p165
S'littleosbook'
p166
S'littleosbook/littleosbook'
p167
tp168
a(S'hexo-theme-next'
p169
S'iissnan'
p170
S'iissnan/hexo-theme-next'
p171
tp172
a(S'gcm-playground'
p173
S'googlesamples'
p174
S'googlesamples/gcm-playground'
p175
tp176
a(S'PageStackNavigation'
p177
S'codrops'
p178
S'codrops/PageStackNavigation'
p179
tp180
a(S'hackathon-starter'
p181
S'sahat'
p182
S'sahat/hackathon-starter'
p183
tp184
a(S'json-api'
p185
S'json-api'
p186
S'json-api/json-api'
p187
tp188
a(S'drop'
p189
S'HubSpot'
p190
S'HubSpot/drop'
p191
tp192
a(S'screencat'
p193
S'maxogden'
p194
S'maxogden/screencat'
p195
tp196
a(S'SpinKit'
p197
S'tobiasahlin'
p198
S'tobiasahlin/SpinKit'
p199
tp200
a(S'weui'
p201
S'weui'
p202
S'weui/weui'
p203
tp204
a(S'photon'
p205
S'connors'
p206
S'connors/photon'
p207
tp208
a(S'web-design-standards'
p209
S'18F'
p210
S'18F/web-design-standards'
p211
tp212
a(S'bootstrap'
p213
S'twbs'
p214
S'twbs/bootstrap'
p215
tp216
a(S'Spoon-Knife'
p217
S'octocat'
p218
S'octocat/Spoon-Knife'
p219
tp220
a(S'material-design-lite'
p221
S'google'
p222
S'google/material-design-lite'
p223
tp224
a(S'materialize'
p225
S'Dogfalo'
p226
S'Dogfalo/materialize'
p227
tp228
a(S'the-swift-programming-language-in-chinese'
p229
S'numbbbbb'
p230
S'numbbbbb/the-swift-programming-language-in-chinese'
p231
tp232
a(S'Hover'
p233
S'IanLunn'
p234
S'IanLunn/Hover'
p235
tp236
a(S'corpus'
p237
S'jamiewilson'
p238
S'jamiewilson/corpus'
p239
tp240
a(S'Skeleton'
p241
S'dhg'
p242
S'dhg/Skeleton'
p243
tp244
a(S'jekyll-now'
p245
S'barryclark'
p246
S'barryclark/jekyll-now'
p247
tp248
a(S'motion-ui'
p249
S'zurb'
p250
S'zurb/motion-ui'
p251
tp252
a(S'foundation'
p253
S'zurb'
p254
S'zurb/foundation'
p255
tp256
a(S'hexo-theme-next'
p257
S'iissnan'
p258
S'iissnan/hexo-theme-next'
p259
tp260
a(S'Arc-theme'
p261
S'horst3180'
p262
S'horst3180/Arc-theme'
p263
tp264
a(S'hackathon-starter'
p265
S'sahat'
p266
S'sahat/hackathon-starter'
p267
tp268
a(S'front-end-handbook'
p269
S'FrontendMasters'
p270
S'FrontendMasters/front-end-handbook'
p271
tp272
a(S'SpinKit'
p273
S'tobiasahlin'
p274
S'tobiasahlin/SpinKit'
p275
tp276
a(S'Flatabulous'
p277
S'anmoljagetia'
p278
S'anmoljagetia/Flatabulous'
p279
tp280
a(S'littleosbook'
p281
S'littleosbook'
p282
S'littleosbook/littleosbook'
p283
tp284
a(S'2048'
p285
S'gabrielecirulli'
p286
S'gabrielecirulli/2048'
p287
tp288
a(S'neutroncss'
p289
S'NeutronCSS'
p290
S'NeutronCSS/neutroncss'
p291
tp292
a(S'json-api'
p293
S'json-api'
p294
S'json-api/json-api'
p295
tp296
a(S'sanitize.css'
p297
S'10up'
p298
S'10up/sanitize.css'
p299
tp300
a.