(lp0
(S'git-town'
p1
S'Originate'
p2
S'Originate/git-town'
p3
tp4
a(S'jekyll-scholar'
p5
S'inukshuk'
p6
S'inukshuk/jekyll-scholar'
p7
tp8
a(S'middleman-blog'
p9
S'middleman'
p10
S'middleman/middleman-blog'
p11
tp12
a(S'salad'
p13
S'salad'
p14
S'salad/salad'
p15
tp16
a(S'wrap-region.el'
p17
S'rejeep'
p18
S'rejeep/wrap-region.el'
p19
tp20
a(S'ruby-tools.el'
p21
S'rejeep'
p22
S'rejeep/ruby-tools.el'
p23
tp24
a(S'gavel'
p25
S'apiaryio'
p26
S'apiaryio/gavel'
p27
tp28
a(S'BUILD'
p29
S'SAP'
p30
S'SAP/BUILD'
p31
tp32
a(S'gradle-cucumber-plugin'
p33
S'samueltbrown'
p34
S'samueltbrown/gradle-cucumber-plugin'
p35
tp36
a(S'middleman-disqus'
p37
S'simonrice'
p38
S'simonrice/middleman-disqus'
p39
tp40
a(S'quickmail'
p41
S'lsuits'
p42
S'lsuits/quickmail'
p43
tp44
a(S'bitly-api'
p45
S'hpatoio'
p46
S'hpatoio/bitly-api'
p47
tp48
a(S'minitest-around'
p49
S'splattael'
p50
S'splattael/minitest-around'
p51
tp52
a(S'vanessa-behavior'
p53
S'silverbulleters'
p54
S'silverbulleters/vanessa-behavior'
p55
tp56
a(S'dice_bag'
p57
S'mdsol'
p58
S'mdsol/dice_bag'
p59
tp60
a(S'oerpscenario'
p61
S'camptocamp'
p62
S'camptocamp/oerpscenario'
p63
tp64
a(S'middleman-robots'
p65
S'yterajima'
p66
S'yterajima/middleman-robots'
p67
tp68
a(S'yard-doctest'
p69
S'p0deje'
p70
S'p0deje/yard-doctest'
p71
tp72
a(S'jekyll_ghost_importer'
p73
S'eloyesp'
p74
S'eloyesp/jekyll_ghost_importer'
p75
tp76
a(S'smokey'
p77
S'alphagov'
p78
S'alphagov/smokey'
p79
tp80
a(S'cucumber-gradle-parallel'
p81
S'camiloribeiro'
p82
S'camiloribeiro/cucumber-gradle-parallel'
p83
tp84
a(S'plan'
p85
S'yoshuawuyts'
p86
S'yoshuawuyts/plan'
p87
tp88
a(S'bmspec'
p89
S'bemusic'
p90
S'bemusic/bmspec'
p91
tp92
a(S'ecosystem'
p93
S'scala-ide'
p94
S'scala-ide/ecosystem'
p95
tp96
a(S'ucsf_installprofile'
p97
S'ucsf-drupal'
p98
S'ucsf-drupal/ucsf_installprofile'
p99
tp100
a(S'git-town'
p101
S'Originate'
p102
S'Originate/git-town'
p103
tp104
a(S'jekyll-scholar'
p105
S'inukshuk'
p106
S'inukshuk/jekyll-scholar'
p107
tp108
a(S'middleman-blog'
p109
S'middleman'
p110
S'middleman/middleman-blog'
p111
tp112
a(S'salad'
p113
S'salad'
p114
S'salad/salad'
p115
tp116
a(S'wrap-region.el'
p117
S'rejeep'
p118
S'rejeep/wrap-region.el'
p119
tp120
a(S'ruby-tools.el'
p121
S'rejeep'
p122
S'rejeep/ruby-tools.el'
p123
tp124
a(S'gavel'
p125
S'apiaryio'
p126
S'apiaryio/gavel'
p127
tp128
a(S'BUILD'
p129
S'SAP'
p130
S'SAP/BUILD'
p131
tp132
a(S'gradle-cucumber-plugin'
p133
S'samueltbrown'
p134
S'samueltbrown/gradle-cucumber-plugin'
p135
tp136
a(S'middleman-disqus'
p137
S'simonrice'
p138
S'simonrice/middleman-disqus'
p139
tp140
a(S'quickmail'
p141
S'lsuits'
p142
S'lsuits/quickmail'
p143
tp144
a(S'bitly-api'
p145
S'hpatoio'
p146
S'hpatoio/bitly-api'
p147
tp148
a(S'minitest-around'
p149
S'splattael'
p150
S'splattael/minitest-around'
p151
tp152
a(S'vanessa-behavior'
p153
S'silverbulleters'
p154
S'silverbulleters/vanessa-behavior'
p155
tp156
a(S'dice_bag'
p157
S'mdsol'
p158
S'mdsol/dice_bag'
p159
tp160
a(S'oerpscenario'
p161
S'camptocamp'
p162
S'camptocamp/oerpscenario'
p163
tp164
a(S'middleman-robots'
p165
S'yterajima'
p166
S'yterajima/middleman-robots'
p167
tp168
a(S'yard-doctest'
p169
S'p0deje'
p170
S'p0deje/yard-doctest'
p171
tp172
a(S'jekyll_ghost_importer'
p173
S'eloyesp'
p174
S'eloyesp/jekyll_ghost_importer'
p175
tp176
a(S'smokey'
p177
S'alphagov'
p178
S'alphagov/smokey'
p179
tp180
a(S'cucumber-gradle-parallel'
p181
S'camiloribeiro'
p182
S'camiloribeiro/cucumber-gradle-parallel'
p183
tp184
a(S'plan'
p185
S'yoshuawuyts'
p186
S'yoshuawuyts/plan'
p187
tp188
a(S'bmspec'
p189
S'bemusic'
p190
S'bemusic/bmspec'
p191
tp192
a(S'ecosystem'
p193
S'scala-ide'
p194
S'scala-ide/ecosystem'
p195
tp196
a(S'ucsf_installprofile'
p197
S'ucsf-drupal'
p198
S'ucsf-drupal/ucsf_installprofile'
p199
tp200
a(S'git-town'
p201
S'Originate'
p202
S'Originate/git-town'
p203
tp204
a(S'BUILD'
p205
S'SAP'
p206
S'SAP/BUILD'
p207
tp208
a(S'jekyll-scholar'
p209
S'inukshuk'
p210
S'inukshuk/jekyll-scholar'
p211
tp212
a(S'middleman-blog'
p213
S'middleman'
p214
S'middleman/middleman-blog'
p215
tp216
a(S'salad'
p217
S'salad'
p218
S'salad/salad'
p219
tp220
a(S'wrap-region.el'
p221
S'rejeep'
p222
S'rejeep/wrap-region.el'
p223
tp224
a(S'ruby-tools.el'
p225
S'rejeep'
p226
S'rejeep/ruby-tools.el'
p227
tp228
a(S'gavel'
p229
S'apiaryio'
p230
S'apiaryio/gavel'
p231
tp232
a(S'gradle-cucumber-plugin'
p233
S'samueltbrown'
p234
S'samueltbrown/gradle-cucumber-plugin'
p235
tp236
a(S'middleman-disqus'
p237
S'simonrice'
p238
S'simonrice/middleman-disqus'
p239
tp240
a(S'quickmail'
p241
S'lsuits'
p242
S'lsuits/quickmail'
p243
tp244
a(S'bitly-api'
p245
S'hpatoio'
p246
S'hpatoio/bitly-api'
p247
tp248
a(S'minitest-around'
p249
S'splattael'
p250
S'splattael/minitest-around'
p251
tp252
a(S'vanessa-behavior'
p253
S'silverbulleters'
p254
S'silverbulleters/vanessa-behavior'
p255
tp256
a(S'dice_bag'
p257
S'mdsol'
p258
S'mdsol/dice_bag'
p259
tp260
a(S'oerpscenario'
p261
S'camptocamp'
p262
S'camptocamp/oerpscenario'
p263
tp264
a(S'middleman-robots'
p265
S'yterajima'
p266
S'yterajima/middleman-robots'
p267
tp268
a(S'yard-doctest'
p269
S'p0deje'
p270
S'p0deje/yard-doctest'
p271
tp272
a(S'smokey'
p273
S'alphagov'
p274
S'alphagov/smokey'
p275
tp276
a(S'jekyll_ghost_importer'
p277
S'eloyesp'
p278
S'eloyesp/jekyll_ghost_importer'
p279
tp280
a(S'cucumber-gradle-parallel'
p281
S'camiloribeiro'
p282
S'camiloribeiro/cucumber-gradle-parallel'
p283
tp284
a(S'plan'
p285
S'yoshuawuyts'
p286
S'yoshuawuyts/plan'
p287
tp288
a(S'bmspec'
p289
S'bemusic'
p290
S'bemusic/bmspec'
p291
tp292
a(S'ucsf_installprofile'
p293
S'ucsf-drupal'
p294
S'ucsf-drupal/ucsf_installprofile'
p295
tp296
a(S'ecosystem'
p297
S'scala-ide'
p298
S'scala-ide/ecosystem'
p299
tp300
a.