(lp0
(S'matconvnet'
p1
S'vlfeat'
p2
S'vlfeat/matconvnet'
p3
tp4
a(S'cutorch'
p5
S'torch'
p6
S'torch/cutorch'
p7
tp8
a(S'Alenka'
p9
S'antonmks'
p10
S'antonmks/Alenka'
p11
tp12
a(S'moderngpu'
p13
S'NVlabs'
p14
S'NVlabs/moderngpu'
p15
tp16
a(S'convnet'
p17
S'TorontoDeepLearning'
p18
S'TorontoDeepLearning/convnet'
p19
tp20
a(S'nvParse'
p21
S'antonmks'
p22
S'antonmks/nvParse'
p23
tp24
a(S'cs344'
p25
S'udacity'
p26
S'udacity/cs344'
p27
tp28
a(S'cuda-convnet2'
p29
S'akrizhevsky'
p30
S'akrizhevsky/cuda-convnet2'
p31
tp32
a(S'cuda-convnet'
p33
S'dnouri'
p34
S'dnouri/cuda-convnet'
p35
tp36
a(S'cub'
p37
S'NVlabs'
p38
S'NVlabs/cub'
p39
tp40
a(S'ConvNet'
p41
S'sdemyanov'
p42
S'sdemyanov/ConvNet'
p43
tp44
a(S'fbcuda'
p45
S'facebook'
p46
S'facebook/fbcuda'
p47
tp48
a(S'cudahandbook'
p49
S'ArchaeaSoftware'
p50
S'ArchaeaSoftware/cudahandbook'
p51
tp52
a(S'gunrock'
p53
S'gunrock'
p54
S'gunrock/gunrock'
p55
tp56
a(S'CUDA-CNN'
p57
S'zhxfl'
p58
S'zhxfl/CUDA-CNN'
p59
tp60
a(S'cunn'
p61
S'torch'
p62
S'torch/cunn'
p63
tp64
a(S'nvbio-gpl'
p65
S'NVlabs'
p66
S'NVlabs/nvbio-gpl'
p67
tp68
a(S'megahit'
p69
S'voutcn'
p70
S'voutcn/megahit'
p71
tp72
a(S'imagine-nn'
p73
S'szagoruyko'
p74
S'szagoruyko/imagine-nn'
p75
tp76
a(S'cuda-convnet2.torch'
p77
S'soumith'
p78
S'soumith/cuda-convnet2.torch'
p79
tp80
a(S'CudaSift'
p81
S'Celebrandil'
p82
S'Celebrandil/CudaSift'
p83
tp84
a(S'CudaLBFGS'
p85
S'jwetzl'
p86
S'jwetzl/CudaLBFGS'
p87
tp88
a(S'gputools'
p89
S'nullsatz'
p90
S'nullsatz/gputools'
p91
tp92
a(S'flattened-cnn'
p93
S'jhjin'
p94
S'jhjin/flattened-cnn'
p95
tp96
a(S'halloc'
p97
S'canonizer'
p98
S'canonizer/halloc'
p99
tp100
a(S'matconvnet'
p101
S'vlfeat'
p102
S'vlfeat/matconvnet'
p103
tp104
a(S'Alenka'
p105
S'antonmks'
p106
S'antonmks/Alenka'
p107
tp108
a(S'moderngpu'
p109
S'NVlabs'
p110
S'NVlabs/moderngpu'
p111
tp112
a(S'convnet'
p113
S'TorontoDeepLearning'
p114
S'TorontoDeepLearning/convnet'
p115
tp116
a(S'nvParse'
p117
S'antonmks'
p118
S'antonmks/nvParse'
p119
tp120
a(S'cs344'
p121
S'udacity'
p122
S'udacity/cs344'
p123
tp124
a(S'cuda-convnet2'
p125
S'akrizhevsky'
p126
S'akrizhevsky/cuda-convnet2'
p127
tp128
a(S'cuda-convnet'
p129
S'dnouri'
p130
S'dnouri/cuda-convnet'
p131
tp132
a(S'cub'
p133
S'NVlabs'
p134
S'NVlabs/cub'
p135
tp136
a(S'ConvNet'
p137
S'sdemyanov'
p138
S'sdemyanov/ConvNet'
p139
tp140
a(S'fbcuda'
p141
S'facebook'
p142
S'facebook/fbcuda'
p143
tp144
a(S'cudahandbook'
p145
S'ArchaeaSoftware'
p146
S'ArchaeaSoftware/cudahandbook'
p147
tp148
a(S'cutorch'
p149
S'torch'
p150
S'torch/cutorch'
p151
tp152
a(S'gunrock'
p153
S'gunrock'
p154
S'gunrock/gunrock'
p155
tp156
a(S'CUDA-CNN'
p157
S'zhxfl'
p158
S'zhxfl/CUDA-CNN'
p159
tp160
a(S'cunn'
p161
S'torch'
p162
S'torch/cunn'
p163
tp164
a(S'nvbio-gpl'
p165
S'NVlabs'
p166
S'NVlabs/nvbio-gpl'
p167
tp168
a(S'megahit'
p169
S'voutcn'
p170
S'voutcn/megahit'
p171
tp172
a(S'imagine-nn'
p173
S'szagoruyko'
p174
S'szagoruyko/imagine-nn'
p175
tp176
a(S'cuda-convnet2.torch'
p177
S'soumith'
p178
S'soumith/cuda-convnet2.torch'
p179
tp180
a(S'CudaSift'
p181
S'Celebrandil'
p182
S'Celebrandil/CudaSift'
p183
tp184
a(S'CudaLBFGS'
p185
S'jwetzl'
p186
S'jwetzl/CudaLBFGS'
p187
tp188
a(S'gputools'
p189
S'nullsatz'
p190
S'nullsatz/gputools'
p191
tp192
a(S'flattened-cnn'
p193
S'jhjin'
p194
S'jhjin/flattened-cnn'
p195
tp196
a(S'halloc'
p197
S'canonizer'
p198
S'canonizer/halloc'
p199
tp200
a(S'matconvnet'
p201
S'vlfeat'
p202
S'vlfeat/matconvnet'
p203
tp204
a(S'cutorch'
p205
S'torch'
p206
S'torch/cutorch'
p207
tp208
a(S'gunrock'
p209
S'gunrock'
p210
S'gunrock/gunrock'
p211
tp212
a(S'CudaSift'
p213
S'Celebrandil'
p214
S'Celebrandil/CudaSift'
p215
tp216
a(S'Alenka'
p217
S'antonmks'
p218
S'antonmks/Alenka'
p219
tp220
a(S'moderngpu'
p221
S'NVlabs'
p222
S'NVlabs/moderngpu'
p223
tp224
a(S'convnet'
p225
S'TorontoDeepLearning'
p226
S'TorontoDeepLearning/convnet'
p227
tp228
a(S'nvParse'
p229
S'antonmks'
p230
S'antonmks/nvParse'
p231
tp232
a(S'cs344'
p233
S'udacity'
p234
S'udacity/cs344'
p235
tp236
a(S'cuda-convnet2'
p237
S'akrizhevsky'
p238
S'akrizhevsky/cuda-convnet2'
p239
tp240
a(S'cuda-convnet'
p241
S'dnouri'
p242
S'dnouri/cuda-convnet'
p243
tp244
a(S'cub'
p245
S'NVlabs'
p246
S'NVlabs/cub'
p247
tp248
a(S'ConvNet'
p249
S'sdemyanov'
p250
S'sdemyanov/ConvNet'
p251
tp252
a(S'fbcuda'
p253
S'facebook'
p254
S'facebook/fbcuda'
p255
tp256
a(S'cudahandbook'
p257
S'ArchaeaSoftware'
p258
S'ArchaeaSoftware/cudahandbook'
p259
tp260
a(S'CUDA-CNN'
p261
S'zhxfl'
p262
S'zhxfl/CUDA-CNN'
p263
tp264
a(S'cunn'
p265
S'torch'
p266
S'torch/cunn'
p267
tp268
a(S'nvbio-gpl'
p269
S'NVlabs'
p270
S'NVlabs/nvbio-gpl'
p271
tp272
a(S'megahit'
p273
S'voutcn'
p274
S'voutcn/megahit'
p275
tp276
a(S'imagine-nn'
p277
S'szagoruyko'
p278
S'szagoruyko/imagine-nn'
p279
tp280
a(S'cuda-convnet2.torch'
p281
S'soumith'
p282
S'soumith/cuda-convnet2.torch'
p283
tp284
a(S'CudaLBFGS'
p285
S'jwetzl'
p286
S'jwetzl/CudaLBFGS'
p287
tp288
a(S'gputools'
p289
S'nullsatz'
p290
S'nullsatz/gputools'
p291
tp292
a(S'flattened-cnn'
p293
S'jhjin'
p294
S'jhjin/flattened-cnn'
p295
tp296
a(S'halloc'
p297
S'canonizer'
p298
S'canonizer/halloc'
p299
tp300
a.