(lp0
(S'cycript-utils'
p1
S'Tyilo'
p2
S'Tyilo/cycript-utils'
p3
tp4
a(S'CycriptScripts'
p5
S'jmahboob'
p6
S'jmahboob/CycriptScripts'
p7
tp8
a(S'cycript-utils'
p9
S'eni9889'
p10
S'eni9889/cycript-utils'
p11
tp12
a(S'fan.cy'
p13
S'changbiao'
p14
S'changbiao/fan.cy'
p15
tp16
a(S'wombatmodels'
p17
S'gtalent'
p18
S'gtalent/wombatmodels'
p19
tp20
a(S'cycript-utils.fork'
p21
S'aliceatlas'
p22
S'aliceatlas/cycript-utils.fork'
p23
tp24
a(S'cycript-utils'
p25
S'dieface'
p26
S'dieface/cycript-utils'
p27
tp28
a(S'cycript-utils'
p29
S'MonkeyRi'
p30
S'MonkeyRi/cycript-utils'
p31
tp32
a(S'cycript-utils'
p33
S'captainsfr'
p34
S'captainsfr/cycript-utils'
p35
tp36
a(S'CycriptScripts'
p37
S'hexploitable'
p38
S'hexploitable/CycriptScripts'
p39
tp40
a(S'cycript-utils'
p41
S'kivlara'
p42
S'kivlara/cycript-utils'
p43
tp44
a(S'cycript-utils'
p45
S'nonstriater'
p46
S'nonstriater/cycript-utils'
p47
tp48
a(S'cycript-utils'
p49
S'changbiao'
p50
S'changbiao/cycript-utils'
p51
tp52
a(S'fan.cy'
p53
S'dieface'
p54
S'dieface/fan.cy'
p55
tp56
a(S'sockets-cy'
p57
S'Tirael'
p58
S'Tirael/sockets-cy'
p59
tp60
a(S'classDump.cy'
p61
S'Reflejo'
p62
S'Reflejo/classDump.cy'
p63
tp64
a(S'cycript_Utils'
p65
S'davidlindner'
p66
S'davidlindner/cycript_Utils'
p67
tp68
a(S'Logs'
p69
S'feynmandiagrams1'
p70
S'feynmandiagrams1/Logs'
p71
tp72
a(S'wombat-models'
p73
S'wombatant'
p74
S'wombatant/wombat-models'
p75
tp76
a(S'Logs'
p77
S'Ritvik1512'
p78
S'Ritvik1512/Logs'
p79
tp80
a(S'cycript-utils'
p81
S'Tyilo'
p82
S'Tyilo/cycript-utils'
p83
tp84
a(S'CycriptScripts'
p85
S'jmahboob'
p86
S'jmahboob/CycriptScripts'
p87
tp88
a(S'cycript-utils'
p89
S'eni9889'
p90
S'eni9889/cycript-utils'
p91
tp92
a(S'fan.cy'
p93
S'changbiao'
p94
S'changbiao/fan.cy'
p95
tp96
a(S'wombatmodels'
p97
S'gtalent'
p98
S'gtalent/wombatmodels'
p99
tp100
a(S'cycript-utils.fork'
p101
S'aliceatlas'
p102
S'aliceatlas/cycript-utils.fork'
p103
tp104
a(S'cycript-utils'
p105
S'dieface'
p106
S'dieface/cycript-utils'
p107
tp108
a(S'cycript-utils'
p109
S'MonkeyRi'
p110
S'MonkeyRi/cycript-utils'
p111
tp112
a(S'cycript-utils'
p113
S'captainsfr'
p114
S'captainsfr/cycript-utils'
p115
tp116
a(S'CycriptScripts'
p117
S'hexploitable'
p118
S'hexploitable/CycriptScripts'
p119
tp120
a(S'cycript-utils'
p121
S'kivlara'
p122
S'kivlara/cycript-utils'
p123
tp124
a(S'cycript-utils'
p125
S'nonstriater'
p126
S'nonstriater/cycript-utils'
p127
tp128
a(S'cycript-utils'
p129
S'changbiao'
p130
S'changbiao/cycript-utils'
p131
tp132
a(S'fan.cy'
p133
S'dieface'
p134
S'dieface/fan.cy'
p135
tp136
a(S'sockets-cy'
p137
S'Tirael'
p138
S'Tirael/sockets-cy'
p139
tp140
a(S'classDump.cy'
p141
S'Reflejo'
p142
S'Reflejo/classDump.cy'
p143
tp144
a(S'cycript_Utils'
p145
S'davidlindner'
p146
S'davidlindner/cycript_Utils'
p147
tp148
a(S'Logs'
p149
S'feynmandiagrams1'
p150
S'feynmandiagrams1/Logs'
p151
tp152
a(S'wombat-models'
p153
S'wombatant'
p154
S'wombatant/wombat-models'
p155
tp156
a(S'Logs'
p157
S'Ritvik1512'
p158
S'Ritvik1512/Logs'
p159
tp160
a(S'cycript-utils'
p161
S'Tyilo'
p162
S'Tyilo/cycript-utils'
p163
tp164
a(S'CycriptScripts'
p165
S'jmahboob'
p166
S'jmahboob/CycriptScripts'
p167
tp168
a(S'cycript-utils'
p169
S'eni9889'
p170
S'eni9889/cycript-utils'
p171
tp172
a(S'fan.cy'
p173
S'changbiao'
p174
S'changbiao/fan.cy'
p175
tp176
a(S'wombatmodels'
p177
S'gtalent'
p178
S'gtalent/wombatmodels'
p179
tp180
a(S'cycript-utils.fork'
p181
S'aliceatlas'
p182
S'aliceatlas/cycript-utils.fork'
p183
tp184
a(S'cycript-utils'
p185
S'dieface'
p186
S'dieface/cycript-utils'
p187
tp188
a(S'cycript-utils'
p189
S'MonkeyRi'
p190
S'MonkeyRi/cycript-utils'
p191
tp192
a(S'cycript-utils'
p193
S'captainsfr'
p194
S'captainsfr/cycript-utils'
p195
tp196
a(S'CycriptScripts'
p197
S'hexploitable'
p198
S'hexploitable/CycriptScripts'
p199
tp200
a(S'cycript-utils'
p201
S'kivlara'
p202
S'kivlara/cycript-utils'
p203
tp204
a(S'cycript-utils'
p205
S'nonstriater'
p206
S'nonstriater/cycript-utils'
p207
tp208
a(S'cycript-utils'
p209
S'changbiao'
p210
S'changbiao/cycript-utils'
p211
tp212
a(S'fan.cy'
p213
S'dieface'
p214
S'dieface/fan.cy'
p215
tp216
a(S'sockets-cy'
p217
S'Tirael'
p218
S'Tirael/sockets-cy'
p219
tp220
a(S'classDump.cy'
p221
S'Reflejo'
p222
S'Reflejo/classDump.cy'
p223
tp224
a(S'cycript_Utils'
p225
S'davidlindner'
p226
S'davidlindner/cycript_Utils'
p227
tp228
a(S'Logs'
p229
S'feynmandiagrams1'
p230
S'feynmandiagrams1/Logs'
p231
tp232
a(S'wombat-models'
p233
S'wombatant'
p234
S'wombatant/wombat-models'
p235
tp236
a(S'Logs'
p237
S'Ritvik1512'
p238
S'Ritvik1512/Logs'
p239
tp240
a.