(lp0
(S'dmd'
p1
S'D-Programming-Language'
p2
S'D-Programming-Language/dmd'
p3
tp4
a(S'mysql-native'
p5
S'mysql-d'
p6
S'mysql-d/mysql-native'
p7
tp8
a(S'vibe.d'
p9
S'rejectedsoftware'
p10
S'rejectedsoftware/vibe.d'
p11
tp12
a(S'phobos'
p13
S'D-Programming-Language'
p14
S'D-Programming-Language/phobos'
p15
tp16
a(S'PhotoProcessing'
p17
S'lightbox'
p18
S'lightbox/PhotoProcessing'
p19
tp20
a(S'warp'
p21
S'facebook'
p22
S'facebook/warp'
p23
tp24
a(S'druntime'
p25
S'D-Programming-Language'
p26
S'D-Programming-Language/druntime'
p27
tp28
a(S'Dash'
p29
S'Circular-Studios'
p30
S'Circular-Studios/Dash'
p31
tp32
a(S'dub'
p33
S'D-Programming-Language'
p34
S'D-Programming-Language/dub'
p35
tp36
a(S'xomb'
p37
S'xomboverlord'
p38
S'xomboverlord/xomb'
p39
tp40
a(S'GDC'
p41
S'D-Programming-GDC'
p42
S'D-Programming-GDC/GDC'
p43
tp44
a(S'arsd'
p45
S'adamdruppe'
p46
S'adamdruppe/arsd'
p47
tp48
a(S'RABCDAsm'
p49
S'CyberShadow'
p50
S'CyberShadow/RABCDAsm'
p51
tp52
a(S'Derelict3'
p53
S'aldacron'
p54
S'aldacron/Derelict3'
p55
tp56
a(S'Pegged'
p57
S'PhilippeSigaud'
p58
S'PhilippeSigaud/Pegged'
p59
tp60
a(S'DFeed'
p61
S'CyberShadow'
p62
S'CyberShadow/DFeed'
p63
tp64
a(S'dlangui'
p65
S'buggins'
p66
S'buggins/dlangui'
p67
tp68
a(S'DCD'
p69
S'Hackerpilot'
p70
S'Hackerpilot/DCD'
p71
tp72
a(S'EasyRSS'
p73
S'davidsun'
p74
S'davidsun/EasyRSS'
p75
tp76
a(S'sambamba'
p77
S'lomereiter'
p78
S'lomereiter/sambamba'
p79
tp80
a(S'GtkD'
p81
S'gtkd-developers'
p82
S'gtkd-developers/GtkD'
p83
tp84
a(S'visuald'
p85
S'D-Programming-Language'
p86
S'D-Programming-Language/visuald'
p87
tp88
a(S'LuaD'
p89
S'JakobOvrum'
p90
S'JakobOvrum/LuaD'
p91
tp92
a(S'D-templates-tutorial'
p93
S'PhilippeSigaud'
p94
S'PhilippeSigaud/D-templates-tutorial'
p95
tp96
a(S'dtrace-cloud-tools'
p97
S'brendangregg'
p98
S'brendangregg/dtrace-cloud-tools'
p99
tp100
a(S'mysql-native'
p101
S'mysql-d'
p102
S'mysql-d/mysql-native'
p103
tp104
a(S'dmd'
p105
S'D-Programming-Language'
p106
S'D-Programming-Language/dmd'
p107
tp108
a(S'vibe.d'
p109
S'rejectedsoftware'
p110
S'rejectedsoftware/vibe.d'
p111
tp112
a(S'phobos'
p113
S'D-Programming-Language'
p114
S'D-Programming-Language/phobos'
p115
tp116
a(S'PhotoProcessing'
p117
S'lightbox'
p118
S'lightbox/PhotoProcessing'
p119
tp120
a(S'warp'
p121
S'facebook'
p122
S'facebook/warp'
p123
tp124
a(S'druntime'
p125
S'D-Programming-Language'
p126
S'D-Programming-Language/druntime'
p127
tp128
a(S'Dash'
p129
S'Circular-Studios'
p130
S'Circular-Studios/Dash'
p131
tp132
a(S'dub'
p133
S'D-Programming-Language'
p134
S'D-Programming-Language/dub'
p135
tp136
a(S'xomb'
p137
S'xomboverlord'
p138
S'xomboverlord/xomb'
p139
tp140
a(S'GDC'
p141
S'D-Programming-GDC'
p142
S'D-Programming-GDC/GDC'
p143
tp144
a(S'arsd'
p145
S'adamdruppe'
p146
S'adamdruppe/arsd'
p147
tp148
a(S'RABCDAsm'
p149
S'CyberShadow'
p150
S'CyberShadow/RABCDAsm'
p151
tp152
a(S'Derelict3'
p153
S'aldacron'
p154
S'aldacron/Derelict3'
p155
tp156
a(S'Pegged'
p157
S'PhilippeSigaud'
p158
S'PhilippeSigaud/Pegged'
p159
tp160
a(S'DFeed'
p161
S'CyberShadow'
p162
S'CyberShadow/DFeed'
p163
tp164
a(S'dlangui'
p165
S'buggins'
p166
S'buggins/dlangui'
p167
tp168
a(S'DCD'
p169
S'Hackerpilot'
p170
S'Hackerpilot/DCD'
p171
tp172
a(S'EasyRSS'
p173
S'davidsun'
p174
S'davidsun/EasyRSS'
p175
tp176
a(S'sambamba'
p177
S'lomereiter'
p178
S'lomereiter/sambamba'
p179
tp180
a(S'GtkD'
p181
S'gtkd-developers'
p182
S'gtkd-developers/GtkD'
p183
tp184
a(S'visuald'
p185
S'D-Programming-Language'
p186
S'D-Programming-Language/visuald'
p187
tp188
a(S'LuaD'
p189
S'JakobOvrum'
p190
S'JakobOvrum/LuaD'
p191
tp192
a(S'D-templates-tutorial'
p193
S'PhilippeSigaud'
p194
S'PhilippeSigaud/D-templates-tutorial'
p195
tp196
a(S'SDC'
p197
S'SDC-Developers'
p198
S'SDC-Developers/SDC'
p199
tp200
a(S'dmd'
p201
S'D-Programming-Language'
p202
S'D-Programming-Language/dmd'
p203
tp204
a(S'vibe.d'
p205
S'rejectedsoftware'
p206
S'rejectedsoftware/vibe.d'
p207
tp208
a(S'phobos'
p209
S'D-Programming-Language'
p210
S'D-Programming-Language/phobos'
p211
tp212
a(S'druntime'
p213
S'D-Programming-Language'
p214
S'D-Programming-Language/druntime'
p215
tp216
a(S'arsd'
p217
S'adamdruppe'
p218
S'adamdruppe/arsd'
p219
tp220
a(S'Trinix'
p221
S'Bloodmanovski'
p222
S'Bloodmanovski/Trinix'
p223
tp224
a(S'Dash'
p225
S'Circular-Studios'
p226
S'Circular-Studios/Dash'
p227
tp228
a(S'DCD'
p229
S'Hackerpilot'
p230
S'Hackerpilot/DCD'
p231
tp232
a(S'dub'
p233
S'D-Programming-Language'
p234
S'D-Programming-Language/dub'
p235
tp236
a(S'tools'
p237
S'D-Programming-Language'
p238
S'D-Programming-Language/tools'
p239
tp240
a(S'mysql-native'
p241
S'mysql-d'
p242
S'mysql-d/mysql-native'
p243
tp244
a(S'd2sqlite3'
p245
S'biozic'
p246
S'biozic/d2sqlite3'
p247
tp248
a(S'Dirk'
p249
S'JakobOvrum'
p250
S'JakobOvrum/Dirk'
p251
tp252
a(S'PhotoProcessing'
p253
S'lightbox'
p254
S'lightbox/PhotoProcessing'
p255
tp256
a(S'warp'
p257
S'facebook'
p258
S'facebook/warp'
p259
tp260
a(S'xomb'
p261
S'xomboverlord'
p262
S'xomboverlord/xomb'
p263
tp264
a(S'GDC'
p265
S'D-Programming-GDC'
p266
S'D-Programming-GDC/GDC'
p267
tp268
a(S'RABCDAsm'
p269
S'CyberShadow'
p270
S'CyberShadow/RABCDAsm'
p271
tp272
a(S'Derelict3'
p273
S'aldacron'
p274
S'aldacron/Derelict3'
p275
tp276
a(S'Pegged'
p277
S'PhilippeSigaud'
p278
S'PhilippeSigaud/Pegged'
p279
tp280
a(S'DFeed'
p281
S'CyberShadow'
p282
S'CyberShadow/DFeed'
p283
tp284
a(S'dlangui'
p285
S'buggins'
p286
S'buggins/dlangui'
p287
tp288
a(S'EasyRSS'
p289
S'davidsun'
p290
S'davidsun/EasyRSS'
p291
tp292
a(S'sambamba'
p293
S'lomereiter'
p294
S'lomereiter/sambamba'
p295
tp296
a(S'GtkD'
p297
S'gtkd-developers'
p298
S'gtkd-developers/GtkD'
p299
tp300
a.