(lp0
(S'dev_compiler'
p1
S'dart-lang'
p2
S'dart-lang/dev_compiler'
p3
tp4
a(S'chrome.dart'
p5
S'dart-gde'
p6
S'dart-gde/chrome.dart'
p7
tp8
a(S'chromedeveditor'
p9
S'GoogleChrome'
p10
S'GoogleChrome/chromedeveditor'
p11
tp12
a(S'angular.dart'
p13
S'angular'
p14
S'angular/angular.dart'
p15
tp16
a(S'StageXL'
p17
S'bp74'
p18
S'bp74/StageXL'
p19
tp20
a(S'sdk'
p21
S'dart-lang'
p22
S'dart-lang/sdk'
p23
tp24
a(S'start'
p25
S'lvivski'
p26
S'lvivski/start'
p27
tp28
a(S'hauberk'
p29
S'munificent'
p30
S'munificent/hauberk'
p31
tp32
a(S'dark'
p33
S'xNotch'
p34
S'xNotch/dark'
p35
tp36
a(S'dart-samples'
p37
S'dart-lang'
p38
S'dart-lang/dart-samples'
p39
tp40
a(S'three.dart'
p41
S'threeDart'
p42
S'threeDart/three.dart'
p43
tp44
a(S'medusa'
p45
S'rahul080327'
p46
S'rahul080327/medusa'
p47
tp48
a(S'angular.dart.tutorial'
p49
S'angular'
p50
S'angular/angular.dart.tutorial'
p51
tp52
a(S'bleeding_edge-DEPRECATED-USE-SDK-INSTEAD'
p53
S'dart-lang'
p54
S'dart-lang/bleeding_edge-DEPRECATED-USE-SDK-INSTEAD'
p55
tp56
a(S'redstone'
p57
S'redstone-dart'
p58
S'redstone-dart/redstone'
p59
tp60
a(S'ui'
p61
S'rikulo'
p62
S'rikulo/ui'
p63
tp64
a(S'fletch'
p65
S'dart-lang'
p66
S'dart-lang/fletch'
p67
tp68
a(S'github-issue-mover'
p69
S'google'
p70
S'google/github-issue-mover'
p71
tp72
a(S'mongo_dart'
p73
S'vadimtsushko'
p74
S'vadimtsushko/mongo_dart'
p75
tp76
a(S'js-interop-experimental'
p77
S'dart-lang'
p78
S'dart-lang/js-interop-experimental'
p79
tp80
a(S'stream'
p81
S'rikulo'
p82
S'rikulo/stream'
p83
tp84
a(S'quiver-dart'
p85
S'google'
p86
S'google/quiver-dart'
p87
tp88
a(S'dart-webgl'
p89
S'jtmcdole'
p90
S'jtmcdole/dart-webgl'
p91
tp92
a(S'route'
p93
S'justinfagnani'
p94
S'justinfagnani/route'
p95
tp96
a(S'dockerfiles'
p97
S'Runnable'
p98
S'Runnable/dockerfiles'
p99
tp100
a(S'sdk'
p101
S'dart-lang'
p102
S'dart-lang/sdk'
p103
tp104
a(S'quiver-dart'
p105
S'google'
p106
S'google/quiver-dart'
p107
tp108
a(S'stagehand'
p109
S'google'
p110
S'google/stagehand'
p111
tp112
a(S'chrome.dart'
p113
S'dart-gde'
p114
S'dart-gde/chrome.dart'
p115
tp116
a(S'chromedeveditor'
p117
S'GoogleChrome'
p118
S'GoogleChrome/chromedeveditor'
p119
tp120
a(S'angular.dart'
p121
S'angular'
p122
S'angular/angular.dart'
p123
tp124
a(S'StageXL'
p125
S'bp74'
p126
S'bp74/StageXL'
p127
tp128
a(S'start'
p129
S'lvivski'
p130
S'lvivski/start'
p131
tp132
a(S'hauberk'
p133
S'munificent'
p134
S'munificent/hauberk'
p135
tp136
a(S'dark'
p137
S'xNotch'
p138
S'xNotch/dark'
p139
tp140
a(S'dart-samples'
p141
S'dart-lang'
p142
S'dart-lang/dart-samples'
p143
tp144
a(S'three.dart'
p145
S'threeDart'
p146
S'threeDart/three.dart'
p147
tp148
a(S'medusa'
p149
S'rahul080327'
p150
S'rahul080327/medusa'
p151
tp152
a(S'angular.dart.tutorial'
p153
S'angular'
p154
S'angular/angular.dart.tutorial'
p155
tp156
a(S'bleeding_edge-DEPRECATED-USE-SDK-INSTEAD'
p157
S'dart-lang'
p158
S'dart-lang/bleeding_edge-DEPRECATED-USE-SDK-INSTEAD'
p159
tp160
a(S'redstone'
p161
S'redstone-dart'
p162
S'redstone-dart/redstone'
p163
tp164
a(S'ui'
p165
S'rikulo'
p166
S'rikulo/ui'
p167
tp168
a(S'fletch'
p169
S'dart-lang'
p170
S'dart-lang/fletch'
p171
tp172
a(S'github-issue-mover'
p173
S'google'
p174
S'google/github-issue-mover'
p175
tp176
a(S'mongo_dart'
p177
S'vadimtsushko'
p178
S'vadimtsushko/mongo_dart'
p179
tp180
a(S'js-interop-experimental'
p181
S'dart-lang'
p182
S'dart-lang/js-interop-experimental'
p183
tp184
a(S'stream'
p185
S'rikulo'
p186
S'rikulo/stream'
p187
tp188
a(S'dart-webgl'
p189
S'jtmcdole'
p190
S'jtmcdole/dart-webgl'
p191
tp192
a(S'route'
p193
S'justinfagnani'
p194
S'justinfagnani/route'
p195
tp196
a(S'dockerfiles'
p197
S'Runnable'
p198
S'Runnable/dockerfiles'
p199
tp200
a(S'sdk'
p201
S'dart-lang'
p202
S'dart-lang/sdk'
p203
tp204
a(S'polymer-dart'
p205
S'dart-lang'
p206
S'dart-lang/polymer-dart'
p207
tp208
a(S'hauberk'
p209
S'munificent'
p210
S'munificent/hauberk'
p211
tp212
a(S'fletch'
p213
S'dart-lang'
p214
S'dart-lang/fletch'
p215
tp216
a(S'angular.dart'
p217
S'angular'
p218
S'angular/angular.dart'
p219
tp220
a(S'framework'
p221
S'dart-bridge'
p222
S'dart-bridge/framework'
p223
tp224
a(S'dart-pad'
p225
S'dart-lang'
p226
S'dart-lang/dart-pad'
p227
tp228
a(S'di.dart'
p229
S'angular'
p230
S'angular/di.dart'
p231
tp232
a(S'chrome.dart'
p233
S'dart-gde'
p234
S'dart-gde/chrome.dart'
p235
tp236
a(S'dart-carte-du-jour'
p237
S'financeCoding'
p238
S'financeCoding/dart-carte-du-jour'
p239
tp240
a(S'chromedeveditor'
p241
S'GoogleChrome'
p242
S'GoogleChrome/chromedeveditor'
p243
tp244
a(S'StageXL'
p245
S'bp74'
p246
S'bp74/StageXL'
p247
tp248
a(S'start'
p249
S'lvivski'
p250
S'lvivski/start'
p251
tp252
a(S'dark'
p253
S'xNotch'
p254
S'xNotch/dark'
p255
tp256
a(S'dart-samples'
p257
S'dart-lang'
p258
S'dart-lang/dart-samples'
p259
tp260
a(S'three.dart'
p261
S'threeDart'
p262
S'threeDart/three.dart'
p263
tp264
a(S'medusa'
p265
S'rahul080327'
p266
S'rahul080327/medusa'
p267
tp268
a(S'angular.dart.tutorial'
p269
S'angular'
p270
S'angular/angular.dart.tutorial'
p271
tp272
a(S'bleeding_edge-DEPRECATED-USE-SDK-INSTEAD'
p273
S'dart-lang'
p274
S'dart-lang/bleeding_edge-DEPRECATED-USE-SDK-INSTEAD'
p275
tp276
a(S'redstone'
p277
S'redstone-dart'
p278
S'redstone-dart/redstone'
p279
tp280
a(S'ui'
p281
S'rikulo'
p282
S'rikulo/ui'
p283
tp284
a(S'github-issue-mover'
p285
S'google'
p286
S'google/github-issue-mover'
p287
tp288
a(S'mongo_dart'
p289
S'vadimtsushko'
p290
S'vadimtsushko/mongo_dart'
p291
tp292
a(S'js-interop-experimental'
p293
S'dart-lang'
p294
S'dart-lang/js-interop-experimental'
p295
tp296
a(S'stream'
p297
S'rikulo'
p298
S'rikulo/stream'
p299
tp300
a.