(lp0
(S'openwrt-yun'
p1
S'arduino'
p2
S'arduino/openwrt-yun'
p3
tp4
a(S'openwrt-packages-yun'
p5
S'arduino'
p6
S'arduino/openwrt-packages-yun'
p7
tp8
a(S'musl-pkgsrc-patches'
p9
S'GregorR'
p10
S'GregorR/musl-pkgsrc-patches'
p11
tp12
a(S'xorg-lib-libX11'
p13
S'pld-linux'
p14
S'pld-linux/xorg-lib-libX11'
p15
tp16
a(S'raspberrypi-openwrt'
p17
S'flumpy33'
p18
S'flumpy33/raspberrypi-openwrt'
p19
tp20
a(S'djb.davmail'
p21
S'davidjb'
p22
S'davidjb/djb.davmail'
p23
tp24
a(S'broadcom-wl-dkms'
p25
S'twelveeighty'
p26
S'twelveeighty/broadcom-wl-dkms'
p27
tp28
a(S'libmpeg2'
p29
S'pld-linux'
p30
S'pld-linux/libmpeg2'
p31
tp32
a(S'gfw-msys1-packages'
p33
S'sschuberth'
p34
S'sschuberth/gfw-msys1-packages'
p35
tp36
a(S'gnome-sdk-images'
p37
S'alexlarsson'
p38
S'alexlarsson/gnome-sdk-images'
p39
tp40
a(S'cross-boss'
p41
S'chewi'
p42
S'chewi/cross-boss'
p43
tp44
a(S'hc_openwrt_packages'
p45
S'cj1324'
p46
S'cj1324/hc_openwrt_packages'
p47
tp48
a(S'b2g-mips'
p49
S'soapdog'
p50
S'soapdog/b2g-mips'
p51
tp52
a(S'automake'
p53
S'freddix'
p54
S'freddix/automake'
p55
tp56
a(S'ports'
p57
S'dliessi'
p58
S'dliessi/ports'
p59
tp60
a(S'libparserutils'
p61
S'pld-linux'
p62
S'pld-linux/libparserutils'
p63
tp64
a(S'libsidplay2'
p65
S'pld-linux'
p66
S'pld-linux/libsidplay2'
p67
tp68
a(S'ArchLinux-x32'
p69
S'fantix'
p70
S'fantix/ArchLinux-x32'
p71
tp72
a(S'libgtkhtml'
p73
S'pld-linux'
p74
S'pld-linux/libgtkhtml'
p75
tp76
a(S'patch'
p77
S'maaru'
p78
S'maaru/patch'
p79
tp80
a(S'qubes-desktop-linux-awesome'
p81
S'woju'
p82
S'woju/qubes-desktop-linux-awesome'
p83
tp84
a(S'webmachine-wrapper'
p85
S'rabbitmq'
p86
S'rabbitmq/webmachine-wrapper'
p87
tp88
a(S'dwm-status2d'
p89
S'sipi'
p90
S'sipi/dwm-status2d'
p91
tp92
a(S'meta-bananapi'
p93
S'xleng'
p94
S'xleng/meta-bananapi'
p95
tp96
a(S'bundesit-overlay'
p97
S'BundesIT'
p98
S'BundesIT/bundesit-overlay'
p99
tp100
a(S'openwrt-yun'
p101
S'arduino'
p102
S'arduino/openwrt-yun'
p103
tp104
a(S'openwrt-packages-yun'
p105
S'arduino'
p106
S'arduino/openwrt-packages-yun'
p107
tp108
a(S'musl-pkgsrc-patches'
p109
S'GregorR'
p110
S'GregorR/musl-pkgsrc-patches'
p111
tp112
a(S'xorg-lib-libX11'
p113
S'pld-linux'
p114
S'pld-linux/xorg-lib-libX11'
p115
tp116
a(S'raspberrypi-openwrt'
p117
S'flumpy33'
p118
S'flumpy33/raspberrypi-openwrt'
p119
tp120
a(S'djb.davmail'
p121
S'davidjb'
p122
S'davidjb/djb.davmail'
p123
tp124
a(S'broadcom-wl-dkms'
p125
S'twelveeighty'
p126
S'twelveeighty/broadcom-wl-dkms'
p127
tp128
a(S'libmpeg2'
p129
S'pld-linux'
p130
S'pld-linux/libmpeg2'
p131
tp132
a(S'gfw-msys1-packages'
p133
S'sschuberth'
p134
S'sschuberth/gfw-msys1-packages'
p135
tp136
a(S'gnome-sdk-images'
p137
S'alexlarsson'
p138
S'alexlarsson/gnome-sdk-images'
p139
tp140
a(S'cross-boss'
p141
S'chewi'
p142
S'chewi/cross-boss'
p143
tp144
a(S'hc_openwrt_packages'
p145
S'cj1324'
p146
S'cj1324/hc_openwrt_packages'
p147
tp148
a(S'b2g-mips'
p149
S'soapdog'
p150
S'soapdog/b2g-mips'
p151
tp152
a(S'automake'
p153
S'freddix'
p154
S'freddix/automake'
p155
tp156
a(S'ports'
p157
S'dliessi'
p158
S'dliessi/ports'
p159
tp160
a(S'libparserutils'
p161
S'pld-linux'
p162
S'pld-linux/libparserutils'
p163
tp164
a(S'libsidplay2'
p165
S'pld-linux'
p166
S'pld-linux/libsidplay2'
p167
tp168
a(S'ArchLinux-x32'
p169
S'fantix'
p170
S'fantix/ArchLinux-x32'
p171
tp172
a(S'libgtkhtml'
p173
S'pld-linux'
p174
S'pld-linux/libgtkhtml'
p175
tp176
a(S'patch'
p177
S'maaru'
p178
S'maaru/patch'
p179
tp180
a(S'qubes-desktop-linux-awesome'
p181
S'woju'
p182
S'woju/qubes-desktop-linux-awesome'
p183
tp184
a(S'webmachine-wrapper'
p185
S'rabbitmq'
p186
S'rabbitmq/webmachine-wrapper'
p187
tp188
a(S'dwm-status2d'
p189
S'sipi'
p190
S'sipi/dwm-status2d'
p191
tp192
a(S'meta-bananapi'
p193
S'xleng'
p194
S'xleng/meta-bananapi'
p195
tp196
a(S'bundesit-overlay'
p197
S'BundesIT'
p198
S'BundesIT/bundesit-overlay'
p199
tp200
a(S'openwrt-yun'
p201
S'arduino'
p202
S'arduino/openwrt-yun'
p203
tp204
a(S'openwrt-packages-yun'
p205
S'arduino'
p206
S'arduino/openwrt-packages-yun'
p207
tp208
a(S'musl-pkgsrc-patches'
p209
S'GregorR'
p210
S'GregorR/musl-pkgsrc-patches'
p211
tp212
a(S'xorg-lib-libX11'
p213
S'pld-linux'
p214
S'pld-linux/xorg-lib-libX11'
p215
tp216
a(S'raspberrypi-openwrt'
p217
S'flumpy33'
p218
S'flumpy33/raspberrypi-openwrt'
p219
tp220
a(S'djb.davmail'
p221
S'davidjb'
p222
S'davidjb/djb.davmail'
p223
tp224
a(S'broadcom-wl-dkms'
p225
S'twelveeighty'
p226
S'twelveeighty/broadcom-wl-dkms'
p227
tp228
a(S'libmpeg2'
p229
S'pld-linux'
p230
S'pld-linux/libmpeg2'
p231
tp232
a(S'gfw-msys1-packages'
p233
S'sschuberth'
p234
S'sschuberth/gfw-msys1-packages'
p235
tp236
a(S'gnome-sdk-images'
p237
S'alexlarsson'
p238
S'alexlarsson/gnome-sdk-images'
p239
tp240
a(S'cross-boss'
p241
S'chewi'
p242
S'chewi/cross-boss'
p243
tp244
a(S'hc_openwrt_packages'
p245
S'cj1324'
p246
S'cj1324/hc_openwrt_packages'
p247
tp248
a(S'b2g-mips'
p249
S'soapdog'
p250
S'soapdog/b2g-mips'
p251
tp252
a(S'automake'
p253
S'freddix'
p254
S'freddix/automake'
p255
tp256
a(S'ports'
p257
S'dliessi'
p258
S'dliessi/ports'
p259
tp260
a(S'libparserutils'
p261
S'pld-linux'
p262
S'pld-linux/libparserutils'
p263
tp264
a(S'libsidplay2'
p265
S'pld-linux'
p266
S'pld-linux/libsidplay2'
p267
tp268
a(S'ArchLinux-x32'
p269
S'fantix'
p270
S'fantix/ArchLinux-x32'
p271
tp272
a(S'libgtkhtml'
p273
S'pld-linux'
p274
S'pld-linux/libgtkhtml'
p275
tp276
a(S'patch'
p277
S'maaru'
p278
S'maaru/patch'
p279
tp280
a(S'qubes-desktop-linux-awesome'
p281
S'woju'
p282
S'woju/qubes-desktop-linux-awesome'
p283
tp284
a(S'webmachine-wrapper'
p285
S'rabbitmq'
p286
S'rabbitmq/webmachine-wrapper'
p287
tp288
a(S'dwm-status2d'
p289
S'sipi'
p290
S'sipi/dwm-status2d'
p291
tp292
a(S'meta-bananapi'
p293
S'xleng'
p294
S'xleng/meta-bananapi'
p295
tp296
a(S'bundesit-overlay'
p297
S'BundesIT'
p298
S'BundesIT/bundesit-overlay'
p299
tp300
a.