(lp0
(S'learngit'
p1
S'michaelliao'
p2
S'michaelliao/learngit'
p3
tp4
a(S'wikiteam'
p5
S'WikiTeam'
p6
S'WikiTeam/wikiteam'
p7
tp8
a(S'ud120-projects'
p9
S'udacity'
p10
S'udacity/ud120-projects'
p11
tp12
a(S'VICAR'
p13
S'nasa'
p14
S'nasa/VICAR'
p15
tp16
a(S'searchcmd'
p17
S'jimmyppi'
p18
S'jimmyppi/searchcmd'
p19
tp20
a(S'ansible-role-bind'
p21
S'resmo'
p22
S'resmo/ansible-role-bind'
p23
tp24
a(S'ruby_tika_app'
p25
S'mrcsparker'
p26
S'mrcsparker/ruby_tika_app'
p27
tp28
a(S'whois-parser-go'
p29
S'likexian'
p30
S'likexian/whois-parser-go'
p31
tp32
a(S'robots'
p33
S'meanpath'
p34
S'meanpath/robots'
p35
tp36
a(S'nginx-configs'
p37
S'trevorparker'
p38
S'trevorparker/nginx-configs'
p39
tp40
a(S'gone-phishing'
p41
S'eth-0'
p42
S'eth-0/gone-phishing'
p43
tp44
a(S'Ubuntu-Nginx-PHP5-fpm-Varnish'
p45
S'rkruk'
p46
S'rkruk/Ubuntu-Nginx-PHP5-fpm-Varnish'
p47
tp48
a(S'metatags'
p49
S'nicholasess'
p50
S'nicholasess/metatags'
p51
tp52
a(S'FREALIGN'
p53
S'leschzinerlab'
p54
S'leschzinerlab/FREALIGN'
p55
tp56
a(S'autoconfig.mozillamessaging.com'
p57
S'ConradIrwin'
p58
S'ConradIrwin/autoconfig.mozillamessaging.com'
p59
tp60
a(S'sif'
p61
S'IAmEddieDean'
p62
S'IAmEddieDean/sif'
p63
tp64
a(S'VICAR'
p65
S'xiangchao027'
p66
S'xiangchao027/VICAR'
p67
tp68
a(S'learngit-1'
p69
S'Oterman1314'
p70
S'Oterman1314/learngit-1'
p71
tp72
a(S'Mini_Project'
p73
S'Farheen2302'
p74
S'Farheen2302/Mini_Project'
p75
tp76
a(S'ud120-projects'
p77
S'orzzzl'
p78
S'orzzzl/ud120-projects'
p79
tp80
a(S'bits'
p81
S'keeganquinn'
p82
S'keeganquinn/bits'
p83
tp84
a(S'talk.jekyllrb.com-docker-configs'
p85
S'jekyll'
p86
S'jekyll/talk.jekyllrb.com-docker-configs'
p87
tp88
a(S'mono-server-setup'
p89
S'shturm'
p90
S'shturm/mono-server-setup'
p91
tp92
a(S'powered-by-flask'
p93
S'liova99'
p94
S'liova99/powered-by-flask'
p95
tp96
a(S'heartbleed_nuwave_security_logs'
p97
S'johnfkraus'
p98
S'johnfkraus/heartbleed_nuwave_security_logs'
p99
tp100
a(S'ud120-projects'
p101
S'udacity'
p102
S'udacity/ud120-projects'
p103
tp104
a(S'wikiteam'
p105
S'WikiTeam'
p106
S'WikiTeam/wikiteam'
p107
tp108
a(S'VICAR'
p109
S'nasa'
p110
S'nasa/VICAR'
p111
tp112
a(S'learngit'
p113
S'michaelliao'
p114
S'michaelliao/learngit'
p115
tp116
a(S'searchcmd'
p117
S'jimmyppi'
p118
S'jimmyppi/searchcmd'
p119
tp120
a(S'ansible-role-bind'
p121
S'resmo'
p122
S'resmo/ansible-role-bind'
p123
tp124
a(S'whois-parser-go'
p125
S'likexian'
p126
S'likexian/whois-parser-go'
p127
tp128
a(S'ruby_tika_app'
p129
S'mrcsparker'
p130
S'mrcsparker/ruby_tika_app'
p131
tp132
a(S'robots'
p133
S'meanpath'
p134
S'meanpath/robots'
p135
tp136
a(S'nginx-configs'
p137
S'trevorparker'
p138
S'trevorparker/nginx-configs'
p139
tp140
a(S'gone-phishing'
p141
S'eth-0'
p142
S'eth-0/gone-phishing'
p143
tp144
a(S'Ubuntu-Nginx-PHP5-fpm-Varnish'
p145
S'rkruk'
p146
S'rkruk/Ubuntu-Nginx-PHP5-fpm-Varnish'
p147
tp148
a(S'metatags'
p149
S'nicholasess'
p150
S'nicholasess/metatags'
p151
tp152
a(S'autoconfig.mozillamessaging.com'
p153
S'ConradIrwin'
p154
S'ConradIrwin/autoconfig.mozillamessaging.com'
p155
tp156
a(S'VICAR'
p157
S'xiangchao027'
p158
S'xiangchao027/VICAR'
p159
tp160
a(S'FREALIGN'
p161
S'leschzinerlab'
p162
S'leschzinerlab/FREALIGN'
p163
tp164
a(S'sif'
p165
S'IAmEddieDean'
p166
S'IAmEddieDean/sif'
p167
tp168
a(S'bits'
p169
S'keeganquinn'
p170
S'keeganquinn/bits'
p171
tp172
a(S'GBSAgile01'
p173
S'mvmtori'
p174
S'mvmtori/GBSAgile01'
p175
tp176
a(S'Mini_Project'
p177
S'Farheen2302'
p178
S'Farheen2302/Mini_Project'
p179
tp180
a(S'learngit-1'
p181
S'Oterman1314'
p182
S'Oterman1314/learngit-1'
p183
tp184
a(S'mrconfig'
p185
S'mhameed'
p186
S'mhameed/mrconfig'
p187
tp188
a(S'ud120-projects'
p189
S'orzzzl'
p190
S'orzzzl/ud120-projects'
p191
tp192
a(S'dns-master'
p193
S'esgob'
p194
S'esgob/dns-master'
p195
tp196
a(S'pythonanywhere_task_helpers'
p197
S'pythonanywhere'
p198
S'pythonanywhere/pythonanywhere_task_helpers'
p199
tp200
a(S'learngit'
p201
S'michaelliao'
p202
S'michaelliao/learngit'
p203
tp204
a(S'ud120-projects'
p205
S'udacity'
p206
S'udacity/ud120-projects'
p207
tp208
a(S'VICAR'
p209
S'nasa'
p210
S'nasa/VICAR'
p211
tp212
a(S'wikiteam'
p213
S'WikiTeam'
p214
S'WikiTeam/wikiteam'
p215
tp216
a(S'searchcmd'
p217
S'jimmyppi'
p218
S'jimmyppi/searchcmd'
p219
tp220
a(S'ansible-role-bind'
p221
S'resmo'
p222
S'resmo/ansible-role-bind'
p223
tp224
a(S'whois-parser-go'
p225
S'likexian'
p226
S'likexian/whois-parser-go'
p227
tp228
a(S'ruby_tika_app'
p229
S'mrcsparker'
p230
S'mrcsparker/ruby_tika_app'
p231
tp232
a(S'robots'
p233
S'meanpath'
p234
S'meanpath/robots'
p235
tp236
a(S'nginx-configs'
p237
S'trevorparker'
p238
S'trevorparker/nginx-configs'
p239
tp240
a(S'gone-phishing'
p241
S'eth-0'
p242
S'eth-0/gone-phishing'
p243
tp244
a(S'Ubuntu-Nginx-PHP5-fpm-Varnish'
p245
S'rkruk'
p246
S'rkruk/Ubuntu-Nginx-PHP5-fpm-Varnish'
p247
tp248
a(S'metatags'
p249
S'nicholasess'
p250
S'nicholasess/metatags'
p251
tp252
a(S'FREALIGN'
p253
S'leschzinerlab'
p254
S'leschzinerlab/FREALIGN'
p255
tp256
a(S'VICAR'
p257
S'xiangchao027'
p258
S'xiangchao027/VICAR'
p259
tp260
a(S'sif'
p261
S'IAmEddieDean'
p262
S'IAmEddieDean/sif'
p263
tp264
a(S'autoconfig.mozillamessaging.com'
p265
S'ConradIrwin'
p266
S'ConradIrwin/autoconfig.mozillamessaging.com'
p267
tp268
a(S'dns-master'
p269
S'esgob'
p270
S'esgob/dns-master'
p271
tp272
a(S'Mini_Project'
p273
S'Farheen2302'
p274
S'Farheen2302/Mini_Project'
p275
tp276
a(S'talk.jekyllrb.com-docker-configs'
p277
S'jekyll'
p278
S'jekyll/talk.jekyllrb.com-docker-configs'
p279
tp280
a(S'mono-server-setup'
p281
S'shturm'
p282
S'shturm/mono-server-setup'
p283
tp284
a(S'GBSAgile01'
p285
S'mvmtori'
p286
S'mvmtori/GBSAgile01'
p287
tp288
a(S'heartbleed_nuwave_security_logs'
p289
S'johnfkraus'
p290
S'johnfkraus/heartbleed_nuwave_security_logs'
p291
tp292
a(S'learngit-1'
p293
S'Oterman1314'
p294
S'Oterman1314/learngit-1'
p295
tp296
a(S'pythonanywhere_task_helpers'
p297
S'pythonanywhere'
p298
S'pythonanywhere/pythonanywhere_task_helpers'
p299
tp300
a.