(lp0
(S'-tg-station'
p1
S'tgstation'
p2
S'tgstation/-tg-station'
p3
tp4
a(S'Paradise'
p5
S'ParadiseSS13'
p6
S'ParadiseSS13/Paradise'
p7
tp8
a(S'Baystation12'
p9
S'Baystation12'
p10
S'Baystation12/Baystation12'
p11
tp12
a(S'vgstation13'
p13
S'd3athrow'
p14
S'd3athrow/vgstation13'
p15
tp16
a(S'NTstation13'
p17
S'NTStation'
p18
S'NTStation/NTstation13'
p19
tp20
a(S'EuropaStation'
p21
S'Yonaguni'
p22
S'Yonaguni/EuropaStation'
p23
tp24
a(S'OldParadise'
p25
S'ZomgPonies'
p26
S'ZomgPonies/OldParadise'
p27
tp28
a(S'ApolloStation'
p29
S'Apollo-Community'
p30
S'Apollo-Community/ApolloStation'
p31
tp32
a(S'daedalus'
p33
S'ss13-daedalus'
p34
S'ss13-daedalus/daedalus'
p35
tp36
a(S'Aurora'
p37
S'Aurorastation'
p38
S'Aurorastation/Aurora'
p39
tp40
a(S'NSS-Phoenix'
p41
S'jamiedigweed'
p42
S'jamiedigweed/NSS-Phoenix'
p43
tp44
a(S'black_old'
p45
S'SS13'
p46
S'SS13/black_old'
p47
tp48
a(S'SS13'
p49
S'LLA-Gaming'
p50
S'LLA-Gaming/SS13'
p51
tp52
a(S'UristMcStation'
p53
S'UristMcStation'
p54
S'UristMcStation/UristMcStation'
p55
tp56
a(S'UMcS'
p57
S'UristMcStation'
p58
S'UristMcStation/UMcS'
p59
tp60
a(S'ProcessScheduler'
p61
S'goonstation'
p62
S'goonstation/ProcessScheduler'
p63
tp64
a(S'HippieStation13'
p65
S'HippieStationCode'
p66
S'HippieStationCode/HippieStation13'
p67
tp68
a(S'PeARS'
p69
S'minimalparts'
p70
S'minimalparts/PeARS'
p71
tp72
a(S'HazordhuII'
p73
S'F0lak'
p74
S'F0lak/HazordhuII'
p75
tp76
a(S'dom4inspector'
p77
S'larzm42'
p78
S'larzm42/dom4inspector'
p79
tp80
a(S'ColonialMarines'
p81
S'apophis775'
p82
S'apophis775/ColonialMarines'
p83
tp84
a(S'SOVIET-STATION'
p85
S'FighterX'
p86
S'FighterX/SOVIET-STATION'
p87
tp88
a(S'TWC'
p89
S'DuncanFairley'
p90
S'DuncanFairley/TWC'
p91
tp92
a(S'Hippie-Station-13'
p93
S'Lawligagger'
p94
S'Lawligagger/Hippie-Station-13'
p95
tp96
a(S'-tg-station'
p97
S'Zaers'
p98
S'Zaers/-tg-station'
p99
tp100
a(S'Paradise'
p101
S'ParadiseSS13'
p102
S'ParadiseSS13/Paradise'
p103
tp104
a(S'Baystation12'
p105
S'Baystation12'
p106
S'Baystation12/Baystation12'
p107
tp108
a(S'-tg-station'
p109
S'tgstation'
p110
S'tgstation/-tg-station'
p111
tp112
a(S'vgstation13'
p113
S'd3athrow'
p114
S'd3athrow/vgstation13'
p115
tp116
a(S'NTstation13'
p117
S'NTStation'
p118
S'NTStation/NTstation13'
p119
tp120
a(S'EuropaStation'
p121
S'Yonaguni'
p122
S'Yonaguni/EuropaStation'
p123
tp124
a(S'OldParadise'
p125
S'ZomgPonies'
p126
S'ZomgPonies/OldParadise'
p127
tp128
a(S'ApolloStation'
p129
S'Apollo-Community'
p130
S'Apollo-Community/ApolloStation'
p131
tp132
a(S'daedalus'
p133
S'ss13-daedalus'
p134
S'ss13-daedalus/daedalus'
p135
tp136
a(S'Aurora'
p137
S'Aurorastation'
p138
S'Aurorastation/Aurora'
p139
tp140
a(S'NSS-Phoenix'
p141
S'jamiedigweed'
p142
S'jamiedigweed/NSS-Phoenix'
p143
tp144
a(S'black_old'
p145
S'SS13'
p146
S'SS13/black_old'
p147
tp148
a(S'SS13'
p149
S'LLA-Gaming'
p150
S'LLA-Gaming/SS13'
p151
tp152
a(S'UristMcStation'
p153
S'UristMcStation'
p154
S'UristMcStation/UristMcStation'
p155
tp156
a(S'UMcS'
p157
S'UristMcStation'
p158
S'UristMcStation/UMcS'
p159
tp160
a(S'ProcessScheduler'
p161
S'goonstation'
p162
S'goonstation/ProcessScheduler'
p163
tp164
a(S'HippieStation13'
p165
S'HippieStationCode'
p166
S'HippieStationCode/HippieStation13'
p167
tp168
a(S'PeARS'
p169
S'minimalparts'
p170
S'minimalparts/PeARS'
p171
tp172
a(S'HazordhuII'
p173
S'F0lak'
p174
S'F0lak/HazordhuII'
p175
tp176
a(S'dom4inspector'
p177
S'larzm42'
p178
S'larzm42/dom4inspector'
p179
tp180
a(S'ColonialMarines'
p181
S'apophis775'
p182
S'apophis775/ColonialMarines'
p183
tp184
a(S'SOVIET-STATION'
p185
S'FighterX'
p186
S'FighterX/SOVIET-STATION'
p187
tp188
a(S'TWC'
p189
S'DuncanFairley'
p190
S'DuncanFairley/TWC'
p191
tp192
a(S'ColonialMarines'
p193
S'jaggerestep'
p194
S'jaggerestep/ColonialMarines'
p195
tp196
a(S'Hippie-Station-13'
p197
S'Lawligagger'
p198
S'Lawligagger/Hippie-Station-13'
p199
tp200
a(S'Paradise'
p201
S'ParadiseSS13'
p202
S'ParadiseSS13/Paradise'
p203
tp204
a(S'-tg-station'
p205
S'tgstation'
p206
S'tgstation/-tg-station'
p207
tp208
a(S'Baystation12'
p209
S'Baystation12'
p210
S'Baystation12/Baystation12'
p211
tp212
a(S'vgstation13'
p213
S'd3athrow'
p214
S'd3athrow/vgstation13'
p215
tp216
a(S'NTstation13'
p217
S'NTStation'
p218
S'NTStation/NTstation13'
p219
tp220
a(S'EuropaStation'
p221
S'Yonaguni'
p222
S'Yonaguni/EuropaStation'
p223
tp224
a(S'OldParadise'
p225
S'ZomgPonies'
p226
S'ZomgPonies/OldParadise'
p227
tp228
a(S'ApolloStation'
p229
S'Apollo-Community'
p230
S'Apollo-Community/ApolloStation'
p231
tp232
a(S'daedalus'
p233
S'ss13-daedalus'
p234
S'ss13-daedalus/daedalus'
p235
tp236
a(S'NSS-Phoenix'
p237
S'jamiedigweed'
p238
S'jamiedigweed/NSS-Phoenix'
p239
tp240
a(S'Aurora'
p241
S'Aurorastation'
p242
S'Aurorastation/Aurora'
p243
tp244
a(S'UristMcStation'
p245
S'UristMcStation'
p246
S'UristMcStation/UristMcStation'
p247
tp248
a(S'black_old'
p249
S'SS13'
p250
S'SS13/black_old'
p251
tp252
a(S'SS13'
p253
S'LLA-Gaming'
p254
S'LLA-Gaming/SS13'
p255
tp256
a(S'ProcessScheduler'
p257
S'goonstation'
p258
S'goonstation/ProcessScheduler'
p259
tp260
a(S'UMcS'
p261
S'UristMcStation'
p262
S'UristMcStation/UMcS'
p263
tp264
a(S'HippieStation13'
p265
S'HippieStationCode'
p266
S'HippieStationCode/HippieStation13'
p267
tp268
a(S'PeARS'
p269
S'minimalparts'
p270
S'minimalparts/PeARS'
p271
tp272
a(S'ColonialMarines'
p273
S'apophis775'
p274
S'apophis775/ColonialMarines'
p275
tp276
a(S'dom4inspector'
p277
S'larzm42'
p278
S'larzm42/dom4inspector'
p279
tp280
a(S'HazordhuII'
p281
S'F0lak'
p282
S'F0lak/HazordhuII'
p283
tp284
a(S'ColonialMarines'
p285
S'jaggerestep'
p286
S'jaggerestep/ColonialMarines'
p287
tp288
a(S'SOVIET-STATION'
p289
S'FighterX'
p290
S'FighterX/SOVIET-STATION'
p291
tp292
a(S'-tg-station'
p293
S'Zaers'
p294
S'Zaers/-tg-station'
p295
tp296
a(S'Hippie-Station-13'
p297
S'Lawligagger'
p298
S'Lawligagger/Hippie-Station-13'
p299
tp300
a.