(lp0
(S'grunt-dogescript'
p1
S'dogescript'
p2
S'dogescript/grunt-dogescript'
p3
tp4
a(S'doge-toe'
p5
S'alexdantas'
p6
S'alexdantas/doge-toe'
p7
tp8
a(S'hellodoge'
p9
S'cris7ian'
p10
S'cris7ian/hellodoge'
p11
tp12
a(S'PELC'
p13
S'drsam94'
p14
S'drsam94/PELC'
p15
tp16
a(S'dogescript-loader'
p17
S'dogescript'
p18
S'dogescript/dogescript-loader'
p19
tp20
a(S'DSON'
p21
S'vpzomtrrfrt'
p22
S'vpzomtrrfrt/DSON'
p23
tp24
a(S'powder-djs'
p25
S'nucular'
p26
S'nucular/powder-djs'
p27
tp28
a(S'hello-doge'
p29
S'manlycode'
p30
S'manlycode/hello-doge'
p31
tp32
a(S'doge-toe'
p33
S'reanimus'
p34
S'reanimus/doge-toe'
p35
tp36
a(S'require-doge'
p37
S'dogescript'
p38
S'dogescript/require-doge'
p39
tp40
a(S'suchdoge'
p41
S'arirawr'
p42
S'arirawr/suchdoge'
p43
tp44
a(S'dogebuzz'
p45
S'deniseyu'
p46
S'deniseyu/dogebuzz'
p47
tp48
a(S'doge-latin'
p49
S'mguida22'
p50
S'mguida22/doge-latin'
p51
tp52
a(S'doge-adventure'
p53
S'argelius'
p54
S'argelius/doge-adventure'
p55
tp56
a(S'compiler'
p57
S'luishmelo'
p58
S'luishmelo/compiler'
p59
tp60
a(S'monster-player-plugin'
p61
S'javascript-ninjas'
p62
S'javascript-ninjas/monster-player-plugin'
p63
tp64
a(S'dogescript-ircbot'
p65
S'SquishyStrawberry'
p66
S'SquishyStrawberry/dogescript-ircbot'
p67
tp68
a(S'grunt-dogescript'
p69
S'dogescript'
p70
S'dogescript/grunt-dogescript'
p71
tp72
a(S'doge-toe'
p73
S'alexdantas'
p74
S'alexdantas/doge-toe'
p75
tp76
a(S'hellodoge'
p77
S'cris7ian'
p78
S'cris7ian/hellodoge'
p79
tp80
a(S'PELC'
p81
S'drsam94'
p82
S'drsam94/PELC'
p83
tp84
a(S'dogescript-loader'
p85
S'dogescript'
p86
S'dogescript/dogescript-loader'
p87
tp88
a(S'DSON'
p89
S'vpzomtrrfrt'
p90
S'vpzomtrrfrt/DSON'
p91
tp92
a(S'powder-djs'
p93
S'nucular'
p94
S'nucular/powder-djs'
p95
tp96
a(S'hello-doge'
p97
S'manlycode'
p98
S'manlycode/hello-doge'
p99
tp100
a(S'doge-toe'
p101
S'reanimus'
p102
S'reanimus/doge-toe'
p103
tp104
a(S'require-doge'
p105
S'dogescript'
p106
S'dogescript/require-doge'
p107
tp108
a(S'suchdoge'
p109
S'arirawr'
p110
S'arirawr/suchdoge'
p111
tp112
a(S'dogebuzz'
p113
S'deniseyu'
p114
S'deniseyu/dogebuzz'
p115
tp116
a(S'doge-latin'
p117
S'mguida22'
p118
S'mguida22/doge-latin'
p119
tp120
a(S'doge-adventure'
p121
S'argelius'
p122
S'argelius/doge-adventure'
p123
tp124
a(S'compiler'
p125
S'luishmelo'
p126
S'luishmelo/compiler'
p127
tp128
a(S'monster-player-plugin'
p129
S'javascript-ninjas'
p130
S'javascript-ninjas/monster-player-plugin'
p131
tp132
a(S'dogescript-ircbot'
p133
S'SquishyStrawberry'
p134
S'SquishyStrawberry/dogescript-ircbot'
p135
tp136
a(S'grunt-dogescript'
p137
S'dogescript'
p138
S'dogescript/grunt-dogescript'
p139
tp140
a(S'doge-toe'
p141
S'alexdantas'
p142
S'alexdantas/doge-toe'
p143
tp144
a(S'hellodoge'
p145
S'cris7ian'
p146
S'cris7ian/hellodoge'
p147
tp148
a(S'PELC'
p149
S'drsam94'
p150
S'drsam94/PELC'
p151
tp152
a(S'dogescript-loader'
p153
S'dogescript'
p154
S'dogescript/dogescript-loader'
p155
tp156
a(S'DSON'
p157
S'vpzomtrrfrt'
p158
S'vpzomtrrfrt/DSON'
p159
tp160
a(S'powder-djs'
p161
S'nucular'
p162
S'nucular/powder-djs'
p163
tp164
a(S'hello-doge'
p165
S'manlycode'
p166
S'manlycode/hello-doge'
p167
tp168
a(S'doge-toe'
p169
S'reanimus'
p170
S'reanimus/doge-toe'
p171
tp172
a(S'require-doge'
p173
S'dogescript'
p174
S'dogescript/require-doge'
p175
tp176
a(S'suchdoge'
p177
S'arirawr'
p178
S'arirawr/suchdoge'
p179
tp180
a(S'dogebuzz'
p181
S'deniseyu'
p182
S'deniseyu/dogebuzz'
p183
tp184
a(S'doge-latin'
p185
S'mguida22'
p186
S'mguida22/doge-latin'
p187
tp188
a(S'doge-adventure'
p189
S'argelius'
p190
S'argelius/doge-adventure'
p191
tp192
a(S'compiler'
p193
S'luishmelo'
p194
S'luishmelo/compiler'
p195
tp196
a(S'monster-player-plugin'
p197
S'javascript-ninjas'
p198
S'javascript-ninjas/monster-player-plugin'
p199
tp200
a(S'dogescript-ircbot'
p201
S'SquishyStrawberry'
p202
S'SquishyStrawberry/dogescript-ircbot'
p203
tp204
a.