(lp0
(S'dtrace'
p1
S'kdavyd'
p2
S'kdavyd/dtrace'
p3
tp4
a(S'cks-dtrace'
p5
S'siebenmann'
p6
S'siebenmann/cks-dtrace'
p7
tp8
a(S'djvm'
p9
S'jamesmahler'
p10
S'jamesmahler/djvm'
p11
tp12
a(S'Aran-Whitehand'
p13
S'cmorganbg'
p14
S'cmorganbg/Aran-Whitehand'
p15
tp16
a(S'TomeAndBlood'
p17
S'aquadrizzt'
p18
S'aquadrizzt/TomeAndBlood'
p19
tp20
a(S'stuff'
p21
S'kalou'
p22
S'kalou/stuff'
p23
tp24
a(S'thalan'
p25
S'CrevsDaak'
p26
S'CrevsDaak/thalan'
p27
tp28
a(S'7c-galileo'
p29
S'CrevsDaak'
p30
S'CrevsDaak/7c-galileo'
p31
tp32
a(S'dtrace-tools'
p33
S'dyjakan'
p34
S'dyjakan/dtrace-tools'
p35
tp36
a(S'dtrace_nexenta'
p37
S'buffyg'
p38
S'buffyg/dtrace_nexenta'
p39
tp40
a(S'dtrace'
p41
S'szaydel'
p42
S'szaydel/dtrace'
p43
tp44
a(S'TIMaeth'
p45
S'ProfJMDavis'
p46
S'ProfJMDavis/TIMaeth'
p47
tp48
a(S'TICLove'
p49
S'ProfJMDavis'
p50
S'ProfJMDavis/TICLove'
p51
tp52
a(S'Scales_of_Balance'
p53
S'subtledoctor'
p54
S'subtledoctor/Scales_of_Balance'
p55
tp56
a(S'hellod'
p57
S'patcoll'
p58
S'patcoll/hellod'
p59
tp60
a(S'dtrace-guide'
p61
S'takatoshiono'
p62
S'takatoshiono/dtrace-guide'
p63
tp64
a(S'Robot'
p65
S'elt12jju'
p66
S'elt12jju/Robot'
p67
tp68
a(S'TICher'
p69
S'ProfJMDavis'
p70
S'ProfJMDavis/TICher'
p71
tp72
a(S'TICam'
p73
S'ProfJMDavis'
p74
S'ProfJMDavis/TICam'
p75
tp76
a(S'dtrace-scripts'
p77
S'marmolak'
p78
S'marmolak/dtrace-scripts'
p79
tp80
a(S'dtrace'
p81
S'mikkokar'
p82
S'mikkokar/dtrace'
p83
tp84
a(S'AC_QUEST'
p85
S'whiteagnus'
p86
S'whiteagnus/AC_QUEST'
p87
tp88
a(S'Scales_of_Balance'
p89
S'lynxlynxlynx'
p90
S'lynxlynxlynx/Scales_of_Balance'
p91
tp92
a(S'dtrace-nfs'
p93
S'szaydel'
p94
S'szaydel/dtrace-nfs'
p95
tp96
a(S'dtrace-scripts'
p97
S'stevenwilliamson'
p98
S'stevenwilliamson/dtrace-scripts'
p99
tp100
a(S'dtrace'
p101
S'kdavyd'
p102
S'kdavyd/dtrace'
p103
tp104
a(S'cks-dtrace'
p105
S'siebenmann'
p106
S'siebenmann/cks-dtrace'
p107
tp108
a(S'djvm'
p109
S'jamesmahler'
p110
S'jamesmahler/djvm'
p111
tp112
a(S'Aran-Whitehand'
p113
S'cmorganbg'
p114
S'cmorganbg/Aran-Whitehand'
p115
tp116
a(S'dtrace-tools'
p117
S'dyjakan'
p118
S'dyjakan/dtrace-tools'
p119
tp120
a(S'TomeAndBlood'
p121
S'aquadrizzt'
p122
S'aquadrizzt/TomeAndBlood'
p123
tp124
a(S'stuff'
p125
S'kalou'
p126
S'kalou/stuff'
p127
tp128
a(S'thalan'
p129
S'CrevsDaak'
p130
S'CrevsDaak/thalan'
p131
tp132
a(S'7c-galileo'
p133
S'CrevsDaak'
p134
S'CrevsDaak/7c-galileo'
p135
tp136
a(S'dtrace'
p137
S'szaydel'
p138
S'szaydel/dtrace'
p139
tp140
a(S'dtrace_nexenta'
p141
S'buffyg'
p142
S'buffyg/dtrace_nexenta'
p143
tp144
a(S'IWDNPC_OSX'
p145
S'AstroBryGuy'
p146
S'AstroBryGuy/IWDNPC_OSX'
p147
tp148
a(S'TIMaeth'
p149
S'ProfJMDavis'
p150
S'ProfJMDavis/TIMaeth'
p151
tp152
a(S'TICLove'
p153
S'ProfJMDavis'
p154
S'ProfJMDavis/TICLove'
p155
tp156
a(S'hellod'
p157
S'patcoll'
p158
S'patcoll/hellod'
p159
tp160
a(S'dtrace-guide'
p161
S'takatoshiono'
p162
S'takatoshiono/dtrace-guide'
p163
tp164
a(S'Robot'
p165
S'elt12jju'
p166
S'elt12jju/Robot'
p167
tp168
a(S'TICher'
p169
S'ProfJMDavis'
p170
S'ProfJMDavis/TICher'
p171
tp172
a(S'TICam'
p173
S'ProfJMDavis'
p174
S'ProfJMDavis/TICam'
p175
tp176
a(S'dtrace-scripts'
p177
S'marmolak'
p178
S'marmolak/dtrace-scripts'
p179
tp180
a(S'dtrace'
p181
S'mikkokar'
p182
S'mikkokar/dtrace'
p183
tp184
a(S'scripts'
p185
S'blangis'
p186
S'blangis/scripts'
p187
tp188
a(S'dtrace-scripts'
p189
S'stevenwilliamson'
p190
S'stevenwilliamson/dtrace-scripts'
p191
tp192
a(S'Scales_of_Balance'
p193
S'lynxlynxlynx'
p194
S'lynxlynxlynx/Scales_of_Balance'
p195
tp196
a(S'AC_QUEST'
p197
S'whiteagnus'
p198
S'whiteagnus/AC_QUEST'
p199
tp200
a(S'dtrace'
p201
S'kdavyd'
p202
S'kdavyd/dtrace'
p203
tp204
a(S'cks-dtrace'
p205
S'siebenmann'
p206
S'siebenmann/cks-dtrace'
p207
tp208
a(S'djvm'
p209
S'jamesmahler'
p210
S'jamesmahler/djvm'
p211
tp212
a(S'Aran-Whitehand'
p213
S'cmorganbg'
p214
S'cmorganbg/Aran-Whitehand'
p215
tp216
a(S'dtrace-tools'
p217
S'dyjakan'
p218
S'dyjakan/dtrace-tools'
p219
tp220
a(S'TomeAndBlood'
p221
S'aquadrizzt'
p222
S'aquadrizzt/TomeAndBlood'
p223
tp224
a(S'stuff'
p225
S'kalou'
p226
S'kalou/stuff'
p227
tp228
a(S'thalan'
p229
S'CrevsDaak'
p230
S'CrevsDaak/thalan'
p231
tp232
a(S'7c-galileo'
p233
S'CrevsDaak'
p234
S'CrevsDaak/7c-galileo'
p235
tp236
a(S'dtrace'
p237
S'szaydel'
p238
S'szaydel/dtrace'
p239
tp240
a(S'dtrace_nexenta'
p241
S'buffyg'
p242
S'buffyg/dtrace_nexenta'
p243
tp244
a(S'IWDNPC_OSX'
p245
S'AstroBryGuy'
p246
S'AstroBryGuy/IWDNPC_OSX'
p247
tp248
a(S'TIMaeth'
p249
S'ProfJMDavis'
p250
S'ProfJMDavis/TIMaeth'
p251
tp252
a(S'TICLove'
p253
S'ProfJMDavis'
p254
S'ProfJMDavis/TICLove'
p255
tp256
a(S'hellod'
p257
S'patcoll'
p258
S'patcoll/hellod'
p259
tp260
a(S'dtrace-guide'
p261
S'takatoshiono'
p262
S'takatoshiono/dtrace-guide'
p263
tp264
a(S'Robot'
p265
S'elt12jju'
p266
S'elt12jju/Robot'
p267
tp268
a(S'TICher'
p269
S'ProfJMDavis'
p270
S'ProfJMDavis/TICher'
p271
tp272
a(S'TICam'
p273
S'ProfJMDavis'
p274
S'ProfJMDavis/TICam'
p275
tp276
a(S'dtrace-scripts'
p277
S'marmolak'
p278
S'marmolak/dtrace-scripts'
p279
tp280
a(S'dtrace'
p281
S'mikkokar'
p282
S'mikkokar/dtrace'
p283
tp284
a(S'scripts'
p285
S'blangis'
p286
S'blangis/scripts'
p287
tp288
a(S'dtrace-scripts'
p289
S'stevenwilliamson'
p290
S'stevenwilliamson/dtrace-scripts'
p291
tp292
a(S'Scales_of_Balance'
p293
S'lynxlynxlynx'
p294
S'lynxlynxlynx/Scales_of_Balance'
p295
tp296
a(S'AC_QUEST'
p297
S'whiteagnus'
p298
S'whiteagnus/AC_QUEST'
p299
tp300
a.