(lp0
(S'opendylan'
p1
S'dylan-lang'
p2
S'dylan-lang/opendylan'
p3
tp4
a(S'network-night-vision'
p5
S'dylan-hackers'
p6
S'dylan-hackers/network-night-vision'
p7
tp8
a(S'mindy'
p9
S'project-mindy'
p10
S'project-mindy/mindy'
p11
tp12
a(S'http'
p13
S'dylan-lang'
p14
S'dylan-lang/http'
p15
tp16
a(S'wiki'
p17
S'dylan-lang'
p18
S'dylan-lang/wiki'
p19
tp20
a(S'gir-dylan'
p21
S'dylan-foundry'
p22
S'dylan-foundry/gir-dylan'
p23
tp24
a(S'opendylan'
p25
S'waywardmonkeys'
p26
S'waywardmonkeys/opendylan'
p27
tp28
a(S'libpq-dylan'
p29
S'dylan-foundry'
p30
S'dylan-foundry/libpq-dylan'
p31
tp32
a(S'melange'
p33
S'dylan-lang'
p34
S'dylan-lang/melange'
p35
tp36
a(S'nanomsg-dylan'
p37
S'dylan-foundry'
p38
S'dylan-foundry/nanomsg-dylan'
p39
tp40
a(S'uv-dylan'
p41
S'waywardmonkeys'
p42
S'waywardmonkeys/uv-dylan'
p43
tp44
a(S'tracing'
p45
S'dylan-foundry'
p46
S'dylan-foundry/tracing'
p47
tp48
a(S'strings'
p49
S'dylan-lang'
p50
S'dylan-lang/strings'
p51
tp52
a(S'RRB-Vector-in-Dylan'
p53
S'nickik'
p54
S'nickik/RRB-Vector-in-Dylan'
p55
tp56
a(S'command-interface'
p57
S'dylan-lang'
p58
S'dylan-lang/command-interface'
p59
tp60
a(S'leveldb-dylan'
p61
S'dylan-foundry'
p62
S'dylan-foundry/leveldb-dylan'
p63
tp64
a(S'opendylan'
p65
S'hannesm'
p66
S'hannesm/opendylan'
p67
tp68
a(S'deft'
p69
S'dylan-foundry'
p70
S'dylan-foundry/deft'
p71
tp72
a(S'json'
p73
S'dylan-lang'
p74
S'dylan-lang/json'
p75
tp76
a(S'serialization'
p77
S'dylan-foundry'
p78
S'dylan-foundry/serialization'
p79
tp80
a(S'mime'
p81
S'dylan-lang'
p82
S'dylan-lang/mime'
p83
tp84
a(S'clang-dylan'
p85
S'waywardmonkeys'
p86
S'waywardmonkeys/clang-dylan'
p87
tp88
a(S'orlok'
p89
S'AndrewGlynn'
p90
S'AndrewGlynn/orlok'
p91
tp92
a(S'binary-data'
p93
S'dylan-lang'
p94
S'dylan-lang/binary-data'
p95
tp96
a(S'miniKanren-Dylan'
p97
S'tca'
p98
S'tca/miniKanren-Dylan'
p99
tp100
a(S'opendylan'
p101
S'dylan-lang'
p102
S'dylan-lang/opendylan'
p103
tp104
a(S'network-night-vision'
p105
S'dylan-hackers'
p106
S'dylan-hackers/network-night-vision'
p107
tp108
a(S'mindy'
p109
S'project-mindy'
p110
S'project-mindy/mindy'
p111
tp112
a(S'http'
p113
S'dylan-lang'
p114
S'dylan-lang/http'
p115
tp116
a(S'wiki'
p117
S'dylan-lang'
p118
S'dylan-lang/wiki'
p119
tp120
a(S'gir-dylan'
p121
S'dylan-foundry'
p122
S'dylan-foundry/gir-dylan'
p123
tp124
a(S'opendylan'
p125
S'waywardmonkeys'
p126
S'waywardmonkeys/opendylan'
p127
tp128
a(S'libpq-dylan'
p129
S'dylan-foundry'
p130
S'dylan-foundry/libpq-dylan'
p131
tp132
a(S'melange'
p133
S'dylan-lang'
p134
S'dylan-lang/melange'
p135
tp136
a(S'nanomsg-dylan'
p137
S'dylan-foundry'
p138
S'dylan-foundry/nanomsg-dylan'
p139
tp140
a(S'uv-dylan'
p141
S'waywardmonkeys'
p142
S'waywardmonkeys/uv-dylan'
p143
tp144
a(S'tracing'
p145
S'dylan-foundry'
p146
S'dylan-foundry/tracing'
p147
tp148
a(S'strings'
p149
S'dylan-lang'
p150
S'dylan-lang/strings'
p151
tp152
a(S'RRB-Vector-in-Dylan'
p153
S'nickik'
p154
S'nickik/RRB-Vector-in-Dylan'
p155
tp156
a(S'command-interface'
p157
S'dylan-lang'
p158
S'dylan-lang/command-interface'
p159
tp160
a(S'leveldb-dylan'
p161
S'dylan-foundry'
p162
S'dylan-foundry/leveldb-dylan'
p163
tp164
a(S'opendylan'
p165
S'hannesm'
p166
S'hannesm/opendylan'
p167
tp168
a(S'deft'
p169
S'dylan-foundry'
p170
S'dylan-foundry/deft'
p171
tp172
a(S'json'
p173
S'dylan-lang'
p174
S'dylan-lang/json'
p175
tp176
a(S'serialization'
p177
S'dylan-foundry'
p178
S'dylan-foundry/serialization'
p179
tp180
a(S'mime'
p181
S'dylan-lang'
p182
S'dylan-lang/mime'
p183
tp184
a(S'clang-dylan'
p185
S'waywardmonkeys'
p186
S'waywardmonkeys/clang-dylan'
p187
tp188
a(S'orlok'
p189
S'AndrewGlynn'
p190
S'AndrewGlynn/orlok'
p191
tp192
a(S'binary-data'
p193
S'dylan-lang'
p194
S'dylan-lang/binary-data'
p195
tp196
a(S'miniKanren-Dylan'
p197
S'tca'
p198
S'tca/miniKanren-Dylan'
p199
tp200
a(S'opendylan'
p201
S'dylan-lang'
p202
S'dylan-lang/opendylan'
p203
tp204
a(S'network-night-vision'
p205
S'dylan-hackers'
p206
S'dylan-hackers/network-night-vision'
p207
tp208
a(S'mindy'
p209
S'project-mindy'
p210
S'project-mindy/mindy'
p211
tp212
a(S'http'
p213
S'dylan-lang'
p214
S'dylan-lang/http'
p215
tp216
a(S'wiki'
p217
S'dylan-lang'
p218
S'dylan-lang/wiki'
p219
tp220
a(S'gir-dylan'
p221
S'dylan-foundry'
p222
S'dylan-foundry/gir-dylan'
p223
tp224
a(S'opendylan'
p225
S'waywardmonkeys'
p226
S'waywardmonkeys/opendylan'
p227
tp228
a(S'libpq-dylan'
p229
S'dylan-foundry'
p230
S'dylan-foundry/libpq-dylan'
p231
tp232
a(S'melange'
p233
S'dylan-lang'
p234
S'dylan-lang/melange'
p235
tp236
a(S'uv-dylan'
p237
S'waywardmonkeys'
p238
S'waywardmonkeys/uv-dylan'
p239
tp240
a(S'tracing'
p241
S'dylan-foundry'
p242
S'dylan-foundry/tracing'
p243
tp244
a(S'nanomsg-dylan'
p245
S'dylan-foundry'
p246
S'dylan-foundry/nanomsg-dylan'
p247
tp248
a(S'opendylan'
p249
S'housel'
p250
S'housel/opendylan'
p251
tp252
a(S'miniKanren-Dylan'
p253
S'tca'
p254
S'tca/miniKanren-Dylan'
p255
tp256
a(S'serialization'
p257
S'dylan-foundry'
p258
S'dylan-foundry/serialization'
p259
tp260
a(S'strings'
p261
S'dylan-lang'
p262
S'dylan-lang/strings'
p263
tp264
a(S'clang-dylan'
p265
S'waywardmonkeys'
p266
S'waywardmonkeys/clang-dylan'
p267
tp268
a(S'orlok'
p269
S'AndrewGlynn'
p270
S'AndrewGlynn/orlok'
p271
tp272
a(S'leveldb-dylan'
p273
S'dylan-foundry'
p274
S'dylan-foundry/leveldb-dylan'
p275
tp276
a(S'deft'
p277
S'dylan-foundry'
p278
S'dylan-foundry/deft'
p279
tp280
a(S'command-interface'
p281
S'dylan-lang'
p282
S'dylan-lang/command-interface'
p283
tp284
a(S'json'
p285
S'dylan-lang'
p286
S'dylan-lang/json'
p287
tp288
a(S'RRB-Vector-in-Dylan'
p289
S'nickik'
p290
S'nickik/RRB-Vector-in-Dylan'
p291
tp292
a(S'mime'
p293
S'dylan-lang'
p294
S'dylan-lang/mime'
p295
tp296
a(S'opendylan'
p297
S'hannesm'
p298
S'hannesm/opendylan'
p299
tp300
a.