(lp0
(S'ArcadeGameSelector'
p1
S'MagerValp'
p2
S'MagerValp/ArcadeGameSelector'
p3
tp4
a(S'worktimer'
p5
S'punzik'
p6
S'punzik/worktimer'
p7
tp8
a(S'knoweb'
p9
S'JoeRiel'
p10
S'JoeRiel/knoweb'
p11
tp12
a(S'MyTool'
p13
S'shihyu'
p14
S'shihyu/MyTool'
p15
tp16
a(S'HesKit'
p17
S'sibirbil'
p18
S'sibirbil/HesKit'
p19
tp20
a(S'amiq_i2c'
p21
S'amiq-consulting'
p22
S'amiq-consulting/amiq_i2c'
p23
tp24
a(S'learning'
p25
S'viakondratiuk'
p26
S'viakondratiuk/learning'
p27
tp28
a(S'EU_DLLs_complete_guide'
p29
S'xecronix'
p30
S'xecronix/EU_DLLs_complete_guide'
p31
tp32
a(S'Dicebot'
p33
S'chamelaeon'
p34
S'chamelaeon/Dicebot'
p35
tp36
a(S'jenkins_vm_example'
p37
S'fredophil'
p38
S'fredophil/jenkins_vm_example'
p39
tp40
a(S'OptoTracker'
p41
S'andrea-celentano'
p42
S'andrea-celentano/OptoTracker'
p43
tp44
a(S'amiq_i2c'
p45
S'hcarter333'
p46
S'hcarter333/amiq_i2c'
p47
tp48
a(S'homomorphic-estimation'
p49
S'sebastiandziadzio'
p50
S'sebastiandziadzio/homomorphic-estimation'
p51
tp52
a(S'PitchBox'
p53
S'brendanahart'
p54
S'brendanahart/PitchBox'
p55
tp56
a(S'Efficient-Sequence-Alignment'
p57
S'mbaluda'
p58
S'mbaluda/Efficient-Sequence-Alignment'
p59
tp60
a(S'jenkins_vm'
p61
S'wataruya'
p62
S'wataruya/jenkins_vm'
p63
tp64
a(S'nuwanw'
p65
S'nuwand989'
p66
S'nuwand989/nuwanw'
p67
tp68
a(S'Computer_Science'
p69
S'nalexander50'
p70
S'nalexander50/Computer_Science'
p71
tp72
a(S'Open-Technology-Fund-Magic-Folders-Project'
p73
S'LeastAuthority'
p74
S'LeastAuthority/Open-Technology-Fund-Magic-Folders-Project'
p75
tp76
a(S'reflections'
p77
S'b12kab'
p78
S'b12kab/reflections'
p79
tp80
a(S'config-repo'
p81
S'edvelezg'
p82
S'edvelezg/config-repo'
p83
tp84
a(S'RM_RubyParser'
p85
S'HimeWorks'
p86
S'HimeWorks/RM_RubyParser'
p87
tp88
a(S'rpncalculator'
p89
S'simonprickett'
p90
S'simonprickett/rpncalculator'
p91
tp92
a(S'dotfiles'
p93
S'philipbl'
p94
S'philipbl/dotfiles'
p95
tp96
a(S'fp-license-server'
p97
S'jamiepg1'
p98
S'jamiepg1/fp-license-server'
p99
tp100
a(S'ArcadeGameSelector'
p101
S'MagerValp'
p102
S'MagerValp/ArcadeGameSelector'
p103
tp104
a(S'worktimer'
p105
S'punzik'
p106
S'punzik/worktimer'
p107
tp108
a(S'knoweb'
p109
S'JoeRiel'
p110
S'JoeRiel/knoweb'
p111
tp112
a(S'MyTool'
p113
S'shihyu'
p114
S'shihyu/MyTool'
p115
tp116
a(S'HesKit'
p117
S'sibirbil'
p118
S'sibirbil/HesKit'
p119
tp120
a(S'amiq_i2c'
p121
S'amiq-consulting'
p122
S'amiq-consulting/amiq_i2c'
p123
tp124
a(S'learning'
p125
S'viakondratiuk'
p126
S'viakondratiuk/learning'
p127
tp128
a(S'EU_DLLs_complete_guide'
p129
S'xecronix'
p130
S'xecronix/EU_DLLs_complete_guide'
p131
tp132
a(S'Dicebot'
p133
S'chamelaeon'
p134
S'chamelaeon/Dicebot'
p135
tp136
a(S'jenkins_vm_example'
p137
S'fredophil'
p138
S'fredophil/jenkins_vm_example'
p139
tp140
a(S'OptoTracker'
p141
S'andrea-celentano'
p142
S'andrea-celentano/OptoTracker'
p143
tp144
a(S'amiq_i2c'
p145
S'hcarter333'
p146
S'hcarter333/amiq_i2c'
p147
tp148
a(S'homomorphic-estimation'
p149
S'sebastiandziadzio'
p150
S'sebastiandziadzio/homomorphic-estimation'
p151
tp152
a(S'PitchBox'
p153
S'brendanahart'
p154
S'brendanahart/PitchBox'
p155
tp156
a(S'Efficient-Sequence-Alignment'
p157
S'mbaluda'
p158
S'mbaluda/Efficient-Sequence-Alignment'
p159
tp160
a(S'jenkins_vm'
p161
S'wataruya'
p162
S'wataruya/jenkins_vm'
p163
tp164
a(S'nuwanw'
p165
S'nuwand989'
p166
S'nuwand989/nuwanw'
p167
tp168
a(S'Computer_Science'
p169
S'nalexander50'
p170
S'nalexander50/Computer_Science'
p171
tp172
a(S'Open-Technology-Fund-Magic-Folders-Project'
p173
S'LeastAuthority'
p174
S'LeastAuthority/Open-Technology-Fund-Magic-Folders-Project'
p175
tp176
a(S'reflections'
p177
S'b12kab'
p178
S'b12kab/reflections'
p179
tp180
a(S'config-repo'
p181
S'edvelezg'
p182
S'edvelezg/config-repo'
p183
tp184
a(S'RM_RubyParser'
p185
S'HimeWorks'
p186
S'HimeWorks/RM_RubyParser'
p187
tp188
a(S'rpncalculator'
p189
S'simonprickett'
p190
S'simonprickett/rpncalculator'
p191
tp192
a(S'dotfiles'
p193
S'philipbl'
p194
S'philipbl/dotfiles'
p195
tp196
a(S'fp-license-server'
p197
S'jamiepg1'
p198
S'jamiepg1/fp-license-server'
p199
tp200
a(S'ArcadeGameSelector'
p201
S'MagerValp'
p202
S'MagerValp/ArcadeGameSelector'
p203
tp204
a(S'worktimer'
p205
S'punzik'
p206
S'punzik/worktimer'
p207
tp208
a(S'knoweb'
p209
S'JoeRiel'
p210
S'JoeRiel/knoweb'
p211
tp212
a(S'MyTool'
p213
S'shihyu'
p214
S'shihyu/MyTool'
p215
tp216
a(S'HesKit'
p217
S'sibirbil'
p218
S'sibirbil/HesKit'
p219
tp220
a(S'amiq_i2c'
p221
S'amiq-consulting'
p222
S'amiq-consulting/amiq_i2c'
p223
tp224
a(S'learning'
p225
S'viakondratiuk'
p226
S'viakondratiuk/learning'
p227
tp228
a(S'EU_DLLs_complete_guide'
p229
S'xecronix'
p230
S'xecronix/EU_DLLs_complete_guide'
p231
tp232
a(S'Dicebot'
p233
S'chamelaeon'
p234
S'chamelaeon/Dicebot'
p235
tp236
a(S'jenkins_vm_example'
p237
S'fredophil'
p238
S'fredophil/jenkins_vm_example'
p239
tp240
a(S'OptoTracker'
p241
S'andrea-celentano'
p242
S'andrea-celentano/OptoTracker'
p243
tp244
a(S'amiq_i2c'
p245
S'hcarter333'
p246
S'hcarter333/amiq_i2c'
p247
tp248
a(S'homomorphic-estimation'
p249
S'sebastiandziadzio'
p250
S'sebastiandziadzio/homomorphic-estimation'
p251
tp252
a(S'PitchBox'
p253
S'brendanahart'
p254
S'brendanahart/PitchBox'
p255
tp256
a(S'Efficient-Sequence-Alignment'
p257
S'mbaluda'
p258
S'mbaluda/Efficient-Sequence-Alignment'
p259
tp260
a(S'jenkins_vm'
p261
S'wataruya'
p262
S'wataruya/jenkins_vm'
p263
tp264
a(S'nuwanw'
p265
S'nuwand989'
p266
S'nuwand989/nuwanw'
p267
tp268
a(S'Computer_Science'
p269
S'nalexander50'
p270
S'nalexander50/Computer_Science'
p271
tp272
a(S'Open-Technology-Fund-Magic-Folders-Project'
p273
S'LeastAuthority'
p274
S'LeastAuthority/Open-Technology-Fund-Magic-Folders-Project'
p275
tp276
a(S'reflections'
p277
S'b12kab'
p278
S'b12kab/reflections'
p279
tp280
a(S'config-repo'
p281
S'edvelezg'
p282
S'edvelezg/config-repo'
p283
tp284
a(S'RM_RubyParser'
p285
S'HimeWorks'
p286
S'HimeWorks/RM_RubyParser'
p287
tp288
a(S'rpncalculator'
p289
S'simonprickett'
p290
S'simonprickett/rpncalculator'
p291
tp292
a(S'dotfiles'
p293
S'philipbl'
p294
S'philipbl/dotfiles'
p295
tp296
a(S'fp-license-server'
p297
S'jamiepg1'
p298
S'jamiepg1/fp-license-server'
p299
tp300
a.