(lp0
(S'mcuoneclipse'
p1
S'ErichStyger'
p2
S'ErichStyger/mcuoneclipse'
p3
tp4
a(S'blink1'
p5
S'todbot'
p6
S'todbot/blink1'
p7
tp8
a(S'ioio'
p9
S'ytai'
p10
S'ytai/ioio'
p11
tp12
a(S'OLINUXINO'
p13
S'OLIMEX'
p14
S'OLIMEX/OLINUXINO'
p15
tp16
a(S'fadecandy'
p17
S'scanlime'
p18
S'scanlime/fadecandy'
p19
tp20
a(S'core'
p21
S'spark'
p22
S'spark/core'
p23
tp24
a(S'ubertooth'
p25
S'greatscottgadgets'
p26
S'greatscottgadgets/ubertooth'
p27
tp28
a(S'opensprinkler'
p29
S'rayshobby'
p30
S'rayshobby/opensprinkler'
p31
tp32
a(S'pyboard'
p33
S'micropython'
p34
S'micropython/pyboard'
p35
tp36
a(S'HeaterMeter'
p37
S'CapnBry'
p38
S'CapnBry/HeaterMeter'
p39
tp40
a(S'BrickPi'
p41
S'DexterInd'
p42
S'DexterInd/BrickPi'
p43
tp44
a(S'LEDscape'
p45
S'osresearch'
p46
S'osresearch/LEDscape'
p47
tp48
a(S'DonglePi'
p49
S'gbin'
p50
S'gbin/DonglePi'
p51
tp52
a(S'knitic'
p53
S'mcanet'
p54
S'mcanet/knitic'
p55
tp56
a(S'RFIDler'
p57
S'ApertureLabsLtd'
p58
S'ApertureLabsLtd/RFIDler'
p59
tp60
a(S'homA'
p61
S'binarybucks'
p62
S'binarybucks/homA'
p63
tp64
a(S'sam_board'
p65
S'Ttl'
p66
S'Ttl/sam_board'
p67
tp68
a(S'MaKeyMaKey'
p69
S'sparkfun'
p70
S'sparkfun/MaKeyMaKey'
p71
tp72
a(S'daisho'
p73
S'mossmann'
p74
S'mossmann/daisho'
p75
tp76
a(S'bartendro'
p77
S'partyrobotics'
p78
S'partyrobotics/bartendro'
p79
tp80
a(S'sd2snes'
p81
S'mrehkopf'
p82
S'mrehkopf/sd2snes'
p83
tp84
a(S'photon'
p85
S'spark'
p86
S'spark/photon'
p87
tp88
a(S'Hardware'
p89
S'PX4'
p90
S'PX4/Hardware'
p91
tp92
a(S'Pwdr-Model-0.1'
p93
S'Pwdr'
p94
S'Pwdr/Pwdr-Model-0.1'
p95
tp96
a(S'ESP8266'
p97
S'OLIMEX'
p98
S'OLIMEX/ESP8266'
p99
tp100
a(S'blink1'
p101
S'todbot'
p102
S'todbot/blink1'
p103
tp104
a(S'SmartMatrix'
p105
S'pixelmatix'
p106
S'pixelmatix/SmartMatrix'
p107
tp108
a(S'ioio'
p109
S'ytai'
p110
S'ytai/ioio'
p111
tp112
a(S'OLINUXINO'
p113
S'OLIMEX'
p114
S'OLIMEX/OLINUXINO'
p115
tp116
a(S'fadecandy'
p117
S'scanlime'
p118
S'scanlime/fadecandy'
p119
tp120
a(S'core'
p121
S'spark'
p122
S'spark/core'
p123
tp124
a(S'ubertooth'
p125
S'greatscottgadgets'
p126
S'greatscottgadgets/ubertooth'
p127
tp128
a(S'mcuoneclipse'
p129
S'ErichStyger'
p130
S'ErichStyger/mcuoneclipse'
p131
tp132
a(S'opensprinkler'
p133
S'rayshobby'
p134
S'rayshobby/opensprinkler'
p135
tp136
a(S'pyboard'
p137
S'micropython'
p138
S'micropython/pyboard'
p139
tp140
a(S'HeaterMeter'
p141
S'CapnBry'
p142
S'CapnBry/HeaterMeter'
p143
tp144
a(S'BrickPi'
p145
S'DexterInd'
p146
S'DexterInd/BrickPi'
p147
tp148
a(S'LEDscape'
p149
S'osresearch'
p150
S'osresearch/LEDscape'
p151
tp152
a(S'DonglePi'
p153
S'gbin'
p154
S'gbin/DonglePi'
p155
tp156
a(S'knitic'
p157
S'mcanet'
p158
S'mcanet/knitic'
p159
tp160
a(S'RFIDler'
p161
S'ApertureLabsLtd'
p162
S'ApertureLabsLtd/RFIDler'
p163
tp164
a(S'homA'
p165
S'binarybucks'
p166
S'binarybucks/homA'
p167
tp168
a(S'sam_board'
p169
S'Ttl'
p170
S'Ttl/sam_board'
p171
tp172
a(S'MaKeyMaKey'
p173
S'sparkfun'
p174
S'sparkfun/MaKeyMaKey'
p175
tp176
a(S'daisho'
p177
S'mossmann'
p178
S'mossmann/daisho'
p179
tp180
a(S'bartendro'
p181
S'partyrobotics'
p182
S'partyrobotics/bartendro'
p183
tp184
a(S'sd2snes'
p185
S'mrehkopf'
p186
S'mrehkopf/sd2snes'
p187
tp188
a(S'photon'
p189
S'spark'
p190
S'spark/photon'
p191
tp192
a(S'Hardware'
p193
S'PX4'
p194
S'PX4/Hardware'
p195
tp196
a(S'Pwdr-Model-0.1'
p197
S'Pwdr'
p198
S'Pwdr/Pwdr-Model-0.1'
p199
tp200
a(S'blink1'
p201
S'todbot'
p202
S'todbot/blink1'
p203
tp204
a(S'ioio'
p205
S'ytai'
p206
S'ytai/ioio'
p207
tp208
a(S'OLINUXINO'
p209
S'OLIMEX'
p210
S'OLIMEX/OLINUXINO'
p211
tp212
a(S'fadecandy'
p213
S'scanlime'
p214
S'scanlime/fadecandy'
p215
tp216
a(S'core'
p217
S'spark'
p218
S'spark/core'
p219
tp220
a(S'ubertooth'
p221
S'greatscottgadgets'
p222
S'greatscottgadgets/ubertooth'
p223
tp224
a(S'mcuoneclipse'
p225
S'ErichStyger'
p226
S'ErichStyger/mcuoneclipse'
p227
tp228
a(S'opensprinkler'
p229
S'rayshobby'
p230
S'rayshobby/opensprinkler'
p231
tp232
a(S'pyboard'
p233
S'micropython'
p234
S'micropython/pyboard'
p235
tp236
a(S'HeaterMeter'
p237
S'CapnBry'
p238
S'CapnBry/HeaterMeter'
p239
tp240
a(S'BrickPi'
p241
S'DexterInd'
p242
S'DexterInd/BrickPi'
p243
tp244
a(S'LEDscape'
p245
S'osresearch'
p246
S'osresearch/LEDscape'
p247
tp248
a(S'DonglePi'
p249
S'gbin'
p250
S'gbin/DonglePi'
p251
tp252
a(S'knitic'
p253
S'mcanet'
p254
S'mcanet/knitic'
p255
tp256
a(S'RFIDler'
p257
S'ApertureLabsLtd'
p258
S'ApertureLabsLtd/RFIDler'
p259
tp260
a(S'homA'
p261
S'binarybucks'
p262
S'binarybucks/homA'
p263
tp264
a(S'sam_board'
p265
S'Ttl'
p266
S'Ttl/sam_board'
p267
tp268
a(S'MaKeyMaKey'
p269
S'sparkfun'
p270
S'sparkfun/MaKeyMaKey'
p271
tp272
a(S'daisho'
p273
S'mossmann'
p274
S'mossmann/daisho'
p275
tp276
a(S'bartendro'
p277
S'partyrobotics'
p278
S'partyrobotics/bartendro'
p279
tp280
a(S'sd2snes'
p281
S'mrehkopf'
p282
S'mrehkopf/sd2snes'
p283
tp284
a(S'photon'
p285
S'spark'
p286
S'spark/photon'
p287
tp288
a(S'Hardware'
p289
S'PX4'
p290
S'PX4/Hardware'
p291
tp292
a(S'Pwdr-Model-0.1'
p293
S'Pwdr'
p294
S'Pwdr/Pwdr-Model-0.1'
p295
tp296
a(S'ESP8266'
p297
S'OLIMEX'
p298
S'OLIMEX/ESP8266'
p299
tp300
a.