(lp0
(S'ecere-sdk'
p1
S'ecere'
p2
S'ecere/ecere-sdk'
p3
tp4
a(S'chess'
p5
S'ecere'
p6
S'ecere/chess'
p7
tp8
a(S'fractals'
p9
S'ecere'
p10
S'ecere/fractals'
p11
tp12
a(S'NoReturn'
p13
S'NitrogeneGames'
p14
S'NitrogeneGames/NoReturn'
p15
tp16
a(S'informixdb'
p17
S'hellhound'
p18
S'hellhound/informixdb'
p19
tp20
a(S'chess'
p21
S'olliveira'
p22
S'olliveira/chess'
p23
tp24
a(S'ruby-informix'
p25
S'meiser'
p26
S'meiser/ruby-informix'
p27
tp28
a(S'autocrypt'
p29
S'JHUISI'
p30
S'JHUISI/autocrypt'
p31
tp32
a(S'ruby-informix'
p33
S'jmacdonald'
p34
S'jmacdonald/ruby-informix'
p35
tp36
a(S'ruby-informix'
p37
S'skeller1'
p38
S'skeller1/ruby-informix'
p39
tp40
a(S'chess'
p41
S'DawidvC'
p42
S'DawidvC/chess'
p43
tp44
a(S'ecere-sdk'
p45
S'redj'
p46
S'redj/ecere-sdk'
p47
tp48
a(S'chess'
p49
S'jerstlouis'
p50
S'jerstlouis/chess'
p51
tp52
a(S'chess'
p53
S'jamiepg1'
p54
S'jamiepg1/chess'
p55
tp56
a(S'fractals'
p57
S'jamiepg1'
p58
S'jamiepg1/fractals'
p59
tp60
a(S'ruby-informix'
p61
S'jamiepg1'
p62
S'jamiepg1/ruby-informix'
p63
tp64
a(S'SHIM'
p65
S'ShimProfiler'
p66
S'ShimProfiler/SHIM'
p67
tp68
a(S'anonychat'
p69
S'anony1'
p70
S'anony1/anonychat'
p71
tp72
a(S'chess'
p73
S'redj'
p74
S'redj/chess'
p75
tp76
a(S'12306msg'
p77
S'olight'
p78
S'olight/12306msg'
p79
tp80
a(S'Raspberry-Pi-CPS-SN-trial'
p81
S'not001praween001'
p82
S'not001praween001/Raspberry-Pi-CPS-SN-trial'
p83
tp84
a(S'Nathaniels-Maze-eC'
p85
S'mothdragon'
p86
S'mothdragon/Nathaniels-Maze-eC'
p87
tp88
a(S'CardCreator'
p89
S'mothdragon'
p90
S'mothdragon/CardCreator'
p91
tp92
a(S'stereomood-ec'
p93
S'dardevelin'
p94
S'dardevelin/stereomood-ec'
p95
tp96
a(S'fractals'
p97
S'redj'
p98
S'redj/fractals'
p99
tp100
a(S'ecere-sdk'
p101
S'ecere'
p102
S'ecere/ecere-sdk'
p103
tp104
a(S'chess'
p105
S'ecere'
p106
S'ecere/chess'
p107
tp108
a(S'fractals'
p109
S'ecere'
p110
S'ecere/fractals'
p111
tp112
a(S'NoReturn'
p113
S'NitrogeneGames'
p114
S'NitrogeneGames/NoReturn'
p115
tp116
a(S'informixdb'
p117
S'hellhound'
p118
S'hellhound/informixdb'
p119
tp120
a(S'chess'
p121
S'olliveira'
p122
S'olliveira/chess'
p123
tp124
a(S'ruby-informix'
p125
S'meiser'
p126
S'meiser/ruby-informix'
p127
tp128
a(S'autocrypt'
p129
S'JHUISI'
p130
S'JHUISI/autocrypt'
p131
tp132
a(S'ruby-informix'
p133
S'jmacdonald'
p134
S'jmacdonald/ruby-informix'
p135
tp136
a(S'ruby-informix'
p137
S'skeller1'
p138
S'skeller1/ruby-informix'
p139
tp140
a(S'chess'
p141
S'DawidvC'
p142
S'DawidvC/chess'
p143
tp144
a(S'ecere-sdk'
p145
S'redj'
p146
S'redj/ecere-sdk'
p147
tp148
a(S'chess'
p149
S'jerstlouis'
p150
S'jerstlouis/chess'
p151
tp152
a(S'chess'
p153
S'jamiepg1'
p154
S'jamiepg1/chess'
p155
tp156
a(S'fractals'
p157
S'jamiepg1'
p158
S'jamiepg1/fractals'
p159
tp160
a(S'ruby-informix'
p161
S'jamiepg1'
p162
S'jamiepg1/ruby-informix'
p163
tp164
a(S'SHIM'
p165
S'ShimProfiler'
p166
S'ShimProfiler/SHIM'
p167
tp168
a(S'anonychat'
p169
S'anony1'
p170
S'anony1/anonychat'
p171
tp172
a(S'chess'
p173
S'redj'
p174
S'redj/chess'
p175
tp176
a(S'12306msg'
p177
S'olight'
p178
S'olight/12306msg'
p179
tp180
a(S'Raspberry-Pi-CPS-SN-trial'
p181
S'not001praween001'
p182
S'not001praween001/Raspberry-Pi-CPS-SN-trial'
p183
tp184
a(S'Nathaniels-Maze-eC'
p185
S'mothdragon'
p186
S'mothdragon/Nathaniels-Maze-eC'
p187
tp188
a(S'CardCreator'
p189
S'mothdragon'
p190
S'mothdragon/CardCreator'
p191
tp192
a(S'stereomood-ec'
p193
S'dardevelin'
p194
S'dardevelin/stereomood-ec'
p195
tp196
a(S'fractals'
p197
S'redj'
p198
S'redj/fractals'
p199
tp200
a(S'ecere-sdk'
p201
S'ecere'
p202
S'ecere/ecere-sdk'
p203
tp204
a(S'chess'
p205
S'ecere'
p206
S'ecere/chess'
p207
tp208
a(S'fractals'
p209
S'ecere'
p210
S'ecere/fractals'
p211
tp212
a(S'NoReturn'
p213
S'NitrogeneGames'
p214
S'NitrogeneGames/NoReturn'
p215
tp216
a(S'informixdb'
p217
S'hellhound'
p218
S'hellhound/informixdb'
p219
tp220
a(S'chess'
p221
S'olliveira'
p222
S'olliveira/chess'
p223
tp224
a(S'ruby-informix'
p225
S'meiser'
p226
S'meiser/ruby-informix'
p227
tp228
a(S'autocrypt'
p229
S'JHUISI'
p230
S'JHUISI/autocrypt'
p231
tp232
a(S'ruby-informix'
p233
S'jmacdonald'
p234
S'jmacdonald/ruby-informix'
p235
tp236
a(S'ruby-informix'
p237
S'skeller1'
p238
S'skeller1/ruby-informix'
p239
tp240
a(S'chess'
p241
S'DawidvC'
p242
S'DawidvC/chess'
p243
tp244
a(S'ecere-sdk'
p245
S'redj'
p246
S'redj/ecere-sdk'
p247
tp248
a(S'chess'
p249
S'jerstlouis'
p250
S'jerstlouis/chess'
p251
tp252
a(S'chess'
p253
S'jamiepg1'
p254
S'jamiepg1/chess'
p255
tp256
a(S'fractals'
p257
S'jamiepg1'
p258
S'jamiepg1/fractals'
p259
tp260
a(S'ruby-informix'
p261
S'jamiepg1'
p262
S'jamiepg1/ruby-informix'
p263
tp264
a(S'SHIM'
p265
S'ShimProfiler'
p266
S'ShimProfiler/SHIM'
p267
tp268
a(S'anonychat'
p269
S'anony1'
p270
S'anony1/anonychat'
p271
tp272
a(S'chess'
p273
S'redj'
p274
S'redj/chess'
p275
tp276
a(S'12306msg'
p277
S'olight'
p278
S'olight/12306msg'
p279
tp280
a(S'Raspberry-Pi-CPS-SN-trial'
p281
S'not001praween001'
p282
S'not001praween001/Raspberry-Pi-CPS-SN-trial'
p283
tp284
a(S'Nathaniels-Maze-eC'
p285
S'mothdragon'
p286
S'mothdragon/Nathaniels-Maze-eC'
p287
tp288
a(S'CardCreator'
p289
S'mothdragon'
p290
S'mothdragon/CardCreator'
p291
tp292
a(S'stereomood-ec'
p293
S'dardevelin'
p294
S'dardevelin/stereomood-ec'
p295
tp296
a(S'fractals'
p297
S'redj'
p298
S'redj/fractals'
p299
tp300
a.