(lp0
(S'ecl-ml'
p1
S'hpcc-systems'
p2
S'hpcc-systems/ecl-ml'
p3
tp4
a(S'ecl-samples'
p5
S'hpcc-systems'
p6
S'hpcc-systems/ecl-samples'
p7
tp8
a(S'ecl-bundles'
p9
S'hpcc-systems'
p10
S'hpcc-systems/ecl-bundles'
p11
tp12
a(S'ECL-WLAM'
p13
S'hpcc-systems'
p14
S'hpcc-systems/ECL-WLAM'
p15
tp16
a(S'ecl-ml'
p17
S'johnholt'
p18
S'johnholt/ecl-ml'
p19
tp20
a(S'ecl-ml'
p21
S'emuharemagic'
p22
S'emuharemagic/ecl-ml'
p23
tp24
a(S'ecl-samples'
p25
S'GordonSmith'
p26
S'GordonSmith/ecl-samples'
p27
tp28
a(S'ecl-ml'
p29
S'DonVitorio'
p30
S'DonVitorio/ecl-ml'
p31
tp32
a(S'ecl-ml'
p33
S'jprichard'
p34
S'jprichard/ecl-ml'
p35
tp36
a(S'Conf2013'
p37
S'GordonSmith'
p38
S'GordonSmith/Conf2013'
p39
tp40
a(S'ECL-WLAM'
p41
S'fvillanustre'
p42
S'fvillanustre/ECL-WLAM'
p43
tp44
a(S'ecl-samples'
p45
S'johnholt'
p46
S'johnholt/ecl-samples'
p47
tp48
a(S'ecl-ml'
p49
S'gilbcharlene'
p50
S'gilbcharlene/ecl-ml'
p51
tp52
a(S'ecl-ml'
p53
S'richardkchapman'
p54
S'richardkchapman/ecl-ml'
p55
tp56
a(S'i2b2-db'
p57
S'bp2014n2'
p58
S'bp2014n2/i2b2-db'
p59
tp60
a(S'ecl-ml'
p61
S'lorraineachapman'
p62
S'lorraineachapman/ecl-ml'
p63
tp64
a(S'embedjson'
p65
S'tlhumphrey2'
p66
S'tlhumphrey2/embedjson'
p67
tp68
a(S'ecl-bundles'
p69
S'emuharemagic'
p70
S'emuharemagic/ecl-bundles'
p71
tp72
a(S'TrainingItaumaAdvECL'
p73
S'amightyo'
p74
S'amightyo/TrainingItaumaAdvECL'
p75
tp76
a(S'Bloom'
p77
S'ecl-bundles'
p78
S'ecl-bundles/Bloom'
p79
tp80
a(S'TextMessage'
p81
S'gmwitz'
p82
S'gmwitz/TextMessage'
p83
tp84
a(S'Substitution_cipher_ECL'
p85
S'gmwitz'
p86
S'gmwitz/Substitution_cipher_ECL'
p87
tp88
a(S'actan'
p89
S'Saulus'
p90
S'Saulus/actan'
p91
tp92
a(S'Problemas_de_Satisfaccion_de_Restricciones'
p93
S'cjferba'
p94
S'cjferba/Problemas_de_Satisfaccion_de_Restricciones'
p95
tp96
a(S'PrologFinal'
p97
S'thanhnguyen195'
p98
S'thanhnguyen195/PrologFinal'
p99
tp100
a(S'ecl-ml'
p101
S'hpcc-systems'
p102
S'hpcc-systems/ecl-ml'
p103
tp104
a(S'ecl-samples'
p105
S'hpcc-systems'
p106
S'hpcc-systems/ecl-samples'
p107
tp108
a(S'ecl-bundles'
p109
S'hpcc-systems'
p110
S'hpcc-systems/ecl-bundles'
p111
tp112
a(S'ECL-WLAM'
p113
S'hpcc-systems'
p114
S'hpcc-systems/ECL-WLAM'
p115
tp116
a(S'ecl-ml'
p117
S'johnholt'
p118
S'johnholt/ecl-ml'
p119
tp120
a(S'ecl-ml'
p121
S'emuharemagic'
p122
S'emuharemagic/ecl-ml'
p123
tp124
a(S'ecl-samples'
p125
S'GordonSmith'
p126
S'GordonSmith/ecl-samples'
p127
tp128
a(S'ecl-ml'
p129
S'DonVitorio'
p130
S'DonVitorio/ecl-ml'
p131
tp132
a(S'ecl-ml'
p133
S'jprichard'
p134
S'jprichard/ecl-ml'
p135
tp136
a(S'Conf2013'
p137
S'GordonSmith'
p138
S'GordonSmith/Conf2013'
p139
tp140
a(S'ECL-WLAM'
p141
S'fvillanustre'
p142
S'fvillanustre/ECL-WLAM'
p143
tp144
a(S'ecl-samples'
p145
S'johnholt'
p146
S'johnholt/ecl-samples'
p147
tp148
a(S'ecl-ml'
p149
S'gilbcharlene'
p150
S'gilbcharlene/ecl-ml'
p151
tp152
a(S'ecl-ml'
p153
S'richardkchapman'
p154
S'richardkchapman/ecl-ml'
p155
tp156
a(S'i2b2-db'
p157
S'bp2014n2'
p158
S'bp2014n2/i2b2-db'
p159
tp160
a(S'ecl-ml'
p161
S'lorraineachapman'
p162
S'lorraineachapman/ecl-ml'
p163
tp164
a(S'embedjson'
p165
S'tlhumphrey2'
p166
S'tlhumphrey2/embedjson'
p167
tp168
a(S'ecl-bundles'
p169
S'emuharemagic'
p170
S'emuharemagic/ecl-bundles'
p171
tp172
a(S'TrainingItaumaAdvECL'
p173
S'amightyo'
p174
S'amightyo/TrainingItaumaAdvECL'
p175
tp176
a(S'Bloom'
p177
S'ecl-bundles'
p178
S'ecl-bundles/Bloom'
p179
tp180
a(S'TextMessage'
p181
S'gmwitz'
p182
S'gmwitz/TextMessage'
p183
tp184
a(S'Substitution_cipher_ECL'
p185
S'gmwitz'
p186
S'gmwitz/Substitution_cipher_ECL'
p187
tp188
a(S'actan'
p189
S'Saulus'
p190
S'Saulus/actan'
p191
tp192
a(S'Problemas_de_Satisfaccion_de_Restricciones'
p193
S'cjferba'
p194
S'cjferba/Problemas_de_Satisfaccion_de_Restricciones'
p195
tp196
a(S'PrologFinal'
p197
S'thanhnguyen195'
p198
S'thanhnguyen195/PrologFinal'
p199
tp200
a(S'ecl-ml'
p201
S'hpcc-systems'
p202
S'hpcc-systems/ecl-ml'
p203
tp204
a(S'ecl-samples'
p205
S'hpcc-systems'
p206
S'hpcc-systems/ecl-samples'
p207
tp208
a(S'ecl-bundles'
p209
S'hpcc-systems'
p210
S'hpcc-systems/ecl-bundles'
p211
tp212
a(S'ECL-WLAM'
p213
S'hpcc-systems'
p214
S'hpcc-systems/ECL-WLAM'
p215
tp216
a(S'ecl-ml'
p217
S'johnholt'
p218
S'johnholt/ecl-ml'
p219
tp220
a(S'ecl-ml'
p221
S'emuharemagic'
p222
S'emuharemagic/ecl-ml'
p223
tp224
a(S'ecl-samples'
p225
S'GordonSmith'
p226
S'GordonSmith/ecl-samples'
p227
tp228
a(S'ecl-ml'
p229
S'DonVitorio'
p230
S'DonVitorio/ecl-ml'
p231
tp232
a(S'ecl-ml'
p233
S'jprichard'
p234
S'jprichard/ecl-ml'
p235
tp236
a(S'Conf2013'
p237
S'GordonSmith'
p238
S'GordonSmith/Conf2013'
p239
tp240
a(S'ECL-WLAM'
p241
S'fvillanustre'
p242
S'fvillanustre/ECL-WLAM'
p243
tp244
a(S'ecl-samples'
p245
S'johnholt'
p246
S'johnholt/ecl-samples'
p247
tp248
a(S'ecl-ml'
p249
S'gilbcharlene'
p250
S'gilbcharlene/ecl-ml'
p251
tp252
a(S'ecl-ml'
p253
S'richardkchapman'
p254
S'richardkchapman/ecl-ml'
p255
tp256
a(S'i2b2-db'
p257
S'bp2014n2'
p258
S'bp2014n2/i2b2-db'
p259
tp260
a(S'ecl-ml'
p261
S'lorraineachapman'
p262
S'lorraineachapman/ecl-ml'
p263
tp264
a(S'embedjson'
p265
S'tlhumphrey2'
p266
S'tlhumphrey2/embedjson'
p267
tp268
a(S'ecl-bundles'
p269
S'emuharemagic'
p270
S'emuharemagic/ecl-bundles'
p271
tp272
a(S'TrainingItaumaAdvECL'
p273
S'amightyo'
p274
S'amightyo/TrainingItaumaAdvECL'
p275
tp276
a(S'Bloom'
p277
S'ecl-bundles'
p278
S'ecl-bundles/Bloom'
p279
tp280
a(S'TextMessage'
p281
S'gmwitz'
p282
S'gmwitz/TextMessage'
p283
tp284
a(S'Substitution_cipher_ECL'
p285
S'gmwitz'
p286
S'gmwitz/Substitution_cipher_ECL'
p287
tp288
a(S'actan'
p289
S'Saulus'
p290
S'Saulus/actan'
p291
tp292
a(S'Problemas_de_Satisfaccion_de_Restricciones'
p293
S'cjferba'
p294
S'cjferba/Problemas_de_Satisfaccion_de_Restricciones'
p295
tp296
a(S'PrologFinal'
p297
S'thanhnguyen195'
p298
S'thanhnguyen195/PrologFinal'
p299
tp300
a.