(lp0
(S'quine'
p1
S'MakeNowJust'
p2
S'MakeNowJust/quine'
p3
tp4
a(S'gobo'
p5
S'gobo-eiffel'
p6
S'gobo-eiffel/gobo'
p7
tp8
a(S'EWF'
p9
S'EiffelWebFramework'
p10
S'EiffelWebFramework/EWF'
p11
tp12
a(S'json'
p13
S'eiffelhub'
p14
S'eiffelhub/json'
p15
tp16
a(S'epm'
p17
S'oligot'
p18
S'oligot/epm'
p19
tp20
a(S'EiffelStudio'
p21
S'EiffelSoftware'
p22
S'EiffelSoftware/EiffelStudio'
p23
tp24
a(S'EiffelWebNino'
p25
S'jvelilla'
p26
S'jvelilla/EiffelWebNino'
p27
tp28
a(S'eel'
p29
S'jocelyn'
p30
S'jocelyn/eel'
p31
tp32
a(S'bricabrac'
p33
S'jocelyn'
p34
S'jocelyn/bricabrac'
p35
tp36
a(S'eiffel-2048'
p37
S'nmaguirre'
p38
S'nmaguirre/eiffel-2048'
p39
tp40
a(S'codemetre'
p41
S'seventh'
p42
S'seventh/codemetre'
p43
tp44
a(S'HAL'
p45
S'EiffelWebFramework'
p46
S'EiffelWebFramework/HAL'
p47
tp48
a(S'RosettaCode'
p49
S'jvelilla'
p50
S'jvelilla/RosettaCode'
p51
tp52
a(S'lib'
p53
S'safe-eiffel'
p54
S'safe-eiffel/lib'
p55
tp56
a(S'EWF'
p57
S'jocelyn'
p58
S'jocelyn/EWF'
p59
tp60
a(S'eiffel_game_lib'
p61
S'tioui'
p62
S'tioui/eiffel_game_lib'
p63
tp64
a(S'ecli'
p65
S'safe-eiffel'
p66
S'safe-eiffel/ecli'
p67
tp68
a(S'swagger'
p69
S'EiffelWebFramework'
p70
S'EiffelWebFramework/swagger'
p71
tp72
a(S'mine-eiffel'
p73
S'hirunatan'
p74
S'hirunatan/mine-eiffel'
p75
tp76
a(S'language-eiffel'
p77
S'scottgw'
p78
S'scottgw/language-eiffel'
p79
tp80
a(S'msp-goanna'
p81
S'neallester'
p82
S'neallester/msp-goanna'
p83
tp84
a(S'adl-tools'
p85
S'openEHR'
p86
S'openEHR/adl-tools'
p87
tp88
a(S'Engin100-Team-Ah-Maze-Ing'
p89
S'dhda'
p90
S'dhda/Engin100-Team-Ah-Maze-Ing'
p91
tp92
a(S'EiffelWebReloaded'
p93
S'jocelyn-old'
p94
S'jocelyn-old/EiffelWebReloaded'
p95
tp96
a(S'vasculature_july10'
p97
S'ImageGuidedTherapyLab'
p98
S'ImageGuidedTherapyLab/vasculature_july10'
p99
tp100
a(S'quine'
p101
S'MakeNowJust'
p102
S'MakeNowJust/quine'
p103
tp104
a(S'gobo'
p105
S'gobo-eiffel'
p106
S'gobo-eiffel/gobo'
p107
tp108
a(S'EWF'
p109
S'EiffelWebFramework'
p110
S'EiffelWebFramework/EWF'
p111
tp112
a(S'json'
p113
S'eiffelhub'
p114
S'eiffelhub/json'
p115
tp116
a(S'epm'
p117
S'oligot'
p118
S'oligot/epm'
p119
tp120
a(S'EiffelStudio'
p121
S'EiffelSoftware'
p122
S'EiffelSoftware/EiffelStudio'
p123
tp124
a(S'EiffelWebNino'
p125
S'jvelilla'
p126
S'jvelilla/EiffelWebNino'
p127
tp128
a(S'eel'
p129
S'jocelyn'
p130
S'jocelyn/eel'
p131
tp132
a(S'bricabrac'
p133
S'jocelyn'
p134
S'jocelyn/bricabrac'
p135
tp136
a(S'eiffel-2048'
p137
S'nmaguirre'
p138
S'nmaguirre/eiffel-2048'
p139
tp140
a(S'codemetre'
p141
S'seventh'
p142
S'seventh/codemetre'
p143
tp144
a(S'HAL'
p145
S'EiffelWebFramework'
p146
S'EiffelWebFramework/HAL'
p147
tp148
a(S'RosettaCode'
p149
S'jvelilla'
p150
S'jvelilla/RosettaCode'
p151
tp152
a(S'lib'
p153
S'safe-eiffel'
p154
S'safe-eiffel/lib'
p155
tp156
a(S'EWF'
p157
S'jocelyn'
p158
S'jocelyn/EWF'
p159
tp160
a(S'eiffel_game_lib'
p161
S'tioui'
p162
S'tioui/eiffel_game_lib'
p163
tp164
a(S'ecli'
p165
S'safe-eiffel'
p166
S'safe-eiffel/ecli'
p167
tp168
a(S'swagger'
p169
S'EiffelWebFramework'
p170
S'EiffelWebFramework/swagger'
p171
tp172
a(S'mine-eiffel'
p173
S'hirunatan'
p174
S'hirunatan/mine-eiffel'
p175
tp176
a(S'language-eiffel'
p177
S'scottgw'
p178
S'scottgw/language-eiffel'
p179
tp180
a(S'msp-goanna'
p181
S'neallester'
p182
S'neallester/msp-goanna'
p183
tp184
a(S'adl-tools'
p185
S'openEHR'
p186
S'openEHR/adl-tools'
p187
tp188
a(S'Engin100-Team-Ah-Maze-Ing'
p189
S'dhda'
p190
S'dhda/Engin100-Team-Ah-Maze-Ing'
p191
tp192
a(S'EiffelWebReloaded'
p193
S'jocelyn-old'
p194
S'jocelyn-old/EiffelWebReloaded'
p195
tp196
a(S'vasculature_july10'
p197
S'ImageGuidedTherapyLab'
p198
S'ImageGuidedTherapyLab/vasculature_july10'
p199
tp200
a(S'quine'
p201
S'MakeNowJust'
p202
S'MakeNowJust/quine'
p203
tp204
a(S'gobo'
p205
S'gobo-eiffel'
p206
S'gobo-eiffel/gobo'
p207
tp208
a(S'EWF'
p209
S'EiffelWebFramework'
p210
S'EiffelWebFramework/EWF'
p211
tp212
a(S'json'
p213
S'eiffelhub'
p214
S'eiffelhub/json'
p215
tp216
a(S'epm'
p217
S'oligot'
p218
S'oligot/epm'
p219
tp220
a(S'EiffelStudio'
p221
S'EiffelSoftware'
p222
S'EiffelSoftware/EiffelStudio'
p223
tp224
a(S'EiffelWebNino'
p225
S'jvelilla'
p226
S'jvelilla/EiffelWebNino'
p227
tp228
a(S'eel'
p229
S'jocelyn'
p230
S'jocelyn/eel'
p231
tp232
a(S'bricabrac'
p233
S'jocelyn'
p234
S'jocelyn/bricabrac'
p235
tp236
a(S'eiffel-2048'
p237
S'nmaguirre'
p238
S'nmaguirre/eiffel-2048'
p239
tp240
a(S'codemetre'
p241
S'seventh'
p242
S'seventh/codemetre'
p243
tp244
a(S'HAL'
p245
S'EiffelWebFramework'
p246
S'EiffelWebFramework/HAL'
p247
tp248
a(S'RosettaCode'
p249
S'jvelilla'
p250
S'jvelilla/RosettaCode'
p251
tp252
a(S'lib'
p253
S'safe-eiffel'
p254
S'safe-eiffel/lib'
p255
tp256
a(S'EWF'
p257
S'jocelyn'
p258
S'jocelyn/EWF'
p259
tp260
a(S'eiffel_game_lib'
p261
S'tioui'
p262
S'tioui/eiffel_game_lib'
p263
tp264
a(S'ecli'
p265
S'safe-eiffel'
p266
S'safe-eiffel/ecli'
p267
tp268
a(S'swagger'
p269
S'EiffelWebFramework'
p270
S'EiffelWebFramework/swagger'
p271
tp272
a(S'mine-eiffel'
p273
S'hirunatan'
p274
S'hirunatan/mine-eiffel'
p275
tp276
a(S'language-eiffel'
p277
S'scottgw'
p278
S'scottgw/language-eiffel'
p279
tp280
a(S'msp-goanna'
p281
S'neallester'
p282
S'neallester/msp-goanna'
p283
tp284
a(S'adl-tools'
p285
S'openEHR'
p286
S'openEHR/adl-tools'
p287
tp288
a(S'Engin100-Team-Ah-Maze-Ing'
p289
S'dhda'
p290
S'dhda/Engin100-Team-Ah-Maze-Ing'
p291
tp292
a(S'EiffelWebReloaded'
p293
S'jocelyn-old'
p294
S'jocelyn-old/EiffelWebReloaded'
p295
tp296
a(S'vasculature_july10'
p297
S'ImageGuidedTherapyLab'
p298
S'ImageGuidedTherapyLab/vasculature_july10'
p299
tp300
a.