(lp0
(S'elixir-linq-examples'
p1
S'omnibs'
p2
S'omnibs/elixir-linq-examples'
p3
tp4
a(S'phoenix'
p5
S'phoenixframework'
p6
S'phoenixframework/phoenix'
p7
tp8
a(S'elixir'
p9
S'elixir-lang'
p10
S'elixir-lang/elixir'
p11
tp12
a(S'moebius'
p13
S'robconery'
p14
S'robconery/moebius'
p15
tp16
a(S'awesome-elixir'
p17
S'h4cc'
p18
S'h4cc/awesome-elixir'
p19
tp20
a(S'elixirscript'
p21
S'bryanjos'
p22
S'bryanjos/elixirscript'
p23
tp24
a(S'ecto'
p25
S'elixir-lang'
p26
S'elixir-lang/ecto'
p27
tp28
a(S'dynamo'
p29
S'dynamo'
p30
S'dynamo/dynamo'
p31
tp32
a(S'30-days-of-elixir'
p33
S'seven1m'
p34
S'seven1m/30-days-of-elixir'
p35
tp36
a(S'plug'
p37
S'elixir-lang'
p38
S'elixir-lang/plug'
p39
tp40
a(S'poxa'
p41
S'edgurgel'
p42
S'edgurgel/poxa'
p43
tp44
a(S'exrm'
p45
S'bitwalker'
p46
S'bitwalker/exrm'
p47
tp48
a(S'weber'
p49
S'elixir-web'
p50
S'elixir-web/weber'
p51
tp52
a(S'httpotion'
p53
S'myfreeweb'
p54
S'myfreeweb/httpotion'
p55
tp56
a(S'poison'
p57
S'devinus'
p58
S'devinus/poison'
p59
tp60
a(S'httpoison'
p61
S'edgurgel'
p62
S'edgurgel/httpoison'
p63
tp64
a(S'etudes-for-elixir'
p65
S'oreillymedia'
p66
S'oreillymedia/etudes-for-elixir'
p67
tp68
a(S'hound'
p69
S'HashNuke'
p70
S'HashNuke/hound'
p71
tp72
a(S'guardian'
p73
S'hassox'
p74
S'hassox/guardian'
p75
tp76
a(S'elixir-socket'
p77
S'meh'
p78
S'meh/elixir-socket'
p79
tp80
a(S'a-little-elixir-goes-a-long-way'
p81
S'jwhiteman'
p82
S'jwhiteman/a-little-elixir-goes-a-long-way'
p83
tp84
a(S'sugar'
p85
S'sugar-framework'
p86
S'sugar-framework/sugar'
p87
tp88
a(S'maru'
p89
S'falood'
p90
S'falood/maru'
p91
tp92
a(S'exactor'
p93
S'sasa1977'
p94
S'sasa1977/exactor'
p95
tp96
a(S'addict'
p97
S'trenpixster'
p98
S'trenpixster/addict'
p99
tp100
a(S'phoenix'
p101
S'phoenixframework'
p102
S'phoenixframework/phoenix'
p103
tp104
a(S'moebius'
p105
S'robconery'
p106
S'robconery/moebius'
p107
tp108
a(S'elixir'
p109
S'elixir-lang'
p110
S'elixir-lang/elixir'
p111
tp112
a(S'awesome-elixir'
p113
S'h4cc'
p114
S'h4cc/awesome-elixir'
p115
tp116
a(S'elixirscript'
p117
S'bryanjos'
p118
S'bryanjos/elixirscript'
p119
tp120
a(S'ecto'
p121
S'elixir-lang'
p122
S'elixir-lang/ecto'
p123
tp124
a(S'elixir-linq-examples'
p125
S'omnibs'
p126
S'omnibs/elixir-linq-examples'
p127
tp128
a(S'elixir-pipes'
p129
S'batate'
p130
S'batate/elixir-pipes'
p131
tp132
a(S'plug'
p133
S'elixir-lang'
p134
S'elixir-lang/plug'
p135
tp136
a(S'ex_top'
p137
S'utkarshkukreti'
p138
S'utkarshkukreti/ex_top'
p139
tp140
a(S'rethinkdb-elixir'
p141
S'hamiltop'
p142
S'hamiltop/rethinkdb-elixir'
p143
tp144
a(S'floki'
p145
S'philss'
p146
S'philss/floki'
p147
tp148
a(S'ex_admin'
p149
S'smpallen99'
p150
S'smpallen99/ex_admin'
p151
tp152
a(S'timex'
p153
S'bitwalker'
p154
S'bitwalker/timex'
p155
tp156
a(S'comeonin'
p157
S'elixircnx'
p158
S'elixircnx/comeonin'
p159
tp160
a(S'hex'
p161
S'hexpm'
p162
S'hexpm/hex'
p163
tp164
a(S'hex_web'
p165
S'hexpm'
p166
S'hexpm/hex_web'
p167
tp168
a(S'gettext'
p169
S'elixir-lang'
p170
S'elixir-lang/gettext'
p171
tp172
a(S'monad'
p173
S'rmies'
p174
S'rmies/monad'
p175
tp176
a(S'linguist'
p177
S'chrismccord'
p178
S'chrismccord/linguist'
p179
tp180
a(S'dynamo'
p181
S'dynamo'
p182
S'dynamo/dynamo'
p183
tp184
a(S'30-days-of-elixir'
p185
S'seven1m'
p186
S'seven1m/30-days-of-elixir'
p187
tp188
a(S'poxa'
p189
S'edgurgel'
p190
S'edgurgel/poxa'
p191
tp192
a(S'exrm'
p193
S'bitwalker'
p194
S'bitwalker/exrm'
p195
tp196
a(S'weber'
p197
S'elixir-web'
p198
S'elixir-web/weber'
p199
tp200
a(S'elixir'
p201
S'elixir-lang'
p202
S'elixir-lang/elixir'
p203
tp204
a(S'phoenix'
p205
S'phoenixframework'
p206
S'phoenixframework/phoenix'
p207
tp208
a(S'awesome-elixir'
p209
S'h4cc'
p210
S'h4cc/awesome-elixir'
p211
tp212
a(S'elixirscript'
p213
S'bryanjos'
p214
S'bryanjos/elixirscript'
p215
tp216
a(S'ex_top'
p217
S'utkarshkukreti'
p218
S'utkarshkukreti/ex_top'
p219
tp220
a(S'ecto'
p221
S'elixir-lang'
p222
S'elixir-lang/ecto'
p223
tp224
a(S'moebius'
p225
S'robconery'
p226
S'robconery/moebius'
p227
tp228
a(S'plug'
p229
S'elixir-lang'
p230
S'elixir-lang/plug'
p231
tp232
a(S'progress_bar'
p233
S'henrik'
p234
S'henrik/progress_bar'
p235
tp236
a(S'power_assert_ex'
p237
S'ma2gedev'
p238
S'ma2gedev/power_assert_ex'
p239
tp240
a(S'floki'
p241
S'philss'
p242
S'philss/floki'
p243
tp244
a(S'timex'
p245
S'bitwalker'
p246
S'bitwalker/timex'
p247
tp248
a(S'elixir-pipes'
p249
S'batate'
p250
S'batate/elixir-pipes'
p251
tp252
a(S'dogma'
p253
S'lpil'
p254
S'lpil/dogma'
p255
tp256
a(S'rethinkdb-elixir'
p257
S'hamiltop'
p258
S'hamiltop/rethinkdb-elixir'
p259
tp260
a(S'addict'
p261
S'trenpixster'
p262
S'trenpixster/addict'
p263
tp264
a(S'chaos-spawn'
p265
S'meadsteve'
p266
S'meadsteve/chaos-spawn'
p267
tp268
a(S'ex_admin'
p269
S'smpallen99'
p270
S'smpallen99/ex_admin'
p271
tp272
a(S'elixir-linq-examples'
p273
S'omnibs'
p274
S'omnibs/elixir-linq-examples'
p275
tp276
a(S'ex_machina'
p277
S'thoughtbot'
p278
S'thoughtbot/ex_machina'
p279
tp280
a(S'comeonin'
p281
S'elixircnx'
p282
S'elixircnx/comeonin'
p283
tp284
a(S'postgrex'
p285
S'ericmj'
p286
S'ericmj/postgrex'
p287
tp288
a(S'extwitter'
p289
S'parroty'
p290
S'parroty/extwitter'
p291
tp292
a(S'Elixir-Slack'
p293
S'BlakeWilliams'
p294
S'BlakeWilliams/Elixir-Slack'
p295
tp296
a(S'reaxt'
p297
S'awetzel'
p298
S'awetzel/reaxt'
p299
tp300
a.