(lp0
(S'elm-lang.org'
p1
S'elm-lang'
p2
S'elm-lang/elm-lang.org'
p3
tp4
a(S'elm-html'
p5
S'evancz'
p6
S'evancz/elm-html'
p7
tp8
a(S'core'
p9
S'elm-lang'
p10
S'elm-lang/core'
p11
tp12
a(S'start-app'
p13
S'evancz'
p14
S'evancz/start-app'
p15
tp16
a(S'elm-webgl'
p17
S'johnpmayer'
p18
S'johnpmayer/elm-webgl'
p19
tp20
a(S'elmtris'
p21
S'jcollard'
p22
S'jcollard/elmtris'
p23
tp24
a(S'Gravity'
p25
S'stephenbalaban'
p26
S'stephenbalaban/Gravity'
p27
tp28
a(S'TodoFRP'
p29
S'evancz'
p30
S'evancz/TodoFRP'
p31
tp32
a(S'vessel'
p33
S'slawrence'
p34
S'slawrence/vessel'
p35
tp36
a(S'first-person-elm'
p37
S'evancz'
p38
S'evancz/first-person-elm'
p39
tp40
a(S'elm-checkerboardgrid-tutorial'
p41
S'TheSeamau5'
p42
S'TheSeamau5/elm-checkerboardgrid-tutorial'
p43
tp44
a(S'elm-test'
p45
S'deadfoxygrandpa'
p46
S'deadfoxygrandpa/elm-test'
p47
tp48
a(S'elm-sydron'
p49
S'jessitron'
p50
S'jessitron/elm-sydron'
p51
tp52
a(S'elmfire'
p53
S'ThomasWeiser'
p54
S'ThomasWeiser/elmfire'
p55
tp56
a(S'elm-by-example'
p57
S'grzegorzbalcerek'
p58
S'grzegorzbalcerek/elm-by-example'
p59
tp60
a(S'chronicle'
p61
S'srid'
p62
S'srid/chronicle'
p63
tp64
a(S'elm-router'
p65
S'TheSeamau5'
p66
S'TheSeamau5/elm-router'
p67
tp68
a(S'pewpew'
p69
S'FireflyLogic'
p70
S'FireflyLogic/pewpew'
p71
tp72
a(S'elm-examples'
p73
S'evancz'
p74
S'evancz/elm-examples'
p75
tp76
a(S'Breakout'
p77
S'Dobiasd'
p78
S'Dobiasd/Breakout'
p79
tp80
a(S'elm-undo-redo'
p81
S'TheSeamau5'
p82
S'TheSeamau5/elm-undo-redo'
p83
tp84
a(S'IO'
p85
S'maxsnew'
p86
S'maxsnew/IO'
p87
tp88
a(S'elm-bootstrap-html'
p89
S'circuithub'
p90
S'circuithub/elm-bootstrap-html'
p91
tp92
a(S'elmchat'
p93
S'twopoint718'
p94
S'twopoint718/elmchat'
p95
tp96
a(S'elm-effects'
p97
S'evancz'
p98
S'evancz/elm-effects'
p99
tp100
a(S'start-app'
p101
S'evancz'
p102
S'evancz/start-app'
p103
tp104
a(S'elm-lang.org'
p105
S'elm-lang'
p106
S'elm-lang/elm-lang.org'
p107
tp108
a(S'core'
p109
S'elm-lang'
p110
S'elm-lang/core'
p111
tp112
a(S'elm-html'
p113
S'evancz'
p114
S'evancz/elm-html'
p115
tp116
a(S'elm-webgl'
p117
S'johnpmayer'
p118
S'johnpmayer/elm-webgl'
p119
tp120
a(S'elmtris'
p121
S'jcollard'
p122
S'jcollard/elmtris'
p123
tp124
a(S'Gravity'
p125
S'stephenbalaban'
p126
S'stephenbalaban/Gravity'
p127
tp128
a(S'TodoFRP'
p129
S'evancz'
p130
S'evancz/TodoFRP'
p131
tp132
a(S'vessel'
p133
S'slawrence'
p134
S'slawrence/vessel'
p135
tp136
a(S'first-person-elm'
p137
S'evancz'
p138
S'evancz/first-person-elm'
p139
tp140
a(S'elm-checkerboardgrid-tutorial'
p141
S'TheSeamau5'
p142
S'TheSeamau5/elm-checkerboardgrid-tutorial'
p143
tp144
a(S'elm-test'
p145
S'deadfoxygrandpa'
p146
S'deadfoxygrandpa/elm-test'
p147
tp148
a(S'elm-sydron'
p149
S'jessitron'
p150
S'jessitron/elm-sydron'
p151
tp152
a(S'elmfire'
p153
S'ThomasWeiser'
p154
S'ThomasWeiser/elmfire'
p155
tp156
a(S'elm-by-example'
p157
S'grzegorzbalcerek'
p158
S'grzegorzbalcerek/elm-by-example'
p159
tp160
a(S'chronicle'
p161
S'srid'
p162
S'srid/chronicle'
p163
tp164
a(S'elm-router'
p165
S'TheSeamau5'
p166
S'TheSeamau5/elm-router'
p167
tp168
a(S'pewpew'
p169
S'FireflyLogic'
p170
S'FireflyLogic/pewpew'
p171
tp172
a(S'elm-examples'
p173
S'evancz'
p174
S'evancz/elm-examples'
p175
tp176
a(S'Breakout'
p177
S'Dobiasd'
p178
S'Dobiasd/Breakout'
p179
tp180
a(S'IO'
p181
S'maxsnew'
p182
S'maxsnew/IO'
p183
tp184
a(S'elm-undo-redo'
p185
S'TheSeamau5'
p186
S'TheSeamau5/elm-undo-redo'
p187
tp188
a(S'elm-bootstrap-html'
p189
S'circuithub'
p190
S'circuithub/elm-bootstrap-html'
p191
tp192
a(S'elmchat'
p193
S'twopoint718'
p194
S'twopoint718/elmchat'
p195
tp196
a(S'elm-effects'
p197
S'evancz'
p198
S'evancz/elm-effects'
p199
tp200
a(S'start-app'
p201
S'evancz'
p202
S'evancz/start-app'
p203
tp204
a(S'core'
p205
S'elm-lang'
p206
S'elm-lang/core'
p207
tp208
a(S'elm-lang.org'
p209
S'elm-lang'
p210
S'elm-lang/elm-lang.org'
p211
tp212
a(S'elm-test'
p213
S'deadfoxygrandpa'
p214
S'deadfoxygrandpa/elm-test'
p215
tp216
a(S'elmfire'
p217
S'ThomasWeiser'
p218
S'ThomasWeiser/elmfire'
p219
tp220
a(S'elm-html'
p221
S'evancz'
p222
S'evancz/elm-html'
p223
tp224
a(S'elm-webgl'
p225
S'johnpmayer'
p226
S'johnpmayer/elm-webgl'
p227
tp228
a(S'elmtris'
p229
S'jcollard'
p230
S'jcollard/elmtris'
p231
tp232
a(S'Gravity'
p233
S'stephenbalaban'
p234
S'stephenbalaban/Gravity'
p235
tp236
a(S'TodoFRP'
p237
S'evancz'
p238
S'evancz/TodoFRP'
p239
tp240
a(S'vessel'
p241
S'slawrence'
p242
S'slawrence/vessel'
p243
tp244
a(S'first-person-elm'
p245
S'evancz'
p246
S'evancz/first-person-elm'
p247
tp248
a(S'elm-checkerboardgrid-tutorial'
p249
S'TheSeamau5'
p250
S'TheSeamau5/elm-checkerboardgrid-tutorial'
p251
tp252
a(S'elm-sydron'
p253
S'jessitron'
p254
S'jessitron/elm-sydron'
p255
tp256
a(S'elm-by-example'
p257
S'grzegorzbalcerek'
p258
S'grzegorzbalcerek/elm-by-example'
p259
tp260
a(S'chronicle'
p261
S'srid'
p262
S'srid/chronicle'
p263
tp264
a(S'elm-router'
p265
S'TheSeamau5'
p266
S'TheSeamau5/elm-router'
p267
tp268
a(S'elm-examples'
p269
S'evancz'
p270
S'evancz/elm-examples'
p271
tp272
a(S'pewpew'
p273
S'FireflyLogic'
p274
S'FireflyLogic/pewpew'
p275
tp276
a(S'Breakout'
p277
S'Dobiasd'
p278
S'Dobiasd/Breakout'
p279
tp280
a(S'elm-undo-redo'
p281
S'TheSeamau5'
p282
S'TheSeamau5/elm-undo-redo'
p283
tp284
a(S'IO'
p285
S'maxsnew'
p286
S'maxsnew/IO'
p287
tp288
a(S'elmchat'
p289
S'twopoint718'
p290
S'twopoint718/elmchat'
p291
tp292
a(S'elm-bootstrap-html'
p293
S'circuithub'
p294
S'circuithub/elm-bootstrap-html'
p295
tp296
a(S'elm-effects'
p297
S'evancz'
p298
S'evancz/elm-effects'
p299
tp300
a.