(lp0
(S'spacemacs'
p1
S'syl20bnr'
p2
S'syl20bnr/spacemacs'
p3
tp4
a(S'haskell-mode'
p5
S'haskell'
p6
S'haskell/haskell-mode'
p7
tp8
a(S'web-mode'
p9
S'fxbois'
p10
S'fxbois/web-mode'
p11
tp12
a(S'bongo'
p13
S'dbrock'
p14
S'dbrock/bongo'
p15
tp16
a(S'el-get'
p17
S'dimitri'
p18
S'dimitri/el-get'
p19
tp20
a(S'melpa'
p21
S'milkypostman'
p22
S'milkypostman/melpa'
p23
tp24
a(S'ESS'
p25
S'emacs-ess'
p26
S'emacs-ess/ESS'
p27
tp28
a(S'exwm'
p29
S'ch11ng'
p30
S'ch11ng/exwm'
p31
tp32
a(S'emacs-live'
p33
S'overtone'
p34
S'overtone/emacs-live'
p35
tp36
a(S'prelude'
p37
S'bbatsov'
p38
S'bbatsov/prelude'
p39
tp40
a(S'emacs.d'
p41
S'purcell'
p42
S'purcell/emacs.d'
p43
tp44
a(S'magit'
p45
S'magit'
p46
S'magit/magit'
p47
tp48
a(S'cider'
p49
S'clojure-emacs'
p50
S'clojure-emacs/cider'
p51
tp52
a(S'know-your-http-well'
p53
S'for-GET'
p54
S'for-GET/know-your-http-well'
p55
tp56
a(S'projectile'
p57
S'bbatsov'
p58
S'bbatsov/projectile'
p59
tp60
a(S'awesome-emacs'
p61
S'emacs-tw'
p62
S'emacs-tw/awesome-emacs'
p63
tp64
a(S'helm'
p65
S'emacs-helm'
p66
S'emacs-helm/helm'
p67
tp68
a(S'yasnippet'
p69
S'capitaomorte'
p70
S'capitaomorte/yasnippet'
p71
tp72
a(S'dotfiles'
p73
S'garybernhardt'
p74
S'garybernhardt/dotfiles'
p75
tp76
a(S'phpsh'
p77
S'facebookarchive'
p78
S'facebookarchive/phpsh'
p79
tp80
a(S'auto-complete'
p81
S'auto-complete'
p82
S'auto-complete/auto-complete'
p83
tp84
a(S'emacs-color-theme-solarized'
p85
S'sellout'
p86
S'sellout/emacs-color-theme-solarized'
p87
tp88
a(S'.emacs.d'
p89
S'magnars'
p90
S'magnars/.emacs.d'
p91
tp92
a(S'flycheck'
p93
S'flycheck'
p94
S'flycheck/flycheck'
p95
tp96
a(S'multiple-cursors.el'
p97
S'magnars'
p98
S'magnars/multiple-cursors.el'
p99
tp100
a(S'spacemacs'
p101
S'syl20bnr'
p102
S'syl20bnr/spacemacs'
p103
tp104
a(S'beacon'
p105
S'Malabarba'
p106
S'Malabarba/beacon'
p107
tp108
a(S'emacs.d'
p109
S'purcell'
p110
S'purcell/emacs.d'
p111
tp112
a(S'awesome-emacs'
p113
S'emacs-tw'
p114
S'emacs-tw/awesome-emacs'
p115
tp116
a(S'prelude'
p117
S'bbatsov'
p118
S'bbatsov/prelude'
p119
tp120
a(S'mu4e-alert'
p121
S'iqbalansari'
p122
S'iqbalansari/mu4e-alert'
p123
tp124
a(S'cmake-ide'
p125
S'atilaneves'
p126
S'atilaneves/cmake-ide'
p127
tp128
a(S'emacs.d'
p129
S'redguardtoo'
p130
S'redguardtoo/emacs.d'
p131
tp132
a(S'bongo'
p133
S'dbrock'
p134
S'dbrock/bongo'
p135
tp136
a(S'helm'
p137
S'emacs-helm'
p138
S'emacs-helm/helm'
p139
tp140
a(S'melpa'
p141
S'milkypostman'
p142
S'milkypostman/melpa'
p143
tp144
a(S'magit'
p145
S'magit'
p146
S'magit/magit'
p147
tp148
a(S'haskell-mode'
p149
S'haskell'
p150
S'haskell/haskell-mode'
p151
tp152
a(S'alchemist.el'
p153
S'tonini'
p154
S'tonini/alchemist.el'
p155
tp156
a(S'Emacs-Elisp-Programming'
p157
S'caiorss'
p158
S'caiorss/Emacs-Elisp-Programming'
p159
tp160
a(S'projectile'
p161
S'bbatsov'
p162
S'bbatsov/projectile'
p163
tp164
a(S'avy'
p165
S'abo-abo'
p166
S'abo-abo/avy'
p167
tp168
a(S'cider'
p169
S'clojure-emacs'
p170
S'clojure-emacs/cider'
p171
tp172
a(S'demo-it'
p173
S'howardabrams'
p174
S'howardabrams/demo-it'
p175
tp176
a(S'emacs'
p177
S'emacs-mirror'
p178
S'emacs-mirror/emacs'
p179
tp180
a(S'elpy'
p181
S'jorgenschaefer'
p182
S'jorgenschaefer/elpy'
p183
tp184
a(S'company-mode'
p185
S'company-mode'
p186
S'company-mode/company-mode'
p187
tp188
a(S'expand-region.el'
p189
S'magnars'
p190
S'magnars/expand-region.el'
p191
tp192
a(S'hydra'
p193
S'abo-abo'
p194
S'abo-abo/hydra'
p195
tp196
a(S'emacs-elixir'
p197
S'elixir-lang'
p198
S'elixir-lang/emacs-elixir'
p199
tp200
a(S'spacemacs'
p201
S'syl20bnr'
p202
S'syl20bnr/spacemacs'
p203
tp204
a(S'emacs.d'
p205
S'purcell'
p206
S'purcell/emacs.d'
p207
tp208
a(S'awesome-emacs'
p209
S'emacs-tw'
p210
S'emacs-tw/awesome-emacs'
p211
tp212
a(S'prelude'
p213
S'bbatsov'
p214
S'bbatsov/prelude'
p215
tp216
a(S'helm'
p217
S'emacs-helm'
p218
S'emacs-helm/helm'
p219
tp220
a(S'beacon'
p221
S'Malabarba'
p222
S'Malabarba/beacon'
p223
tp224
a(S'magit'
p225
S'magit'
p226
S'magit/magit'
p227
tp228
a(S'cider'
p229
S'clojure-emacs'
p230
S'clojure-emacs/cider'
p231
tp232
a(S'spaceline'
p233
S'TheBB'
p234
S'TheBB/spaceline'
p235
tp236
a(S'melpa'
p237
S'milkypostman'
p238
S'milkypostman/melpa'
p239
tp240
a(S'projectile'
p241
S'bbatsov'
p242
S'bbatsov/projectile'
p243
tp244
a(S'emacs.d'
p245
S'redguardtoo'
p246
S'redguardtoo/emacs.d'
p247
tp248
a(S'emacs'
p249
S'emacs-mirror'
p250
S'emacs-mirror/emacs'
p251
tp252
a(S'company-mode'
p253
S'company-mode'
p254
S'company-mode/company-mode'
p255
tp256
a(S'alchemist.el'
p257
S'tonini'
p258
S'tonini/alchemist.el'
p259
tp260
a(S'haskell-mode'
p261
S'haskell'
p262
S'haskell/haskell-mode'
p263
tp264
a(S'yasnippet'
p265
S'capitaomorte'
p266
S'capitaomorte/yasnippet'
p267
tp268
a(S'restclient.el'
p269
S'pashky'
p270
S'pashky/restclient.el'
p271
tp272
a(S'flycheck'
p273
S'flycheck'
p274
S'flycheck/flycheck'
p275
tp276
a(S'mu4e-alert'
p277
S'iqbalansari'
p278
S'iqbalansari/mu4e-alert'
p279
tp280
a(S'exwm'
p281
S'ch11ng'
p282
S'ch11ng/exwm'
p283
tp284
a(S'cmake-ide'
p285
S'atilaneves'
p286
S'atilaneves/cmake-ide'
p287
tp288
a(S'elpy'
p289
S'jorgenschaefer'
p290
S'jorgenschaefer/elpy'
p291
tp292
a(S'pacmacs.el'
p293
S'rexim'
p294
S'rexim/pacmacs.el'
p295
tp296
a(S'emacs-which-key'
p297
S'justbur'
p298
S'justbur/emacs-which-key'
p299
tp300
a.