(lp0
(S'turtlebot_simulator'
p1
S'turtlebot'
p2
S'turtlebot/turtlebot_simulator'
p3
tp4
a(S'docker_images'
p5
S'osrf'
p6
S'osrf/docker_images'
p7
tp8
a(S'catkin_simple'
p9
S'catkin'
p10
S'catkin/catkin_simple'
p11
tp12
a(S'docker_templates'
p13
S'osrf'
p14
S'osrf/docker_templates'
p15
tp16
a(S'source-insight-scripts'
p17
S'nextcoffee'
p18
S'nextcoffee/source-insight-scripts'
p19
tp20
a(S'SourceInsightMacroCollection'
p21
S'j5shi'
p22
S'j5shi/SourceInsightMacroCollection'
p23
tp24
a(S'SourceInsight'
p25
S'caz28'
p26
S'caz28/SourceInsight'
p27
tp28
a(S'borrowers'
p29
S'kennethcalamay'
p30
S'kennethcalamay/borrowers'
p31
tp32
a(S'Cloudy'
p33
S'laurennc'
p34
S'laurennc/Cloudy'
p35
tp36
a(S'XML_teoria'
p37
S'dfleta'
p38
S'dfleta/XML_teoria'
p39
tp40
a(S'playbooks'
p41
S'dcleric'
p42
S'dcleric/playbooks'
p43
tp44
a(S'self'
p45
S'daixinning'
p46
S'daixinning/self'
p47
tp48
a(S'Xu_2008'
p49
S'maiko1219'
p50
S'maiko1219/Xu_2008'
p51
tp52
a(S'EmilyPlayground'
p53
S'Strikingwolf'
p54
S'Strikingwolf/EmilyPlayground'
p55
tp56
a(S'uoquestshard'
p57
S'alucardxlx'
p58
S'alucardxlx/uoquestshard'
p59
tp60
a(S'toyweb_concert'
p61
S'dwlee'
p62
S'dwlee/toyweb_concert'
p63
tp64
a(S'id_generator'
p65
S'kolybasov'
p66
S'kolybasov/id_generator'
p67
tp68
a(S'bootstrap'
p69
S'jenix21'
p70
S'jenix21/bootstrap'
p71
tp72
a(S'multi_robot_stage'
p73
S'ferherranz'
p74
S'ferherranz/multi_robot_stage'
p75
tp76
a(S'CellML2EML'
p77
S'naito'
p78
S'naito/CellML2EML'
p79
tp80
a(S'si-macro'
p81
S'lingato'
p82
S'lingato/si-macro'
p83
tp84
a(S'BioSimulation1-2014'
p85
S'naito'
p86
S'naito/BioSimulation1-2014'
p87
tp88
a(S'BioSimulation1'
p89
S'naito'
p90
S'naito/BioSimulation1'
p91
tp92
a(S'SourceInsight'
p93
S'aceofall'
p94
S'aceofall/SourceInsight'
p95
tp96
a(S'SI-Plugin'
p97
S'long2015'
p98
S'long2015/SI-Plugin'
p99
tp100
a(S'turtlebot_simulator'
p101
S'turtlebot'
p102
S'turtlebot/turtlebot_simulator'
p103
tp104
a(S'docker_images'
p105
S'osrf'
p106
S'osrf/docker_images'
p107
tp108
a(S'catkin_simple'
p109
S'catkin'
p110
S'catkin/catkin_simple'
p111
tp112
a(S'docker_templates'
p113
S'osrf'
p114
S'osrf/docker_templates'
p115
tp116
a(S'source-insight-scripts'
p117
S'nextcoffee'
p118
S'nextcoffee/source-insight-scripts'
p119
tp120
a(S'SourceInsightMacroCollection'
p121
S'j5shi'
p122
S'j5shi/SourceInsightMacroCollection'
p123
tp124
a(S'SourceInsight'
p125
S'caz28'
p126
S'caz28/SourceInsight'
p127
tp128
a(S'borrowers'
p129
S'kennethcalamay'
p130
S'kennethcalamay/borrowers'
p131
tp132
a(S'Cloudy'
p133
S'laurennc'
p134
S'laurennc/Cloudy'
p135
tp136
a(S'XML_teoria'
p137
S'dfleta'
p138
S'dfleta/XML_teoria'
p139
tp140
a(S'playbooks'
p141
S'dcleric'
p142
S'dcleric/playbooks'
p143
tp144
a(S'self'
p145
S'daixinning'
p146
S'daixinning/self'
p147
tp148
a(S'Xu_2008'
p149
S'maiko1219'
p150
S'maiko1219/Xu_2008'
p151
tp152
a(S'EmilyPlayground'
p153
S'Strikingwolf'
p154
S'Strikingwolf/EmilyPlayground'
p155
tp156
a(S'uoquestshard'
p157
S'alucardxlx'
p158
S'alucardxlx/uoquestshard'
p159
tp160
a(S'toyweb_concert'
p161
S'dwlee'
p162
S'dwlee/toyweb_concert'
p163
tp164
a(S'id_generator'
p165
S'kolybasov'
p166
S'kolybasov/id_generator'
p167
tp168
a(S'bootstrap'
p169
S'jenix21'
p170
S'jenix21/bootstrap'
p171
tp172
a(S'multi_robot_stage'
p173
S'ferherranz'
p174
S'ferherranz/multi_robot_stage'
p175
tp176
a(S'CellML2EML'
p177
S'naito'
p178
S'naito/CellML2EML'
p179
tp180
a(S'si-macro'
p181
S'lingato'
p182
S'lingato/si-macro'
p183
tp184
a(S'BioSimulation1-2014'
p185
S'naito'
p186
S'naito/BioSimulation1-2014'
p187
tp188
a(S'BioSimulation1'
p189
S'naito'
p190
S'naito/BioSimulation1'
p191
tp192
a(S'SourceInsight'
p193
S'aceofall'
p194
S'aceofall/SourceInsight'
p195
tp196
a(S'SI-Plugin'
p197
S'long2015'
p198
S'long2015/SI-Plugin'
p199
tp200
a(S'turtlebot_simulator'
p201
S'turtlebot'
p202
S'turtlebot/turtlebot_simulator'
p203
tp204
a(S'docker_images'
p205
S'osrf'
p206
S'osrf/docker_images'
p207
tp208
a(S'catkin_simple'
p209
S'catkin'
p210
S'catkin/catkin_simple'
p211
tp212
a(S'docker_templates'
p213
S'osrf'
p214
S'osrf/docker_templates'
p215
tp216
a(S'source-insight-scripts'
p217
S'nextcoffee'
p218
S'nextcoffee/source-insight-scripts'
p219
tp220
a(S'SourceInsightMacroCollection'
p221
S'j5shi'
p222
S'j5shi/SourceInsightMacroCollection'
p223
tp224
a(S'SourceInsight'
p225
S'caz28'
p226
S'caz28/SourceInsight'
p227
tp228
a(S'borrowers'
p229
S'kennethcalamay'
p230
S'kennethcalamay/borrowers'
p231
tp232
a(S'Cloudy'
p233
S'laurennc'
p234
S'laurennc/Cloudy'
p235
tp236
a(S'XML_teoria'
p237
S'dfleta'
p238
S'dfleta/XML_teoria'
p239
tp240
a(S'playbooks'
p241
S'dcleric'
p242
S'dcleric/playbooks'
p243
tp244
a(S'self'
p245
S'daixinning'
p246
S'daixinning/self'
p247
tp248
a(S'Xu_2008'
p249
S'maiko1219'
p250
S'maiko1219/Xu_2008'
p251
tp252
a(S'EmilyPlayground'
p253
S'Strikingwolf'
p254
S'Strikingwolf/EmilyPlayground'
p255
tp256
a(S'uoquestshard'
p257
S'alucardxlx'
p258
S'alucardxlx/uoquestshard'
p259
tp260
a(S'toyweb_concert'
p261
S'dwlee'
p262
S'dwlee/toyweb_concert'
p263
tp264
a(S'id_generator'
p265
S'kolybasov'
p266
S'kolybasov/id_generator'
p267
tp268
a(S'bootstrap'
p269
S'jenix21'
p270
S'jenix21/bootstrap'
p271
tp272
a(S'multi_robot_stage'
p273
S'ferherranz'
p274
S'ferherranz/multi_robot_stage'
p275
tp276
a(S'CellML2EML'
p277
S'naito'
p278
S'naito/CellML2EML'
p279
tp280
a(S'si-macro'
p281
S'lingato'
p282
S'lingato/si-macro'
p283
tp284
a(S'BioSimulation1-2014'
p285
S'naito'
p286
S'naito/BioSimulation1-2014'
p287
tp288
a(S'BioSimulation1'
p289
S'naito'
p290
S'naito/BioSimulation1'
p291
tp292
a(S'SourceInsight'
p293
S'aceofall'
p294
S'aceofall/SourceInsight'
p295
tp296
a(S'SI-Plugin'
p297
S'long2015'
p298
S'long2015/SI-Plugin'
p299
tp300
a.