(lp0
(S'vegur'
p1
S'heroku'
p2
S'heroku/vegur'
p3
tp4
a(S'otp'
p5
S'erlang'
p6
S'erlang/otp'
p7
tp8
a(S'rebar'
p9
S'rebar'
p10
S'rebar/rebar'
p11
tp12
a(S'cowboy'
p13
S'ninenines'
p14
S'ninenines/cowboy'
p15
tp16
a(S'ejabberd'
p17
S'processone'
p18
S'processone/ejabberd'
p19
tp20
a(S'ChicagoBoss'
p21
S'ChicagoBoss'
p22
S'ChicagoBoss/ChicagoBoss'
p23
tp24
a(S'mochiweb'
p25
S'mochi'
p26
S'mochi/mochiweb'
p27
tp28
a(S'disco'
p29
S'discoproject'
p30
S'discoproject/disco'
p31
tp32
a(S'webmachine'
p33
S'webmachine'
p34
S'webmachine/webmachine'
p35
tp36
a(S'rabbitmq-server'
p37
S'rabbitmq'
p38
S'rabbitmq/rabbitmq-server'
p39
tp40
a(S'rebar'
p41
S'basho'
p42
S'basho/rebar'
p43
tp44
a(S'n2o'
p45
S'synrc'
p46
S'synrc/n2o'
p47
tp48
a(S'yaws'
p49
S'klacke'
p50
S'klacke/yaws'
p51
tp52
a(S'lfe'
p53
S'rvirding'
p54
S'rvirding/lfe'
p55
tp56
a(S'nitrogen'
p57
S'nitrogen'
p58
S'nitrogen/nitrogen'
p59
tp60
a(S'tsung'
p61
S'processone'
p62
S'processone/tsung'
p63
tp64
a(S'reia'
p65
S'tarcieri'
p66
S'tarcieri/reia'
p67
tp68
a(S'lager'
p69
S'basho'
p70
S'basho/lager'
p71
tp72
a(S'logplex'
p73
S'heroku'
p74
S'heroku/logplex'
p75
tp76
a(S'riak_core'
p77
S'basho'
p78
S'basho/riak_core'
p79
tp80
a(S'misultin'
p81
S'ostinelli'
p82
S'ostinelli/misultin'
p83
tp84
a(S'emqttd'
p85
S'emqtt'
p86
S'emqtt/emqttd'
p87
tp88
a(S'poolboy'
p89
S'devinus'
p90
S'devinus/poolboy'
p91
tp92
a(S'elli'
p93
S'knutin'
p94
S'knutin/elli'
p95
tp96
a(S'sync'
p97
S'rustyio'
p98
S'rustyio/sync'
p99
tp100
a(S'vegur'
p101
S'heroku'
p102
S'heroku/vegur'
p103
tp104
a(S'otp'
p105
S'erlang'
p106
S'erlang/otp'
p107
tp108
a(S'rabbitmq-server'
p109
S'rabbitmq'
p110
S'rabbitmq/rabbitmq-server'
p111
tp112
a(S'cowboy'
p113
S'ninenines'
p114
S'ninenines/cowboy'
p115
tp116
a(S'ejabberd'
p117
S'processone'
p118
S'processone/ejabberd'
p119
tp120
a(S'vernemq'
p121
S'erlio'
p122
S'erlio/vernemq'
p123
tp124
a(S'rebar'
p125
S'rebar'
p126
S'rebar/rebar'
p127
tp128
a(S'emqttd'
p129
S'emqtt'
p130
S'emqtt/emqttd'
p131
tp132
a(S'riak_core'
p133
S'basho'
p134
S'basho/riak_core'
p135
tp136
a(S'lfe'
p137
S'rvirding'
p138
S'rvirding/lfe'
p139
tp140
a(S'relx'
p141
S'erlware'
p142
S'erlware/relx'
p143
tp144
a(S'ejabberd-contrib'
p145
S'processone'
p146
S'processone/ejabberd-contrib'
p147
tp148
a(S'grapherl'
p149
S'eproxus'
p150
S'eproxus/grapherl'
p151
tp152
a(S'bullet'
p153
S'extend'
p154
S'extend/bullet'
p155
tp156
a(S'riak_test'
p157
S'basho'
p158
S'basho/riak_test'
p159
tp160
a(S'erlang_js'
p161
S'basho'
p162
S'basho/erlang_js'
p163
tp164
a(S'riak_nagios'
p165
S'basho-labs'
p166
S'basho-labs/riak_nagios'
p167
tp168
a(S'vim-erlang-runtime'
p169
S'vim-erlang'
p170
S'vim-erlang/vim-erlang-runtime'
p171
tp172
a(S'ChicagoBoss'
p173
S'ChicagoBoss'
p174
S'ChicagoBoss/ChicagoBoss'
p175
tp176
a(S'mochiweb'
p177
S'mochi'
p178
S'mochi/mochiweb'
p179
tp180
a(S'disco'
p181
S'discoproject'
p182
S'discoproject/disco'
p183
tp184
a(S'webmachine'
p185
S'webmachine'
p186
S'webmachine/webmachine'
p187
tp188
a(S'rebar'
p189
S'basho'
p190
S'basho/rebar'
p191
tp192
a(S'n2o'
p193
S'synrc'
p194
S'synrc/n2o'
p195
tp196
a(S'yaws'
p197
S'klacke'
p198
S'klacke/yaws'
p199
tp200
a(S'cowboy'
p201
S'ninenines'
p202
S'ninenines/cowboy'
p203
tp204
a(S'otp'
p205
S'erlang'
p206
S'erlang/otp'
p207
tp208
a(S'vegur'
p209
S'heroku'
p210
S'heroku/vegur'
p211
tp212
a(S'rabbitmq-server'
p213
S'rabbitmq'
p214
S'rabbitmq/rabbitmq-server'
p215
tp216
a(S'ejabberd'
p217
S'processone'
p218
S'processone/ejabberd'
p219
tp220
a(S'emqttd'
p221
S'emqtt'
p222
S'emqtt/emqttd'
p223
tp224
a(S'vernemq'
p225
S'erlio'
p226
S'erlio/vernemq'
p227
tp228
a(S'rebar'
p229
S'rebar'
p230
S'rebar/rebar'
p231
tp232
a(S'disco'
p233
S'discoproject'
p234
S'discoproject/disco'
p235
tp236
a(S'riak_core'
p237
S'basho'
p238
S'basho/riak_core'
p239
tp240
a(S'lasp'
p241
S'lasp-lang'
p242
S'lasp-lang/lasp'
p243
tp244
a(S'gun'
p245
S'ninenines'
p246
S'ninenines/gun'
p247
tp248
a(S'lfe'
p249
S'rvirding'
p250
S'rvirding/lfe'
p251
tp252
a(S'gproc'
p253
S'uwiger'
p254
S'uwiger/gproc'
p255
tp256
a(S'MongooseIM'
p257
S'esl'
p258
S'esl/MongooseIM'
p259
tp260
a(S'erlcloud'
p261
S'gleber'
p262
S'gleber/erlcloud'
p263
tp264
a(S'chef-server'
p265
S'chef'
p266
S'chef/chef-server'
p267
tp268
a(S'kazoo'
p269
S'2600hz'
p270
S'2600hz/kazoo'
p271
tp272
a(S'hackney'
p273
S'benoitc'
p274
S'benoitc/hackney'
p275
tp276
a(S'rebar3'
p277
S'rebar'
p278
S'rebar/rebar3'
p279
tp280
a(S'riak_kv'
p281
S'basho'
p282
S'basho/riak_kv'
p283
tp284
a(S'barrel'
p285
S'barrel-db'
p286
S'barrel-db/barrel'
p287
tp288
a(S'jsx'
p289
S'talentdeficit'
p290
S'talentdeficit/jsx'
p291
tp292
a(S'relx'
p293
S'erlware'
p294
S'erlware/relx'
p295
tp296
a(S'riak_cs'
p297
S'basho'
p298
S'basho/riak_cs'
p299
tp300
a.