(lp0
(S'XPlot'
p1
S'TahaHachana'
p2
S'TahaHachana/XPlot'
p3
tp4
a(S'FSharpLint'
p5
S'fsprojects'
p6
S'fsprojects/FSharpLint'
p7
tp8
a(S'FAKE'
p9
S'fsharp'
p10
S'fsharp/FAKE'
p11
tp12
a(S'FSharp.Formatting'
p13
S'tpetricek'
p14
S'tpetricek/FSharp.Formatting'
p15
tp16
a(S'fsharp'
p17
S'fsharp'
p18
S'fsharp/fsharp'
p19
tp20
a(S'visualfsharp'
p21
S'Microsoft'
p22
S'Microsoft/visualfsharp'
p23
tp24
a(S'FSharpx.Extras'
p25
S'fsprojects'
p26
S'fsprojects/FSharpx.Extras'
p27
tp28
a(S'FSharpKoans'
p29
S'ChrisMarinos'
p30
S'ChrisMarinos/FSharpKoans'
p31
tp32
a(S'Paket'
p33
S'fsprojects'
p34
S'fsprojects/Paket'
p35
tp36
a(S'FunScript'
p37
S'ZachBray'
p38
S'ZachBray/FunScript'
p39
tp40
a(S'FPWorks'
p41
S'bryanedds'
p42
S'bryanedds/FPWorks'
p43
tp44
a(S'suave'
p45
S'SuaveIO'
p46
S'SuaveIO/suave'
p47
tp48
a(S'VimSpeak'
p49
S'AshleyF'
p50
S'AshleyF/VimSpeak'
p51
tp52
a(S'ProjectScaffold'
p53
S'fsprojects'
p54
S'fsprojects/ProjectScaffold'
p55
tp56
a(S'Deedle'
p57
S'BlueMountainCapital'
p58
S'BlueMountainCapital/Deedle'
p59
tp60
a(S'VisualFSharpPowerTools'
p61
S'fsprojects'
p62
S'fsprojects/VisualFSharpPowerTools'
p63
tp64
a(S'FsCheck'
p65
S'fscheck'
p66
S'fscheck/FsCheck'
p67
tp68
a(S'canopy'
p69
S'lefthandedgoat'
p70
S'lefthandedgoat/canopy'
p71
tp72
a(S'LinqOptimizer'
p73
S'nessos'
p74
S'nessos/LinqOptimizer'
p75
tp76
a(S'websharper'
p77
S'intellifactory'
p78
S'intellifactory/websharper'
p79
tp80
a(S'Hopac'
p81
S'Hopac'
p82
S'Hopac/Hopac'
p83
tp84
a(S'FsUnit'
p85
S'fsprojects'
p86
S'fsprojects/FsUnit'
p87
tp88
a(S'Streams'
p89
S'nessos'
p90
S'nessos/Streams'
p91
tp92
a(S'freya'
p93
S'freya-fs'
p94
S'freya-fs/freya'
p95
tp96
a(S'FsPickler'
p97
S'nessos'
p98
S'nessos/FsPickler'
p99
tp100
a(S'visualfsharp'
p101
S'Microsoft'
p102
S'Microsoft/visualfsharp'
p103
tp104
a(S'Paket'
p105
S'fsprojects'
p106
S'fsprojects/Paket'
p107
tp108
a(S'fsharpdaybyday'
p109
S'ccdschool'
p110
S'ccdschool/fsharpdaybyday'
p111
tp112
a(S'suave'
p113
S'SuaveIO'
p114
S'SuaveIO/suave'
p115
tp116
a(S'VisualFSharpPowerTools'
p117
S'fsprojects'
p118
S'fsprojects/VisualFSharpPowerTools'
p119
tp120
a(S'MBrace.Core'
p121
S'mbraceproject'
p122
S'mbraceproject/MBrace.Core'
p123
tp124
a(S'Argu'
p125
S'nessos'
p126
S'nessos/Argu'
p127
tp128
a(S'FSharpLint'
p129
S'fsprojects'
p130
S'fsprojects/FSharpLint'
p131
tp132
a(S'XPlot'
p133
S'TahaHachana'
p134
S'TahaHachana/XPlot'
p135
tp136
a(S'FSharp.TypeProviders.StarterPack'
p137
S'fsprojects'
p138
S'fsprojects/FSharp.TypeProviders.StarterPack'
p139
tp140
a(S'fsharp'
p141
S'fsharp'
p142
S'fsharp/fsharp'
p143
tp144
a(S'FAKE'
p145
S'fsharp'
p146
S'fsharp/FAKE'
p147
tp148
a(S'FSharpx.Extras'
p149
S'fsprojects'
p150
S'fsprojects/FSharpx.Extras'
p151
tp152
a(S'FSharpKoans'
p153
S'ChrisMarinos'
p154
S'ChrisMarinos/FSharpKoans'
p155
tp156
a(S'FunScript'
p157
S'ZachBray'
p158
S'ZachBray/FunScript'
p159
tp160
a(S'FPWorks'
p161
S'bryanedds'
p162
S'bryanedds/FPWorks'
p163
tp164
a(S'VimSpeak'
p165
S'AshleyF'
p166
S'AshleyF/VimSpeak'
p167
tp168
a(S'ProjectScaffold'
p169
S'fsprojects'
p170
S'fsprojects/ProjectScaffold'
p171
tp172
a(S'Deedle'
p173
S'BlueMountainCapital'
p174
S'BlueMountainCapital/Deedle'
p175
tp176
a(S'FsCheck'
p177
S'fscheck'
p178
S'fscheck/FsCheck'
p179
tp180
a(S'canopy'
p181
S'lefthandedgoat'
p182
S'lefthandedgoat/canopy'
p183
tp184
a(S'FSharp.Formatting'
p185
S'tpetricek'
p186
S'tpetricek/FSharp.Formatting'
p187
tp188
a(S'LinqOptimizer'
p189
S'nessos'
p190
S'nessos/LinqOptimizer'
p191
tp192
a(S'websharper'
p193
S'intellifactory'
p194
S'intellifactory/websharper'
p195
tp196
a(S'Hopac'
p197
S'Hopac'
p198
S'Hopac/Hopac'
p199
tp200
a(S'fsharpdaybyday'
p201
S'ccdschool'
p202
S'ccdschool/fsharpdaybyday'
p203
tp204
a(S'Paket'
p205
S'fsprojects'
p206
S'fsprojects/Paket'
p207
tp208
a(S'suave'
p209
S'SuaveIO'
p210
S'SuaveIO/suave'
p211
tp212
a(S'visualfsharp'
p213
S'Microsoft'
p214
S'Microsoft/visualfsharp'
p215
tp216
a(S'FAKE'
p217
S'fsharp'
p218
S'fsharp/FAKE'
p219
tp220
a(S'FunScript'
p221
S'ZachBray'
p222
S'ZachBray/FunScript'
p223
tp224
a(S'Prajna'
p225
S'MSRCCS'
p226
S'MSRCCS/Prajna'
p227
tp228
a(S'ionide-fsharp'
p229
S'ionide'
p230
S'ionide/ionide-fsharp'
p231
tp232
a(S'VisualFSharpPowerTools'
p233
S'fsprojects'
p234
S'fsprojects/VisualFSharpPowerTools'
p235
tp236
a(S'FPWorks'
p237
S'bryanedds'
p238
S'bryanedds/FPWorks'
p239
tp240
a(S'FsCheck'
p241
S'fscheck'
p242
S'fscheck/FsCheck'
p243
tp244
a(S'Argu'
p245
S'nessos'
p246
S'nessos/Argu'
p247
tp248
a(S'FSharp.Compiler.Service'
p249
S'fsharp'
p250
S'fsharp/FSharp.Compiler.Service'
p251
tp252
a(S'MBrace.Core'
p253
S'mbraceproject'
p254
S'mbraceproject/MBrace.Core'
p255
tp256
a(S'freya'
p257
S'freya-fs'
p258
S'freya-fs/freya'
p259
tp260
a(S'websharper'
p261
S'intellifactory'
p262
S'intellifactory/websharper'
p263
tp264
a(S'canopy'
p265
S'lefthandedgoat'
p266
S'lefthandedgoat/canopy'
p267
tp268
a(S'FSharp.Data.SqlClient'
p269
S'fsprojects'
p270
S'fsprojects/FSharp.Data.SqlClient'
p271
tp272
a(S'FSharp.Data.Toolbox'
p273
S'fsprojects'
p274
S'fsprojects/FSharp.Data.Toolbox'
p275
tp276
a(S'fsharp'
p277
S'fsharp'
p278
S'fsharp/fsharp'
p279
tp280
a(S'FSharpx.Extras'
p281
S'fsprojects'
p282
S'fsprojects/FSharpx.Extras'
p283
tp284
a(S'FSharpKoans'
p285
S'ChrisMarinos'
p286
S'ChrisMarinos/FSharpKoans'
p287
tp288
a(S'VimSpeak'
p289
S'AshleyF'
p290
S'AshleyF/VimSpeak'
p291
tp292
a(S'ProjectScaffold'
p293
S'fsprojects'
p294
S'fsprojects/ProjectScaffold'
p295
tp296
a(S'Deedle'
p297
S'BlueMountainCapital'
p298
S'BlueMountainCapital/Deedle'
p299
tp300
a.