(lp0
(S'factor'
p1
S'slavapestov'
p2
S'slavapestov/factor'
p3
tp4
a(S're-factor'
p5
S'mrjbq7'
p6
S'mrjbq7/re-factor'
p7
tp8
a(S'factcheck'
p9
S'mcandre'
p10
S'mcandre/factcheck'
p11
tp12
a(S'factor-machine'
p13
S'x6j8x'
p14
S'x6j8x/factor-machine'
p15
tp16
a(S'6805'
p17
S'forthnutter'
p18
S'forthnutter/6805'
p19
tp20
a(S'factor-vocabs'
p21
S'eungju'
p22
S'eungju/factor-vocabs'
p23
tp24
a(S'factor-zeromq'
p25
S'phred'
p26
S'phred/factor-zeromq'
p27
tp28
a(S'factor-shell'
p29
S'DavidFluck'
p30
S'DavidFluck/factor-shell'
p31
tp32
a(S'playground-factor'
p33
S'bjourne'
p34
S'bjourne/playground-factor'
p35
tp36
a(S'statusboardthings'
p37
S'myfreeweb'
p38
S'myfreeweb/statusboardthings'
p39
tp40
a(S'rosalind.factor'
p41
S'JasonHiebel'
p42
S'JasonHiebel/rosalind.factor'
p43
tp44
a(S'zissou'
p45
S'jckarter'
p46
S'jckarter/zissou'
p47
tp48
a(S'Free-Project'
p49
S'Rekamux'
p50
S'Rekamux/Free-Project'
p51
tp52
a(S'arc4'
p53
S'phred'
p54
S'phred/arc4'
p55
tp56
a(S'factor'
p57
S'ajvondrak'
p58
S'ajvondrak/factor'
p59
tp60
a(S'facile'
p61
S'zkat'
p62
S'zkat/facile'
p63
tp64
a(S'FactorLanguageBuild'
p65
S'I-I'
p66
S'I-I/FactorLanguageBuild'
p67
tp68
a(S'factor-xbee'
p69
S'samueltardieu'
p70
S'samueltardieu/factor-xbee'
p71
tp72
a(S'factor-rdf'
p73
S'x6j8x'
p74
S'x6j8x/factor-rdf'
p75
tp76
a(S'factor'
p77
S'kernigh'
p78
S'kernigh/factor'
p79
tp80
a(S'factor'
p81
S'dmsh'
p82
S'dmsh/factor'
p83
tp84
a(S'factor'
p85
S'mecon'
p86
S'mecon/factor'
p87
tp88
a(S'Wiimote'
p89
S'Telecom-Robotics'
p90
S'Telecom-Robotics/Wiimote'
p91
tp92
a(S'factor'
p93
S'medlefsen'
p94
S'medlefsen/factor'
p95
tp96
a(S'weblog'
p97
S'phred'
p98
S'phred/weblog'
p99
tp100
a(S'factor'
p101
S'slavapestov'
p102
S'slavapestov/factor'
p103
tp104
a(S're-factor'
p105
S'mrjbq7'
p106
S'mrjbq7/re-factor'
p107
tp108
a(S'factcheck'
p109
S'mcandre'
p110
S'mcandre/factcheck'
p111
tp112
a(S'factor-machine'
p113
S'x6j8x'
p114
S'x6j8x/factor-machine'
p115
tp116
a(S'6805'
p117
S'forthnutter'
p118
S'forthnutter/6805'
p119
tp120
a(S'factor-vocabs'
p121
S'eungju'
p122
S'eungju/factor-vocabs'
p123
tp124
a(S'factor-zeromq'
p125
S'phred'
p126
S'phred/factor-zeromq'
p127
tp128
a(S'playground-factor'
p129
S'bjourne'
p130
S'bjourne/playground-factor'
p131
tp132
a(S'factor-shell'
p133
S'DavidFluck'
p134
S'DavidFluck/factor-shell'
p135
tp136
a(S'rosalind.factor'
p137
S'JasonHiebel'
p138
S'JasonHiebel/rosalind.factor'
p139
tp140
a(S'arc4'
p141
S'phred'
p142
S'phred/arc4'
p143
tp144
a(S'statusboardthings'
p145
S'myfreeweb'
p146
S'myfreeweb/statusboardthings'
p147
tp148
a(S'Free-Project'
p149
S'Rekamux'
p150
S'Rekamux/Free-Project'
p151
tp152
a(S'FactorLanguageBuild'
p153
S'I-I'
p154
S'I-I/FactorLanguageBuild'
p155
tp156
a(S'factor-xbee'
p157
S'samueltardieu'
p158
S'samueltardieu/factor-xbee'
p159
tp160
a(S'factor-rdf'
p161
S'x6j8x'
p162
S'x6j8x/factor-rdf'
p163
tp164
a(S'factor'
p165
S'ajvondrak'
p166
S'ajvondrak/factor'
p167
tp168
a(S'facile'
p169
S'zkat'
p170
S'zkat/facile'
p171
tp172
a(S'zissou'
p173
S'jckarter'
p174
S'jckarter/zissou'
p175
tp176
a(S'factor'
p177
S'kernigh'
p178
S'kernigh/factor'
p179
tp180
a(S'factor'
p181
S'dmsh'
p182
S'dmsh/factor'
p183
tp184
a(S'Wiimote'
p185
S'Telecom-Robotics'
p186
S'Telecom-Robotics/Wiimote'
p187
tp188
a(S'factor'
p189
S'medlefsen'
p190
S'medlefsen/factor'
p191
tp192
a(S'factor'
p193
S'mecon'
p194
S'mecon/factor'
p195
tp196
a(S'weblog'
p197
S'phred'
p198
S'phred/weblog'
p199
tp200
a(S'factor'
p201
S'slavapestov'
p202
S'slavapestov/factor'
p203
tp204
a(S're-factor'
p205
S'mrjbq7'
p206
S'mrjbq7/re-factor'
p207
tp208
a(S'factcheck'
p209
S'mcandre'
p210
S'mcandre/factcheck'
p211
tp212
a(S'factor-machine'
p213
S'x6j8x'
p214
S'x6j8x/factor-machine'
p215
tp216
a(S'6805'
p217
S'forthnutter'
p218
S'forthnutter/6805'
p219
tp220
a(S'factor-vocabs'
p221
S'eungju'
p222
S'eungju/factor-vocabs'
p223
tp224
a(S'factor-zeromq'
p225
S'phred'
p226
S'phred/factor-zeromq'
p227
tp228
a(S'factor-shell'
p229
S'DavidFluck'
p230
S'DavidFluck/factor-shell'
p231
tp232
a(S'playground-factor'
p233
S'bjourne'
p234
S'bjourne/playground-factor'
p235
tp236
a(S'statusboardthings'
p237
S'myfreeweb'
p238
S'myfreeweb/statusboardthings'
p239
tp240
a(S'rosalind.factor'
p241
S'JasonHiebel'
p242
S'JasonHiebel/rosalind.factor'
p243
tp244
a(S'zissou'
p245
S'jckarter'
p246
S'jckarter/zissou'
p247
tp248
a(S'Free-Project'
p249
S'Rekamux'
p250
S'Rekamux/Free-Project'
p251
tp252
a(S'arc4'
p253
S'phred'
p254
S'phred/arc4'
p255
tp256
a(S'factor'
p257
S'ajvondrak'
p258
S'ajvondrak/factor'
p259
tp260
a(S'facile'
p261
S'zkat'
p262
S'zkat/facile'
p263
tp264
a(S'FactorLanguageBuild'
p265
S'I-I'
p266
S'I-I/FactorLanguageBuild'
p267
tp268
a(S'factor-xbee'
p269
S'samueltardieu'
p270
S'samueltardieu/factor-xbee'
p271
tp272
a(S'factor-rdf'
p273
S'x6j8x'
p274
S'x6j8x/factor-rdf'
p275
tp276
a(S'factor'
p277
S'kernigh'
p278
S'kernigh/factor'
p279
tp280
a(S'factor'
p281
S'dmsh'
p282
S'dmsh/factor'
p283
tp284
a(S'factor'
p285
S'mecon'
p286
S'mecon/factor'
p287
tp288
a(S'Wiimote'
p289
S'Telecom-Robotics'
p290
S'Telecom-Robotics/Wiimote'
p291
tp292
a(S'factor'
p293
S'medlefsen'
p294
S'medlefsen/factor'
p295
tp296
a(S'weblog'
p297
S'phred'
p298
S'phred/weblog'
p299
tp300
a.