(lp0
(S'fancy'
p1
S'bakkdoor'
p2
S'bakkdoor/fancy'
p3
tp4
a(S'fancy'
p5
S'vic'
p6
S'vic/fancy'
p7
tp8
a(S'foundry-lib'
p9
S'evilmartians'
p10
S'evilmartians/foundry-lib'
p11
tp12
a(S'sinatra.fy'
p13
S'rkh'
p14
S'rkh/sinatra.fy'
p15
tp16
a(S'redis.fy'
p17
S'bakkdoor'
p18
S'bakkdoor/redis.fy'
p19
tp20
a(S'amorphic'
p21
S'bakkdoor'
p22
S'bakkdoor/amorphic'
p23
tp24
a(S'ripple.fy'
p25
S'bakkdoor'
p26
S'bakkdoor/ripple.fy'
p27
tp28
a(S'fancy-vim'
p29
S'nuclearsandwich'
p30
S'nuclearsandwich/fancy-vim'
p31
tp32
a(S'fancy-vim'
p33
S'bakkdoor'
p34
S'bakkdoor/fancy-vim'
p35
tp36
a(S'sinatra.fy'
p37
S'bakkdoor'
p38
S'bakkdoor/sinatra.fy'
p39
tp40
a(S'fsm.fy'
p41
S'bakkdoor'
p42
S'bakkdoor/fsm.fy'
p43
tp44
a(S'fpr'
p45
S'fancy-lang'
p46
S'fancy-lang/fpr'
p47
tp48
a(S'fake'
p49
S'fancy-lang'
p50
S'fancy-lang/fake'
p51
tp52
a(S'msgpack.fy'
p53
S'bakkdoor'
p54
S'bakkdoor/msgpack.fy'
p55
tp56
a(S'fanciful_meanderings'
p57
S'nuclearsandwich'
p58
S'nuclearsandwich/fanciful_meanderings'
p59
tp60
a(S'fancywiki'
p61
S'bakkdoor'
p62
S'bakkdoor/fancywiki'
p63
tp64
a(S'fyzmq'
p65
S'bakkdoor'
p66
S'bakkdoor/fyzmq'
p67
tp68
a(S'fancy_irc'
p69
S'bakkdoor'
p70
S'bakkdoor/fancy_irc'
p71
tp72
a(S'fancy'
p73
S'nuclearsandwich'
p74
S'nuclearsandwich/fancy'
p75
tp76
a(S'foundry-lib'
p77
S'whitequark'
p78
S'whitequark/foundry-lib'
p79
tp80
a(S'be_fancy'
p81
S'chatgris'
p82
S'chatgris/be_fancy'
p83
tp84
a(S'shortefy'
p85
S'bakkdoor'
p86
S'bakkdoor/shortefy'
p87
tp88
a(S'fancy'
p89
S'nanmar'
p90
S'nanmar/fancy'
p91
tp92
a(S'fancy'
p93
S'dirk'
p94
S'dirk/fancy'
p95
tp96
a(S'fancy'
p97
S'jamiepg1'
p98
S'jamiepg1/fancy'
p99
tp100
a(S'fancy'
p101
S'bakkdoor'
p102
S'bakkdoor/fancy'
p103
tp104
a(S'fancy'
p105
S'vic'
p106
S'vic/fancy'
p107
tp108
a(S'foundry-lib'
p109
S'evilmartians'
p110
S'evilmartians/foundry-lib'
p111
tp112
a(S'sinatra.fy'
p113
S'rkh'
p114
S'rkh/sinatra.fy'
p115
tp116
a(S'redis.fy'
p117
S'bakkdoor'
p118
S'bakkdoor/redis.fy'
p119
tp120
a(S'amorphic'
p121
S'bakkdoor'
p122
S'bakkdoor/amorphic'
p123
tp124
a(S'ripple.fy'
p125
S'bakkdoor'
p126
S'bakkdoor/ripple.fy'
p127
tp128
a(S'fancy-vim'
p129
S'nuclearsandwich'
p130
S'nuclearsandwich/fancy-vim'
p131
tp132
a(S'fancy-vim'
p133
S'bakkdoor'
p134
S'bakkdoor/fancy-vim'
p135
tp136
a(S'sinatra.fy'
p137
S'bakkdoor'
p138
S'bakkdoor/sinatra.fy'
p139
tp140
a(S'fsm.fy'
p141
S'bakkdoor'
p142
S'bakkdoor/fsm.fy'
p143
tp144
a(S'fpr'
p145
S'fancy-lang'
p146
S'fancy-lang/fpr'
p147
tp148
a(S'fake'
p149
S'fancy-lang'
p150
S'fancy-lang/fake'
p151
tp152
a(S'msgpack.fy'
p153
S'bakkdoor'
p154
S'bakkdoor/msgpack.fy'
p155
tp156
a(S'fanciful_meanderings'
p157
S'nuclearsandwich'
p158
S'nuclearsandwich/fanciful_meanderings'
p159
tp160
a(S'fancywiki'
p161
S'bakkdoor'
p162
S'bakkdoor/fancywiki'
p163
tp164
a(S'fyzmq'
p165
S'bakkdoor'
p166
S'bakkdoor/fyzmq'
p167
tp168
a(S'fancy_irc'
p169
S'bakkdoor'
p170
S'bakkdoor/fancy_irc'
p171
tp172
a(S'fancy'
p173
S'nuclearsandwich'
p174
S'nuclearsandwich/fancy'
p175
tp176
a(S'foundry-lib'
p177
S'whitequark'
p178
S'whitequark/foundry-lib'
p179
tp180
a(S'be_fancy'
p181
S'chatgris'
p182
S'chatgris/be_fancy'
p183
tp184
a(S'shortefy'
p185
S'bakkdoor'
p186
S'bakkdoor/shortefy'
p187
tp188
a(S'fancy'
p189
S'nanmar'
p190
S'nanmar/fancy'
p191
tp192
a(S'fancy'
p193
S'dirk'
p194
S'dirk/fancy'
p195
tp196
a(S'fancy'
p197
S'jamiepg1'
p198
S'jamiepg1/fancy'
p199
tp200
a(S'fancy'
p201
S'bakkdoor'
p202
S'bakkdoor/fancy'
p203
tp204
a(S'fancy'
p205
S'vic'
p206
S'vic/fancy'
p207
tp208
a(S'foundry-lib'
p209
S'evilmartians'
p210
S'evilmartians/foundry-lib'
p211
tp212
a(S'sinatra.fy'
p213
S'rkh'
p214
S'rkh/sinatra.fy'
p215
tp216
a(S'redis.fy'
p217
S'bakkdoor'
p218
S'bakkdoor/redis.fy'
p219
tp220
a(S'amorphic'
p221
S'bakkdoor'
p222
S'bakkdoor/amorphic'
p223
tp224
a(S'ripple.fy'
p225
S'bakkdoor'
p226
S'bakkdoor/ripple.fy'
p227
tp228
a(S'fancy-vim'
p229
S'nuclearsandwich'
p230
S'nuclearsandwich/fancy-vim'
p231
tp232
a(S'fancy-vim'
p233
S'bakkdoor'
p234
S'bakkdoor/fancy-vim'
p235
tp236
a(S'sinatra.fy'
p237
S'bakkdoor'
p238
S'bakkdoor/sinatra.fy'
p239
tp240
a(S'fsm.fy'
p241
S'bakkdoor'
p242
S'bakkdoor/fsm.fy'
p243
tp244
a(S'fpr'
p245
S'fancy-lang'
p246
S'fancy-lang/fpr'
p247
tp248
a(S'fake'
p249
S'fancy-lang'
p250
S'fancy-lang/fake'
p251
tp252
a(S'msgpack.fy'
p253
S'bakkdoor'
p254
S'bakkdoor/msgpack.fy'
p255
tp256
a(S'fanciful_meanderings'
p257
S'nuclearsandwich'
p258
S'nuclearsandwich/fanciful_meanderings'
p259
tp260
a(S'fancywiki'
p261
S'bakkdoor'
p262
S'bakkdoor/fancywiki'
p263
tp264
a(S'fyzmq'
p265
S'bakkdoor'
p266
S'bakkdoor/fyzmq'
p267
tp268
a(S'fancy_irc'
p269
S'bakkdoor'
p270
S'bakkdoor/fancy_irc'
p271
tp272
a(S'fancy'
p273
S'nuclearsandwich'
p274
S'nuclearsandwich/fancy'
p275
tp276
a(S'foundry-lib'
p277
S'whitequark'
p278
S'whitequark/foundry-lib'
p279
tp280
a(S'be_fancy'
p281
S'chatgris'
p282
S'chatgris/be_fancy'
p283
tp284
a(S'shortefy'
p285
S'bakkdoor'
p286
S'bakkdoor/shortefy'
p287
tp288
a(S'fancy'
p289
S'nanmar'
p290
S'nanmar/fancy'
p291
tp292
a(S'fancy'
p293
S'dirk'
p294
S'dirk/fancy'
p295
tp296
a(S'fancy'
p297
S'jamiepg1'
p298
S'jamiepg1/fancy'
p299
tp300
a.