(lp0
(S'f4'
p1
S'xored'
p2
S'xored/f4'
p3
tp4
a(S'eulerFantom'
p5
S'radovanbauer'
p6
S'radovanbauer/eulerFantom'
p7
tp8
a(S'peg'
p9
S'xored'
p10
S'xored/peg'
p11
tp12
a(S'jsonrpc'
p13
S'xored'
p14
S'xored/jsonrpc'
p15
tp16
a(S'FanLink'
p17
S'dluksza'
p18
S'dluksza/FanLink'
p19
tp20
a(S'camembert'
p21
S'tcolar'
p22
S'tcolar/camembert'
p23
tp24
a(S'psychrometricsExt'
p25
S'stephen-frank'
p26
S'stephen-frank/psychrometricsExt'
p27
tp28
a(S'FantomPatternMatching'
p29
S'jensli'
p30
S'jensli/FantomPatternMatching'
p31
tp32
a(S'FizzBuzz-Fantom'
p33
S'jeanlaurent'
p34
S'jeanlaurent/FizzBuzz-Fantom'
p35
tp36
a(S'fantomide'
p37
S'tcolar'
p38
S'tcolar/fantomide'
p39
tp40
a(S'netColarJar'
p41
S'tcolar'
p42
S'tcolar/netColarJar'
p43
tp44
a(S'camAxonPlugin'
p45
S'tcolar'
p46
S'tcolar/camAxonPlugin'
p47
tp48
a(S'babel-tower-meets-jvm'
p49
S'elefevre'
p50
S'elefevre/babel-tower-meets-jvm'
p51
tp52
a(S'stylish'
p53
S'xored'
p54
S'xored/stylish'
p55
tp56
a(S'Phanton-Tutorial'
p57
S'rafaelnferreira'
p58
S'rafaelnferreira/Phanton-Tutorial'
p59
tp60
a(S'hellogui'
p61
S'edymtt'
p62
S'edymtt/hellogui'
p63
tp64
a(S'helloweb'
p65
S'edymtt'
p66
S'edymtt/helloweb'
p67
tp68
a(S'Misc'
p69
S'jensli'
p70
S'jensli/Misc'
p71
tp72
a(S'collections'
p73
S'xored'
p74
S'xored/collections'
p75
tp76
a(S'RouteChooser'
p77
S'CutieDarkFae'
p78
S'CutieDarkFae/RouteChooser'
p79
tp80
a(S'graphics302'
p81
S'tcolar'
p82
S'tcolar/graphics302'
p83
tp84
a(S'file-unpacker'
p85
S'petercrlane'
p86
S'petercrlane/file-unpacker'
p87
tp88
a(S'mail302'
p89
S'tcolar'
p90
S'tcolar/mail302'
p91
tp92
a(S'ukkonen'
p93
S'tcolar'
p94
S'tcolar/ukkonen'
p95
tp96
a(S'saptomcat'
p97
S'tcolar'
p98
S'tcolar/saptomcat'
p99
tp100
a(S'f4'
p101
S'xored'
p102
S'xored/f4'
p103
tp104
a(S'eulerFantom'
p105
S'radovanbauer'
p106
S'radovanbauer/eulerFantom'
p107
tp108
a(S'peg'
p109
S'xored'
p110
S'xored/peg'
p111
tp112
a(S'jsonrpc'
p113
S'xored'
p114
S'xored/jsonrpc'
p115
tp116
a(S'FanLink'
p117
S'dluksza'
p118
S'dluksza/FanLink'
p119
tp120
a(S'camembert'
p121
S'tcolar'
p122
S'tcolar/camembert'
p123
tp124
a(S'psychrometricsExt'
p125
S'stephen-frank'
p126
S'stephen-frank/psychrometricsExt'
p127
tp128
a(S'FantomPatternMatching'
p129
S'jensli'
p130
S'jensli/FantomPatternMatching'
p131
tp132
a(S'FizzBuzz-Fantom'
p133
S'jeanlaurent'
p134
S'jeanlaurent/FizzBuzz-Fantom'
p135
tp136
a(S'fantomide'
p137
S'tcolar'
p138
S'tcolar/fantomide'
p139
tp140
a(S'netColarJar'
p141
S'tcolar'
p142
S'tcolar/netColarJar'
p143
tp144
a(S'camAxonPlugin'
p145
S'tcolar'
p146
S'tcolar/camAxonPlugin'
p147
tp148
a(S'babel-tower-meets-jvm'
p149
S'elefevre'
p150
S'elefevre/babel-tower-meets-jvm'
p151
tp152
a(S'stylish'
p153
S'xored'
p154
S'xored/stylish'
p155
tp156
a(S'Phanton-Tutorial'
p157
S'rafaelnferreira'
p158
S'rafaelnferreira/Phanton-Tutorial'
p159
tp160
a(S'hellogui'
p161
S'edymtt'
p162
S'edymtt/hellogui'
p163
tp164
a(S'helloweb'
p165
S'edymtt'
p166
S'edymtt/helloweb'
p167
tp168
a(S'Misc'
p169
S'jensli'
p170
S'jensli/Misc'
p171
tp172
a(S'collections'
p173
S'xored'
p174
S'xored/collections'
p175
tp176
a(S'RouteChooser'
p177
S'CutieDarkFae'
p178
S'CutieDarkFae/RouteChooser'
p179
tp180
a(S'graphics302'
p181
S'tcolar'
p182
S'tcolar/graphics302'
p183
tp184
a(S'file-unpacker'
p185
S'petercrlane'
p186
S'petercrlane/file-unpacker'
p187
tp188
a(S'mail302'
p189
S'tcolar'
p190
S'tcolar/mail302'
p191
tp192
a(S'ukkonen'
p193
S'tcolar'
p194
S'tcolar/ukkonen'
p195
tp196
a(S'saptomcat'
p197
S'tcolar'
p198
S'tcolar/saptomcat'
p199
tp200
a(S'f4'
p201
S'xored'
p202
S'xored/f4'
p203
tp204
a(S'eulerFantom'
p205
S'radovanbauer'
p206
S'radovanbauer/eulerFantom'
p207
tp208
a(S'peg'
p209
S'xored'
p210
S'xored/peg'
p211
tp212
a(S'jsonrpc'
p213
S'xored'
p214
S'xored/jsonrpc'
p215
tp216
a(S'FanLink'
p217
S'dluksza'
p218
S'dluksza/FanLink'
p219
tp220
a(S'camembert'
p221
S'tcolar'
p222
S'tcolar/camembert'
p223
tp224
a(S'psychrometricsExt'
p225
S'stephen-frank'
p226
S'stephen-frank/psychrometricsExt'
p227
tp228
a(S'FantomPatternMatching'
p229
S'jensli'
p230
S'jensli/FantomPatternMatching'
p231
tp232
a(S'FizzBuzz-Fantom'
p233
S'jeanlaurent'
p234
S'jeanlaurent/FizzBuzz-Fantom'
p235
tp236
a(S'fantomide'
p237
S'tcolar'
p238
S'tcolar/fantomide'
p239
tp240
a(S'netColarJar'
p241
S'tcolar'
p242
S'tcolar/netColarJar'
p243
tp244
a(S'camAxonPlugin'
p245
S'tcolar'
p246
S'tcolar/camAxonPlugin'
p247
tp248
a(S'babel-tower-meets-jvm'
p249
S'elefevre'
p250
S'elefevre/babel-tower-meets-jvm'
p251
tp252
a(S'stylish'
p253
S'xored'
p254
S'xored/stylish'
p255
tp256
a(S'Phanton-Tutorial'
p257
S'rafaelnferreira'
p258
S'rafaelnferreira/Phanton-Tutorial'
p259
tp260
a(S'hellogui'
p261
S'edymtt'
p262
S'edymtt/hellogui'
p263
tp264
a(S'helloweb'
p265
S'edymtt'
p266
S'edymtt/helloweb'
p267
tp268
a(S'Misc'
p269
S'jensli'
p270
S'jensli/Misc'
p271
tp272
a(S'collections'
p273
S'xored'
p274
S'xored/collections'
p275
tp276
a(S'RouteChooser'
p277
S'CutieDarkFae'
p278
S'CutieDarkFae/RouteChooser'
p279
tp280
a(S'graphics302'
p281
S'tcolar'
p282
S'tcolar/graphics302'
p283
tp284
a(S'file-unpacker'
p285
S'petercrlane'
p286
S'petercrlane/file-unpacker'
p287
tp288
a(S'mail302'
p289
S'tcolar'
p290
S'tcolar/mail302'
p291
tp292
a(S'ukkonen'
p293
S'tcolar'
p294
S'tcolar/ukkonen'
p295
tp296
a(S'saptomcat'
p297
S'tcolar'
p298
S'tcolar/saptomcat'
p299
tp300
a.