(lp0
(S'HaloMD'
p1
S'foonull'
p2
S'foonull/HaloMD'
p3
tp4
a(S'HlslTools'
p5
S'tgjones'
p6
S'tgjones/HlslTools'
p7
tp8
a(S'dx11-vvvv-girlpower'
p9
S'mrvux'
p10
S'mrvux/dx11-vvvv-girlpower'
p11
tp12
a(S'Emeshe'
p13
S'microdee'
p14
S'microdee/Emeshe'
p15
tp16
a(S'mame'
p17
S'douglaslassance'
p18
S'douglaslassance/mame'
p19
tp20
a(S'Tooools'
p21
S'vvvv'
p22
S'vvvv/Tooools'
p23
tp24
a(S'VVVV.Nodes.ProjectorSimulation'
p25
S'elliotwoods'
p26
S'elliotwoods/VVVV.Nodes.ProjectorSimulation'
p27
tp28
a(S'Cloth'
p29
S'michael-burk'
p30
S'michael-burk/Cloth'
p31
tp32
a(S'PIHM'
p33
S'pihmadmin'
p34
S'pihmadmin/PIHM'
p35
tp36
a(S'myRandomStuff'
p37
S'mackst'
p38
S'mackst/myRandomStuff'
p39
tp40
a(S'Xors3D-for-PB'
p41
S'Guevara-chan'
p42
S'Guevara-chan/Xors3D-for-PB'
p43
tp44
a(S'PIHM'
p45
S'mlt'
p46
S'mlt/PIHM'
p47
tp48
a(S'd3-base-assets'
p49
S'Wintch'
p50
S'Wintch/d3-base-assets'
p51
tp52
a(S'InstanceNoodles'
p53
S'everoneishappy'
p54
S'everoneishappy/InstanceNoodles'
p55
tp56
a(S'Oblivion-Reloaded'
p57
S'Alenett'
p58
S'Alenett/Oblivion-Reloaded'
p59
tp60
a(S'Victoria-2-1700-mod'
p61
S'Uralvalor'
p62
S'Uralvalor/Victoria-2-1700-mod'
p63
tp64
a(S'mups'
p65
S'microdee'
p66
S'microdee/mups'
p67
tp68
a(S'mess'
p69
S'douglaslassance'
p70
S'douglaslassance/mess'
p71
tp72
a(S'KinectToolkitDX11'
p73
S'letmp'
p74
S'letmp/KinectToolkitDX11'
p75
tp76
a(S'c2-mode7'
p77
S'Matt-Esch'
p78
S'Matt-Esch/c2-mode7'
p79
tp80
a(S'Elf3DEngine'
p81
S'qytek'
p82
S'qytek/Elf3DEngine'
p83
tp84
a(S'fpscreatorengine'
p85
S'thoth23'
p86
S'thoth23/fpscreatorengine'
p87
tp88
a(S'rgdengine'
p89
S'rgde'
p90
S'rgde/rgdengine'
p91
tp92
a(S'VVVV.Packs.KimchiAndChips'
p93
S'elliotwoods'
p94
S'elliotwoods/VVVV.Packs.KimchiAndChips'
p95
tp96
a(S'HLSLPlatform'
p97
S'reiwang'
p98
S'reiwang/HLSLPlatform'
p99
tp100
a(S'HaloMD'
p101
S'foonull'
p102
S'foonull/HaloMD'
p103
tp104
a(S'HlslTools'
p105
S'tgjones'
p106
S'tgjones/HlslTools'
p107
tp108
a(S'dx11-vvvv-girlpower'
p109
S'mrvux'
p110
S'mrvux/dx11-vvvv-girlpower'
p111
tp112
a(S'Emeshe'
p113
S'microdee'
p114
S'microdee/Emeshe'
p115
tp116
a(S'mame'
p117
S'douglaslassance'
p118
S'douglaslassance/mame'
p119
tp120
a(S'Tooools'
p121
S'vvvv'
p122
S'vvvv/Tooools'
p123
tp124
a(S'VVVV.Nodes.ProjectorSimulation'
p125
S'elliotwoods'
p126
S'elliotwoods/VVVV.Nodes.ProjectorSimulation'
p127
tp128
a(S'Cloth'
p129
S'michael-burk'
p130
S'michael-burk/Cloth'
p131
tp132
a(S'PIHM'
p133
S'pihmadmin'
p134
S'pihmadmin/PIHM'
p135
tp136
a(S'myRandomStuff'
p137
S'mackst'
p138
S'mackst/myRandomStuff'
p139
tp140
a(S'Xors3D-for-PB'
p141
S'Guevara-chan'
p142
S'Guevara-chan/Xors3D-for-PB'
p143
tp144
a(S'PIHM'
p145
S'mlt'
p146
S'mlt/PIHM'
p147
tp148
a(S'd3-base-assets'
p149
S'Wintch'
p150
S'Wintch/d3-base-assets'
p151
tp152
a(S'InstanceNoodles'
p153
S'everoneishappy'
p154
S'everoneishappy/InstanceNoodles'
p155
tp156
a(S'Oblivion-Reloaded'
p157
S'Alenett'
p158
S'Alenett/Oblivion-Reloaded'
p159
tp160
a(S'Victoria-2-1700-mod'
p161
S'Uralvalor'
p162
S'Uralvalor/Victoria-2-1700-mod'
p163
tp164
a(S'mups'
p165
S'microdee'
p166
S'microdee/mups'
p167
tp168
a(S'mess'
p169
S'douglaslassance'
p170
S'douglaslassance/mess'
p171
tp172
a(S'KinectToolkitDX11'
p173
S'letmp'
p174
S'letmp/KinectToolkitDX11'
p175
tp176
a(S'c2-mode7'
p177
S'Matt-Esch'
p178
S'Matt-Esch/c2-mode7'
p179
tp180
a(S'Elf3DEngine'
p181
S'qytek'
p182
S'qytek/Elf3DEngine'
p183
tp184
a(S'fpscreatorengine'
p185
S'thoth23'
p186
S'thoth23/fpscreatorengine'
p187
tp188
a(S'rgdengine'
p189
S'rgde'
p190
S'rgde/rgdengine'
p191
tp192
a(S'VVVV.Packs.KimchiAndChips'
p193
S'elliotwoods'
p194
S'elliotwoods/VVVV.Packs.KimchiAndChips'
p195
tp196
a(S'HLSLPlatform'
p197
S'reiwang'
p198
S'reiwang/HLSLPlatform'
p199
tp200
a(S'HaloMD'
p201
S'foonull'
p202
S'foonull/HaloMD'
p203
tp204
a(S'HlslTools'
p205
S'tgjones'
p206
S'tgjones/HlslTools'
p207
tp208
a(S'dx11-vvvv-girlpower'
p209
S'mrvux'
p210
S'mrvux/dx11-vvvv-girlpower'
p211
tp212
a(S'Emeshe'
p213
S'microdee'
p214
S'microdee/Emeshe'
p215
tp216
a(S'mame'
p217
S'douglaslassance'
p218
S'douglaslassance/mame'
p219
tp220
a(S'Tooools'
p221
S'vvvv'
p222
S'vvvv/Tooools'
p223
tp224
a(S'VVVV.Nodes.ProjectorSimulation'
p225
S'elliotwoods'
p226
S'elliotwoods/VVVV.Nodes.ProjectorSimulation'
p227
tp228
a(S'Cloth'
p229
S'michael-burk'
p230
S'michael-burk/Cloth'
p231
tp232
a(S'PIHM'
p233
S'pihmadmin'
p234
S'pihmadmin/PIHM'
p235
tp236
a(S'myRandomStuff'
p237
S'mackst'
p238
S'mackst/myRandomStuff'
p239
tp240
a(S'Xors3D-for-PB'
p241
S'Guevara-chan'
p242
S'Guevara-chan/Xors3D-for-PB'
p243
tp244
a(S'PIHM'
p245
S'mlt'
p246
S'mlt/PIHM'
p247
tp248
a(S'd3-base-assets'
p249
S'Wintch'
p250
S'Wintch/d3-base-assets'
p251
tp252
a(S'InstanceNoodles'
p253
S'everoneishappy'
p254
S'everoneishappy/InstanceNoodles'
p255
tp256
a(S'Oblivion-Reloaded'
p257
S'Alenett'
p258
S'Alenett/Oblivion-Reloaded'
p259
tp260
a(S'Victoria-2-1700-mod'
p261
S'Uralvalor'
p262
S'Uralvalor/Victoria-2-1700-mod'
p263
tp264
a(S'mups'
p265
S'microdee'
p266
S'microdee/mups'
p267
tp268
a(S'mess'
p269
S'douglaslassance'
p270
S'douglaslassance/mess'
p271
tp272
a(S'KinectToolkitDX11'
p273
S'letmp'
p274
S'letmp/KinectToolkitDX11'
p275
tp276
a(S'c2-mode7'
p277
S'Matt-Esch'
p278
S'Matt-Esch/c2-mode7'
p279
tp280
a(S'Elf3DEngine'
p281
S'qytek'
p282
S'qytek/Elf3DEngine'
p283
tp284
a(S'fpscreatorengine'
p285
S'thoth23'
p286
S'thoth23/fpscreatorengine'
p287
tp288
a(S'rgdengine'
p289
S'rgde'
p290
S'rgde/rgdengine'
p291
tp292
a(S'VVVV.Packs.KimchiAndChips'
p293
S'elliotwoods'
p294
S'elliotwoods/VVVV.Packs.KimchiAndChips'
p295
tp296
a(S'HLSLPlatform'
p297
S'reiwang'
p298
S'reiwang/HLSLPlatform'
p299
tp300
a.