(lp0
(S'Mako'
p1
S'JohnEarnest'
p2
S'JohnEarnest/Mako'
p3
tp4
a(S'swapforth'
p5
S'jamesbowman'
p6
S'jamesbowman/swapforth'
p7
tp8
a(S'lbForth'
p9
S'larsbrinkhoff'
p10
S'larsbrinkhoff/lbForth'
p11
tp12
a(S'muforth'
p13
S'nimblemachines'
p14
S'nimblemachines/muforth'
p15
tp16
a(S'durexforth'
p17
S'jkotlinski'
p18
S'jkotlinski/durexforth'
p19
tp20
a(S'gforth'
p21
S'forthy42'
p22
S'forthy42/gforth'
p23
tp24
a(S'j1'
p25
S'jamesbowman'
p26
S'jamesbowman/j1'
p27
tp28
a(S'eulex'
p29
S'davazp'
p30
S'davazp/eulex'
p31
tp32
a(S'jackit-forth'
p33
S'schmx'
p34
S'schmx/jackit-forth'
p35
tp36
a(S'third'
p37
S'benhoyt'
p38
S'benhoyt/third'
p39
tp40
a(S'gforth-mirror'
p41
S'earl'
p42
S'earl/gforth-mirror'
p43
tp44
a(S'JorthVM'
p45
S'JorthVM'
p46
S'JorthVM/JorthVM'
p47
tp48
a(S'reda4'
p49
S'phreda4'
p50
S'phreda4/reda4'
p51
tp52
a(S'Forth86'
p53
S'16Bitt'
p54
S'16Bitt/Forth86'
p55
tp56
a(S'pettil'
p57
S'chitselb'
p58
S'chitselb/pettil'
p59
tp60
a(S'colorForth'
p61
S'narke'
p62
S'narke/colorForth'
p63
tp64
a(S'forthos'
p65
S'august0815'
p66
S'august0815/forthos'
p67
tp68
a(S'presentation.fs'
p69
S'DenisKnauf'
p70
S'DenisKnauf/presentation.fs'
p71
tp72
a(S'picforth'
p73
S'samueltardieu'
p74
S'samueltardieu/picforth'
p75
tp76
a(S'myforth-arduino'
p77
S'CharleyShattuck'
p78
S'CharleyShattuck/myforth-arduino'
p79
tp80
a(S'fwd'
p81
S'lukego'
p82
S'lukego/fwd'
p83
tp84
a(S'sdl-forth'
p85
S'schmx'
p86
S'schmx/sdl-forth'
p87
tp88
a(S'amforth-float'
p89
S'lnmaurer'
p90
S'lnmaurer/amforth-float'
p91
tp92
a(S'cmFORTH'
p93
S'ForthHub'
p94
S'ForthHub/cmFORTH'
p95
tp96
a(S'forth-exercises'
p97
S'liruoko'
p98
S'liruoko/forth-exercises'
p99
tp100
a(S'lbForth'
p101
S'larsbrinkhoff'
p102
S'larsbrinkhoff/lbForth'
p103
tp104
a(S'Mako'
p105
S'JohnEarnest'
p106
S'JohnEarnest/Mako'
p107
tp108
a(S'swapforth'
p109
S'jamesbowman'
p110
S'jamesbowman/swapforth'
p111
tp112
a(S'muforth'
p113
S'nimblemachines'
p114
S'nimblemachines/muforth'
p115
tp116
a(S'durexforth'
p117
S'jkotlinski'
p118
S'jkotlinski/durexforth'
p119
tp120
a(S'gforth'
p121
S'forthy42'
p122
S'forthy42/gforth'
p123
tp124
a(S'eulex'
p125
S'davazp'
p126
S'davazp/eulex'
p127
tp128
a(S'j1'
p129
S'jamesbowman'
p130
S'jamesbowman/j1'
p131
tp132
a(S'third'
p133
S'benhoyt'
p134
S'benhoyt/third'
p135
tp136
a(S'gforth-mirror'
p137
S'earl'
p138
S'earl/gforth-mirror'
p139
tp140
a(S'jackit-forth'
p141
S'schmx'
p142
S'schmx/jackit-forth'
p143
tp144
a(S'reda4'
p145
S'phreda4'
p146
S'phreda4/reda4'
p147
tp148
a(S'Forth86'
p149
S'16Bitt'
p150
S'16Bitt/Forth86'
p151
tp152
a(S'JorthVM'
p153
S'JorthVM'
p154
S'JorthVM/JorthVM'
p155
tp156
a(S'colorForth'
p157
S'narke'
p158
S'narke/colorForth'
p159
tp160
a(S'pettil'
p161
S'chitselb'
p162
S'chitselb/pettil'
p163
tp164
a(S'presentation.fs'
p165
S'DenisKnauf'
p166
S'DenisKnauf/presentation.fs'
p167
tp168
a(S'forthos'
p169
S'august0815'
p170
S'august0815/forthos'
p171
tp172
a(S'sdl-forth'
p173
S'schmx'
p174
S'schmx/sdl-forth'
p175
tp176
a(S'fwd'
p177
S'lukego'
p178
S'lukego/fwd'
p179
tp180
a(S'picforth'
p181
S'samueltardieu'
p182
S'samueltardieu/picforth'
p183
tp184
a(S'myforth-arduino'
p185
S'CharleyShattuck'
p186
S'CharleyShattuck/myforth-arduino'
p187
tp188
a(S'forth-exercises'
p189
S'liruoko'
p190
S'liruoko/forth-exercises'
p191
tp192
a(S'forth-ft800'
p193
S'jamesbowman'
p194
S'jamesbowman/forth-ft800'
p195
tp196
a(S'cmFORTH'
p197
S'ForthHub'
p198
S'ForthHub/cmFORTH'
p199
tp200
a(S'lbForth'
p201
S'larsbrinkhoff'
p202
S'larsbrinkhoff/lbForth'
p203
tp204
a(S'Mako'
p205
S'JohnEarnest'
p206
S'JohnEarnest/Mako'
p207
tp208
a(S'swapforth'
p209
S'jamesbowman'
p210
S'jamesbowman/swapforth'
p211
tp212
a(S'muforth'
p213
S'nimblemachines'
p214
S'nimblemachines/muforth'
p215
tp216
a(S'durexforth'
p217
S'jkotlinski'
p218
S'jkotlinski/durexforth'
p219
tp220
a(S'gforth'
p221
S'forthy42'
p222
S'forthy42/gforth'
p223
tp224
a(S'eulex'
p225
S'davazp'
p226
S'davazp/eulex'
p227
tp228
a(S'j1'
p229
S'jamesbowman'
p230
S'jamesbowman/j1'
p231
tp232
a(S'third'
p233
S'benhoyt'
p234
S'benhoyt/third'
p235
tp236
a(S'gforth-mirror'
p237
S'earl'
p238
S'earl/gforth-mirror'
p239
tp240
a(S'jackit-forth'
p241
S'schmx'
p242
S'schmx/jackit-forth'
p243
tp244
a(S'reda4'
p245
S'phreda4'
p246
S'phreda4/reda4'
p247
tp248
a(S'Forth86'
p249
S'16Bitt'
p250
S'16Bitt/Forth86'
p251
tp252
a(S'JorthVM'
p253
S'JorthVM'
p254
S'JorthVM/JorthVM'
p255
tp256
a(S'colorForth'
p257
S'narke'
p258
S'narke/colorForth'
p259
tp260
a(S'pettil'
p261
S'chitselb'
p262
S'chitselb/pettil'
p263
tp264
a(S'presentation.fs'
p265
S'DenisKnauf'
p266
S'DenisKnauf/presentation.fs'
p267
tp268
a(S'forthos'
p269
S'august0815'
p270
S'august0815/forthos'
p271
tp272
a(S'sdl-forth'
p273
S'schmx'
p274
S'schmx/sdl-forth'
p275
tp276
a(S'fwd'
p277
S'lukego'
p278
S'lukego/fwd'
p279
tp280
a(S'picforth'
p281
S'samueltardieu'
p282
S'samueltardieu/picforth'
p283
tp284
a(S'myforth-arduino'
p285
S'CharleyShattuck'
p286
S'CharleyShattuck/myforth-arduino'
p287
tp288
a(S'forth-exercises'
p289
S'liruoko'
p290
S'liruoko/forth-exercises'
p291
tp292
a(S'forth-ft800'
p293
S'jamesbowman'
p294
S'jamesbowman/forth-ft800'
p295
tp296
a(S'cmFORTH'
p297
S'ForthHub'
p298
S'ForthHub/cmFORTH'
p299
tp300
a.