(lp0
(S'OpenBLAS'
p1
S'xianyi'
p2
S'xianyi/OpenBLAS'
p3
tp4
a(S'hello-world'
p5
S'git'
p6
S'git/hello-world'
p7
tp8
a(S'netlib-java'
p9
S'fommil'
p10
S'fommil/netlib-java'
p11
tp12
a(S'pymc'
p13
S'pymc-devs'
p14
S'pymc-devs/pymc'
p15
tp16
a(S'wartonlegacy'
p17
S'daoudclarke'
p18
S'daoudclarke/wartonlegacy'
p19
tp20
a(S'gtk-fortran'
p21
S'jerryd'
p22
S'jerryd/gtk-fortran'
p23
tp24
a(S'openmc'
p25
S'mit-crpg'
p26
S'mit-crpg/openmc'
p27
tp28
a(S'fortranlib'
p29
S'astrofrog'
p30
S'astrofrog/fortranlib'
p31
tp32
a(S'pyclaw'
p33
S'clawpack'
p34
S'clawpack/pyclaw'
p35
tp36
a(S'NASTRAN'
p37
S'nasa'
p38
S'nasa/NASTRAN'
p39
tp40
a(S'cm'
p41
S'OpenCMISS'
p42
S'OpenCMISS/cm'
p43
tp44
a(S'elmerfem'
p45
S'ElmerCSC'
p46
S'ElmerCSC/elmerfem'
p47
tp48
a(S'fortran-utils'
p49
S'certik'
p50
S'certik/fortran-utils'
p51
tp52
a(S'pyeconomics'
p53
S'davidrpugh'
p54
S'davidrpugh/pyeconomics'
p55
tp56
a(S'starlink'
p57
S'Starlink'
p58
S'Starlink/starlink'
p59
tp60
a(S'odespy'
p61
S'hplgit'
p62
S'hplgit/odespy'
p63
tp64
a(S'pypropack'
p65
S'jakevdp'
p66
S'jakevdp/pypropack'
p67
tp68
a(S'json-fortran'
p69
S'jacobwilliams'
p70
S'jacobwilliams/json-fortran'
p71
tp72
a(S'netcdf-fortran'
p73
S'Unidata'
p74
S'Unidata/netcdf-fortran'
p75
tp76
a(S'aoslib'
p77
S'PyAOS'
p78
S'PyAOS/aoslib'
p79
tp80
a(S'fluidity'
p81
S'FluidityProject'
p82
S'FluidityProject/fluidity'
p83
tp84
a(S'grappa'
p85
S'uwsampa'
p86
S'uwsampa/grappa'
p87
tp88
a(S'fson'
p89
S'josephalevin'
p90
S'josephalevin/fson'
p91
tp92
a(S'Slycot'
p93
S'avventi'
p94
S'avventi/Slycot'
p95
tp96
a(S'MPAS-Release'
p97
S'MPAS-Dev'
p98
S'MPAS-Dev/MPAS-Release'
p99
tp100
a(S'OpenBLAS'
p101
S'xianyi'
p102
S'xianyi/OpenBLAS'
p103
tp104
a(S'hello-world'
p105
S'git'
p106
S'git/hello-world'
p107
tp108
a(S'netlib-java'
p109
S'fommil'
p110
S'fommil/netlib-java'
p111
tp112
a(S'pymc'
p113
S'pymc-devs'
p114
S'pymc-devs/pymc'
p115
tp116
a(S'wartonlegacy'
p117
S'daoudclarke'
p118
S'daoudclarke/wartonlegacy'
p119
tp120
a(S'gtk-fortran'
p121
S'jerryd'
p122
S'jerryd/gtk-fortran'
p123
tp124
a(S'openmc'
p125
S'mit-crpg'
p126
S'mit-crpg/openmc'
p127
tp128
a(S'fortranlib'
p129
S'astrofrog'
p130
S'astrofrog/fortranlib'
p131
tp132
a(S'pyclaw'
p133
S'clawpack'
p134
S'clawpack/pyclaw'
p135
tp136
a(S'NASTRAN'
p137
S'nasa'
p138
S'nasa/NASTRAN'
p139
tp140
a(S'cm'
p141
S'OpenCMISS'
p142
S'OpenCMISS/cm'
p143
tp144
a(S'elmerfem'
p145
S'ElmerCSC'
p146
S'ElmerCSC/elmerfem'
p147
tp148
a(S'fortran-utils'
p149
S'certik'
p150
S'certik/fortran-utils'
p151
tp152
a(S'pyeconomics'
p153
S'davidrpugh'
p154
S'davidrpugh/pyeconomics'
p155
tp156
a(S'starlink'
p157
S'Starlink'
p158
S'Starlink/starlink'
p159
tp160
a(S'pypropack'
p161
S'jakevdp'
p162
S'jakevdp/pypropack'
p163
tp164
a(S'odespy'
p165
S'hplgit'
p166
S'hplgit/odespy'
p167
tp168
a(S'json-fortran'
p169
S'jacobwilliams'
p170
S'jacobwilliams/json-fortran'
p171
tp172
a(S'netcdf-fortran'
p173
S'Unidata'
p174
S'Unidata/netcdf-fortran'
p175
tp176
a(S'aoslib'
p177
S'PyAOS'
p178
S'PyAOS/aoslib'
p179
tp180
a(S'fluidity'
p181
S'FluidityProject'
p182
S'FluidityProject/fluidity'
p183
tp184
a(S'grappa'
p185
S'uwsampa'
p186
S'uwsampa/grappa'
p187
tp188
a(S'fson'
p189
S'josephalevin'
p190
S'josephalevin/fson'
p191
tp192
a(S'Slycot'
p193
S'avventi'
p194
S'avventi/Slycot'
p195
tp196
a(S'MPAS-Release'
p197
S'MPAS-Dev'
p198
S'MPAS-Dev/MPAS-Release'
p199
tp200
a(S'OpenBLAS'
p201
S'xianyi'
p202
S'xianyi/OpenBLAS'
p203
tp204
a(S'pymc'
p205
S'pymc-devs'
p206
S'pymc-devs/pymc'
p207
tp208
a(S'grappa'
p209
S'uwsampa'
p210
S'uwsampa/grappa'
p211
tp212
a(S'specfem3d'
p213
S'geodynamics'
p214
S'geodynamics/specfem3d'
p215
tp216
a(S'starlink'
p217
S'Starlink'
p218
S'Starlink/starlink'
p219
tp220
a(S'hello-world'
p221
S'git'
p222
S'git/hello-world'
p223
tp224
a(S'netlib-java'
p225
S'fommil'
p226
S'fommil/netlib-java'
p227
tp228
a(S'wartonlegacy'
p229
S'daoudclarke'
p230
S'daoudclarke/wartonlegacy'
p231
tp232
a(S'gtk-fortran'
p233
S'jerryd'
p234
S'jerryd/gtk-fortran'
p235
tp236
a(S'openmc'
p237
S'mit-crpg'
p238
S'mit-crpg/openmc'
p239
tp240
a(S'fortranlib'
p241
S'astrofrog'
p242
S'astrofrog/fortranlib'
p243
tp244
a(S'pyclaw'
p245
S'clawpack'
p246
S'clawpack/pyclaw'
p247
tp248
a(S'NASTRAN'
p249
S'nasa'
p250
S'nasa/NASTRAN'
p251
tp252
a(S'cm'
p253
S'OpenCMISS'
p254
S'OpenCMISS/cm'
p255
tp256
a(S'fortran-utils'
p257
S'certik'
p258
S'certik/fortran-utils'
p259
tp260
a(S'elmerfem'
p261
S'ElmerCSC'
p262
S'ElmerCSC/elmerfem'
p263
tp264
a(S'pyeconomics'
p265
S'davidrpugh'
p266
S'davidrpugh/pyeconomics'
p267
tp268
a(S'pypropack'
p269
S'jakevdp'
p270
S'jakevdp/pypropack'
p271
tp272
a(S'odespy'
p273
S'hplgit'
p274
S'hplgit/odespy'
p275
tp276
a(S'json-fortran'
p277
S'jacobwilliams'
p278
S'jacobwilliams/json-fortran'
p279
tp280
a(S'netcdf-fortran'
p281
S'Unidata'
p282
S'Unidata/netcdf-fortran'
p283
tp284
a(S'aoslib'
p285
S'PyAOS'
p286
S'PyAOS/aoslib'
p287
tp288
a(S'fluidity'
p289
S'FluidityProject'
p290
S'FluidityProject/fluidity'
p291
tp292
a(S'fson'
p293
S'josephalevin'
p294
S'josephalevin/fson'
p295
tp296
a(S'arpack-ng'
p297
S'opencollab'
p298
S'opencollab/arpack-ng'
p299
tp300
a.