(lp0
(S'frege'
p1
S'Frege'
p2
S'Frege/frege'
p3
tp4
a(S'Real_World_Frege'
p5
S'Dierk'
p6
S'Dierk/Real_World_Frege'
p7
tp8
a(S'frege-repl'
p9
S'Frege'
p10
S'Frege/frege-repl'
p11
tp12
a(S'frepl-gui'
p13
S'Dierk'
p14
S'Dierk/frepl-gui'
p15
tp16
a(S'frege-native-gen'
p17
S'Frege'
p18
S'Frege/frege-native-gen'
p19
tp20
a(S'FregeFX'
p21
S'Frege'
p22
S'Frege/FregeFX'
p23
tp24
a(S'frege-interpreter'
p25
S'Frege'
p26
S'Frege/frege-interpreter'
p27
tp28
a(S'FregeAndroid'
p29
S'trilogysci'
p30
S'trilogysci/FregeAndroid'
p31
tp32
a(S'frege-testing'
p33
S'talios'
p34
S'talios/frege-testing'
p35
tp36
a(S'fregebzl'
p37
S'talios'
p38
S'talios/fregebzl'
p39
tp40
a(S'shrink'
p41
S'Ingo60'
p42
S'Ingo60/shrink'
p43
tp44
a(S'fregeit'
p45
S'ajhager'
p46
S'ajhager/fregeit'
p47
tp48
a(S'pretty'
p49
S'datatyped'
p50
S'datatyped/pretty'
p51
tp52
a(S'windows-php-webserver'
p53
S'hlkzmy'
p54
S'hlkzmy/windows-php-webserver'
p55
tp56
a(S'typeable'
p57
S'rdegnan'
p58
S'rdegnan/typeable'
p59
tp60
a(S'jtray'
p61
S'ForNeVeR'
p62
S'ForNeVeR/jtray'
p63
tp64
a(S'frege-gradle-example'
p65
S'mperry'
p66
S'mperry/frege-gradle-example'
p67
tp68
a(S'FregeEuler'
p69
S'muhuk'
p70
S'muhuk/FregeEuler'
p71
tp72
a(S'netscape4'
p73
S'pld-linux'
p74
S'pld-linux/netscape4'
p75
tp76
a(S'frege-scratchpad'
p77
S'earldouglas'
p78
S'earldouglas/frege-scratchpad'
p79
tp80
a(S'nlp-class-hw'
p81
S'anoopsarkar'
p82
S'anoopsarkar/nlp-class-hw'
p83
tp84
a(S'DEPOT'
p85
S'SuperDIRAC'
p86
S'SuperDIRAC/DEPOT'
p87
tp88
a(S'fr2048'
p89
S'tfausak'
p90
S'tfausak/fr2048'
p91
tp92
a(S'traduction'
p93
S'fenix01'
p94
S'fenix01/traduction'
p95
tp96
a(S'mistral'
p97
S'januslynd'
p98
S'januslynd/mistral'
p99
tp100
a(S'frege'
p101
S'Frege'
p102
S'Frege/frege'
p103
tp104
a(S'Real_World_Frege'
p105
S'Dierk'
p106
S'Dierk/Real_World_Frege'
p107
tp108
a(S'frege-repl'
p109
S'Frege'
p110
S'Frege/frege-repl'
p111
tp112
a(S'frepl-gui'
p113
S'Dierk'
p114
S'Dierk/frepl-gui'
p115
tp116
a(S'frege-native-gen'
p117
S'Frege'
p118
S'Frege/frege-native-gen'
p119
tp120
a(S'FregeFX'
p121
S'Frege'
p122
S'Frege/FregeFX'
p123
tp124
a(S'frege-interpreter'
p125
S'Frege'
p126
S'Frege/frege-interpreter'
p127
tp128
a(S'FregeAndroid'
p129
S'trilogysci'
p130
S'trilogysci/FregeAndroid'
p131
tp132
a(S'frege-testing'
p133
S'talios'
p134
S'talios/frege-testing'
p135
tp136
a(S'fregebzl'
p137
S'talios'
p138
S'talios/fregebzl'
p139
tp140
a(S'shrink'
p141
S'Ingo60'
p142
S'Ingo60/shrink'
p143
tp144
a(S'fregeit'
p145
S'ajhager'
p146
S'ajhager/fregeit'
p147
tp148
a(S'pretty'
p149
S'datatyped'
p150
S'datatyped/pretty'
p151
tp152
a(S'windows-php-webserver'
p153
S'hlkzmy'
p154
S'hlkzmy/windows-php-webserver'
p155
tp156
a(S'typeable'
p157
S'rdegnan'
p158
S'rdegnan/typeable'
p159
tp160
a(S'jtray'
p161
S'ForNeVeR'
p162
S'ForNeVeR/jtray'
p163
tp164
a(S'frege-gradle-example'
p165
S'mperry'
p166
S'mperry/frege-gradle-example'
p167
tp168
a(S'FregeEuler'
p169
S'muhuk'
p170
S'muhuk/FregeEuler'
p171
tp172
a(S'netscape4'
p173
S'pld-linux'
p174
S'pld-linux/netscape4'
p175
tp176
a(S'frege-scratchpad'
p177
S'earldouglas'
p178
S'earldouglas/frege-scratchpad'
p179
tp180
a(S'nlp-class-hw'
p181
S'anoopsarkar'
p182
S'anoopsarkar/nlp-class-hw'
p183
tp184
a(S'DEPOT'
p185
S'SuperDIRAC'
p186
S'SuperDIRAC/DEPOT'
p187
tp188
a(S'fr2048'
p189
S'tfausak'
p190
S'tfausak/fr2048'
p191
tp192
a(S'traduction'
p193
S'fenix01'
p194
S'fenix01/traduction'
p195
tp196
a(S'mistral'
p197
S'januslynd'
p198
S'januslynd/mistral'
p199
tp200
a(S'frege'
p201
S'Frege'
p202
S'Frege/frege'
p203
tp204
a(S'Real_World_Frege'
p205
S'Dierk'
p206
S'Dierk/Real_World_Frege'
p207
tp208
a(S'frege-repl'
p209
S'Frege'
p210
S'Frege/frege-repl'
p211
tp212
a(S'frepl-gui'
p213
S'Dierk'
p214
S'Dierk/frepl-gui'
p215
tp216
a(S'frege-native-gen'
p217
S'Frege'
p218
S'Frege/frege-native-gen'
p219
tp220
a(S'FregeFX'
p221
S'Frege'
p222
S'Frege/FregeFX'
p223
tp224
a(S'frege-interpreter'
p225
S'Frege'
p226
S'Frege/frege-interpreter'
p227
tp228
a(S'FregeAndroid'
p229
S'trilogysci'
p230
S'trilogysci/FregeAndroid'
p231
tp232
a(S'frege-testing'
p233
S'talios'
p234
S'talios/frege-testing'
p235
tp236
a(S'fregebzl'
p237
S'talios'
p238
S'talios/fregebzl'
p239
tp240
a(S'shrink'
p241
S'Ingo60'
p242
S'Ingo60/shrink'
p243
tp244
a(S'fregeit'
p245
S'ajhager'
p246
S'ajhager/fregeit'
p247
tp248
a(S'pretty'
p249
S'datatyped'
p250
S'datatyped/pretty'
p251
tp252
a(S'windows-php-webserver'
p253
S'hlkzmy'
p254
S'hlkzmy/windows-php-webserver'
p255
tp256
a(S'typeable'
p257
S'rdegnan'
p258
S'rdegnan/typeable'
p259
tp260
a(S'jtray'
p261
S'ForNeVeR'
p262
S'ForNeVeR/jtray'
p263
tp264
a(S'frege-gradle-example'
p265
S'mperry'
p266
S'mperry/frege-gradle-example'
p267
tp268
a(S'FregeEuler'
p269
S'muhuk'
p270
S'muhuk/FregeEuler'
p271
tp272
a(S'netscape4'
p273
S'pld-linux'
p274
S'pld-linux/netscape4'
p275
tp276
a(S'frege-scratchpad'
p277
S'earldouglas'
p278
S'earldouglas/frege-scratchpad'
p279
tp280
a(S'nlp-class-hw'
p281
S'anoopsarkar'
p282
S'anoopsarkar/nlp-class-hw'
p283
tp284
a(S'DEPOT'
p285
S'SuperDIRAC'
p286
S'SuperDIRAC/DEPOT'
p287
tp288
a(S'fr2048'
p289
S'tfausak'
p290
S'tfausak/fr2048'
p291
tp292
a(S'traduction'
p293
S'fenix01'
p294
S'fenix01/traduction'
p295
tp296
a(S'mistral'
p297
S'januslynd'
p298
S'januslynd/mistral'
p299
tp300
a.