(lp0
(S'relichunterszero'
p1
S'mventurelli'
p2
S'mventurelli/relichunterszero'
p3
tp4
a(S'programming-language-network'
p5
S'fatiherikli'
p6
S'fatiherikli/programming-language-network'
p7
tp8
a(S'Gang-Garrison-2'
p9
S'Medo42'
p10
S'Medo42/Gang-Garrison-2'
p11
tp12
a(S'gephi-toolkit-demos'
p13
S'gephi'
p14
S'gephi/gephi-toolkit-demos'
p15
tp16
a(S'georchestra'
p17
S'georchestra'
p18
S'georchestra/georchestra'
p19
tp20
a(S'gml-pro'
p21
S'h3rb'
p22
S'h3rb/gml-pro'
p23
tp24
a(S'ogr2osm'
p25
S'pnorman'
p26
S'pnorman/ogr2osm'
p27
tp28
a(S'HelloMarioEngine'
p29
S'HelloFangaming'
p30
S'HelloFangaming/HelloMarioEngine'
p31
tp32
a(S'OGR2GUI'
p33
S'zer0infinity'
p34
S'zer0infinity/OGR2GUI'
p35
tp36
a(S'BayesPA'
p37
S'strin'
p38
S'strin/BayesPA'
p39
tp40
a(S'scripts'
p41
S'gmlscripts'
p42
S'gmlscripts/scripts'
p43
tp44
a(S's2tbx'
p45
S'senbox-org'
p46
S'senbox-org/s2tbx'
p47
tp48
a(S'Input-Dog'
p49
S'messhof'
p50
S'messhof/Input-Dog'
p51
tp52
a(S'graffiti-drone'
p53
S'chrizbo'
p54
S'chrizbo/graffiti-drone'
p55
tp56
a(S'GMnet-ENGINE'
p57
S'Parakoopa'
p58
S'Parakoopa/GMnet-ENGINE'
p59
tp60
a(S'Sonic-MAX'
p61
S'TruePowerofTeamwork'
p62
S'TruePowerofTeamwork/Sonic-MAX'
p63
tp64
a(S'fez_fangame'
p65
S'leo150250'
p66
S'leo150250/fez_fangame'
p67
tp68
a(S'NLA'
p69
S'oseledets'
p70
S'oseledets/NLA'
p71
tp72
a(S'Mmorpg-Client'
p73
S'rm2kdev'
p74
S'rm2kdev/Mmorpg-Client'
p75
tp76
a(S'bidegorriak'
p77
S'bardulia'
p78
S'bardulia/bidegorriak'
p79
tp80
a(S'PJPlatformEngine'
p81
S'jchand'
p82
S'jchand/PJPlatformEngine'
p83
tp84
a(S'AllenBrainConnectivityNetworkAnalysis'
p85
S'Javad-Karimi'
p86
S'Javad-Karimi/AllenBrainConnectivityNetworkAnalysis'
p87
tp88
a(S'sk'
p89
S'NikSudan'
p90
S'NikSudan/sk'
p91
tp92
a(S'sketch3d'
p93
S'kellyegan'
p94
S'kellyegan/sketch3d'
p95
tp96
a(S'DragonRise3'
p97
S'kocourmatej'
p98
S'kocourmatej/DragonRise3'
p99
tp100
a(S'relichunterszero'
p101
S'mventurelli'
p102
S'mventurelli/relichunterszero'
p103
tp104
a(S'georchestra'
p105
S'georchestra'
p106
S'georchestra/georchestra'
p107
tp108
a(S'programming-language-network'
p109
S'fatiherikli'
p110
S'fatiherikli/programming-language-network'
p111
tp112
a(S'Gang-Garrison-2'
p113
S'Medo42'
p114
S'Medo42/Gang-Garrison-2'
p115
tp116
a(S'gephi-toolkit-demos'
p117
S'gephi'
p118
S'gephi/gephi-toolkit-demos'
p119
tp120
a(S'ogr2osm'
p121
S'pnorman'
p122
S'pnorman/ogr2osm'
p123
tp124
a(S'gml-pro'
p125
S'h3rb'
p126
S'h3rb/gml-pro'
p127
tp128
a(S'HelloMarioEngine'
p129
S'HelloFangaming'
p130
S'HelloFangaming/HelloMarioEngine'
p131
tp132
a(S'OGR2GUI'
p133
S'zer0infinity'
p134
S'zer0infinity/OGR2GUI'
p135
tp136
a(S'BayesPA'
p137
S'strin'
p138
S'strin/BayesPA'
p139
tp140
a(S'scripts'
p141
S'gmlscripts'
p142
S'gmlscripts/scripts'
p143
tp144
a(S'Input-Dog'
p145
S'messhof'
p146
S'messhof/Input-Dog'
p147
tp148
a(S's2tbx'
p149
S'senbox-org'
p150
S'senbox-org/s2tbx'
p151
tp152
a(S'GMnet-ENGINE'
p153
S'Parakoopa'
p154
S'Parakoopa/GMnet-ENGINE'
p155
tp156
a(S'Sonic-MAX'
p157
S'TruePowerofTeamwork'
p158
S'TruePowerofTeamwork/Sonic-MAX'
p159
tp160
a(S'graffiti-drone'
p161
S'chrizbo'
p162
S'chrizbo/graffiti-drone'
p163
tp164
a(S'NLA'
p165
S'oseledets'
p166
S'oseledets/NLA'
p167
tp168
a(S'fez_fangame'
p169
S'leo150250'
p170
S'leo150250/fez_fangame'
p171
tp172
a(S'bidegorriak'
p173
S'bardulia'
p174
S'bardulia/bidegorriak'
p175
tp176
a(S'PJPlatformEngine'
p177
S'jchand'
p178
S'jchand/PJPlatformEngine'
p179
tp180
a(S'Mmorpg-Client'
p181
S'rm2kdev'
p182
S'rm2kdev/Mmorpg-Client'
p183
tp184
a(S'DragonRise3'
p185
S'kocourmatej'
p186
S'kocourmatej/DragonRise3'
p187
tp188
a(S'AllenBrainConnectivityNetworkAnalysis'
p189
S'Javad-Karimi'
p190
S'Javad-Karimi/AllenBrainConnectivityNetworkAnalysis'
p191
tp192
a(S'100CodeDays'
p193
S'manikanta-kondeti'
p194
S'manikanta-kondeti/100CodeDays'
p195
tp196
a(S'sk'
p197
S'NikSudan'
p198
S'NikSudan/sk'
p199
tp200
a(S'relichunterszero'
p201
S'mventurelli'
p202
S'mventurelli/relichunterszero'
p203
tp204
a(S'programming-language-network'
p205
S'fatiherikli'
p206
S'fatiherikli/programming-language-network'
p207
tp208
a(S'Gang-Garrison-2'
p209
S'Medo42'
p210
S'Medo42/Gang-Garrison-2'
p211
tp212
a(S'gephi-toolkit-demos'
p213
S'gephi'
p214
S'gephi/gephi-toolkit-demos'
p215
tp216
a(S'georchestra'
p217
S'georchestra'
p218
S'georchestra/georchestra'
p219
tp220
a(S'gml-pro'
p221
S'h3rb'
p222
S'h3rb/gml-pro'
p223
tp224
a(S'ogr2osm'
p225
S'pnorman'
p226
S'pnorman/ogr2osm'
p227
tp228
a(S'HelloMarioEngine'
p229
S'HelloFangaming'
p230
S'HelloFangaming/HelloMarioEngine'
p231
tp232
a(S'OGR2GUI'
p233
S'zer0infinity'
p234
S'zer0infinity/OGR2GUI'
p235
tp236
a(S'BayesPA'
p237
S'strin'
p238
S'strin/BayesPA'
p239
tp240
a(S'scripts'
p241
S'gmlscripts'
p242
S'gmlscripts/scripts'
p243
tp244
a(S's2tbx'
p245
S'senbox-org'
p246
S'senbox-org/s2tbx'
p247
tp248
a(S'Input-Dog'
p249
S'messhof'
p250
S'messhof/Input-Dog'
p251
tp252
a(S'GMnet-ENGINE'
p253
S'Parakoopa'
p254
S'Parakoopa/GMnet-ENGINE'
p255
tp256
a(S'graffiti-drone'
p257
S'chrizbo'
p258
S'chrizbo/graffiti-drone'
p259
tp260
a(S'Sonic-MAX'
p261
S'TruePowerofTeamwork'
p262
S'TruePowerofTeamwork/Sonic-MAX'
p263
tp264
a(S'NLA'
p265
S'oseledets'
p266
S'oseledets/NLA'
p267
tp268
a(S'fez_fangame'
p269
S'leo150250'
p270
S'leo150250/fez_fangame'
p271
tp272
a(S'PJPlatformEngine'
p273
S'jchand'
p274
S'jchand/PJPlatformEngine'
p275
tp276
a(S'bidegorriak'
p277
S'bardulia'
p278
S'bardulia/bidegorriak'
p279
tp280
a(S'Mmorpg-Client'
p281
S'rm2kdev'
p282
S'rm2kdev/Mmorpg-Client'
p283
tp284
a(S'DragonRise3'
p285
S'kocourmatej'
p286
S'kocourmatej/DragonRise3'
p287
tp288
a(S'sk'
p289
S'NikSudan'
p290
S'NikSudan/sk'
p291
tp292
a(S'100CodeDays'
p293
S'manikanta-kondeti'
p294
S'manikanta-kondeti/100CodeDays'
p295
tp296
a(S'AllenBrainConnectivityNetworkAnalysis'
p297
S'Javad-Karimi'
p298
S'Javad-Karimi/AllenBrainConnectivityNetworkAnalysis'
p299
tp300
a.