(lp0
(S'DICE'
p1
S'psztorc'
p2
S'psztorc/DICE'
p3
tp4
a(S'JuMPSupplement'
p5
S'mlubin'
p6
S'mlubin/JuMPSupplement'
p7
tp8
a(S'vSPD'
p9
S'ElectricityAuthority'
p10
S'ElectricityAuthority/vSPD'
p11
tp12
a(S'BUGE512'
p13
S'tonygardella'
p14
S'tonygardella/BUGE512'
p15
tp16
a(S'gem'
p17
S'ElectricityAuthority'
p18
S'ElectricityAuthority/gem'
p19
tp20
a(S'git-model'
p21
S'rjrow'
p22
S'rjrow/git-model'
p23
tp24
a(S'appliedtt-ss2014'
p25
S'trialsolution'
p26
S'trialsolution/appliedtt-ss2014'
p27
tp28
a(S'Planidecortplaz'
p29
S'pwheden'
p30
S'pwheden/Planidecortplaz'
p31
tp32
a(S'be_flexibility'
p33
S'squoilin'
p34
S'squoilin/be_flexibility'
p35
tp36
a(S'master'
p37
S'emilysig'
p38
S'emilysig/master'
p39
tp40
a(S'LakeErie'
p41
S'twarzin'
p42
S'twarzin/LakeErie'
p43
tp44
a(S'cobweb-market-code'
p45
S'emillarsen'
p46
S'emillarsen/cobweb-market-code'
p47
tp48
a(S'ems-weather-backlog'
p49
S'edubois2'
p50
S'edubois2/ems-weather-backlog'
p51
tp52
a(S'Practicum_GAMS_5.1'
p53
S'Akhrameev'
p54
S'Akhrameev/Practicum_GAMS_5.1'
p55
tp56
a(S'Practicum_GAMS_2.1'
p57
S'Akhrameev'
p58
S'Akhrameev/Practicum_GAMS_2.1'
p59
tp60
a(S'Extended-Reserve-Selection'
p61
S'TuongGitHub'
p62
S'TuongGitHub/Extended-Reserve-Selection'
p63
tp64
a(S'ramses'
p65
S'doeramses'
p66
S'doeramses/ramses'
p67
tp68
a(S'Practicum_GAMS_3.1'
p69
S'Akhrameev'
p70
S'Akhrameev/Practicum_GAMS_3.1'
p71
tp72
a(S'BUGE512'
p73
S'kxzheng'
p74
S'kxzheng/BUGE512'
p75
tp76
a(S'Practicum_GAMS_1.1'
p77
S'Akhrameev'
p78
S'Akhrameev/Practicum_GAMS_1.1'
p79
tp80
a(S'support'
p81
S'jamiepg1'
p82
S'jamiepg1/support'
p83
tp84
a(S'UCM'
p85
S'jamiepg1'
p86
S'jamiepg1/UCM'
p87
tp88
a(S'EXIOMOD_EmInInn'
p89
S'jamiepg1'
p90
S'jamiepg1/EXIOMOD_EmInInn'
p91
tp92
a(S'Energy-Market-Optimization'
p93
S'jamiepg1'
p94
S'jamiepg1/Energy-Market-Optimization'
p95
tp96
a(S'gams2web'
p97
S'sistemico'
p98
S'sistemico/gams2web'
p99
tp100
a(S'DICE'
p101
S'psztorc'
p102
S'psztorc/DICE'
p103
tp104
a(S'JuMPSupplement'
p105
S'mlubin'
p106
S'mlubin/JuMPSupplement'
p107
tp108
a(S'vSPD'
p109
S'ElectricityAuthority'
p110
S'ElectricityAuthority/vSPD'
p111
tp112
a(S'BUGE512'
p113
S'tonygardella'
p114
S'tonygardella/BUGE512'
p115
tp116
a(S'gem'
p117
S'ElectricityAuthority'
p118
S'ElectricityAuthority/gem'
p119
tp120
a(S'git-model'
p121
S'rjrow'
p122
S'rjrow/git-model'
p123
tp124
a(S'appliedtt-ss2014'
p125
S'trialsolution'
p126
S'trialsolution/appliedtt-ss2014'
p127
tp128
a(S'Planidecortplaz'
p129
S'pwheden'
p130
S'pwheden/Planidecortplaz'
p131
tp132
a(S'be_flexibility'
p133
S'squoilin'
p134
S'squoilin/be_flexibility'
p135
tp136
a(S'master'
p137
S'emilysig'
p138
S'emilysig/master'
p139
tp140
a(S'LakeErie'
p141
S'twarzin'
p142
S'twarzin/LakeErie'
p143
tp144
a(S'cobweb-market-code'
p145
S'emillarsen'
p146
S'emillarsen/cobweb-market-code'
p147
tp148
a(S'ems-weather-backlog'
p149
S'edubois2'
p150
S'edubois2/ems-weather-backlog'
p151
tp152
a(S'Practicum_GAMS_5.1'
p153
S'Akhrameev'
p154
S'Akhrameev/Practicum_GAMS_5.1'
p155
tp156
a(S'Practicum_GAMS_2.1'
p157
S'Akhrameev'
p158
S'Akhrameev/Practicum_GAMS_2.1'
p159
tp160
a(S'Extended-Reserve-Selection'
p161
S'TuongGitHub'
p162
S'TuongGitHub/Extended-Reserve-Selection'
p163
tp164
a(S'ramses'
p165
S'doeramses'
p166
S'doeramses/ramses'
p167
tp168
a(S'Practicum_GAMS_3.1'
p169
S'Akhrameev'
p170
S'Akhrameev/Practicum_GAMS_3.1'
p171
tp172
a(S'BUGE512'
p173
S'kxzheng'
p174
S'kxzheng/BUGE512'
p175
tp176
a(S'Practicum_GAMS_1.1'
p177
S'Akhrameev'
p178
S'Akhrameev/Practicum_GAMS_1.1'
p179
tp180
a(S'support'
p181
S'jamiepg1'
p182
S'jamiepg1/support'
p183
tp184
a(S'UCM'
p185
S'jamiepg1'
p186
S'jamiepg1/UCM'
p187
tp188
a(S'EXIOMOD_EmInInn'
p189
S'jamiepg1'
p190
S'jamiepg1/EXIOMOD_EmInInn'
p191
tp192
a(S'Energy-Market-Optimization'
p193
S'jamiepg1'
p194
S'jamiepg1/Energy-Market-Optimization'
p195
tp196
a(S'gams2web'
p197
S'sistemico'
p198
S'sistemico/gams2web'
p199
tp200
a(S'DICE'
p201
S'psztorc'
p202
S'psztorc/DICE'
p203
tp204
a(S'JuMPSupplement'
p205
S'mlubin'
p206
S'mlubin/JuMPSupplement'
p207
tp208
a(S'vSPD'
p209
S'ElectricityAuthority'
p210
S'ElectricityAuthority/vSPD'
p211
tp212
a(S'BUGE512'
p213
S'tonygardella'
p214
S'tonygardella/BUGE512'
p215
tp216
a(S'gem'
p217
S'ElectricityAuthority'
p218
S'ElectricityAuthority/gem'
p219
tp220
a(S'git-model'
p221
S'rjrow'
p222
S'rjrow/git-model'
p223
tp224
a(S'appliedtt-ss2014'
p225
S'trialsolution'
p226
S'trialsolution/appliedtt-ss2014'
p227
tp228
a(S'Planidecortplaz'
p229
S'pwheden'
p230
S'pwheden/Planidecortplaz'
p231
tp232
a(S'be_flexibility'
p233
S'squoilin'
p234
S'squoilin/be_flexibility'
p235
tp236
a(S'master'
p237
S'emilysig'
p238
S'emilysig/master'
p239
tp240
a(S'LakeErie'
p241
S'twarzin'
p242
S'twarzin/LakeErie'
p243
tp244
a(S'cobweb-market-code'
p245
S'emillarsen'
p246
S'emillarsen/cobweb-market-code'
p247
tp248
a(S'ems-weather-backlog'
p249
S'edubois2'
p250
S'edubois2/ems-weather-backlog'
p251
tp252
a(S'Practicum_GAMS_5.1'
p253
S'Akhrameev'
p254
S'Akhrameev/Practicum_GAMS_5.1'
p255
tp256
a(S'Practicum_GAMS_2.1'
p257
S'Akhrameev'
p258
S'Akhrameev/Practicum_GAMS_2.1'
p259
tp260
a(S'Extended-Reserve-Selection'
p261
S'TuongGitHub'
p262
S'TuongGitHub/Extended-Reserve-Selection'
p263
tp264
a(S'ramses'
p265
S'doeramses'
p266
S'doeramses/ramses'
p267
tp268
a(S'Practicum_GAMS_3.1'
p269
S'Akhrameev'
p270
S'Akhrameev/Practicum_GAMS_3.1'
p271
tp272
a(S'BUGE512'
p273
S'kxzheng'
p274
S'kxzheng/BUGE512'
p275
tp276
a(S'Practicum_GAMS_1.1'
p277
S'Akhrameev'
p278
S'Akhrameev/Practicum_GAMS_1.1'
p279
tp280
a(S'support'
p281
S'jamiepg1'
p282
S'jamiepg1/support'
p283
tp284
a(S'UCM'
p285
S'jamiepg1'
p286
S'jamiepg1/UCM'
p287
tp288
a(S'EXIOMOD_EmInInn'
p289
S'jamiepg1'
p290
S'jamiepg1/EXIOMOD_EmInInn'
p291
tp292
a(S'Energy-Market-Optimization'
p293
S'jamiepg1'
p294
S'jamiepg1/Energy-Market-Optimization'
p295
tp296
a(S'gams2web'
p297
S'sistemico'
p298
S'sistemico/gams2web'
p299
tp300
a.