(lp0
(S'Tanks-of-Freedom'
p1
S'w84death'
p2
S'w84death/Tanks-of-Freedom'
p3
tp4
a(S'bllip-parser'
p5
S'BLLIP'
p6
S'BLLIP/bllip-parser'
p7
tp8
a(S'Mendel'
p9
S'reprappro'
p10
S'reprappro/Mendel'
p11
tp12
a(S'gap'
p13
S'gap-system'
p14
S'gap-system/gap'
p15
tp16
a(S'Huxley'
p17
S'reprappro'
p18
S'reprappro/Huxley'
p19
tp20
a(S'io'
p21
S'gap-packages'
p22
S'gap-packages/io'
p23
tp24
a(S'bllip-parser'
p25
S'dmcc'
p26
S'dmcc/bllip-parser'
p27
tp28
a(S'plsql-parser'
p29
S'ibre5041'
p30
S'ibre5041/plsql-parser'
p31
tp32
a(S'noct'
p33
S'nickelsworth'
p34
S'nickelsworth/noct'
p35
tp36
a(S'Grammars'
p37
S'versionone'
p38
S'versionone/Grammars'
p39
tp40
a(S'SingularInterface'
p41
S'gap-system'
p42
S'gap-system/SingularInterface'
p43
tp44
a(S'AutoDoc'
p45
S'gap-packages'
p46
S'gap-packages/AutoDoc'
p47
tp48
a(S'orb'
p49
S'gap-packages'
p50
S'gap-packages/orb'
p51
tp52
a(S'recog'
p53
S'gap-packages'
p54
S'gap-packages/recog'
p55
tp56
a(S'Sheaves'
p57
S'homalg-project'
p58
S'homalg-project/Sheaves'
p59
tp60
a(S'ToolsForHomalg'
p61
S'sebasguts'
p62
S'sebasguts/ToolsForHomalg'
p63
tp64
a(S'anupq'
p65
S'gap-packages'
p66
S'gap-packages/anupq'
p67
tp68
a(S'LessGenerators'
p69
S'homalg-project'
p70
S'homalg-project/LessGenerators'
p71
tp72
a(S'genss'
p73
S'gap-packages'
p74
S'gap-packages/genss'
p75
tp76
a(S'PackageMaker'
p77
S'fingolfin'
p78
S'fingolfin/PackageMaker'
p79
tp80
a(S'recogbase'
p81
S'gap-packages'
p82
S'gap-packages/recogbase'
p83
tp84
a(S'D-Modules'
p85
S'homalg-project'
p86
S'homalg-project/D-Modules'
p87
tp88
a(S'cplan-tracker'
p89
S'khairul169'
p90
S'khairul169/cplan-tracker'
p91
tp92
a(S'WildWitchEasterEgg1'
p93
S'marcosbitetti'
p94
S'marcosbitetti/WildWitchEasterEgg1'
p95
tp96
a(S'BloodyKart'
p97
S'yvt'
p98
S'yvt/BloodyKart'
p99
tp100
a(S'Tanks-of-Freedom'
p101
S'w84death'
p102
S'w84death/Tanks-of-Freedom'
p103
tp104
a(S'bllip-parser'
p105
S'BLLIP'
p106
S'BLLIP/bllip-parser'
p107
tp108
a(S'Mendel'
p109
S'reprappro'
p110
S'reprappro/Mendel'
p111
tp112
a(S'gap'
p113
S'gap-system'
p114
S'gap-system/gap'
p115
tp116
a(S'Huxley'
p117
S'reprappro'
p118
S'reprappro/Huxley'
p119
tp120
a(S'io'
p121
S'gap-packages'
p122
S'gap-packages/io'
p123
tp124
a(S'bllip-parser'
p125
S'dmcc'
p126
S'dmcc/bllip-parser'
p127
tp128
a(S'plsql-parser'
p129
S'ibre5041'
p130
S'ibre5041/plsql-parser'
p131
tp132
a(S'noct'
p133
S'nickelsworth'
p134
S'nickelsworth/noct'
p135
tp136
a(S'Grammars'
p137
S'versionone'
p138
S'versionone/Grammars'
p139
tp140
a(S'SingularInterface'
p141
S'gap-system'
p142
S'gap-system/SingularInterface'
p143
tp144
a(S'AutoDoc'
p145
S'gap-packages'
p146
S'gap-packages/AutoDoc'
p147
tp148
a(S'orb'
p149
S'gap-packages'
p150
S'gap-packages/orb'
p151
tp152
a(S'recog'
p153
S'gap-packages'
p154
S'gap-packages/recog'
p155
tp156
a(S'Sheaves'
p157
S'homalg-project'
p158
S'homalg-project/Sheaves'
p159
tp160
a(S'ToolsForHomalg'
p161
S'sebasguts'
p162
S'sebasguts/ToolsForHomalg'
p163
tp164
a(S'anupq'
p165
S'gap-packages'
p166
S'gap-packages/anupq'
p167
tp168
a(S'LessGenerators'
p169
S'homalg-project'
p170
S'homalg-project/LessGenerators'
p171
tp172
a(S'genss'
p173
S'gap-packages'
p174
S'gap-packages/genss'
p175
tp176
a(S'PackageMaker'
p177
S'fingolfin'
p178
S'fingolfin/PackageMaker'
p179
tp180
a(S'recogbase'
p181
S'gap-packages'
p182
S'gap-packages/recogbase'
p183
tp184
a(S'D-Modules'
p185
S'homalg-project'
p186
S'homalg-project/D-Modules'
p187
tp188
a(S'cplan-tracker'
p189
S'khairul169'
p190
S'khairul169/cplan-tracker'
p191
tp192
a(S'WildWitchEasterEgg1'
p193
S'marcosbitetti'
p194
S'marcosbitetti/WildWitchEasterEgg1'
p195
tp196
a(S'BloodyKart'
p197
S'yvt'
p198
S'yvt/BloodyKart'
p199
tp200
a(S'Tanks-of-Freedom'
p201
S'w84death'
p202
S'w84death/Tanks-of-Freedom'
p203
tp204
a(S'bllip-parser'
p205
S'BLLIP'
p206
S'BLLIP/bllip-parser'
p207
tp208
a(S'Mendel'
p209
S'reprappro'
p210
S'reprappro/Mendel'
p211
tp212
a(S'gap'
p213
S'gap-system'
p214
S'gap-system/gap'
p215
tp216
a(S'Huxley'
p217
S'reprappro'
p218
S'reprappro/Huxley'
p219
tp220
a(S'io'
p221
S'gap-packages'
p222
S'gap-packages/io'
p223
tp224
a(S'plsql-parser'
p225
S'ibre5041'
p226
S'ibre5041/plsql-parser'
p227
tp228
a(S'bllip-parser'
p229
S'dmcc'
p230
S'dmcc/bllip-parser'
p231
tp232
a(S'noct'
p233
S'nickelsworth'
p234
S'nickelsworth/noct'
p235
tp236
a(S'AutoDoc'
p237
S'gap-packages'
p238
S'gap-packages/AutoDoc'
p239
tp240
a(S'Grammars'
p241
S'versionone'
p242
S'versionone/Grammars'
p243
tp244
a(S'recog'
p245
S'gap-packages'
p246
S'gap-packages/recog'
p247
tp248
a(S'orb'
p249
S'gap-packages'
p250
S'gap-packages/orb'
p251
tp252
a(S'SingularInterface'
p253
S'gap-system'
p254
S'gap-system/SingularInterface'
p255
tp256
a(S'Sheaves'
p257
S'homalg-project'
p258
S'homalg-project/Sheaves'
p259
tp260
a(S'genss'
p261
S'gap-packages'
p262
S'gap-packages/genss'
p263
tp264
a(S'anupq'
p265
S'gap-packages'
p266
S'gap-packages/anupq'
p267
tp268
a(S'cplan-tracker'
p269
S'khairul169'
p270
S'khairul169/cplan-tracker'
p271
tp272
a(S'PackageMaker'
p273
S'fingolfin'
p274
S'fingolfin/PackageMaker'
p275
tp276
a(S'ToolsForHomalg'
p277
S'sebasguts'
p278
S'sebasguts/ToolsForHomalg'
p279
tp280
a(S'D-Modules'
p281
S'homalg-project'
p282
S'homalg-project/D-Modules'
p283
tp284
a(S'recogbase'
p285
S'gap-packages'
p286
S'gap-packages/recogbase'
p287
tp288
a(S'LessGenerators'
p289
S'homalg-project'
p290
S'homalg-project/LessGenerators'
p291
tp292
a(S'GradedRingForHomalg'
p293
S'sebasguts'
p294
S'sebasguts/GradedRingForHomalg'
p295
tp296
a(S'plsql-parser'
p297
S'patope'
p298
S'patope/plsql-parser'
p299
tp300
a.