(lp0
(S'erythrina'
p1
S'Jbat1Jumper'
p2
S'Jbat1Jumper/erythrina'
p3
tp4
a(S'minilens'
p5
S'KOBUGE-Games'
p6
S'KOBUGE-Games/minilens'
p7
tp8
a(S'dynadungeons'
p9
S'akien-mga'
p10
S'akien-mga/dynadungeons'
p11
tp12
a(S'godot_tutorial_series'
p13
S'ndee85'
p14
S'ndee85/godot_tutorial_series'
p15
tp16
a(S'GodotTiledImporter'
p17
S'MrGreenTea'
p18
S'MrGreenTea/GodotTiledImporter'
p19
tp20
a(S'godot_plugins'
p21
S'vinod8990'
p22
S'vinod8990/godot_plugins'
p23
tp24
a(S'ringed'
p25
S'KOBUGE-Games'
p26
S'KOBUGE-Games/ringed'
p27
tp28
a(S'godot-snapshot-interpolation-demo'
p29
S'jrimclean'
p30
S'jrimclean/godot-snapshot-interpolation-demo'
p31
tp32
a(S'add_primitives'
p33
S'TheHX'
p34
S'TheHX/add_primitives'
p35
tp36
a(S'fps-test'
p37
S'Calinou'
p38
S'Calinou/fps-test'
p39
tp40
a(S'gBot'
p41
S'ndee85'
p42
S'ndee85/gBot'
p43
tp44
a(S'godot-state-sync-demo'
p45
S'jrimclean'
p46
S'jrimclean/godot-state-sync-demo'
p47
tp48
a(S'Ninja-Training'
p49
S'KOBUGE-Games'
p50
S'KOBUGE-Games/Ninja-Training'
p51
tp52
a(S'multiball'
p53
S'KOBUGE-Games'
p54
S'KOBUGE-Games/multiball'
p55
tp56
a(S'Godot'
p57
S'Kermer'
p58
S'Kermer/Godot'
p59
tp60
a(S'blockpop'
p61
S'vnen'
p62
S'vnen/blockpop'
p63
tp64
a(S'Bombs'
p65
S'randyyaj'
p66
S'randyyaj/Bombs'
p67
tp68
a(S'godot-bootstrap'
p69
S'groboclown'
p70
S'groboclown/godot-bootstrap'
p71
tp72
a(S'libre-pinball'
p73
S'Calinou'
p74
S'Calinou/libre-pinball'
p75
tp76
a(S'Godot-games'
p77
S'Qwertie-'
p78
S'Qwertie-/Godot-games'
p79
tp80
a(S'breakable'
p81
S'didier-v'
p82
S'didier-v/breakable'
p83
tp84
a(S'reines'
p85
S'KOBUGE-Games'
p86
S'KOBUGE-Games/reines'
p87
tp88
a(S'steamlug-7dfps-2014'
p89
S'SteamLUG'
p90
S'SteamLUG/steamlug-7dfps-2014'
p91
tp92
a(S'godot-pathfinding2d-demo'
p93
S'FEDE0D'
p94
S'FEDE0D/godot-pathfinding2d-demo'
p95
tp96
a(S'blipshift'
p97
S'wardsky'
p98
S'wardsky/blipshift'
p99
tp100
a(S'erythrina'
p101
S'Jbat1Jumper'
p102
S'Jbat1Jumper/erythrina'
p103
tp104
a(S'minilens'
p105
S'KOBUGE-Games'
p106
S'KOBUGE-Games/minilens'
p107
tp108
a(S'dynadungeons'
p109
S'akien-mga'
p110
S'akien-mga/dynadungeons'
p111
tp112
a(S'godot_tutorial_series'
p113
S'ndee85'
p114
S'ndee85/godot_tutorial_series'
p115
tp116
a(S'GodotTiledImporter'
p117
S'MrGreenTea'
p118
S'MrGreenTea/GodotTiledImporter'
p119
tp120
a(S'godot_plugins'
p121
S'vinod8990'
p122
S'vinod8990/godot_plugins'
p123
tp124
a(S'ringed'
p125
S'KOBUGE-Games'
p126
S'KOBUGE-Games/ringed'
p127
tp128
a(S'godot-snapshot-interpolation-demo'
p129
S'jrimclean'
p130
S'jrimclean/godot-snapshot-interpolation-demo'
p131
tp132
a(S'add_primitives'
p133
S'TheHX'
p134
S'TheHX/add_primitives'
p135
tp136
a(S'fps-test'
p137
S'Calinou'
p138
S'Calinou/fps-test'
p139
tp140
a(S'gBot'
p141
S'ndee85'
p142
S'ndee85/gBot'
p143
tp144
a(S'godot-state-sync-demo'
p145
S'jrimclean'
p146
S'jrimclean/godot-state-sync-demo'
p147
tp148
a(S'Ninja-Training'
p149
S'KOBUGE-Games'
p150
S'KOBUGE-Games/Ninja-Training'
p151
tp152
a(S'multiball'
p153
S'KOBUGE-Games'
p154
S'KOBUGE-Games/multiball'
p155
tp156
a(S'Godot'
p157
S'Kermer'
p158
S'Kermer/Godot'
p159
tp160
a(S'blockpop'
p161
S'vnen'
p162
S'vnen/blockpop'
p163
tp164
a(S'Bombs'
p165
S'randyyaj'
p166
S'randyyaj/Bombs'
p167
tp168
a(S'godot-bootstrap'
p169
S'groboclown'
p170
S'groboclown/godot-bootstrap'
p171
tp172
a(S'libre-pinball'
p173
S'Calinou'
p174
S'Calinou/libre-pinball'
p175
tp176
a(S'Godot-games'
p177
S'Qwertie-'
p178
S'Qwertie-/Godot-games'
p179
tp180
a(S'breakable'
p181
S'didier-v'
p182
S'didier-v/breakable'
p183
tp184
a(S'reines'
p185
S'KOBUGE-Games'
p186
S'KOBUGE-Games/reines'
p187
tp188
a(S'steamlug-7dfps-2014'
p189
S'SteamLUG'
p190
S'SteamLUG/steamlug-7dfps-2014'
p191
tp192
a(S'godot-pathfinding2d-demo'
p193
S'FEDE0D'
p194
S'FEDE0D/godot-pathfinding2d-demo'
p195
tp196
a(S'blipshift'
p197
S'wardsky'
p198
S'wardsky/blipshift'
p199
tp200
a(S'erythrina'
p201
S'Jbat1Jumper'
p202
S'Jbat1Jumper/erythrina'
p203
tp204
a(S'minilens'
p205
S'KOBUGE-Games'
p206
S'KOBUGE-Games/minilens'
p207
tp208
a(S'dynadungeons'
p209
S'akien-mga'
p210
S'akien-mga/dynadungeons'
p211
tp212
a(S'godot_tutorial_series'
p213
S'ndee85'
p214
S'ndee85/godot_tutorial_series'
p215
tp216
a(S'GodotTiledImporter'
p217
S'MrGreenTea'
p218
S'MrGreenTea/GodotTiledImporter'
p219
tp220
a(S'godot_plugins'
p221
S'vinod8990'
p222
S'vinod8990/godot_plugins'
p223
tp224
a(S'ringed'
p225
S'KOBUGE-Games'
p226
S'KOBUGE-Games/ringed'
p227
tp228
a(S'godot-snapshot-interpolation-demo'
p229
S'jrimclean'
p230
S'jrimclean/godot-snapshot-interpolation-demo'
p231
tp232
a(S'add_primitives'
p233
S'TheHX'
p234
S'TheHX/add_primitives'
p235
tp236
a(S'fps-test'
p237
S'Calinou'
p238
S'Calinou/fps-test'
p239
tp240
a(S'gBot'
p241
S'ndee85'
p242
S'ndee85/gBot'
p243
tp244
a(S'godot-state-sync-demo'
p245
S'jrimclean'
p246
S'jrimclean/godot-state-sync-demo'
p247
tp248
a(S'Ninja-Training'
p249
S'KOBUGE-Games'
p250
S'KOBUGE-Games/Ninja-Training'
p251
tp252
a(S'multiball'
p253
S'KOBUGE-Games'
p254
S'KOBUGE-Games/multiball'
p255
tp256
a(S'Godot'
p257
S'Kermer'
p258
S'Kermer/Godot'
p259
tp260
a(S'blockpop'
p261
S'vnen'
p262
S'vnen/blockpop'
p263
tp264
a(S'Bombs'
p265
S'randyyaj'
p266
S'randyyaj/Bombs'
p267
tp268
a(S'godot-bootstrap'
p269
S'groboclown'
p270
S'groboclown/godot-bootstrap'
p271
tp272
a(S'libre-pinball'
p273
S'Calinou'
p274
S'Calinou/libre-pinball'
p275
tp276
a(S'Godot-games'
p277
S'Qwertie-'
p278
S'Qwertie-/Godot-games'
p279
tp280
a(S'breakable'
p281
S'didier-v'
p282
S'didier-v/breakable'
p283
tp284
a(S'reines'
p285
S'KOBUGE-Games'
p286
S'KOBUGE-Games/reines'
p287
tp288
a(S'steamlug-7dfps-2014'
p289
S'SteamLUG'
p290
S'SteamLUG/steamlug-7dfps-2014'
p291
tp292
a(S'godot-pathfinding2d-demo'
p293
S'FEDE0D'
p294
S'FEDE0D/godot-pathfinding2d-demo'
p295
tp296
a(S'blipshift'
p297
S'wardsky'
p298
S'wardsky/blipshift'
p299
tp300
a.