(lp0
(S'VistA'
p1
S'OSEHRA'
p2
S'OSEHRA/VistA'
p3
tp4
a(S'FMQL'
p5
S'caregraf'
p6
S'caregraf/FMQL'
p7
tp8
a(S'patch-module'
p9
S'shabiel'
p10
S'shabiel/patch-module'
p11
tp12
a(S'VistA'
p13
S'OSEHRA-Sandbox'
p14
S'OSEHRA-Sandbox/VistA'
p15
tp16
a(S'patch-module'
p17
S'OSEHRA'
p18
S'OSEHRA/patch-module'
p19
tp20
a(S'VistA-Extensible-Editor'
p21
S'mdgeek'
p22
S'mdgeek/VistA-Extensible-Editor'
p23
tp24
a(S'VistA-Serialization-Framework'
p25
S'mdgeek'
p26
S'mdgeek/VistA-Serialization-Framework'
p27
tp28
a(S'M-Unit'
p29
S'joelivey'
p30
S'joelivey/M-Unit'
p31
tp32
a(S'VistA-RG-Utilities'
p33
S'mdgeek'
p34
S'mdgeek/VistA-RG-Utilities'
p35
tp36
a(S'VistA-Network-Services'
p37
S'mdgeek'
p38
S'mdgeek/VistA-Network-Services'
p39
tp40
a(S'carewebframework.github.io'
p41
S'carewebframework'
p42
S'carewebframework/carewebframework.github.io'
p43
tp44
a(S'MHV-Enrollment'
p45
S'VHAINNOVATIONS'
p46
S'VHAINNOVATIONS/MHV-Enrollment'
p47
tp48
a(S'M-Tools'
p49
S'shabiel'
p50
S'shabiel/M-Tools'
p51
tp52
a(S'VistA-FHIR-CWF'
p53
S'mdgeek'
p54
S'mdgeek/VistA-FHIR-CWF'
p55
tp56
a(S'VistA-Innovation-Project'
p57
S'mdgeek'
p58
S'mdgeek/VistA-Innovation-Project'
p59
tp60
a(S'busybe-svn'
p61
S'BackupTheBerlios'
p62
S'BackupTheBerlios/busybe-svn'
p63
tp64
a(S'mumps-utils'
p65
S'donBitscopic'
p66
S'donBitscopic/mumps-utils'
p67
tp68
a(S'VistA-PageMan'
p69
S'mdgeek'
p70
S'mdgeek/VistA-PageMan'
p71
tp72
a(S'VistA'
p73
S'ChristopherEdwards'
p74
S'ChristopherEdwards/VistA'
p75
tp76
a(S'VistA_tt'
p77
S'timmvt'
p78
S'timmvt/VistA_tt'
p79
tp80
a(S'Latte'
p81
S'shabiel'
p82
S'shabiel/Latte'
p83
tp84
a(S'carewebframework-vista'
p85
S'carewebframework'
p86
S'carewebframework/carewebframework-vista'
p87
tp88
a(S'random-vista-utilities'
p89
S'shabiel'
p90
S'shabiel/random-vista-utilities'
p91
tp92
a(S'carewebframework-rpms'
p93
S'carewebframework'
p94
S'carewebframework/carewebframework-rpms'
p95
tp96
a(S'M-Unit'
p97
S'shabiel'
p98
S'shabiel/M-Unit'
p99
tp100
a(S'VistA'
p101
S'OSEHRA'
p102
S'OSEHRA/VistA'
p103
tp104
a(S'FMQL'
p105
S'caregraf'
p106
S'caregraf/FMQL'
p107
tp108
a(S'patch-module'
p109
S'shabiel'
p110
S'shabiel/patch-module'
p111
tp112
a(S'VistA'
p113
S'OSEHRA-Sandbox'
p114
S'OSEHRA-Sandbox/VistA'
p115
tp116
a(S'patch-module'
p117
S'OSEHRA'
p118
S'OSEHRA/patch-module'
p119
tp120
a(S'VistA-Extensible-Editor'
p121
S'mdgeek'
p122
S'mdgeek/VistA-Extensible-Editor'
p123
tp124
a(S'VistA-Serialization-Framework'
p125
S'mdgeek'
p126
S'mdgeek/VistA-Serialization-Framework'
p127
tp128
a(S'M-Unit'
p129
S'joelivey'
p130
S'joelivey/M-Unit'
p131
tp132
a(S'VistA-RG-Utilities'
p133
S'mdgeek'
p134
S'mdgeek/VistA-RG-Utilities'
p135
tp136
a(S'VistA-Network-Services'
p137
S'mdgeek'
p138
S'mdgeek/VistA-Network-Services'
p139
tp140
a(S'carewebframework.github.io'
p141
S'carewebframework'
p142
S'carewebframework/carewebframework.github.io'
p143
tp144
a(S'MHV-Enrollment'
p145
S'VHAINNOVATIONS'
p146
S'VHAINNOVATIONS/MHV-Enrollment'
p147
tp148
a(S'M-Tools'
p149
S'shabiel'
p150
S'shabiel/M-Tools'
p151
tp152
a(S'VistA-FHIR-CWF'
p153
S'mdgeek'
p154
S'mdgeek/VistA-FHIR-CWF'
p155
tp156
a(S'VistA-Innovation-Project'
p157
S'mdgeek'
p158
S'mdgeek/VistA-Innovation-Project'
p159
tp160
a(S'busybe-svn'
p161
S'BackupTheBerlios'
p162
S'BackupTheBerlios/busybe-svn'
p163
tp164
a(S'mumps-utils'
p165
S'donBitscopic'
p166
S'donBitscopic/mumps-utils'
p167
tp168
a(S'VistA-PageMan'
p169
S'mdgeek'
p170
S'mdgeek/VistA-PageMan'
p171
tp172
a(S'VistA'
p173
S'ChristopherEdwards'
p174
S'ChristopherEdwards/VistA'
p175
tp176
a(S'VistA_tt'
p177
S'timmvt'
p178
S'timmvt/VistA_tt'
p179
tp180
a(S'Latte'
p181
S'shabiel'
p182
S'shabiel/Latte'
p183
tp184
a(S'carewebframework-vista'
p185
S'carewebframework'
p186
S'carewebframework/carewebframework-vista'
p187
tp188
a(S'random-vista-utilities'
p189
S'shabiel'
p190
S'shabiel/random-vista-utilities'
p191
tp192
a(S'carewebframework-rpms'
p193
S'carewebframework'
p194
S'carewebframework/carewebframework-rpms'
p195
tp196
a(S'M-Unit'
p197
S'shabiel'
p198
S'shabiel/M-Unit'
p199
tp200
a(S'VistA'
p201
S'OSEHRA'
p202
S'OSEHRA/VistA'
p203
tp204
a(S'FMQL'
p205
S'caregraf'
p206
S'caregraf/FMQL'
p207
tp208
a(S'patch-module'
p209
S'shabiel'
p210
S'shabiel/patch-module'
p211
tp212
a(S'VistA'
p213
S'OSEHRA-Sandbox'
p214
S'OSEHRA-Sandbox/VistA'
p215
tp216
a(S'patch-module'
p217
S'OSEHRA'
p218
S'OSEHRA/patch-module'
p219
tp220
a(S'VistA-Extensible-Editor'
p221
S'mdgeek'
p222
S'mdgeek/VistA-Extensible-Editor'
p223
tp224
a(S'VistA-Serialization-Framework'
p225
S'mdgeek'
p226
S'mdgeek/VistA-Serialization-Framework'
p227
tp228
a(S'M-Unit'
p229
S'joelivey'
p230
S'joelivey/M-Unit'
p231
tp232
a(S'VistA-RG-Utilities'
p233
S'mdgeek'
p234
S'mdgeek/VistA-RG-Utilities'
p235
tp236
a(S'VistA-Network-Services'
p237
S'mdgeek'
p238
S'mdgeek/VistA-Network-Services'
p239
tp240
a(S'carewebframework.github.io'
p241
S'carewebframework'
p242
S'carewebframework/carewebframework.github.io'
p243
tp244
a(S'MHV-Enrollment'
p245
S'VHAINNOVATIONS'
p246
S'VHAINNOVATIONS/MHV-Enrollment'
p247
tp248
a(S'M-Tools'
p249
S'shabiel'
p250
S'shabiel/M-Tools'
p251
tp252
a(S'VistA-FHIR-CWF'
p253
S'mdgeek'
p254
S'mdgeek/VistA-FHIR-CWF'
p255
tp256
a(S'VistA-Innovation-Project'
p257
S'mdgeek'
p258
S'mdgeek/VistA-Innovation-Project'
p259
tp260
a(S'busybe-svn'
p261
S'BackupTheBerlios'
p262
S'BackupTheBerlios/busybe-svn'
p263
tp264
a(S'mumps-utils'
p265
S'donBitscopic'
p266
S'donBitscopic/mumps-utils'
p267
tp268
a(S'VistA-PageMan'
p269
S'mdgeek'
p270
S'mdgeek/VistA-PageMan'
p271
tp272
a(S'VistA'
p273
S'ChristopherEdwards'
p274
S'ChristopherEdwards/VistA'
p275
tp276
a(S'VistA_tt'
p277
S'timmvt'
p278
S'timmvt/VistA_tt'
p279
tp280
a(S'Latte'
p281
S'shabiel'
p282
S'shabiel/Latte'
p283
tp284
a(S'carewebframework-vista'
p285
S'carewebframework'
p286
S'carewebframework/carewebframework-vista'
p287
tp288
a(S'random-vista-utilities'
p289
S'shabiel'
p290
S'shabiel/random-vista-utilities'
p291
tp292
a(S'carewebframework-rpms'
p293
S'carewebframework'
p294
S'carewebframework/carewebframework-rpms'
p295
tp296
a(S'M-Unit'
p297
S'shabiel'
p298
S'shabiel/M-Unit'
p299
tp300
a.