(lp0
(S'skin.aeon.shednox.helix'
p1
S'shedrock'
p2
S'shedrock/skin.aeon.shednox.helix'
p3
tp4
a(S'bash-commander'
p5
S'sergev'
p6
S'sergev/bash-commander'
p7
tp8
a(S'secwepemc-facebook'
p9
S'kscanne'
p10
S'kscanne/secwepemc-facebook'
p11
tp12
a(S'libgnomeui'
p13
S'GNOME'
p14
S'GNOME/libgnomeui'
p15
tp16
a(S'typecatcher'
p17
S'andrewsomething'
p18
S'andrewsomething/typecatcher'
p19
tp20
a(S'libgnome'
p21
S'GNOME'
p22
S'GNOME/libgnome'
p23
tp24
a(S'android_external_make'
p25
S'trevd'
p26
S'trevd/android_external_make'
p27
tp28
a(S'conduit'
p29
S'GNOME'
p30
S'GNOME/conduit'
p31
tp32
a(S'0ad'
p33
S'wraitii'
p34
S'wraitii/0ad'
p35
tp36
a(S'holmes-web'
p37
S'holmes-app'
p38
S'holmes-app/holmes-web'
p39
tp40
a(S'warzone2100'
p41
S'perim'
p42
S'perim/warzone2100'
p43
tp44
a(S'moserial'
p45
S'GNOME'
p46
S'GNOME/moserial'
p47
tp48
a(S'itstool'
p49
S'itstool'
p50
S'itstool/itstool'
p51
tp52
a(S'drwright'
p53
S'GNOME'
p54
S'GNOME/drwright'
p55
tp56
a(S'libgnome-media-profiles'
p57
S'GNOME'
p58
S'GNOME/libgnome-media-profiles'
p59
tp60
a(S'gnome-web-photo'
p61
S'GNOME'
p62
S'GNOME/gnome-web-photo'
p63
tp64
a(S'openstackapp'
p65
S'liushuchun'
p66
S'liushuchun/openstackapp'
p67
tp68
a(S'woocommerce_thai'
p69
S'taninbkk'
p70
S'taninbkk/woocommerce_thai'
p71
tp72
a(S'ckan-custom-translations'
p73
S'opendatatrentino'
p74
S'opendatatrentino/ckan-custom-translations'
p75
tp76
a(S'fiee-adhesive'
p77
S'fiee'
p78
S'fiee/fiee-adhesive'
p79
tp80
a(S'gtk-qt-engine'
p81
S'davidsansome'
p82
S'davidsansome/gtk-qt-engine'
p83
tp84
a(S'mate-disk-utility'
p85
S'raveit65'
p86
S'raveit65/mate-disk-utility'
p87
tp88
a(S'gnome-scan'
p89
S'GNOME'
p90
S'GNOME/gnome-scan'
p91
tp92
a(S'gnome-doc-utils'
p93
S'GNOME'
p94
S'GNOME/gnome-doc-utils'
p95
tp96
a(S'training'
p97
S'Covantec'
p98
S'Covantec/training'
p99
tp100
a(S'skin.aeon.shednox.helix'
p101
S'shedrock'
p102
S'shedrock/skin.aeon.shednox.helix'
p103
tp104
a(S'bash-commander'
p105
S'sergev'
p106
S'sergev/bash-commander'
p107
tp108
a(S'secwepemc-facebook'
p109
S'kscanne'
p110
S'kscanne/secwepemc-facebook'
p111
tp112
a(S'libgnomeui'
p113
S'GNOME'
p114
S'GNOME/libgnomeui'
p115
tp116
a(S'typecatcher'
p117
S'andrewsomething'
p118
S'andrewsomething/typecatcher'
p119
tp120
a(S'libgnome'
p121
S'GNOME'
p122
S'GNOME/libgnome'
p123
tp124
a(S'android_external_make'
p125
S'trevd'
p126
S'trevd/android_external_make'
p127
tp128
a(S'conduit'
p129
S'GNOME'
p130
S'GNOME/conduit'
p131
tp132
a(S'0ad'
p133
S'wraitii'
p134
S'wraitii/0ad'
p135
tp136
a(S'holmes-web'
p137
S'holmes-app'
p138
S'holmes-app/holmes-web'
p139
tp140
a(S'warzone2100'
p141
S'perim'
p142
S'perim/warzone2100'
p143
tp144
a(S'moserial'
p145
S'GNOME'
p146
S'GNOME/moserial'
p147
tp148
a(S'itstool'
p149
S'itstool'
p150
S'itstool/itstool'
p151
tp152
a(S'drwright'
p153
S'GNOME'
p154
S'GNOME/drwright'
p155
tp156
a(S'libgnome-media-profiles'
p157
S'GNOME'
p158
S'GNOME/libgnome-media-profiles'
p159
tp160
a(S'gnome-web-photo'
p161
S'GNOME'
p162
S'GNOME/gnome-web-photo'
p163
tp164
a(S'openstackapp'
p165
S'liushuchun'
p166
S'liushuchun/openstackapp'
p167
tp168
a(S'woocommerce_thai'
p169
S'taninbkk'
p170
S'taninbkk/woocommerce_thai'
p171
tp172
a(S'ckan-custom-translations'
p173
S'opendatatrentino'
p174
S'opendatatrentino/ckan-custom-translations'
p175
tp176
a(S'fiee-adhesive'
p177
S'fiee'
p178
S'fiee/fiee-adhesive'
p179
tp180
a(S'gtk-qt-engine'
p181
S'davidsansome'
p182
S'davidsansome/gtk-qt-engine'
p183
tp184
a(S'mate-disk-utility'
p185
S'raveit65'
p186
S'raveit65/mate-disk-utility'
p187
tp188
a(S'gnome-scan'
p189
S'GNOME'
p190
S'GNOME/gnome-scan'
p191
tp192
a(S'gnome-doc-utils'
p193
S'GNOME'
p194
S'GNOME/gnome-doc-utils'
p195
tp196
a(S'training'
p197
S'Covantec'
p198
S'Covantec/training'
p199
tp200
a.