(lp0
(S'Fragmentarium'
p1
S'Syntopia'
p2
S'Syntopia/Fragmentarium'
p3
tp4
a(S'tls_prober'
p5
S'WestpointLtd'
p6
S'WestpointLtd/tls_prober'
p7
tp8
a(S'kode80SSR'
p9
S'kode80'
p10
S'kode80/kode80SSR'
p11
tp12
a(S'Kintsukuroi'
p13
S'pixelatedcrown'
p14
S'pixelatedcrown/Kintsukuroi'
p15
tp16
a(S'Outline-Effect'
p17
S'cakeslice'
p18
S'cakeslice/Outline-Effect'
p19
tp20
a(S'Filters4Processing'
p21
S'SableRaf'
p22
S'SableRaf/Filters4Processing'
p23
tp24
a(S'Vulkan'
p25
S'SaschaWillems'
p26
S'SaschaWillems/Vulkan'
p27
tp28
a(S'Lux_2.0'
p29
S'larsbertram69'
p30
S'larsbertram69/Lux_2.0'
p31
tp32
a(S'RiftRay'
p33
S'jimbo00000'
p34
S'jimbo00000/RiftRay'
p35
tp36
a(S'OpenDwarfs'
p37
S'opendwarfs'
p38
S'opendwarfs/OpenDwarfs'
p39
tp40
a(S'ColorBlindr'
p41
S'Chman'
p42
S'Chman/ColorBlindr'
p43
tp44
a(S'MateImageEffects'
p45
S'ddionisio'
p46
S'ddionisio/MateImageEffects'
p47
tp48
a(S'quark-shaders'
p49
S'hizzlekizzle'
p50
S'hizzlekizzle/quark-shaders'
p51
tp52
a(S'twitter-with-shadowsocks'
p53
S'wsvn53'
p54
S'wsvn53/twitter-with-shadowsocks'
p55
tp56
a(S'glsl-fxaa'
p57
S'mattdesl'
p58
S'mattdesl/glsl-fxaa'
p59
tp60
a(S'psx_retroshader'
p61
S'dsoft20'
p62
S'dsoft20/psx_retroshader'
p63
tp64
a(S'UnitySSR'
p65
S'cCharkes'
p66
S'cCharkes/UnitySSR'
p67
tp68
a(S'glsl-sdf-ops'
p69
S'marklundin'
p70
S'marklundin/glsl-sdf-ops'
p71
tp72
a(S'glsl-blend'
p73
S'jamieowen'
p74
S'jamieowen/glsl-blend'
p75
tp76
a(S'recalbox-buildroot'
p77
S'digitalLumberjack'
p78
S'digitalLumberjack/recalbox-buildroot'
p79
tp80
a(S'glsl-sdf-primitives'
p81
S'marklundin'
p82
S'marklundin/glsl-sdf-primitives'
p83
tp84
a(S'hsva-unity'
p85
S'greggman'
p86
S'greggman/hsva-unity'
p87
tp88
a(S'shader_for_unity'
p89
S'wolf96'
p90
S'wolf96/shader_for_unity'
p91
tp92
a(S'AMAZE-Live-Audio-Workshop'
p93
S'Spierek'
p94
S'Spierek/AMAZE-Live-Audio-Workshop'
p95
tp96
a(S'mpvhq-win64'
p97
S'suhteevah'
p98
S'suhteevah/mpvhq-win64'
p99
tp100
a(S'Fragmentarium'
p101
S'Syntopia'
p102
S'Syntopia/Fragmentarium'
p103
tp104
a(S'tls_prober'
p105
S'WestpointLtd'
p106
S'WestpointLtd/tls_prober'
p107
tp108
a(S'kode80SSR'
p109
S'kode80'
p110
S'kode80/kode80SSR'
p111
tp112
a(S'Kintsukuroi'
p113
S'pixelatedcrown'
p114
S'pixelatedcrown/Kintsukuroi'
p115
tp116
a(S'Outline-Effect'
p117
S'cakeslice'
p118
S'cakeslice/Outline-Effect'
p119
tp120
a(S'Filters4Processing'
p121
S'SableRaf'
p122
S'SableRaf/Filters4Processing'
p123
tp124
a(S'Vulkan'
p125
S'SaschaWillems'
p126
S'SaschaWillems/Vulkan'
p127
tp128
a(S'Lux_2.0'
p129
S'larsbertram69'
p130
S'larsbertram69/Lux_2.0'
p131
tp132
a(S'RiftRay'
p133
S'jimbo00000'
p134
S'jimbo00000/RiftRay'
p135
tp136
a(S'OpenDwarfs'
p137
S'opendwarfs'
p138
S'opendwarfs/OpenDwarfs'
p139
tp140
a(S'ColorBlindr'
p141
S'Chman'
p142
S'Chman/ColorBlindr'
p143
tp144
a(S'MateImageEffects'
p145
S'ddionisio'
p146
S'ddionisio/MateImageEffects'
p147
tp148
a(S'quark-shaders'
p149
S'hizzlekizzle'
p150
S'hizzlekizzle/quark-shaders'
p151
tp152
a(S'twitter-with-shadowsocks'
p153
S'wsvn53'
p154
S'wsvn53/twitter-with-shadowsocks'
p155
tp156
a(S'glsl-fxaa'
p157
S'mattdesl'
p158
S'mattdesl/glsl-fxaa'
p159
tp160
a(S'psx_retroshader'
p161
S'dsoft20'
p162
S'dsoft20/psx_retroshader'
p163
tp164
a(S'UnitySSR'
p165
S'cCharkes'
p166
S'cCharkes/UnitySSR'
p167
tp168
a(S'glsl-sdf-ops'
p169
S'marklundin'
p170
S'marklundin/glsl-sdf-ops'
p171
tp172
a(S'glsl-blend'
p173
S'jamieowen'
p174
S'jamieowen/glsl-blend'
p175
tp176
a(S'recalbox-buildroot'
p177
S'digitalLumberjack'
p178
S'digitalLumberjack/recalbox-buildroot'
p179
tp180
a(S'glsl-sdf-primitives'
p181
S'marklundin'
p182
S'marklundin/glsl-sdf-primitives'
p183
tp184
a(S'hsva-unity'
p185
S'greggman'
p186
S'greggman/hsva-unity'
p187
tp188
a(S'shader_for_unity'
p189
S'wolf96'
p190
S'wolf96/shader_for_unity'
p191
tp192
a(S'AMAZE-Live-Audio-Workshop'
p193
S'Spierek'
p194
S'Spierek/AMAZE-Live-Audio-Workshop'
p195
tp196
a(S'mpvhq-win64'
p197
S'suhteevah'
p198
S'suhteevah/mpvhq-win64'
p199
tp200
a(S'Fragmentarium'
p201
S'Syntopia'
p202
S'Syntopia/Fragmentarium'
p203
tp204
a(S'tls_prober'
p205
S'WestpointLtd'
p206
S'WestpointLtd/tls_prober'
p207
tp208
a(S'kode80SSR'
p209
S'kode80'
p210
S'kode80/kode80SSR'
p211
tp212
a(S'Kintsukuroi'
p213
S'pixelatedcrown'
p214
S'pixelatedcrown/Kintsukuroi'
p215
tp216
a(S'Outline-Effect'
p217
S'cakeslice'
p218
S'cakeslice/Outline-Effect'
p219
tp220
a(S'Filters4Processing'
p221
S'SableRaf'
p222
S'SableRaf/Filters4Processing'
p223
tp224
a(S'Vulkan'
p225
S'SaschaWillems'
p226
S'SaschaWillems/Vulkan'
p227
tp228
a(S'Lux_2.0'
p229
S'larsbertram69'
p230
S'larsbertram69/Lux_2.0'
p231
tp232
a(S'RiftRay'
p233
S'jimbo00000'
p234
S'jimbo00000/RiftRay'
p235
tp236
a(S'OpenDwarfs'
p237
S'opendwarfs'
p238
S'opendwarfs/OpenDwarfs'
p239
tp240
a(S'ColorBlindr'
p241
S'Chman'
p242
S'Chman/ColorBlindr'
p243
tp244
a(S'MateImageEffects'
p245
S'ddionisio'
p246
S'ddionisio/MateImageEffects'
p247
tp248
a(S'quark-shaders'
p249
S'hizzlekizzle'
p250
S'hizzlekizzle/quark-shaders'
p251
tp252
a(S'twitter-with-shadowsocks'
p253
S'wsvn53'
p254
S'wsvn53/twitter-with-shadowsocks'
p255
tp256
a(S'glsl-fxaa'
p257
S'mattdesl'
p258
S'mattdesl/glsl-fxaa'
p259
tp260
a(S'psx_retroshader'
p261
S'dsoft20'
p262
S'dsoft20/psx_retroshader'
p263
tp264
a(S'UnitySSR'
p265
S'cCharkes'
p266
S'cCharkes/UnitySSR'
p267
tp268
a(S'glsl-sdf-ops'
p269
S'marklundin'
p270
S'marklundin/glsl-sdf-ops'
p271
tp272
a(S'glsl-blend'
p273
S'jamieowen'
p274
S'jamieowen/glsl-blend'
p275
tp276
a(S'recalbox-buildroot'
p277
S'digitalLumberjack'
p278
S'digitalLumberjack/recalbox-buildroot'
p279
tp280
a(S'glsl-sdf-primitives'
p281
S'marklundin'
p282
S'marklundin/glsl-sdf-primitives'
p283
tp284
a(S'hsva-unity'
p285
S'greggman'
p286
S'greggman/hsva-unity'
p287
tp288
a(S'shader_for_unity'
p289
S'wolf96'
p290
S'wolf96/shader_for_unity'
p291
tp292
a(S'AMAZE-Live-Audio-Workshop'
p293
S'Spierek'
p294
S'Spierek/AMAZE-Live-Audio-Workshop'
p295
tp296
a(S'mpvhq-win64'
p297
S'suhteevah'
p298
S'suhteevah/mpvhq-win64'
p299
tp300
a.