(lp0
(S'AirfoilMesh'
p1
S'pointwise'
p2
S'pointwise/AirfoilMesh'
p3
tp4
a(S'TriQuad'
p5
S'pointwise'
p6
S'pointwise/TriQuad'
p7
tp8
a(S'CreateOH'
p9
S'pointwise'
p10
S'pointwise/CreateOH'
p11
tp12
a(S'VSP2CFD'
p13
S'pointwise'
p14
S'pointwise/VSP2CFD'
p15
tp16
a(S'AirfoilGenerator'
p17
S'pointwise'
p18
S'pointwise/AirfoilGenerator'
p19
tp20
a(S'Semicircle'
p21
S'pointwise'
p22
S'pointwise/Semicircle'
p23
tp24
a(S'PointwiseGetBoundingBox'
p25
S'advocateddrummer'
p26
S'advocateddrummer/PointwiseGetBoundingBox'
p27
tp28
a(S'heekscad'
p29
S'neomilium'
p30
S'neomilium/heekscad'
p31
tp32
a(S'gotcloud'
p33
S'schelcj'
p34
S'schelcj/gotcloud'
p35
tp36
a(S'gotcloud'
p37
S'rtchen'
p38
S'rtchen/gotcloud'
p39
tp40
a(S'GridCoordEnum'
p41
S'advocateddrummer'
p42
S'advocateddrummer/GridCoordEnum'
p43
tp44
a(S'Thicken2Dto3D'
p45
S'pointwise'
p46
S'pointwise/Thicken2Dto3D'
p47
tp48
a(S'Bloxz'
p49
S'jamiepg1'
p50
S'jamiepg1/Bloxz'
p51
tp52
a(S'ButterflyMaker'
p53
S'msbhqmz'
p54
S'msbhqmz/ButterflyMaker'
p55
tp56
a(S'AircraftMesher'
p57
S'pointwise'
p58
S'pointwise/AircraftMesher'
p59
tp60
a(S'PickDbByColor'
p61
S'jamiepg1'
p62
S'jamiepg1/PickDbByColor'
p63
tp64
a(S'CreateFromAnalyticFunction'
p65
S'pointwise'
p66
S'pointwise/CreateFromAnalyticFunction'
p67
tp68
a(S'GridCoordEnum'
p69
S'pointwise'
p70
S'pointwise/GridCoordEnum'
p71
tp72
a(S'glyph-thicken2d'
p73
S'dbgarlisch'
p74
S'dbgarlisch/glyph-thicken2d'
p75
tp76
a(S'BlockToFacet'
p77
S'advocateddrummer'
p78
S'advocateddrummer/BlockToFacet'
p79
tp80
a(S'Bloxz'
p81
S'zacaj'
p82
S'zacaj/Bloxz'
p83
tp84
a(S'PickDbByColor'
p85
S'pointwise'
p86
S'pointwise/PickDbByColor'
p87
tp88
a(S'ButterflyMaker'
p89
S'pointwise'
p90
S'pointwise/ButterflyMaker'
p91
tp92
a(S'glyph-pwoo'
p93
S'dbgarlisch'
p94
S'dbgarlisch/glyph-pwoo'
p95
tp96
a(S'ConGeometricAutoDimension'
p97
S'pointwise'
p98
S'pointwise/ConGeometricAutoDimension'
p99
tp100
a(S'AirfoilMesh'
p101
S'pointwise'
p102
S'pointwise/AirfoilMesh'
p103
tp104
a(S'TriQuad'
p105
S'pointwise'
p106
S'pointwise/TriQuad'
p107
tp108
a(S'CreateOH'
p109
S'pointwise'
p110
S'pointwise/CreateOH'
p111
tp112
a(S'VSP2CFD'
p113
S'pointwise'
p114
S'pointwise/VSP2CFD'
p115
tp116
a(S'AirfoilGenerator'
p117
S'pointwise'
p118
S'pointwise/AirfoilGenerator'
p119
tp120
a(S'Semicircle'
p121
S'pointwise'
p122
S'pointwise/Semicircle'
p123
tp124
a(S'PointwiseGetBoundingBox'
p125
S'advocateddrummer'
p126
S'advocateddrummer/PointwiseGetBoundingBox'
p127
tp128
a(S'heekscad'
p129
S'neomilium'
p130
S'neomilium/heekscad'
p131
tp132
a(S'gotcloud'
p133
S'schelcj'
p134
S'schelcj/gotcloud'
p135
tp136
a(S'gotcloud'
p137
S'rtchen'
p138
S'rtchen/gotcloud'
p139
tp140
a(S'GridCoordEnum'
p141
S'advocateddrummer'
p142
S'advocateddrummer/GridCoordEnum'
p143
tp144
a(S'Thicken2Dto3D'
p145
S'pointwise'
p146
S'pointwise/Thicken2Dto3D'
p147
tp148
a(S'Bloxz'
p149
S'jamiepg1'
p150
S'jamiepg1/Bloxz'
p151
tp152
a(S'ButterflyMaker'
p153
S'msbhqmz'
p154
S'msbhqmz/ButterflyMaker'
p155
tp156
a(S'AircraftMesher'
p157
S'pointwise'
p158
S'pointwise/AircraftMesher'
p159
tp160
a(S'PickDbByColor'
p161
S'jamiepg1'
p162
S'jamiepg1/PickDbByColor'
p163
tp164
a(S'CreateFromAnalyticFunction'
p165
S'pointwise'
p166
S'pointwise/CreateFromAnalyticFunction'
p167
tp168
a(S'GridCoordEnum'
p169
S'pointwise'
p170
S'pointwise/GridCoordEnum'
p171
tp172
a(S'glyph-thicken2d'
p173
S'dbgarlisch'
p174
S'dbgarlisch/glyph-thicken2d'
p175
tp176
a(S'BlockToFacet'
p177
S'advocateddrummer'
p178
S'advocateddrummer/BlockToFacet'
p179
tp180
a(S'Bloxz'
p181
S'zacaj'
p182
S'zacaj/Bloxz'
p183
tp184
a(S'PickDbByColor'
p185
S'pointwise'
p186
S'pointwise/PickDbByColor'
p187
tp188
a(S'ButterflyMaker'
p189
S'pointwise'
p190
S'pointwise/ButterflyMaker'
p191
tp192
a(S'glyph-pwoo'
p193
S'dbgarlisch'
p194
S'dbgarlisch/glyph-pwoo'
p195
tp196
a(S'ConGeometricAutoDimension'
p197
S'pointwise'
p198
S'pointwise/ConGeometricAutoDimension'
p199
tp200
a(S'AirfoilMesh'
p201
S'pointwise'
p202
S'pointwise/AirfoilMesh'
p203
tp204
a(S'TriQuad'
p205
S'pointwise'
p206
S'pointwise/TriQuad'
p207
tp208
a(S'CreateOH'
p209
S'pointwise'
p210
S'pointwise/CreateOH'
p211
tp212
a(S'VSP2CFD'
p213
S'pointwise'
p214
S'pointwise/VSP2CFD'
p215
tp216
a(S'AirfoilGenerator'
p217
S'pointwise'
p218
S'pointwise/AirfoilGenerator'
p219
tp220
a(S'Semicircle'
p221
S'pointwise'
p222
S'pointwise/Semicircle'
p223
tp224
a(S'PointwiseGetBoundingBox'
p225
S'advocateddrummer'
p226
S'advocateddrummer/PointwiseGetBoundingBox'
p227
tp228
a(S'heekscad'
p229
S'neomilium'
p230
S'neomilium/heekscad'
p231
tp232
a(S'gotcloud'
p233
S'schelcj'
p234
S'schelcj/gotcloud'
p235
tp236
a(S'gotcloud'
p237
S'rtchen'
p238
S'rtchen/gotcloud'
p239
tp240
a(S'GridCoordEnum'
p241
S'advocateddrummer'
p242
S'advocateddrummer/GridCoordEnum'
p243
tp244
a(S'Thicken2Dto3D'
p245
S'pointwise'
p246
S'pointwise/Thicken2Dto3D'
p247
tp248
a(S'Bloxz'
p249
S'jamiepg1'
p250
S'jamiepg1/Bloxz'
p251
tp252
a(S'ButterflyMaker'
p253
S'msbhqmz'
p254
S'msbhqmz/ButterflyMaker'
p255
tp256
a(S'AircraftMesher'
p257
S'pointwise'
p258
S'pointwise/AircraftMesher'
p259
tp260
a(S'PickDbByColor'
p261
S'jamiepg1'
p262
S'jamiepg1/PickDbByColor'
p263
tp264
a(S'CreateFromAnalyticFunction'
p265
S'pointwise'
p266
S'pointwise/CreateFromAnalyticFunction'
p267
tp268
a(S'GridCoordEnum'
p269
S'pointwise'
p270
S'pointwise/GridCoordEnum'
p271
tp272
a(S'glyph-thicken2d'
p273
S'dbgarlisch'
p274
S'dbgarlisch/glyph-thicken2d'
p275
tp276
a(S'BlockToFacet'
p277
S'advocateddrummer'
p278
S'advocateddrummer/BlockToFacet'
p279
tp280
a(S'Bloxz'
p281
S'zacaj'
p282
S'zacaj/Bloxz'
p283
tp284
a(S'PickDbByColor'
p285
S'pointwise'
p286
S'pointwise/PickDbByColor'
p287
tp288
a(S'ButterflyMaker'
p289
S'pointwise'
p290
S'pointwise/ButterflyMaker'
p291
tp292
a(S'glyph-pwoo'
p293
S'dbgarlisch'
p294
S'dbgarlisch/glyph-pwoo'
p295
tp296
a(S'ConGeometricAutoDimension'
p297
S'pointwise'
p298
S'pointwise/ConGeometricAutoDimension'
p299
tp300
a.