(lp0
(S'CHDataStructures'
p1
S'quinntaylor'
p2
S'quinntaylor/CHDataStructures'
p3
tp4
a(S'gnuplot-colorbrewer'
p5
S'aschn'
p6
S'aschn/gnuplot-colorbrewer'
p7
tp8
a(S'man'
p9
S'shuge'
p10
S'shuge/man'
p11
tp12
a(S'mysql-driver-benchmark'
p13
S'agentzh'
p14
S'agentzh/mysql-driver-benchmark'
p15
tp16
a(S'aspect'
p17
S'geodynamics'
p18
S'geodynamics/aspect'
p19
tp20
a(S'pdf-read'
p21
S'gcr'
p22
S'gcr/pdf-read'
p23
tp24
a(S'boin'
p25
S'natrium11321'
p26
S'natrium11321/boin'
p27
tp28
a(S'blog-entries'
p29
S'Gnuplotting'
p30
S'Gnuplotting/blog-entries'
p31
tp32
a(S'netbenches'
p33
S'ocochard'
p34
S'ocochard/netbenches'
p35
tp36
a(S'zshconf'
p37
S'ryochin'
p38
S'ryochin/zshconf'
p39
tp40
a(S'map_podm'
p41
S'slazav'
p42
S'slazav/map_podm'
p43
tp44
a(S'notes'
p45
S'brianchenming'
p46
S'brianchenming/notes'
p47
tp48
a(S'quicksort-pivot-imbalance'
p49
S'lorenzhs'
p50
S'lorenzhs/quicksort-pivot-imbalance'
p51
tp52
a(S'TestCases'
p53
S'su2code'
p54
S'su2code/TestCases'
p55
tp56
a(S'thesis'
p57
S'durian'
p58
S'durian/thesis'
p59
tp60
a(S'PARI-extensions'
p61
S'CRGreathouse'
p62
S'CRGreathouse/PARI-extensions'
p63
tp64
a(S'crubybenci'
p65
S'authorNari'
p66
S'authorNari/crubybenci'
p67
tp68
a(S'DAFGA'
p69
S'outbig'
p70
S'outbig/DAFGA'
p71
tp72
a(S'Gnuplot-Templates'
p73
S'hesstobi'
p74
S'hesstobi/Gnuplot-Templates'
p75
tp76
a(S'fixed_sensor_visualization'
p77
S'thinrope'
p78
S'thinrope/fixed_sensor_visualization'
p79
tp80
a(S'Gnubots'
p81
S'mungofrost'
p82
S'mungofrost/Gnubots'
p83
tp84
a(S'silo-pool'
p85
S'daitss'
p86
S'daitss/silo-pool'
p87
tp88
a(S'USI-Kolonization-Systems-Resources'
p89
S'mhoram-kerbin'
p90
S'mhoram-kerbin/USI-Kolonization-Systems-Resources'
p91
tp92
a(S'silm'
p93
S'silm'
p94
S'silm/silm'
p95
tp96
a(S'gnuplots'
p97
S'ALaDyn'
p98
S'ALaDyn/gnuplots'
p99
tp100
a(S'CHDataStructures'
p101
S'quinntaylor'
p102
S'quinntaylor/CHDataStructures'
p103
tp104
a(S'gnuplot-colorbrewer'
p105
S'aschn'
p106
S'aschn/gnuplot-colorbrewer'
p107
tp108
a(S'man'
p109
S'shuge'
p110
S'shuge/man'
p111
tp112
a(S'mysql-driver-benchmark'
p113
S'agentzh'
p114
S'agentzh/mysql-driver-benchmark'
p115
tp116
a(S'aspect'
p117
S'geodynamics'
p118
S'geodynamics/aspect'
p119
tp120
a(S'pdf-read'
p121
S'gcr'
p122
S'gcr/pdf-read'
p123
tp124
a(S'boin'
p125
S'natrium11321'
p126
S'natrium11321/boin'
p127
tp128
a(S'blog-entries'
p129
S'Gnuplotting'
p130
S'Gnuplotting/blog-entries'
p131
tp132
a(S'netbenches'
p133
S'ocochard'
p134
S'ocochard/netbenches'
p135
tp136
a(S'zshconf'
p137
S'ryochin'
p138
S'ryochin/zshconf'
p139
tp140
a(S'map_podm'
p141
S'slazav'
p142
S'slazav/map_podm'
p143
tp144
a(S'notes'
p145
S'brianchenming'
p146
S'brianchenming/notes'
p147
tp148
a(S'quicksort-pivot-imbalance'
p149
S'lorenzhs'
p150
S'lorenzhs/quicksort-pivot-imbalance'
p151
tp152
a(S'TestCases'
p153
S'su2code'
p154
S'su2code/TestCases'
p155
tp156
a(S'thesis'
p157
S'durian'
p158
S'durian/thesis'
p159
tp160
a(S'PARI-extensions'
p161
S'CRGreathouse'
p162
S'CRGreathouse/PARI-extensions'
p163
tp164
a(S'crubybenci'
p165
S'authorNari'
p166
S'authorNari/crubybenci'
p167
tp168
a(S'DAFGA'
p169
S'outbig'
p170
S'outbig/DAFGA'
p171
tp172
a(S'Gnuplot-Templates'
p173
S'hesstobi'
p174
S'hesstobi/Gnuplot-Templates'
p175
tp176
a(S'fixed_sensor_visualization'
p177
S'thinrope'
p178
S'thinrope/fixed_sensor_visualization'
p179
tp180
a(S'Gnubots'
p181
S'mungofrost'
p182
S'mungofrost/Gnubots'
p183
tp184
a(S'silo-pool'
p185
S'daitss'
p186
S'daitss/silo-pool'
p187
tp188
a(S'USI-Kolonization-Systems-Resources'
p189
S'mhoram-kerbin'
p190
S'mhoram-kerbin/USI-Kolonization-Systems-Resources'
p191
tp192
a(S'silm'
p193
S'silm'
p194
S'silm/silm'
p195
tp196
a(S'gnuplots'
p197
S'ALaDyn'
p198
S'ALaDyn/gnuplots'
p199
tp200
a(S'CHDataStructures'
p201
S'quinntaylor'
p202
S'quinntaylor/CHDataStructures'
p203
tp204
a(S'gnuplot-colorbrewer'
p205
S'aschn'
p206
S'aschn/gnuplot-colorbrewer'
p207
tp208
a(S'man'
p209
S'shuge'
p210
S'shuge/man'
p211
tp212
a(S'mysql-driver-benchmark'
p213
S'agentzh'
p214
S'agentzh/mysql-driver-benchmark'
p215
tp216
a(S'aspect'
p217
S'geodynamics'
p218
S'geodynamics/aspect'
p219
tp220
a(S'pdf-read'
p221
S'gcr'
p222
S'gcr/pdf-read'
p223
tp224
a(S'boin'
p225
S'natrium11321'
p226
S'natrium11321/boin'
p227
tp228
a(S'blog-entries'
p229
S'Gnuplotting'
p230
S'Gnuplotting/blog-entries'
p231
tp232
a(S'netbenches'
p233
S'ocochard'
p234
S'ocochard/netbenches'
p235
tp236
a(S'zshconf'
p237
S'ryochin'
p238
S'ryochin/zshconf'
p239
tp240
a(S'map_podm'
p241
S'slazav'
p242
S'slazav/map_podm'
p243
tp244
a(S'notes'
p245
S'brianchenming'
p246
S'brianchenming/notes'
p247
tp248
a(S'quicksort-pivot-imbalance'
p249
S'lorenzhs'
p250
S'lorenzhs/quicksort-pivot-imbalance'
p251
tp252
a(S'TestCases'
p253
S'su2code'
p254
S'su2code/TestCases'
p255
tp256
a(S'thesis'
p257
S'durian'
p258
S'durian/thesis'
p259
tp260
a(S'PARI-extensions'
p261
S'CRGreathouse'
p262
S'CRGreathouse/PARI-extensions'
p263
tp264
a(S'crubybenci'
p265
S'authorNari'
p266
S'authorNari/crubybenci'
p267
tp268
a(S'DAFGA'
p269
S'outbig'
p270
S'outbig/DAFGA'
p271
tp272
a(S'Gnuplot-Templates'
p273
S'hesstobi'
p274
S'hesstobi/Gnuplot-Templates'
p275
tp276
a(S'fixed_sensor_visualization'
p277
S'thinrope'
p278
S'thinrope/fixed_sensor_visualization'
p279
tp280
a(S'Gnubots'
p281
S'mungofrost'
p282
S'mungofrost/Gnubots'
p283
tp284
a(S'silo-pool'
p285
S'daitss'
p286
S'daitss/silo-pool'
p287
tp288
a(S'USI-Kolonization-Systems-Resources'
p289
S'mhoram-kerbin'
p290
S'mhoram-kerbin/USI-Kolonization-Systems-Resources'
p291
tp292
a(S'silm'
p293
S'silm'
p294
S'silm/silm'
p295
tp296
a(S'gnuplots'
p297
S'ALaDyn'
p298
S'ALaDyn/gnuplots'
p299
tp300
a.