(lp0
(S'devd'
p1
S'cortesi'
p2
S'cortesi/devd'
p3
tp4
a(S'fabio'
p5
S'eBay'
p6
S'eBay/fabio'
p7
tp8
a(S'go'
p9
S'golang'
p10
S'golang/go'
p11
tp12
a(S'badwolf'
p13
S'google'
p14
S'google/badwolf'
p15
tp16
a(S'lantern'
p17
S'getlantern'
p18
S'getlantern/lantern'
p19
tp20
a(S'hugo'
p21
S'spf13'
p22
S'spf13/hugo'
p23
tp24
a(S'AES'
p25
S'OpenWhiteBox'
p26
S'OpenWhiteBox/AES'
p27
tp28
a(S'jobrunner'
p29
S'bamzi'
p30
S'bamzi/jobrunner'
p31
tp32
a(S'docker'
p33
S'docker'
p34
S'docker/docker'
p35
tp36
a(S'kubernetes'
p37
S'kubernetes'
p38
S'kubernetes/kubernetes'
p39
tp40
a(S'awesome-go'
p41
S'avelino'
p42
S'avelino/awesome-go'
p43
tp44
a(S'delta'
p45
S'octavore'
p46
S'octavore/delta'
p47
tp48
a(S'logrus'
p49
S'Sirupsen'
p50
S'Sirupsen/logrus'
p51
tp52
a(S'caddy'
p53
S'mholt'
p54
S'mholt/caddy'
p55
tp56
a(S'fzf'
p57
S'junegunn'
p58
S'junegunn/fzf'
p59
tp60
a(S'syncthing'
p61
S'syncthing'
p62
S'syncthing/syncthing'
p63
tp64
a(S'dedup'
p65
S'klauspost'
p66
S'klauspost/dedup'
p67
tp68
a(S'gorm'
p69
S'jinzhu'
p70
S'jinzhu/gorm'
p71
tp72
a(S'gogs'
p73
S'gogits'
p74
S'gogits/gogs'
p75
tp76
a(S'git-lfs'
p77
S'github'
p78
S'github/git-lfs'
p79
tp80
a(S'nomad'
p81
S'hashicorp'
p82
S'hashicorp/nomad'
p83
tp84
a(S'leaf'
p85
S'name5566'
p86
S'name5566/leaf'
p87
tp88
a(S'influxdb'
p89
S'influxdb'
p90
S'influxdb/influxdb'
p91
tp92
a(S'go-ipfs'
p93
S'ipfs'
p94
S'ipfs/go-ipfs'
p95
tp96
a(S'httprouter'
p97
S'julienschmidt'
p98
S'julienschmidt/httprouter'
p99
tp100
a(S'devd'
p101
S'cortesi'
p102
S'cortesi/devd'
p103
tp104
a(S'fabio'
p105
S'eBay'
p106
S'eBay/fabio'
p107
tp108
a(S'badwolf'
p109
S'google'
p110
S'google/badwolf'
p111
tp112
a(S'goofys'
p113
S'kahing'
p114
S'kahing/goofys'
p115
tp116
a(S'siberite'
p117
S'bogdanovich'
p118
S'bogdanovich/siberite'
p119
tp120
a(S'gobenchui'
p121
S'divan'
p122
S'divan/gobenchui'
p123
tp124
a(S'docker'
p125
S'docker'
p126
S'docker/docker'
p127
tp128
a(S'lantern'
p129
S'getlantern'
p130
S'getlantern/lantern'
p131
tp132
a(S'go'
p133
S'golang'
p134
S'golang/go'
p135
tp136
a(S'lego'
p137
S'xenolf'
p138
S'xenolf/lego'
p139
tp140
a(S'awesome-go'
p141
S'avelino'
p142
S'avelino/awesome-go'
p143
tp144
a(S'kubernetes'
p145
S'kubernetes'
p146
S'kubernetes/kubernetes'
p147
tp148
a(S'hugo'
p149
S'spf13'
p150
S'spf13/hugo'
p151
tp152
a(S'jobrunner'
p153
S'bamzi'
p154
S'bamzi/jobrunner'
p155
tp156
a(S'otto'
p157
S'hashicorp'
p158
S'hashicorp/otto'
p159
tp160
a(S'stats'
p161
S'montanaflynn'
p162
S'montanaflynn/stats'
p163
tp164
a(S'gogs'
p165
S'gogits'
p166
S'gogits/gogs'
p167
tp168
a(S'kingtask'
p169
S'flike'
p170
S'flike/kingtask'
p171
tp172
a(S'fzf'
p173
S'junegunn'
p174
S'junegunn/fzf'
p175
tp176
a(S'boulder'
p177
S'letsencrypt'
p178
S'letsencrypt/boulder'
p179
tp180
a(S'stolon'
p181
S'sorintlab'
p182
S'sorintlab/stolon'
p183
tp184
a(S'etcd'
p185
S'coreos'
p186
S'coreos/etcd'
p187
tp188
a(S'gin'
p189
S'gin-gonic'
p190
S'gin-gonic/gin'
p191
tp192
a(S'build-web-application-with-golang'
p193
S'astaxie'
p194
S'astaxie/build-web-application-with-golang'
p195
tp196
a(S'delta'
p197
S'octavore'
p198
S'octavore/delta'
p199
tp200
a(S'otto'
p201
S'hashicorp'
p202
S'hashicorp/otto'
p203
tp204
a(S'devd'
p205
S'cortesi'
p206
S'cortesi/devd'
p207
tp208
a(S'nomad'
p209
S'hashicorp'
p210
S'hashicorp/nomad'
p211
tp212
a(S'docker'
p213
S'docker'
p214
S'docker/docker'
p215
tp216
a(S'lantern'
p217
S'getlantern'
p218
S'getlantern/lantern'
p219
tp220
a(S'go'
p221
S'golang'
p222
S'golang/go'
p223
tp224
a(S'awesome-go'
p225
S'avelino'
p226
S'avelino/awesome-go'
p227
tp228
a(S'git-lfs'
p229
S'github'
p230
S'github/git-lfs'
p231
tp232
a(S'kubernetes'
p233
S'kubernetes'
p234
S'kubernetes/kubernetes'
p235
tp236
a(S'traefik'
p237
S'emilevauge'
p238
S'emilevauge/traefik'
p239
tp240
a(S'stats'
p241
S'montanaflynn'
p242
S'montanaflynn/stats'
p243
tp244
a(S'hugo'
p245
S'spf13'
p246
S'spf13/hugo'
p247
tp248
a(S'gogs'
p249
S'gogits'
p250
S'gogits/gogs'
p251
tp252
a(S'fabio'
p253
S'eBay'
p254
S'eBay/fabio'
p255
tp256
a(S'siberite'
p257
S'bogdanovich'
p258
S'bogdanovich/siberite'
p259
tp260
a(S'tidb'
p261
S'pingcap'
p262
S'pingcap/tidb'
p263
tp264
a(S'syncthing'
p265
S'syncthing'
p266
S'syncthing/syncthing'
p267
tp268
a(S'build-web-application-with-golang'
p269
S'astaxie'
p270
S'astaxie/build-web-application-with-golang'
p271
tp272
a(S'etcd'
p273
S'coreos'
p274
S'coreos/etcd'
p275
tp276
a(S'terraform'
p277
S'hashicorp'
p278
S'hashicorp/terraform'
p279
tp280
a(S'gin'
p281
S'gin-gonic'
p282
S'gin-gonic/gin'
p283
tp284
a(S'consul'
p285
S'hashicorp'
p286
S'hashicorp/consul'
p287
tp288
a(S'badwolf'
p289
S'google'
p290
S'google/badwolf'
p291
tp292
a(S'hub'
p293
S'github'
p294
S'github/hub'
p295
tp296
a(S'goofys'
p297
S'kahing'
p298
S'kahing/goofys'
p299
tp300
a.