(lp0
(S'kiss'
p1
S'k33g'
p2
S'k33g/kiss'
p3
tp4
a(S'golo-tour'
p5
S'TypeUnsafe'
p6
S'TypeUnsafe/golo-tour'
p7
tp8
a(S'malossol'
p9
S'k33g'
p10
S'k33g/malossol'
p11
tp12
a(S'guino'
p13
S'TypeUnsafe'
p14
S'TypeUnsafe/guino'
p15
tp16
a(S'golo-devoxx13-demos'
p17
S'jamiepg3'
p18
S'jamiepg3/golo-devoxx13-demos'
p19
tp20
a(S'golo-devoxxfr13-demos'
p21
S'jamiepg3'
p22
S'jamiepg3/golo-devoxxfr13-demos'
p23
tp24
a(S'golo-vertx'
p25
S'golo-vertx'
p26
S'golo-vertx/golo-vertx'
p27
tp28
a(S'goloid'
p29
S'titimoby'
p30
S'titimoby/goloid'
p31
tp32
a(S'20150130-k33g-golo-functional'
p33
S'training-blogs'
p34
S'training-blogs/20150130-k33g-golo-functional'
p35
tp36
a(S'toolbelt'
p37
S'connectedworkers'
p38
S'connectedworkers/toolbelt'
p39
tp40
a(S'dsl.adapters'
p41
S'connectedworkers'
p42
S'connectedworkers/dsl.adapters'
p43
tp44
a(S'awa'
p45
S'connectedworkers'
p46
S'connectedworkers/awa'
p47
tp48
a(S'modern-headline-builder.golo'
p49
S'rlespinasse'
p50
S'rlespinasse/modern-headline-builder.golo'
p51
tp52
a(S'kiss'
p53
S'sebastienblanc'
p54
S'sebastienblanc/kiss'
p55
tp56
a(S'kiss'
p57
S'k33g'
p58
S'k33g/kiss'
p59
tp60
a(S'golo-tour'
p61
S'TypeUnsafe'
p62
S'TypeUnsafe/golo-tour'
p63
tp64
a(S'malossol'
p65
S'k33g'
p66
S'k33g/malossol'
p67
tp68
a(S'guino'
p69
S'TypeUnsafe'
p70
S'TypeUnsafe/guino'
p71
tp72
a(S'golo-devoxx13-demos'
p73
S'jamiepg3'
p74
S'jamiepg3/golo-devoxx13-demos'
p75
tp76
a(S'golo-devoxxfr13-demos'
p77
S'jamiepg3'
p78
S'jamiepg3/golo-devoxxfr13-demos'
p79
tp80
a(S'golo-vertx'
p81
S'golo-vertx'
p82
S'golo-vertx/golo-vertx'
p83
tp84
a(S'goloid'
p85
S'titimoby'
p86
S'titimoby/goloid'
p87
tp88
a(S'20150130-k33g-golo-functional'
p89
S'training-blogs'
p90
S'training-blogs/20150130-k33g-golo-functional'
p91
tp92
a(S'toolbelt'
p93
S'connectedworkers'
p94
S'connectedworkers/toolbelt'
p95
tp96
a(S'dsl.adapters'
p97
S'connectedworkers'
p98
S'connectedworkers/dsl.adapters'
p99
tp100
a(S'awa'
p101
S'connectedworkers'
p102
S'connectedworkers/awa'
p103
tp104
a(S'modern-headline-builder.golo'
p105
S'rlespinasse'
p106
S'rlespinasse/modern-headline-builder.golo'
p107
tp108
a(S'kiss'
p109
S'sebastienblanc'
p110
S'sebastienblanc/kiss'
p111
tp112
a(S'kiss'
p113
S'k33g'
p114
S'k33g/kiss'
p115
tp116
a(S'golo-tour'
p117
S'TypeUnsafe'
p118
S'TypeUnsafe/golo-tour'
p119
tp120
a(S'malossol'
p121
S'k33g'
p122
S'k33g/malossol'
p123
tp124
a(S'guino'
p125
S'TypeUnsafe'
p126
S'TypeUnsafe/guino'
p127
tp128
a(S'golo-devoxx13-demos'
p129
S'jamiepg3'
p130
S'jamiepg3/golo-devoxx13-demos'
p131
tp132
a(S'golo-devoxxfr13-demos'
p133
S'jamiepg3'
p134
S'jamiepg3/golo-devoxxfr13-demos'
p135
tp136
a(S'golo-vertx'
p137
S'golo-vertx'
p138
S'golo-vertx/golo-vertx'
p139
tp140
a(S'goloid'
p141
S'titimoby'
p142
S'titimoby/goloid'
p143
tp144
a(S'20150130-k33g-golo-functional'
p145
S'training-blogs'
p146
S'training-blogs/20150130-k33g-golo-functional'
p147
tp148
a(S'toolbelt'
p149
S'connectedworkers'
p150
S'connectedworkers/toolbelt'
p151
tp152
a(S'dsl.adapters'
p153
S'connectedworkers'
p154
S'connectedworkers/dsl.adapters'
p155
tp156
a(S'awa'
p157
S'connectedworkers'
p158
S'connectedworkers/awa'
p159
tp160
a(S'modern-headline-builder.golo'
p161
S'rlespinasse'
p162
S'rlespinasse/modern-headline-builder.golo'
p163
tp164
a(S'kiss'
p165
S'sebastienblanc'
p166
S'sebastienblanc/kiss'
p167
tp168
a.