(lp0
(S'wh40k'
p1
S'BSData'
p2
S'BSData/wh40k'
p3
tp4
a(S'miyamoto'
p5
S'masuidrive'
p6
S'masuidrive/miyamoto'
p7
tp8
a(S'GoogleAppsScript'
p9
S'entaq'
p10
S'entaq/GoogleAppsScript'
p11
tp12
a(S'google-docs'
p13
S'fastfedora'
p14
S'fastfedora/google-docs'
p15
tp16
a(S'gosu-lang'
p17
S'gosu-lang'
p18
S'gosu-lang/gosu-lang'
p19
tp20
a(S'Fluent-Dashboard'
p21
S'kazunori279'
p22
S'kazunori279/Fluent-Dashboard'
p23
tp24
a(S'ronin'
p25
S'kprevas'
p26
S'kprevas/ronin'
p27
tp28
a(S'whfb'
p29
S'BSData'
p30
S'BSData/whfb'
p31
tp32
a(S'drivecopy'
p33
S'metricube'
p34
S'metricube/drivecopy'
p35
tp36
a(S'autoCrat-SCRIPT'
p37
S'NewVisionsForPublicSchools'
p38
S'NewVisionsForPublicSchools/autoCrat-SCRIPT'
p39
tp40
a(S'mixpanel-segmentation-google-spreadsheets'
p41
S'melissaguyre'
p42
S'melissaguyre/mixpanel-segmentation-google-spreadsheets'
p43
tp44
a(S'ParseAppsScript'
p45
S'adelevie'
p46
S'adelevie/ParseAppsScript'
p47
tp48
a(S'altcoin-google-spreadsheet'
p49
S'adv0r'
p50
S'adv0r/altcoin-google-spreadsheet'
p51
tp52
a(S'GAS-github-json'
p53
S'digidem'
p54
S'digidem/GAS-github-json'
p55
tp56
a(S'instant-runoff'
p57
S'cartland'
p58
S'cartland/instant-runoff'
p59
tp60
a(S'google-cla-verifier-for-github'
p61
S'angular'
p62
S'angular/google-cla-verifier-for-github'
p63
tp64
a(S'gmail-tickler'
p65
S'rosulek'
p66
S'rosulek/gmail-tickler'
p67
tp68
a(S'forcefield'
p69
S'google'
p70
S'google/forcefield'
p71
tp72
a(S'horus-heresy'
p73
S'BSData'
p74
S'BSData/horus-heresy'
p75
tp76
a(S'gas-oauth2-gae'
p77
S'mcdanielgilbert'
p78
S'mcdanielgilbert/gas-oauth2-gae'
p79
tp80
a(S'FitbitDailyData'
p81
S'qslabs'
p82
S'qslabs/FitbitDailyData'
p83
tp84
a(S'gmailevernote'
p85
S'harryonline'
p86
S'harryonline/gmailevernote'
p87
tp88
a(S'blink-intent-tracker'
p89
S'GoogleChrome'
p90
S'GoogleChrome/blink-intent-tracker'
p91
tp92
a(S'romail'
p93
S'carsongross'
p94
S'carsongross/romail'
p95
tp96
a(S'alertes-leboncoin'
p97
S'St3ph-fr'
p98
S'St3ph-fr/alertes-leboncoin'
p99
tp100
a(S'miyamoto'
p101
S'masuidrive'
p102
S'masuidrive/miyamoto'
p103
tp104
a(S'GoogleAppsScript'
p105
S'entaq'
p106
S'entaq/GoogleAppsScript'
p107
tp108
a(S'google-docs'
p109
S'fastfedora'
p110
S'fastfedora/google-docs'
p111
tp112
a(S'wh40k'
p113
S'BSData'
p114
S'BSData/wh40k'
p115
tp116
a(S'gosu-lang'
p117
S'gosu-lang'
p118
S'gosu-lang/gosu-lang'
p119
tp120
a(S'Fluent-Dashboard'
p121
S'kazunori279'
p122
S'kazunori279/Fluent-Dashboard'
p123
tp124
a(S'ronin'
p125
S'kprevas'
p126
S'kprevas/ronin'
p127
tp128
a(S'whfb'
p129
S'BSData'
p130
S'BSData/whfb'
p131
tp132
a(S'autoCrat-SCRIPT'
p133
S'NewVisionsForPublicSchools'
p134
S'NewVisionsForPublicSchools/autoCrat-SCRIPT'
p135
tp136
a(S'drivecopy'
p137
S'metricube'
p138
S'metricube/drivecopy'
p139
tp140
a(S'mixpanel-segmentation-google-spreadsheets'
p141
S'melissaguyre'
p142
S'melissaguyre/mixpanel-segmentation-google-spreadsheets'
p143
tp144
a(S'ParseAppsScript'
p145
S'adelevie'
p146
S'adelevie/ParseAppsScript'
p147
tp148
a(S'altcoin-google-spreadsheet'
p149
S'adv0r'
p150
S'adv0r/altcoin-google-spreadsheet'
p151
tp152
a(S'GAS-github-json'
p153
S'digidem'
p154
S'digidem/GAS-github-json'
p155
tp156
a(S'instant-runoff'
p157
S'cartland'
p158
S'cartland/instant-runoff'
p159
tp160
a(S'forcefield'
p161
S'google'
p162
S'google/forcefield'
p163
tp164
a(S'gmail-tickler'
p165
S'rosulek'
p166
S'rosulek/gmail-tickler'
p167
tp168
a(S'google-cla-verifier-for-github'
p169
S'angular'
p170
S'angular/google-cla-verifier-for-github'
p171
tp172
a(S'horus-heresy'
p173
S'BSData'
p174
S'BSData/horus-heresy'
p175
tp176
a(S'gas-oauth2-gae'
p177
S'mcdanielgilbert'
p178
S'mcdanielgilbert/gas-oauth2-gae'
p179
tp180
a(S'FitbitDailyData'
p181
S'qslabs'
p182
S'qslabs/FitbitDailyData'
p183
tp184
a(S'blink-intent-tracker'
p185
S'GoogleChrome'
p186
S'GoogleChrome/blink-intent-tracker'
p187
tp188
a(S'gmailevernote'
p189
S'harryonline'
p190
S'harryonline/gmailevernote'
p191
tp192
a(S'AppScriptUpload'
p193
S'drewdepriest'
p194
S'drewdepriest/AppScriptUpload'
p195
tp196
a(S'alertes-leboncoin'
p197
S'St3ph-fr'
p198
S'St3ph-fr/alertes-leboncoin'
p199
tp200
a(S'wh40k'
p201
S'BSData'
p202
S'BSData/wh40k'
p203
tp204
a(S'gosu-lang'
p205
S'gosu-lang'
p206
S'gosu-lang/gosu-lang'
p207
tp208
a(S'miyamoto'
p209
S'masuidrive'
p210
S'masuidrive/miyamoto'
p211
tp212
a(S'GoogleAppsScript'
p213
S'entaq'
p214
S'entaq/GoogleAppsScript'
p215
tp216
a(S'google-docs'
p217
S'fastfedora'
p218
S'fastfedora/google-docs'
p219
tp220
a(S'Fluent-Dashboard'
p221
S'kazunori279'
p222
S'kazunori279/Fluent-Dashboard'
p223
tp224
a(S'ronin'
p225
S'kprevas'
p226
S'kprevas/ronin'
p227
tp228
a(S'whfb'
p229
S'BSData'
p230
S'BSData/whfb'
p231
tp232
a(S'autoCrat-SCRIPT'
p233
S'NewVisionsForPublicSchools'
p234
S'NewVisionsForPublicSchools/autoCrat-SCRIPT'
p235
tp236
a(S'drivecopy'
p237
S'metricube'
p238
S'metricube/drivecopy'
p239
tp240
a(S'ParseAppsScript'
p241
S'adelevie'
p242
S'adelevie/ParseAppsScript'
p243
tp244
a(S'mixpanel-segmentation-google-spreadsheets'
p245
S'melissaguyre'
p246
S'melissaguyre/mixpanel-segmentation-google-spreadsheets'
p247
tp248
a(S'GAS-github-json'
p249
S'digidem'
p250
S'digidem/GAS-github-json'
p251
tp252
a(S'altcoin-google-spreadsheet'
p253
S'adv0r'
p254
S'adv0r/altcoin-google-spreadsheet'
p255
tp256
a(S'instant-runoff'
p257
S'cartland'
p258
S'cartland/instant-runoff'
p259
tp260
a(S'google-cla-verifier-for-github'
p261
S'angular'
p262
S'angular/google-cla-verifier-for-github'
p263
tp264
a(S'gmail-tickler'
p265
S'rosulek'
p266
S'rosulek/gmail-tickler'
p267
tp268
a(S'horus-heresy'
p269
S'BSData'
p270
S'BSData/horus-heresy'
p271
tp272
a(S'forcefield'
p273
S'google'
p274
S'google/forcefield'
p275
tp276
a(S'FitbitDailyData'
p277
S'qslabs'
p278
S'qslabs/FitbitDailyData'
p279
tp280
a(S'gas-oauth2-gae'
p281
S'mcdanielgilbert'
p282
S'mcdanielgilbert/gas-oauth2-gae'
p283
tp284
a(S'blink-intent-tracker'
p285
S'GoogleChrome'
p286
S'GoogleChrome/blink-intent-tracker'
p287
tp288
a(S'gmailevernote'
p289
S'harryonline'
p290
S'harryonline/gmailevernote'
p291
tp292
a(S'alertes-leboncoin'
p293
S'St3ph-fr'
p294
S'St3ph-fr/alertes-leboncoin'
p295
tp296
a(S'jira-status-board'
p297
S'jalmeroth'
p298
S'jalmeroth/jira-status-board'
p299
tp300
a.