(lp0
(S'benchmarks'
p1
S'gracelang'
p2
S'gracelang/benchmarks'
p3
tp4
a(S'CS420-Project-2'
p5
S'kidaa'
p6
S'kidaa/CS420-Project-2'
p7
tp8
a(S'CS420-Project-2'
p9
S'asasha'
p10
S'asasha/CS420-Project-2'
p11
tp12
a(S'objectdraw'
p13
S'jamiepg1'
p14
S'jamiepg1/objectdraw'
p15
tp16
a(S'benchmarks'
p17
S'jamiepg1'
p18
S'jamiepg1/benchmarks'
p19
tp20
a(S'gracedoc'
p21
S'reid47'
p22
S'reid47/gracedoc'
p23
tp24
a(S'gurace'
p25
S'aquilaniviola'
p26
S'aquilaniviola/gurace'
p27
tp28
a(S'CS420-Final-Project'
p29
S'OppDavid'
p30
S'OppDavid/CS420-Final-Project'
p31
tp32
a(S'unicode'
p33
S'zetas2015'
p34
S'zetas2015/unicode'
p35
tp36
a(S'dictionary'
p37
S'CS420Assignment2'
p38
S'CS420Assignment2/dictionary'
p39
tp40
a(S'CS420HW2'
p41
S'RubenSandwich'
p42
S'RubenSandwich/CS420HW2'
p43
tp44
a(S'CS420Assignment2'
p45
S'donahue2'
p46
S'donahue2/CS420Assignment2'
p47
tp48
a(S'CS420-Project-2'
p49
S'cameronbwhite'
p50
S'cameronbwhite/CS420-Project-2'
p51
tp52
a(S'grace-dictionary'
p53
S'rogrush'
p54
S'rogrush/grace-dictionary'
p55
tp56
a(S'objectdraw'
p57
S'gracelang'
p58
S'gracelang/objectdraw'
p59
tp60
a(S'gurace'
p61
S'chen1502'
p62
S'chen1502/gurace'
p63
tp64
a(S'benchmarks'
p65
S'gracelang'
p66
S'gracelang/benchmarks'
p67
tp68
a(S'CS420-Project-2'
p69
S'kidaa'
p70
S'kidaa/CS420-Project-2'
p71
tp72
a(S'CS420-Project-2'
p73
S'asasha'
p74
S'asasha/CS420-Project-2'
p75
tp76
a(S'objectdraw'
p77
S'jamiepg1'
p78
S'jamiepg1/objectdraw'
p79
tp80
a(S'benchmarks'
p81
S'jamiepg1'
p82
S'jamiepg1/benchmarks'
p83
tp84
a(S'gracedoc'
p85
S'reid47'
p86
S'reid47/gracedoc'
p87
tp88
a(S'gurace'
p89
S'aquilaniviola'
p90
S'aquilaniviola/gurace'
p91
tp92
a(S'CS420-Final-Project'
p93
S'OppDavid'
p94
S'OppDavid/CS420-Final-Project'
p95
tp96
a(S'unicode'
p97
S'zetas2015'
p98
S'zetas2015/unicode'
p99
tp100
a(S'dictionary'
p101
S'CS420Assignment2'
p102
S'CS420Assignment2/dictionary'
p103
tp104
a(S'CS420HW2'
p105
S'RubenSandwich'
p106
S'RubenSandwich/CS420HW2'
p107
tp108
a(S'CS420Assignment2'
p109
S'donahue2'
p110
S'donahue2/CS420Assignment2'
p111
tp112
a(S'CS420-Project-2'
p113
S'cameronbwhite'
p114
S'cameronbwhite/CS420-Project-2'
p115
tp116
a(S'grace-dictionary'
p117
S'rogrush'
p118
S'rogrush/grace-dictionary'
p119
tp120
a(S'objectdraw'
p121
S'gracelang'
p122
S'gracelang/objectdraw'
p123
tp124
a(S'gurace'
p125
S'chen1502'
p126
S'chen1502/gurace'
p127
tp128
a(S'benchmarks'
p129
S'gracelang'
p130
S'gracelang/benchmarks'
p131
tp132
a(S'CS420-Project-2'
p133
S'kidaa'
p134
S'kidaa/CS420-Project-2'
p135
tp136
a(S'CS420-Project-2'
p137
S'asasha'
p138
S'asasha/CS420-Project-2'
p139
tp140
a(S'objectdraw'
p141
S'jamiepg1'
p142
S'jamiepg1/objectdraw'
p143
tp144
a(S'benchmarks'
p145
S'jamiepg1'
p146
S'jamiepg1/benchmarks'
p147
tp148
a(S'gracedoc'
p149
S'reid47'
p150
S'reid47/gracedoc'
p151
tp152
a(S'gurace'
p153
S'aquilaniviola'
p154
S'aquilaniviola/gurace'
p155
tp156
a(S'CS420-Final-Project'
p157
S'OppDavid'
p158
S'OppDavid/CS420-Final-Project'
p159
tp160
a(S'unicode'
p161
S'zetas2015'
p162
S'zetas2015/unicode'
p163
tp164
a(S'dictionary'
p165
S'CS420Assignment2'
p166
S'CS420Assignment2/dictionary'
p167
tp168
a(S'CS420HW2'
p169
S'RubenSandwich'
p170
S'RubenSandwich/CS420HW2'
p171
tp172
a(S'CS420Assignment2'
p173
S'donahue2'
p174
S'donahue2/CS420Assignment2'
p175
tp176
a(S'CS420-Project-2'
p177
S'cameronbwhite'
p178
S'cameronbwhite/CS420-Project-2'
p179
tp180
a(S'grace-dictionary'
p181
S'rogrush'
p182
S'rogrush/grace-dictionary'
p183
tp184
a(S'objectdraw'
p185
S'gracelang'
p186
S'gracelang/objectdraw'
p187
tp188
a(S'gurace'
p189
S'chen1502'
p190
S'chen1502/gurace'
p191
tp192
a.