(lp0
(S'GF'
p1
S'GrammaticalFramework'
p2
S'GrammaticalFramework/GF'
p3
tp4
a(S'ACE-in-GF'
p5
S'Attempto'
p6
S'Attempto/ACE-in-GF'
p7
tp8
a(S'gf-contrib'
p9
S'GrammaticalFramework'
p10
S'GrammaticalFramework/gf-contrib'
p11
tp12
a(S'GF-Estonian'
p13
S'GF-Estonian'
p14
S'GF-Estonian/GF-Estonian'
p15
tp16
a(S'Grammars'
p17
S'Kaljurand'
p18
S'Kaljurand/Grammars'
p19
tp20
a(S'Maltese-GF-Resource-Grammar'
p21
S'johnjcamilleri'
p22
S'johnjcamilleri/Maltese-GF-Resource-Grammar'
p23
tp24
a(S'PhrasebookEst'
p25
S'Kaljurand'
p26
S'Kaljurand/PhrasebookEst'
p27
tp28
a(S'ACE-in-GF'
p29
S'whitten'
p30
S'whitten/ACE-in-GF'
p31
tp32
a(S'GF'
p33
S'izimbra'
p34
S'izimbra/GF'
p35
tp36
a(S'GF'
p37
S'Deseaus'
p38
S'Deseaus/GF'
p39
tp40
a(S'GF'
p41
S'Web5design'
p42
S'Web5design/GF'
p43
tp44
a(S'GF'
p45
S'nostneji'
p46
S'nostneji/GF'
p47
tp48
a(S'Eng-DCEC'
p49
S'jamiepg1'
p50
S'jamiepg1/Eng-DCEC'
p51
tp52
a(S'Maltese-GF-Resource-Grammar'
p53
S'jamiepg1'
p54
S'jamiepg1/Maltese-GF-Resource-Grammar'
p55
tp56
a(S'GF'
p57
S'drbean'
p58
S'drbean/GF'
p59
tp60
a(S'GF-Estonian'
p61
S'jamiepg1'
p62
S'jamiepg1/GF-Estonian'
p63
tp64
a(S'testing_git'
p65
S'ramonique'
p66
S'ramonique/testing_git'
p67
tp68
a(S'Grammars'
p69
S'jamiepg1'
p70
S'jamiepg1/Grammars'
p71
tp72
a(S'PhrasebookEst'
p73
S'jamiepg1'
p74
S'jamiepg1/PhrasebookEst'
p75
tp76
a(S'GF'
p77
S'jamiepg1'
p78
S'jamiepg1/GF'
p79
tp80
a(S'mosg'
p81
S'bringert'
p82
S'bringert/mosg'
p83
tp84
a(S'GF'
p85
S'imclab'
p86
S'imclab/GF'
p87
tp88
a(S'gflab'
p89
S'nostneji'
p90
S'nostneji/gflab'
p91
tp92
a(S'GF-eus'
p93
S'inariksit'
p94
S'inariksit/GF-eus'
p95
tp96
a(S'apertium-gf'
p97
S'vinit-ivar'
p98
S'vinit-ivar/apertium-gf'
p99
tp100
a(S'GF'
p101
S'GrammaticalFramework'
p102
S'GrammaticalFramework/GF'
p103
tp104
a(S'ACE-in-GF'
p105
S'Attempto'
p106
S'Attempto/ACE-in-GF'
p107
tp108
a(S'gf-contrib'
p109
S'GrammaticalFramework'
p110
S'GrammaticalFramework/gf-contrib'
p111
tp112
a(S'GF-Estonian'
p113
S'GF-Estonian'
p114
S'GF-Estonian/GF-Estonian'
p115
tp116
a(S'Grammars'
p117
S'Kaljurand'
p118
S'Kaljurand/Grammars'
p119
tp120
a(S'Maltese-GF-Resource-Grammar'
p121
S'johnjcamilleri'
p122
S'johnjcamilleri/Maltese-GF-Resource-Grammar'
p123
tp124
a(S'PhrasebookEst'
p125
S'Kaljurand'
p126
S'Kaljurand/PhrasebookEst'
p127
tp128
a(S'ACE-in-GF'
p129
S'whitten'
p130
S'whitten/ACE-in-GF'
p131
tp132
a(S'GF'
p133
S'izimbra'
p134
S'izimbra/GF'
p135
tp136
a(S'GF'
p137
S'Deseaus'
p138
S'Deseaus/GF'
p139
tp140
a(S'GF'
p141
S'Web5design'
p142
S'Web5design/GF'
p143
tp144
a(S'GF'
p145
S'nostneji'
p146
S'nostneji/GF'
p147
tp148
a(S'Eng-DCEC'
p149
S'jamiepg1'
p150
S'jamiepg1/Eng-DCEC'
p151
tp152
a(S'Maltese-GF-Resource-Grammar'
p153
S'jamiepg1'
p154
S'jamiepg1/Maltese-GF-Resource-Grammar'
p155
tp156
a(S'GF'
p157
S'drbean'
p158
S'drbean/GF'
p159
tp160
a(S'GF-Estonian'
p161
S'jamiepg1'
p162
S'jamiepg1/GF-Estonian'
p163
tp164
a(S'testing_git'
p165
S'ramonique'
p166
S'ramonique/testing_git'
p167
tp168
a(S'Grammars'
p169
S'jamiepg1'
p170
S'jamiepg1/Grammars'
p171
tp172
a(S'PhrasebookEst'
p173
S'jamiepg1'
p174
S'jamiepg1/PhrasebookEst'
p175
tp176
a(S'GF'
p177
S'jamiepg1'
p178
S'jamiepg1/GF'
p179
tp180
a(S'mosg'
p181
S'bringert'
p182
S'bringert/mosg'
p183
tp184
a(S'GF'
p185
S'imclab'
p186
S'imclab/GF'
p187
tp188
a(S'gflab'
p189
S'nostneji'
p190
S'nostneji/gflab'
p191
tp192
a(S'GF-eus'
p193
S'inariksit'
p194
S'inariksit/GF-eus'
p195
tp196
a(S'apertium-gf'
p197
S'vinit-ivar'
p198
S'vinit-ivar/apertium-gf'
p199
tp200
a(S'GF'
p201
S'GrammaticalFramework'
p202
S'GrammaticalFramework/GF'
p203
tp204
a(S'ACE-in-GF'
p205
S'Attempto'
p206
S'Attempto/ACE-in-GF'
p207
tp208
a(S'gf-contrib'
p209
S'GrammaticalFramework'
p210
S'GrammaticalFramework/gf-contrib'
p211
tp212
a(S'GF-Estonian'
p213
S'GF-Estonian'
p214
S'GF-Estonian/GF-Estonian'
p215
tp216
a(S'Grammars'
p217
S'Kaljurand'
p218
S'Kaljurand/Grammars'
p219
tp220
a(S'Maltese-GF-Resource-Grammar'
p221
S'johnjcamilleri'
p222
S'johnjcamilleri/Maltese-GF-Resource-Grammar'
p223
tp224
a(S'PhrasebookEst'
p225
S'Kaljurand'
p226
S'Kaljurand/PhrasebookEst'
p227
tp228
a(S'ACE-in-GF'
p229
S'whitten'
p230
S'whitten/ACE-in-GF'
p231
tp232
a(S'GF'
p233
S'drbean'
p234
S'drbean/GF'
p235
tp236
a(S'GF'
p237
S'izimbra'
p238
S'izimbra/GF'
p239
tp240
a(S'GF'
p241
S'Deseaus'
p242
S'Deseaus/GF'
p243
tp244
a(S'GF'
p245
S'Web5design'
p246
S'Web5design/GF'
p247
tp248
a(S'GF-Estonian'
p249
S'jamiepg1'
p250
S'jamiepg1/GF-Estonian'
p251
tp252
a(S'Maltese-GF-Resource-Grammar'
p253
S'jamiepg1'
p254
S'jamiepg1/Maltese-GF-Resource-Grammar'
p255
tp256
a(S'Grammars'
p257
S'jamiepg1'
p258
S'jamiepg1/Grammars'
p259
tp260
a(S'Eng-DCEC'
p261
S'jamiepg1'
p262
S'jamiepg1/Eng-DCEC'
p263
tp264
a(S'GF'
p265
S'jamiepg1'
p266
S'jamiepg1/GF'
p267
tp268
a(S'testing_git'
p269
S'ramonique'
p270
S'ramonique/testing_git'
p271
tp272
a(S'PhrasebookEst'
p273
S'jamiepg1'
p274
S'jamiepg1/PhrasebookEst'
p275
tp276
a(S'GF'
p277
S'nostneji'
p278
S'nostneji/GF'
p279
tp280
a(S'mosg'
p281
S'bringert'
p282
S'bringert/mosg'
p283
tp284
a(S'GF'
p285
S'imclab'
p286
S'imclab/GF'
p287
tp288
a(S'mag15'
p289
S'salamynder'
p290
S'salamynder/mag15'
p291
tp292
a(S'gflab'
p293
S'nostneji'
p294
S'nostneji/gflab'
p295
tp296
a(S'GF-latin'
p297
S'daherb'
p298
S'daherb/GF-latin'
p299
tp300
a.