(lp0
(S'wifiphisher'
p1
S'sophron'
p2
S'sophron/wifiphisher'
p3
tp4
a(S'Specs'
p5
S'CocoaPods'
p6
S'CocoaPods/Specs'
p7
tp8
a(S'ios_top_1000'
p9
S'iamdaiyuan'
p10
S'iamdaiyuan/ios_top_1000'
p11
tp12
a(S'SecLists'
p13
S'danielmiessler'
p14
S'danielmiessler/SecLists'
p15
tp16
a(S'facebook-tunnel'
p17
S'matiasinsaurralde'
p18
S'matiasinsaurralde/facebook-tunnel'
p19
tp20
a(S'hr'
p21
S'LuRsT'
p22
S'LuRsT/hr'
p23
tp24
a(S'retire.js'
p25
S'RetireJS'
p26
S'RetireJS/retire.js'
p27
tp28
a(S'emacs24-starter-kit'
p29
S'eschulte'
p30
S'eschulte/emacs24-starter-kit'
p31
tp32
a(S'mosesdecoder'
p33
S'moses-smt'
p34
S'moses-smt/mosesdecoder'
p35
tp36
a(S'Zines'
p37
S'lordappsec'
p38
S'lordappsec/Zines'
p39
tp40
a(S'v'
p41
S'rupa'
p42
S'rupa/v'
p43
tp44
a(S'yasnippet-snippets'
p45
S'AndreaCrotti'
p46
S'AndreaCrotti/yasnippet-snippets'
p47
tp48
a(S'vagent2'
p49
S'varnish'
p50
S'varnish/vagent2'
p51
tp52
a(S'PhoneticContacts'
p53
S'lexrus'
p54
S'lexrus/PhoneticContacts'
p55
tp56
a(S'MultiMiner'
p57
S'nwoolls'
p58
S'nwoolls/MultiMiner'
p59
tp60
a(S'docker-phpfarm'
p61
S'splitbrain'
p62
S'splitbrain/docker-phpfarm'
p63
tp64
a(S'copyleft-next'
p65
S'richardfontana'
p66
S'richardfontana/copyleft-next'
p67
tp68
a(S'xUnitFor1C'
p69
S'xDrivenDevelopment'
p70
S'xDrivenDevelopment/xUnitFor1C'
p71
tp72
a(S'ipv6toolkit'
p73
S'fgont'
p74
S'fgont/ipv6toolkit'
p75
tp76
a(S'llvm-cbe'
p77
S'draperlaboratory'
p78
S'draperlaboratory/llvm-cbe'
p79
tp80
a(S'Tx'
p81
S'MSOpenTech'
p82
S'MSOpenTech/Tx'
p83
tp84
a(S'unix-history-make'
p85
S'dspinellis'
p86
S'dspinellis/unix-history-make'
p87
tp88
a(S'data-pipeline'
p89
S'mspnp'
p90
S'mspnp/data-pipeline'
p91
tp92
a(S'Security_Ninjas_AppSec_Training'
p93
S'opendns'
p94
S'opendns/Security_Ninjas_AppSec_Training'
p95
tp96
a(S'man-pages'
p97
S'mkerrisk'
p98
S'mkerrisk/man-pages'
p99
tp100
a(S'Specs'
p101
S'CocoaPods'
p102
S'CocoaPods/Specs'
p103
tp104
a(S'retire.js'
p105
S'RetireJS'
p106
S'RetireJS/retire.js'
p107
tp108
a(S'captagent'
p109
S'sipcapture'
p110
S'sipcapture/captagent'
p111
tp112
a(S'wifiphisher'
p113
S'sophron'
p114
S'sophron/wifiphisher'
p115
tp116
a(S'ios_top_1000'
p117
S'iamdaiyuan'
p118
S'iamdaiyuan/ios_top_1000'
p119
tp120
a(S'SecLists'
p121
S'danielmiessler'
p122
S'danielmiessler/SecLists'
p123
tp124
a(S'facebook-tunnel'
p125
S'matiasinsaurralde'
p126
S'matiasinsaurralde/facebook-tunnel'
p127
tp128
a(S'hr'
p129
S'LuRsT'
p130
S'LuRsT/hr'
p131
tp132
a(S'emacs24-starter-kit'
p133
S'eschulte'
p134
S'eschulte/emacs24-starter-kit'
p135
tp136
a(S'mosesdecoder'
p137
S'moses-smt'
p138
S'moses-smt/mosesdecoder'
p139
tp140
a(S'Zines'
p141
S'lordappsec'
p142
S'lordappsec/Zines'
p143
tp144
a(g41
S'rupa'
p145
S'rupa/v'
p146
tp147
a(S'yasnippet-snippets'
p148
S'AndreaCrotti'
p149
S'AndreaCrotti/yasnippet-snippets'
p150
tp151
a(S'vagent2'
p152
S'varnish'
p153
S'varnish/vagent2'
p154
tp155
a(S'PhoneticContacts'
p156
S'lexrus'
p157
S'lexrus/PhoneticContacts'
p158
tp159
a(S'MultiMiner'
p160
S'nwoolls'
p161
S'nwoolls/MultiMiner'
p162
tp163
a(S'docker-phpfarm'
p164
S'splitbrain'
p165
S'splitbrain/docker-phpfarm'
p166
tp167
a(S'copyleft-next'
p168
S'richardfontana'
p169
S'richardfontana/copyleft-next'
p170
tp171
a(S'xUnitFor1C'
p172
S'xDrivenDevelopment'
p173
S'xDrivenDevelopment/xUnitFor1C'
p174
tp175
a(S'ipv6toolkit'
p176
S'fgont'
p177
S'fgont/ipv6toolkit'
p178
tp179
a(S'llvm-cbe'
p180
S'draperlaboratory'
p181
S'draperlaboratory/llvm-cbe'
p182
tp183
a(S'unix-history-make'
p184
S'dspinellis'
p185
S'dspinellis/unix-history-make'
p186
tp187
a(S'Tx'
p188
S'MSOpenTech'
p189
S'MSOpenTech/Tx'
p190
tp191
a(S'data-pipeline'
p192
S'mspnp'
p193
S'mspnp/data-pipeline'
p194
tp195
a(S'Security_Ninjas_AppSec_Training'
p196
S'opendns'
p197
S'opendns/Security_Ninjas_AppSec_Training'
p198
tp199
a(S'Specs'
p200
S'CocoaPods'
p201
S'CocoaPods/Specs'
p202
tp203
a(S'retire.js'
p204
S'RetireJS'
p205
S'RetireJS/retire.js'
p206
tp207
a(S'mosesdecoder'
p208
S'moses-smt'
p209
S'moses-smt/mosesdecoder'
p210
tp211
a(S'wifiphisher'
p212
S'sophron'
p213
S'sophron/wifiphisher'
p214
tp215
a(S'ios_top_1000'
p216
S'iamdaiyuan'
p217
S'iamdaiyuan/ios_top_1000'
p218
tp219
a(S'SecLists'
p220
S'danielmiessler'
p221
S'danielmiessler/SecLists'
p222
tp223
a(S'facebook-tunnel'
p224
S'matiasinsaurralde'
p225
S'matiasinsaurralde/facebook-tunnel'
p226
tp227
a(S'hr'
p228
S'LuRsT'
p229
S'LuRsT/hr'
p230
tp231
a(S'emacs24-starter-kit'
p232
S'eschulte'
p233
S'eschulte/emacs24-starter-kit'
p234
tp235
a(S'Zines'
p236
S'lordappsec'
p237
S'lordappsec/Zines'
p238
tp239
a(g41
S'rupa'
p240
S'rupa/v'
p241
tp242
a(S'yasnippet-snippets'
p243
S'AndreaCrotti'
p244
S'AndreaCrotti/yasnippet-snippets'
p245
tp246
a(S'vagent2'
p247
S'varnish'
p248
S'varnish/vagent2'
p249
tp250
a(S'PhoneticContacts'
p251
S'lexrus'
p252
S'lexrus/PhoneticContacts'
p253
tp254
a(S'MultiMiner'
p255
S'nwoolls'
p256
S'nwoolls/MultiMiner'
p257
tp258
a(S'docker-phpfarm'
p259
S'splitbrain'
p260
S'splitbrain/docker-phpfarm'
p261
tp262
a(S'copyleft-next'
p263
S'richardfontana'
p264
S'richardfontana/copyleft-next'
p265
tp266
a(S'xUnitFor1C'
p267
S'xDrivenDevelopment'
p268
S'xDrivenDevelopment/xUnitFor1C'
p269
tp270
a(S'ipv6toolkit'
p271
S'fgont'
p272
S'fgont/ipv6toolkit'
p273
tp274
a(S'llvm-cbe'
p275
S'draperlaboratory'
p276
S'draperlaboratory/llvm-cbe'
p277
tp278
a(S'unix-history-make'
p279
S'dspinellis'
p280
S'dspinellis/unix-history-make'
p281
tp282
a(S'Tx'
p283
S'MSOpenTech'
p284
S'MSOpenTech/Tx'
p285
tp286
a(S'data-pipeline'
p287
S'mspnp'
p288
S'mspnp/data-pipeline'
p289
tp290
a(S'Security_Ninjas_AppSec_Training'
p291
S'opendns'
p292
S'opendns/Security_Ninjas_AppSec_Training'
p293
tp294
a(S'man-pages'
p295
S'mkerrisk'
p296
S'mkerrisk/man-pages'
p297
tp298
a.