(lp0
(S'device-type.myecobee'
p1
S'yracine'
p2
S'yracine/device-type.myecobee'
p3
tp4
a(S'OkBuck'
p5
S'Piasy'
p6
S'Piasy/OkBuck'
p7
tp8
a(S'asgard'
p9
S'Netflix'
p10
S'Netflix/asgard'
p11
tp12
a(S'gradle-retrolambda'
p13
S'evant'
p14
S'evant/gradle-retrolambda'
p15
tp16
a(S'rundeck'
p17
S'rundeck'
p18
S'rundeck/rundeck'
p19
tp20
a(S'sdk-manager-plugin'
p21
S'JakeWharton'
p22
S'JakeWharton/sdk-manager-plugin'
p23
tp24
a(S'jd-gui'
p25
S'java-decompiler'
p26
S'java-decompiler/jd-gui'
p27
tp28
a(S'buildstep'
p29
S'progrium'
p30
S'progrium/buildstep'
p31
tp32
a(S'victor'
p33
S'trello'
p34
S'trello/victor'
p35
tp36
a(S'gradle-play-publisher'
p37
S'Triple-T'
p38
S'Triple-T/gradle-play-publisher'
p39
tp40
a(S'springfox'
p41
S'springfox'
p42
S'springfox/springfox'
p43
tp44
a(S'gradle-mvn-push'
p45
S'chrisbanes'
p46
S'chrisbanes/gradle-mvn-push'
p47
tp48
a(S'geb'
p49
S'geb'
p50
S'geb/geb'
p51
tp52
a(S'groovy-android-gradle-plugin'
p53
S'groovy'
p54
S'groovy/groovy-android-gradle-plugin'
p55
tp56
a(S'glu'
p57
S'pongasoft'
p58
S'pongasoft/glu'
p59
tp60
a(S'gradle-versions-plugin'
p61
S'ben-manes'
p62
S'ben-manes/gradle-versions-plugin'
p63
tp64
a(S'job-dsl-plugin'
p65
S'jenkinsci'
p66
S'jenkinsci/job-dsl-plugin'
p67
tp68
a(S'gradle-packer-plugin'
p69
S'mcxiaoke'
p70
S'mcxiaoke/gradle-packer-plugin'
p71
tp72
a(S'docker-registry-ui'
p73
S'atc-'
p74
S'atc-/docker-registry-ui'
p75
tp76
a(S'grails'
p77
S'grails'
p78
S'grails/grails'
p79
tp80
a(S'robolectric-gradle-plugin'
p81
S'robolectric'
p82
S'robolectric/robolectric-gradle-plugin'
p83
tp84
a(S'gradle-android-plugin'
p85
S'jvoegele'
p86
S'jvoegele/gradle-android-plugin'
p87
tp88
a(S'Android-Gradle-Examples'
p89
S'Goddchen'
p90
S'Goddchen/Android-Gradle-Examples'
p91
tp92
a(S'android-unit-test'
p93
S'JCAndKSolutions'
p94
S'JCAndKSolutions/android-unit-test'
p95
tp96
a(S'lint-cleaner-plugin'
p97
S'marcoRS'
p98
S'marcoRS/lint-cleaner-plugin'
p99
tp100
a(S'SmartThingsPublic'
p101
S'SmartThingsCommunity'
p102
S'SmartThingsCommunity/SmartThingsPublic'
p103
tp104
a(S'OkBuck'
p105
S'Piasy'
p106
S'Piasy/OkBuck'
p107
tp108
a(S'rundeck'
p109
S'rundeck'
p110
S'rundeck/rundeck'
p111
tp112
a(S'gradle-play-publisher'
p113
S'Triple-T'
p114
S'Triple-T/gradle-play-publisher'
p115
tp116
a(S'geb'
p117
S'geb'
p118
S'geb/geb'
p119
tp120
a(S'job-dsl-plugin'
p121
S'jenkinsci'
p122
S'jenkinsci/job-dsl-plugin'
p123
tp124
a(S'asgard'
p125
S'Netflix'
p126
S'Netflix/asgard'
p127
tp128
a(S'license-gradle-plugin'
p129
S'hierynomus'
p130
S'hierynomus/license-gradle-plugin'
p131
tp132
a(S'GradleRIO'
p133
S'Open-RIO'
p134
S'Open-RIO/GradleRIO'
p135
tp136
a(S'gradle-bintray-plugin'
p137
S'bintray'
p138
S'bintray/gradle-bintray-plugin'
p139
tp140
a(S'platform'
p141
S'spring-io'
p142
S'spring-io/platform'
p143
tp144
a(S'GradleFx'
p145
S'GradleFx'
p146
S'GradleFx/GradleFx'
p147
tp148
a(S'grails-cors'
p149
S'davidtinker'
p150
S'davidtinker/grails-cors'
p151
tp152
a(S'openboxes'
p153
S'openboxes'
p154
S'openboxes/openboxes'
p155
tp156
a(S'iceScrum-core'
p157
S'icescrum'
p158
S'icescrum/iceScrum-core'
p159
tp160
a(S'gradle-ssh-plugin'
p161
S'int128'
p162
S'int128/gradle-ssh-plugin'
p163
tp164
a(S'neon'
p165
S'NextCenturyCorporation'
p166
S'NextCenturyCorporation/neon'
p167
tp168
a(S'axion-release-plugin'
p169
S'allegro'
p170
S'allegro/axion-release-plugin'
p171
tp172
a(S'micro-infra-spring'
p173
S'4finance'
p174
S'4finance/micro-infra-spring'
p175
tp176
a(S'mantle'
p177
S'moqui'
p178
S'moqui/mantle'
p179
tp180
a(S'groovy-ssh'
p181
S'int128'
p182
S'int128/groovy-ssh'
p183
tp184
a(S'gradle-dependency-lock-plugin'
p185
S'nebula-plugins'
p186
S'nebula-plugins/gradle-dependency-lock-plugin'
p187
tp188
a(S'gradle-aws-s3-sync'
p189
S'literalice'
p190
S'literalice/gradle-aws-s3-sync'
p191
tp192
a(S'grails-doc'
p193
S'grails'
p194
S'grails/grails-doc'
p195
tp196
a(S'build-test-data'
p197
S'longwa'
p198
S'longwa/build-test-data'
p199
tp200
a(S'SmartThingsPublic'
p201
S'SmartThingsCommunity'
p202
S'SmartThingsCommunity/SmartThingsPublic'
p203
tp204
a(S'OkBuck'
p205
S'Piasy'
p206
S'Piasy/OkBuck'
p207
tp208
a(S'rundeck'
p209
S'rundeck'
p210
S'rundeck/rundeck'
p211
tp212
a(S'gradle-play-publisher'
p213
S'Triple-T'
p214
S'Triple-T/gradle-play-publisher'
p215
tp216
a(S'job-dsl-plugin'
p217
S'jenkinsci'
p218
S'jenkinsci/job-dsl-plugin'
p219
tp220
a(S'asgard'
p221
S'Netflix'
p222
S'Netflix/asgard'
p223
tp224
a(S'geb'
p225
S'geb'
p226
S'geb/geb'
p227
tp228
a(S'springfox'
p229
S'springfox'
p230
S'springfox/springfox'
p231
tp232
a(S'gradle-bintray-plugin'
p233
S'bintray'
p234
S'bintray/gradle-bintray-plugin'
p235
tp236
a(S'SmartThings-Devices'
p237
S'constjs'
p238
S'constjs/SmartThings-Devices'
p239
tp240
a(S'device-type.myecobee'
p241
S'yracine'
p242
S'yracine/device-type.myecobee'
p243
tp244
a(S'awesome-groovy'
p245
S'kdabir'
p246
S'kdabir/awesome-groovy'
p247
tp248
a(S'license-gradle-plugin'
p249
S'hierynomus'
p250
S'hierynomus/license-gradle-plugin'
p251
tp252
a(S'j2objc-gradle'
p253
S'j2objc-contrib'
p254
S'j2objc-contrib/j2objc-gradle'
p255
tp256
a(S'gradle-node-plugin'
p257
S'srs'
p258
S'srs/gradle-node-plugin'
p259
tp260
a(S'gradle-xcodePlugin'
p261
S'openbakery'
p262
S'openbakery/gradle-xcodePlugin'
p263
tp264
a(S'gradle-git'
p265
S'ajoberstar'
p266
S'ajoberstar/gradle-git'
p267
tp268
a(S'scripts'
p269
S'filebot'
p270
S'filebot/scripts'
p271
tp272
a(S'micro-infra-spring'
p273
S'4finance'
p274
S'4finance/micro-infra-spring'
p275
tp276
a(S'gradle-docker-plugin'
p277
S'bmuschko'
p278
S'bmuschko/gradle-docker-plugin'
p279
tp280
a(S'GradleRIO'
p281
S'Open-RIO'
p282
S'Open-RIO/GradleRIO'
p283
tp284
a(S'groovykoans'
p285
S'nadavc'
p286
S'nadavc/groovykoans'
p287
tp288
a(S'json-io'
p289
S'jdereg'
p290
S'jdereg/json-io'
p291
tp292
a(S'axion-release-plugin'
p293
S'allegro'
p294
S'allegro/axion-release-plugin'
p295
tp296
a(S'gradle-release'
p297
S'researchgate'
p298
S'researchgate/gradle-release'
p299
tp300
a.