(lp0
(S'xhp-lib'
p1
S'facebook'
p2
S'facebook/xhp-lib'
p3
tp4
a(S'hack-codegen'
p5
S'facebook'
p6
S'facebook/hack-codegen'
p7
tp8
a(S'hack-example-site'
p9
S'hhvm'
p10
S'hhvm/hack-example-site'
p11
tp12
a(S'framework'
p13
S'titon'
p14
S'titon/framework'
p15
tp16
a(S'hack-langspec'
p17
S'hhvm'
p18
S'hhvm/hack-langspec'
p19
tp20
a(S'xhp-bootstrap'
p21
S'hhvm'
p22
S'hhvm/xhp-bootstrap'
p23
tp24
a(S'oss-performance'
p25
S'hhvm'
p26
S'hhvm/oss-performance'
p27
tp28
a(S'reasoned-php'
p29
S'igorw'
p30
S'igorw/reasoned-php'
p31
tp32
a(S'mongo-hhvm-driver-unsupported'
p33
S'mongodb-labs'
p34
S'mongodb-labs/mongo-hhvm-driver-unsupported'
p35
tp36
a(S'HackUnit'
p37
S'HackPack'
p38
S'HackPack/HackUnit'
p39
tp40
a(S'xhp-js'
p41
S'hhvm'
p42
S'hhvm/xhp-js'
p43
tp44
a(S'nucleus'
p45
S'hacktx'
p46
S'hacktx/nucleus'
p47
tp48
a(S'Link-Hack'
p49
S'a904guy'
p50
S'a904guy/Link-Hack'
p51
tp52
a(S'asio-utilities'
p53
S'hhvm'
p54
S'hhvm/asio-utilities'
p55
tp56
a(S'HHVM-Async-Server'
p57
S'steelbrain'
p58
S'steelbrain/HHVM-Async-Server'
p59
tp60
a(S'fighter'
p61
S'slashmili'
p62
S'slashmili/fighter'
p63
tp64
a(S'Omega'
p65
S'TexasLAN'
p66
S'TexasLAN/Omega'
p67
tp68
a(S'user-documentation'
p69
S'hhvm'
p70
S'hhvm/user-documentation'
p71
tp72
a(S'vindinium-hacklang'
p73
S'mcrumm'
p74
S'mcrumm/vindinium-hacklang'
p75
tp76
a(S'definitions-finder'
p77
S'fredemmott'
p78
S'fredemmott/definitions-finder'
p79
tp80
a(S'Async-Redis'
p81
S'steelbrain'
p82
S'steelbrain/Async-Redis'
p83
tp84
a(S'wedding-rsvp'
p85
S'jwatzman'
p86
S'jwatzman/wedding-rsvp'
p87
tp88
a(S'framework'
p89
S'necoy'
p90
S'necoy/framework'
p91
tp92
a(S'monhacko'
p93
S'mattjmattj'
p94
S'mattjmattj/monhacko'
p95
tp96
a(S'base'
p97
S'taniele'
p98
S'taniele/base'
p99
tp100
a(S'xhp-lib'
p101
S'facebook'
p102
S'facebook/xhp-lib'
p103
tp104
a(S'hack-codegen'
p105
S'facebook'
p106
S'facebook/hack-codegen'
p107
tp108
a(S'hack-example-site'
p109
S'hhvm'
p110
S'hhvm/hack-example-site'
p111
tp112
a(S'framework'
p113
S'titon'
p114
S'titon/framework'
p115
tp116
a(S'hack-langspec'
p117
S'hhvm'
p118
S'hhvm/hack-langspec'
p119
tp120
a(S'xhp-bootstrap'
p121
S'hhvm'
p122
S'hhvm/xhp-bootstrap'
p123
tp124
a(S'oss-performance'
p125
S'hhvm'
p126
S'hhvm/oss-performance'
p127
tp128
a(S'reasoned-php'
p129
S'igorw'
p130
S'igorw/reasoned-php'
p131
tp132
a(S'mongo-hhvm-driver-unsupported'
p133
S'mongodb-labs'
p134
S'mongodb-labs/mongo-hhvm-driver-unsupported'
p135
tp136
a(S'HackUnit'
p137
S'HackPack'
p138
S'HackPack/HackUnit'
p139
tp140
a(S'xhp-js'
p141
S'hhvm'
p142
S'hhvm/xhp-js'
p143
tp144
a(S'nucleus'
p145
S'hacktx'
p146
S'hacktx/nucleus'
p147
tp148
a(S'Link-Hack'
p149
S'a904guy'
p150
S'a904guy/Link-Hack'
p151
tp152
a(S'asio-utilities'
p153
S'hhvm'
p154
S'hhvm/asio-utilities'
p155
tp156
a(S'HHVM-Async-Server'
p157
S'steelbrain'
p158
S'steelbrain/HHVM-Async-Server'
p159
tp160
a(S'fighter'
p161
S'slashmili'
p162
S'slashmili/fighter'
p163
tp164
a(S'Omega'
p165
S'TexasLAN'
p166
S'TexasLAN/Omega'
p167
tp168
a(S'user-documentation'
p169
S'hhvm'
p170
S'hhvm/user-documentation'
p171
tp172
a(S'vindinium-hacklang'
p173
S'mcrumm'
p174
S'mcrumm/vindinium-hacklang'
p175
tp176
a(S'definitions-finder'
p177
S'fredemmott'
p178
S'fredemmott/definitions-finder'
p179
tp180
a(S'Async-Redis'
p181
S'steelbrain'
p182
S'steelbrain/Async-Redis'
p183
tp184
a(S'wedding-rsvp'
p185
S'jwatzman'
p186
S'jwatzman/wedding-rsvp'
p187
tp188
a(S'framework'
p189
S'necoy'
p190
S'necoy/framework'
p191
tp192
a(S'monhacko'
p193
S'mattjmattj'
p194
S'mattjmattj/monhacko'
p195
tp196
a(S'base'
p197
S'taniele'
p198
S'taniele/base'
p199
tp200
a(S'oss-performance'
p201
S'hhvm'
p202
S'hhvm/oss-performance'
p203
tp204
a(S'xhp-lib'
p205
S'facebook'
p206
S'facebook/xhp-lib'
p207
tp208
a(S'hack-codegen'
p209
S'facebook'
p210
S'facebook/hack-codegen'
p211
tp212
a(S'hack-example-site'
p213
S'hhvm'
p214
S'hhvm/hack-example-site'
p215
tp216
a(S'framework'
p217
S'titon'
p218
S'titon/framework'
p219
tp220
a(S'hack-langspec'
p221
S'hhvm'
p222
S'hhvm/hack-langspec'
p223
tp224
a(S'xhp-bootstrap'
p225
S'hhvm'
p226
S'hhvm/xhp-bootstrap'
p227
tp228
a(S'reasoned-php'
p229
S'igorw'
p230
S'igorw/reasoned-php'
p231
tp232
a(S'mongo-hhvm-driver-unsupported'
p233
S'mongodb-labs'
p234
S'mongodb-labs/mongo-hhvm-driver-unsupported'
p235
tp236
a(S'HackUnit'
p237
S'HackPack'
p238
S'HackPack/HackUnit'
p239
tp240
a(S'xhp-js'
p241
S'hhvm'
p242
S'hhvm/xhp-js'
p243
tp244
a(S'nucleus'
p245
S'hacktx'
p246
S'hacktx/nucleus'
p247
tp248
a(S'Link-Hack'
p249
S'a904guy'
p250
S'a904guy/Link-Hack'
p251
tp252
a(S'asio-utilities'
p253
S'hhvm'
p254
S'hhvm/asio-utilities'
p255
tp256
a(S'HHVM-Async-Server'
p257
S'steelbrain'
p258
S'steelbrain/HHVM-Async-Server'
p259
tp260
a(S'fighter'
p261
S'slashmili'
p262
S'slashmili/fighter'
p263
tp264
a(S'Omega'
p265
S'TexasLAN'
p266
S'TexasLAN/Omega'
p267
tp268
a(S'user-documentation'
p269
S'hhvm'
p270
S'hhvm/user-documentation'
p271
tp272
a(S'definitions-finder'
p273
S'fredemmott'
p274
S'fredemmott/definitions-finder'
p275
tp276
a(S'vindinium-hacklang'
p277
S'mcrumm'
p278
S'mcrumm/vindinium-hacklang'
p279
tp280
a(S'Async-Redis'
p281
S'steelbrain'
p282
S'steelbrain/Async-Redis'
p283
tp284
a(S'wedding-rsvp'
p285
S'jwatzman'
p286
S'jwatzman/wedding-rsvp'
p287
tp288
a(S'framework'
p289
S'necoy'
p290
S'necoy/framework'
p291
tp292
a(S'base'
p293
S'taniele'
p294
S'taniele/base'
p295
tp296
a(S'Polyfony2-Hack'
p297
S'AnnoyingTechnology'
p298
S'AnnoyingTechnology/Polyfony2-Hack'
p299
tp300
a.