(lp0
(S'meteor-boilerplate'
p1
S'Differential'
p2
S'Differential/meteor-boilerplate'
p3
tp4
a(S'ghost-themes'
p5
S'haydenbleasel'
p6
S'haydenbleasel/ghost-themes'
p7
tp8
a(S'crisp-ghost-theme'
p9
S'kathyqian'
p10
S'kathyqian/crisp-ghost-theme'
p11
tp12
a(S'formatjs-site'
p13
S'yahoo'
p14
S'yahoo/formatjs-site'
p15
tp16
a(S'pure-site'
p17
S'yahoo'
p18
S'yahoo/pure-site'
p19
tp20
a(S'Portfolio-Free-Ghost-Theme'
p21
S'GavickPro'
p22
S'GavickPro/Portfolio-Free-Ghost-Theme'
p23
tp24
a(S'ember-admin-dashboards'
p25
S'shaialon'
p26
S'shaialon/ember-admin-dashboards'
p27
tp28
a(S'Perfetta-Free-Ghost-Theme'
p29
S'GavickPro'
p30
S'GavickPro/Perfetta-Free-Ghost-Theme'
p31
tp32
a(S'refresh-sf'
p33
S'gpbmike'
p34
S'gpbmike/refresh-sf'
p35
tp36
a(S'Orre-Theme-for-Ghost'
p37
S'lacke'
p38
S'lacke/Orre-Theme-for-Ghost'
p39
tp40
a(S'yuidoc-bootstrap-theme'
p41
S'kevinlacotaco'
p42
S'kevinlacotaco/yuidoc-bootstrap-theme'
p43
tp44
a(S'snippets'
p45
S'amazeui'
p46
S'amazeui/snippets'
p47
tp48
a(S'KISS'
p49
S'calincru'
p50
S'calincru/KISS'
p51
tp52
a(S'no-nonsense'
p53
S'mihneadb'
p54
S'mihneadb/no-nonsense'
p55
tp56
a(S'nikita-kickstarter'
p57
S'nikita-kit'
p58
S'nikita-kit/nikita-kickstarter'
p59
tp60
a(S'FauxGhost'
p61
S'jimbobbennett'
p62
S'jimbobbennett/FauxGhost'
p63
tp64
a(S'gulpicon'
p65
S'filamentgroup'
p66
S'filamentgroup/gulpicon'
p67
tp68
a(S'interactive-wcag'
p69
S'vigetlabs'
p70
S'vigetlabs/interactive-wcag'
p71
tp72
a(S'ghostium'
p73
S'stevelacey'
p74
S'stevelacey/ghostium'
p75
tp76
a(S'ember-anchor'
p77
S'mike-north'
p78
S'mike-north/ember-anchor'
p79
tp80
a(S'DayAndNight'
p81
S'semeano'
p82
S'semeano/DayAndNight'
p83
tp84
a(S'plainly'
p85
S'MrJuliuss'
p86
S'MrJuliuss/plainly'
p87
tp88
a(S'readable'
p89
S'johelaq'
p90
S'johelaq/readable'
p91
tp92
a(S'nodejs-boilerplate'
p93
S'pinceladasdaweb'
p94
S'pinceladasdaweb/nodejs-boilerplate'
p95
tp96
a(S'ghostahoy'
p97
S'Devahoy'
p98
S'Devahoy/ghostahoy'
p99
tp100
a(S'meteor-boilerplate'
p101
S'Differential'
p102
S'Differential/meteor-boilerplate'
p103
tp104
a(S'ghost-themes'
p105
S'haydenbleasel'
p106
S'haydenbleasel/ghost-themes'
p107
tp108
a(S'crisp-ghost-theme'
p109
S'kathyqian'
p110
S'kathyqian/crisp-ghost-theme'
p111
tp112
a(S'formatjs-site'
p113
S'yahoo'
p114
S'yahoo/formatjs-site'
p115
tp116
a(S'pure-site'
p117
S'yahoo'
p118
S'yahoo/pure-site'
p119
tp120
a(S'Portfolio-Free-Ghost-Theme'
p121
S'GavickPro'
p122
S'GavickPro/Portfolio-Free-Ghost-Theme'
p123
tp124
a(S'ember-admin-dashboards'
p125
S'shaialon'
p126
S'shaialon/ember-admin-dashboards'
p127
tp128
a(S'Perfetta-Free-Ghost-Theme'
p129
S'GavickPro'
p130
S'GavickPro/Perfetta-Free-Ghost-Theme'
p131
tp132
a(S'refresh-sf'
p133
S'gpbmike'
p134
S'gpbmike/refresh-sf'
p135
tp136
a(S'Orre-Theme-for-Ghost'
p137
S'lacke'
p138
S'lacke/Orre-Theme-for-Ghost'
p139
tp140
a(S'yuidoc-bootstrap-theme'
p141
S'kevinlacotaco'
p142
S'kevinlacotaco/yuidoc-bootstrap-theme'
p143
tp144
a(S'snippets'
p145
S'amazeui'
p146
S'amazeui/snippets'
p147
tp148
a(S'KISS'
p149
S'calincru'
p150
S'calincru/KISS'
p151
tp152
a(S'no-nonsense'
p153
S'mihneadb'
p154
S'mihneadb/no-nonsense'
p155
tp156
a(S'nikita-kickstarter'
p157
S'nikita-kit'
p158
S'nikita-kit/nikita-kickstarter'
p159
tp160
a(S'FauxGhost'
p161
S'jimbobbennett'
p162
S'jimbobbennett/FauxGhost'
p163
tp164
a(S'gulpicon'
p165
S'filamentgroup'
p166
S'filamentgroup/gulpicon'
p167
tp168
a(S'interactive-wcag'
p169
S'vigetlabs'
p170
S'vigetlabs/interactive-wcag'
p171
tp172
a(S'ghostium'
p173
S'stevelacey'
p174
S'stevelacey/ghostium'
p175
tp176
a(S'ember-anchor'
p177
S'mike-north'
p178
S'mike-north/ember-anchor'
p179
tp180
a(S'DayAndNight'
p181
S'semeano'
p182
S'semeano/DayAndNight'
p183
tp184
a(S'plainly'
p185
S'MrJuliuss'
p186
S'MrJuliuss/plainly'
p187
tp188
a(S'readable'
p189
S'johelaq'
p190
S'johelaq/readable'
p191
tp192
a(S'nodejs-boilerplate'
p193
S'pinceladasdaweb'
p194
S'pinceladasdaweb/nodejs-boilerplate'
p195
tp196
a(S'ghostahoy'
p197
S'Devahoy'
p198
S'Devahoy/ghostahoy'
p199
tp200
a(S'meteor-boilerplate'
p201
S'Differential'
p202
S'Differential/meteor-boilerplate'
p203
tp204
a(S'ghost-themes'
p205
S'haydenbleasel'
p206
S'haydenbleasel/ghost-themes'
p207
tp208
a(S'crisp-ghost-theme'
p209
S'kathyqian'
p210
S'kathyqian/crisp-ghost-theme'
p211
tp212
a(S'formatjs-site'
p213
S'yahoo'
p214
S'yahoo/formatjs-site'
p215
tp216
a(S'pure-site'
p217
S'yahoo'
p218
S'yahoo/pure-site'
p219
tp220
a(S'Portfolio-Free-Ghost-Theme'
p221
S'GavickPro'
p222
S'GavickPro/Portfolio-Free-Ghost-Theme'
p223
tp224
a(S'ember-admin-dashboards'
p225
S'shaialon'
p226
S'shaialon/ember-admin-dashboards'
p227
tp228
a(S'Perfetta-Free-Ghost-Theme'
p229
S'GavickPro'
p230
S'GavickPro/Perfetta-Free-Ghost-Theme'
p231
tp232
a(S'refresh-sf'
p233
S'gpbmike'
p234
S'gpbmike/refresh-sf'
p235
tp236
a(S'Orre-Theme-for-Ghost'
p237
S'lacke'
p238
S'lacke/Orre-Theme-for-Ghost'
p239
tp240
a(S'yuidoc-bootstrap-theme'
p241
S'kevinlacotaco'
p242
S'kevinlacotaco/yuidoc-bootstrap-theme'
p243
tp244
a(S'snippets'
p245
S'amazeui'
p246
S'amazeui/snippets'
p247
tp248
a(S'KISS'
p249
S'calincru'
p250
S'calincru/KISS'
p251
tp252
a(S'no-nonsense'
p253
S'mihneadb'
p254
S'mihneadb/no-nonsense'
p255
tp256
a(S'nikita-kickstarter'
p257
S'nikita-kit'
p258
S'nikita-kit/nikita-kickstarter'
p259
tp260
a(S'FauxGhost'
p261
S'jimbobbennett'
p262
S'jimbobbennett/FauxGhost'
p263
tp264
a(S'gulpicon'
p265
S'filamentgroup'
p266
S'filamentgroup/gulpicon'
p267
tp268
a(S'interactive-wcag'
p269
S'vigetlabs'
p270
S'vigetlabs/interactive-wcag'
p271
tp272
a(S'ghostium'
p273
S'stevelacey'
p274
S'stevelacey/ghostium'
p275
tp276
a(S'ember-anchor'
p277
S'mike-north'
p278
S'mike-north/ember-anchor'
p279
tp280
a(S'DayAndNight'
p281
S'semeano'
p282
S'semeano/DayAndNight'
p283
tp284
a(S'plainly'
p285
S'MrJuliuss'
p286
S'MrJuliuss/plainly'
p287
tp288
a(S'readable'
p289
S'johelaq'
p290
S'johelaq/readable'
p291
tp292
a(S'nodejs-boilerplate'
p293
S'pinceladasdaweb'
p294
S'pinceladasdaweb/nodejs-boilerplate'
p295
tp296
a(S'ghostahoy'
p297
S'Devahoy'
p298
S'Devahoy/ghostahoy'
p299
tp300
a.