(lp0
(S'Trilinos_tutorial'
p1
S'trilinos'
p2
S'trilinos/Trilinos_tutorial'
p3
tp4
a(S'backdraft-client-example'
p5
S'FireHatLabs'
p6
S'FireHatLabs/backdraft-client-example'
p7
tp8
a(S'hibiku'
p9
S'SundarJ'
p10
S'SundarJ/hibiku'
p11
tp12
a(S'congress-vote-tracker'
p13
S'motherjones'
p14
S'motherjones/congress-vote-tracker'
p15
tp16
a(S'Prelude-Harbour'
p17
S'davidbranco'
p18
S'davidbranco/Prelude-Harbour'
p19
tp20
a(S'caelux'
p21
S'leocwolter'
p22
S'leocwolter/caelux'
p23
tp24
a(S'perlhbm'
p25
S'gitpan'
p26
S'gitpan/perlhbm'
p27
tp28
a(S'cholesky'
p29
S'jamiepg1'
p30
S'jamiepg1/cholesky'
p31
tp32
a(S'caelux'
p33
S'jamiepg1'
p34
S'jamiepg1/caelux'
p35
tp36
a(S'backdraft-client-example'
p37
S'jamiepg1'
p38
S'jamiepg1/backdraft-client-example'
p39
tp40
a(S'tinker_tools'
p41
S'webbgroup-physical-chemistry'
p42
S'webbgroup-physical-chemistry/tinker_tools'
p43
tp44
a(S'tinker_tools'
p45
S'awritchie'
p46
S'awritchie/tinker_tools'
p47
tp48
a(S'epetra'
p49
S'trilinos'
p50
S'trilinos/epetra'
p51
tp52
a(S'blog'
p53
S'flows'
p54
S'flows/blog'
p55
tp56
a(S'xml-rpc'
p57
S'NaldoDj'
p58
S'NaldoDj/xml-rpc'
p59
tp60
a(S'peptalk'
p61
S'assaff'
p62
S'assaff/peptalk'
p63
tp64
a(S'Trilinos_tutorial'
p65
S'trilinos'
p66
S'trilinos/Trilinos_tutorial'
p67
tp68
a(S'backdraft-client-example'
p69
S'FireHatLabs'
p70
S'FireHatLabs/backdraft-client-example'
p71
tp72
a(S'hibiku'
p73
S'SundarJ'
p74
S'SundarJ/hibiku'
p75
tp76
a(S'congress-vote-tracker'
p77
S'motherjones'
p78
S'motherjones/congress-vote-tracker'
p79
tp80
a(S'Prelude-Harbour'
p81
S'davidbranco'
p82
S'davidbranco/Prelude-Harbour'
p83
tp84
a(S'caelux'
p85
S'leocwolter'
p86
S'leocwolter/caelux'
p87
tp88
a(S'perlhbm'
p89
S'gitpan'
p90
S'gitpan/perlhbm'
p91
tp92
a(S'cholesky'
p93
S'jamiepg1'
p94
S'jamiepg1/cholesky'
p95
tp96
a(S'caelux'
p97
S'jamiepg1'
p98
S'jamiepg1/caelux'
p99
tp100
a(S'backdraft-client-example'
p101
S'jamiepg1'
p102
S'jamiepg1/backdraft-client-example'
p103
tp104
a(S'tinker_tools'
p105
S'webbgroup-physical-chemistry'
p106
S'webbgroup-physical-chemistry/tinker_tools'
p107
tp108
a(S'tinker_tools'
p109
S'awritchie'
p110
S'awritchie/tinker_tools'
p111
tp112
a(S'epetra'
p113
S'trilinos'
p114
S'trilinos/epetra'
p115
tp116
a(S'blog'
p117
S'flows'
p118
S'flows/blog'
p119
tp120
a(S'xml-rpc'
p121
S'NaldoDj'
p122
S'NaldoDj/xml-rpc'
p123
tp124
a(S'peptalk'
p125
S'assaff'
p126
S'assaff/peptalk'
p127
tp128
a(S'Trilinos_tutorial'
p129
S'trilinos'
p130
S'trilinos/Trilinos_tutorial'
p131
tp132
a(S'backdraft-client-example'
p133
S'FireHatLabs'
p134
S'FireHatLabs/backdraft-client-example'
p135
tp136
a(S'hibiku'
p137
S'SundarJ'
p138
S'SundarJ/hibiku'
p139
tp140
a(S'congress-vote-tracker'
p141
S'motherjones'
p142
S'motherjones/congress-vote-tracker'
p143
tp144
a(S'Prelude-Harbour'
p145
S'davidbranco'
p146
S'davidbranco/Prelude-Harbour'
p147
tp148
a(S'caelux'
p149
S'leocwolter'
p150
S'leocwolter/caelux'
p151
tp152
a(S'perlhbm'
p153
S'gitpan'
p154
S'gitpan/perlhbm'
p155
tp156
a(S'cholesky'
p157
S'jamiepg1'
p158
S'jamiepg1/cholesky'
p159
tp160
a(S'caelux'
p161
S'jamiepg1'
p162
S'jamiepg1/caelux'
p163
tp164
a(S'backdraft-client-example'
p165
S'jamiepg1'
p166
S'jamiepg1/backdraft-client-example'
p167
tp168
a(S'tinker_tools'
p169
S'webbgroup-physical-chemistry'
p170
S'webbgroup-physical-chemistry/tinker_tools'
p171
tp172
a(S'tinker_tools'
p173
S'awritchie'
p174
S'awritchie/tinker_tools'
p175
tp176
a(S'epetra'
p177
S'trilinos'
p178
S'trilinos/epetra'
p179
tp180
a(S'blog'
p181
S'flows'
p182
S'flows/blog'
p183
tp184
a(S'xml-rpc'
p185
S'NaldoDj'
p186
S'NaldoDj/xml-rpc'
p187
tp188
a(S'peptalk'
p189
S'assaff'
p190
S'assaff/peptalk'
p191
tp192
a.