(lp0
(S'FP101x-Content-2015'
p1
S'fptudelft'
p2
S'fptudelft/FP101x-Content-2015'
p3
tp4
a(S'csound-expression'
p5
S'spell-music'
p6
S'spell-music/csound-expression'
p7
tp8
a(S'agda'
p9
S'agda'
p10
S'agda/agda'
p11
tp12
a(S'kaleidoscope'
p13
S'sdiehl'
p14
S'sdiehl/kaleidoscope'
p15
tp16
a(S'postgrest'
p17
S'begriffs'
p18
S'begriffs/postgrest'
p19
tp20
a(S'pandoc'
p21
S'jgm'
p22
S'jgm/pandoc'
p23
tp24
a(S'shellcheck'
p25
S'koalaman'
p26
S'koalaman/shellcheck'
p27
tp28
a(S'elm-compiler'
p29
S'elm-lang'
p30
S'elm-lang/elm-compiler'
p31
tp32
a(S'Haxl'
p33
S'facebook'
p34
S'facebook/Haxl'
p35
tp36
a(S'purescript'
p37
S'purescript'
p38
S'purescript/purescript'
p39
tp40
a(S'Functional-Programming'
p41
S'caiorss'
p42
S'caiorss/Functional-Programming'
p43
tp44
a(S'yesod'
p45
S'yesodweb'
p46
S'yesodweb/yesod'
p47
tp48
a(S'stack'
p49
S'commercialhaskell'
p50
S'commercialhaskell/stack'
p51
tp52
a(S'hakyll'
p53
S'jaspervdj'
p54
S'jaspervdj/hakyll'
p55
tp56
a(S'fay'
p57
S'faylang'
p58
S'faylang/fay'
p59
tp60
a(S'git-annex'
p61
S'joeyh'
p62
S'joeyh/git-annex'
p63
tp64
a(S'ghcjs'
p65
S'ghcjs'
p66
S'ghcjs/ghcjs'
p67
tp68
a(S'gitit'
p69
S'jgm'
p70
S'jgm/gitit'
p71
tp72
a(S'IHaskell'
p73
S'gibiansky'
p74
S'gibiansky/IHaskell'
p75
tp76
a(S'ghc'
p77
S'ghc'
p78
S'ghc/ghc'
p79
tp80
a(S'course'
p81
S'NICTA'
p82
S'NICTA/course'
p83
tp84
a(S'Idris-dev'
p85
S'idris-lang'
p86
S'idris-lang/Idris-dev'
p87
tp88
a(S'haste-compiler'
p89
S'valderman'
p90
S'valderman/haste-compiler'
p91
tp92
a(S'write-you-a-haskell'
p93
S'sdiehl'
p94
S'sdiehl/write-you-a-haskell'
p95
tp96
a(S'yi'
p97
S'yi-editor'
p98
S'yi-editor/yi'
p99
tp100
a(S'FP101x-Content-2015'
p101
S'fptudelft'
p102
S'fptudelft/FP101x-Content-2015'
p103
tp104
a(S'pandoc'
p105
S'jgm'
p106
S'jgm/pandoc'
p107
tp108
a(S'postgrest'
p109
S'begriffs'
p110
S'begriffs/postgrest'
p111
tp112
a(S'stack'
p113
S'commercialhaskell'
p114
S'commercialhaskell/stack'
p115
tp116
a(S'argon'
p117
S'rubik'
p118
S'rubik/argon'
p119
tp120
a(S'shellcheck'
p121
S'koalaman'
p122
S'koalaman/shellcheck'
p123
tp124
a(S'elm-compiler'
p125
S'elm-lang'
p126
S'elm-lang/elm-compiler'
p127
tp128
a(S'monky'
p129
S'monky-hs'
p130
S'monky-hs/monky'
p131
tp132
a(S'purescript'
p133
S'purescript'
p134
S'purescript/purescript'
p135
tp136
a(S'haskelldocumentation'
p137
S'commercialhaskell'
p138
S'commercialhaskell/haskelldocumentation'
p139
tp140
a(S'ghcjs'
p141
S'ghcjs'
p142
S'ghcjs/ghcjs'
p143
tp144
a(S'Haxl'
p145
S'facebook'
p146
S'facebook/Haxl'
p147
tp148
a(S'Functional-Programming'
p149
S'caiorss'
p150
S'caiorss/Functional-Programming'
p151
tp152
a(S'codeworld'
p153
S'google'
p154
S'google/codeworld'
p155
tp156
a(S'android-lint-summary'
p157
S'passy'
p158
S'passy/android-lint-summary'
p159
tp160
a(S'Haskell-Morte-Library'
p161
S'Gabriel439'
p162
S'Gabriel439/Haskell-Morte-Library'
p163
tp164
a(S'HaLVM'
p165
S'GaloisInc'
p166
S'GaloisInc/HaLVM'
p167
tp168
a(S'servant'
p169
S'haskell-servant'
p170
S'haskell-servant/servant'
p171
tp172
a(S'yesod'
p173
S'yesodweb'
p174
S'yesodweb/yesod'
p175
tp176
a(S'wreq'
p177
S'bos'
p178
S'bos/wreq'
p179
tp180
a(S'Idris-dev'
p181
S'idris-lang'
p182
S'idris-lang/Idris-dev'
p183
tp184
a(S'real-world-haskell-cn'
p185
S'huangz1990'
p186
S'huangz1990/real-world-haskell-cn'
p187
tp188
a(S'open-cis194'
p189
S'bitemyapp'
p190
S'bitemyapp/open-cis194'
p191
tp192
a(S'hakyll'
p193
S'jaspervdj'
p194
S'jaspervdj/hakyll'
p195
tp196
a(S'wai'
p197
S'yesodweb'
p198
S'yesodweb/wai'
p199
tp200
a(S'pandoc'
p201
S'jgm'
p202
S'jgm/pandoc'
p203
tp204
a(S'caramel'
p205
S'MaiaVictor'
p206
S'MaiaVictor/caramel'
p207
tp208
a(S'FP101x-Content-2015'
p209
S'fptudelft'
p210
S'fptudelft/FP101x-Content-2015'
p211
tp212
a(S'postgrest'
p213
S'begriffs'
p214
S'begriffs/postgrest'
p215
tp216
a(S'stack'
p217
S'commercialhaskell'
p218
S'commercialhaskell/stack'
p219
tp220
a(S'elm-compiler'
p221
S'elm-lang'
p222
S'elm-lang/elm-compiler'
p223
tp224
a(S'shellcheck'
p225
S'koalaman'
p226
S'koalaman/shellcheck'
p227
tp228
a(S'purescript'
p229
S'purescript'
p230
S'purescript/purescript'
p231
tp232
a(S'megaparsec'
p233
S'mrkkrp'
p234
S'mrkkrp/megaparsec'
p235
tp236
a(S'Idris-dev'
p237
S'idris-lang'
p238
S'idris-lang/Idris-dev'
p239
tp240
a(S'ghcjs'
p241
S'ghcjs'
p242
S'ghcjs/ghcjs'
p243
tp244
a(S'Haxl'
p245
S'facebook'
p246
S'facebook/Haxl'
p247
tp248
a(S'real-world-haskell-cn'
p249
S'huangz1990'
p250
S'huangz1990/real-world-haskell-cn'
p251
tp252
a(S'course'
p253
S'NICTA'
p254
S'NICTA/course'
p255
tp256
a(S'hakyll'
p257
S'jaspervdj'
p258
S'jaspervdj/hakyll'
p259
tp260
a(S'argon'
p261
S'rubik'
p262
S'rubik/argon'
p263
tp264
a(S'yesod'
p265
S'yesodweb'
p266
S'yesodweb/yesod'
p267
tp268
a(S'HaLVM'
p269
S'GaloisInc'
p270
S'GaloisInc/HaLVM'
p271
tp272
a(S'ghc'
p273
S'ghc'
p274
S'ghc/ghc'
p275
tp276
a(S'Functional-Programming'
p277
S'caiorss'
p278
S'caiorss/Functional-Programming'
p279
tp280
a(S'haste-compiler'
p281
S'valderman'
p282
S'valderman/haste-compiler'
p283
tp284
a(S'monky'
p285
S'monky-hs'
p286
S'monky-hs/monky'
p287
tp288
a(S'servant'
p289
S'haskell-servant'
p290
S'haskell-servant/servant'
p291
tp292
a(S'IHaskell'
p293
S'gibiansky'
p294
S'gibiansky/IHaskell'
p295
tp296
a(S'android-lint-summary'
p297
S'passy'
p298
S'passy/android-lint-summary'
p299
tp300
a.