(lp0
(S'flixel'
p1
S'HaxeFlixel'
p2
S'HaxeFlixel/flixel'
p3
tp4
a(S'GPU-Fluid-Experiments'
p5
S'haxiomic'
p6
S'haxiomic/GPU-Fluid-Experiments'
p7
tp8
a(S'haxe'
p9
S'HaxeFoundation'
p10
S'HaxeFoundation/haxe'
p11
tp12
a(S'openfl'
p13
S'openfl'
p14
S'openfl/openfl'
p15
tp16
a(S'flambe'
p17
S'aduros'
p18
S'aduros/flambe'
p19
tp20
a(S'nape'
p21
S'deltaluca'
p22
S'deltaluca/nape'
p23
tp24
a(S'HaxePunk'
p25
S'HaxePunk'
p26
S'HaxePunk/HaxePunk'
p27
tp28
a(S'heaps'
p29
S'ncannasse'
p30
S'ncannasse/heaps'
p31
tp32
a(S'Hi-ReS-Stats'
p33
S'mrdoob'
p34
S'mrdoob/Hi-ReS-Stats'
p35
tp36
a(S'haxeui'
p37
S'ianharrigan'
p38
S'ianharrigan/haxeui'
p39
tp40
a(S'StablexUI'
p41
S'RealyUniqueName'
p42
S'RealyUniqueName/StablexUI'
p43
tp44
a(S'luxe'
p45
S'underscorediscovery'
p46
S'underscorediscovery/luxe'
p47
tp48
a(S'Kha'
p49
S'KTXSoftware'
p50
S'KTXSoftware/Kha'
p51
tp52
a(S'ds'
p53
S'polygonal'
p54
S'polygonal/ds'
p55
tp56
a(S'flixel-demos'
p57
S'HaxeFlixel'
p58
S'HaxeFlixel/flixel-demos'
p59
tp60
a(S'Cocktail'
p61
S'silexlabs'
p62
S'silexlabs/Cocktail'
p63
tp64
a(S'dconsole'
p65
S'tiagolr'
p66
S'tiagolr/dconsole'
p67
tp68
a(S'bazaarBot'
p69
S'larsiusprime'
p70
S'larsiusprime/bazaarBot'
p71
tp72
a(S'away3d-core-openfl'
p73
S'away3d'
p74
S'away3d/away3d-core-openfl'
p75
tp76
a(S'HUGS'
p77
S'proletariatgames'
p78
S'proletariatgames/HUGS'
p79
tp80
a(S'MassiveUnit'
p81
S'massiveinteractive'
p82
S'massiveinteractive/MassiveUnit'
p83
tp84
a(S'snow'
p85
S'underscorediscovery'
p86
S'underscorediscovery/snow'
p87
tp88
a(S'try-haxe'
p89
S'clemos'
p90
S'clemos/try-haxe'
p91
tp92
a(S'HyperTouch'
p93
S'shoebox'
p94
S'shoebox/HyperTouch'
p95
tp96
a(S'openfl-bitfive'
p97
S'YellowAfterlife'
p98
S'YellowAfterlife/openfl-bitfive'
p99
tp100
a(S'openfl'
p101
S'openfl'
p102
S'openfl/openfl'
p103
tp104
a(S'haxe'
p105
S'HaxeFoundation'
p106
S'HaxeFoundation/haxe'
p107
tp108
a(S'flixel'
p109
S'HaxeFlixel'
p110
S'HaxeFlixel/flixel'
p111
tp112
a(S'hx-ffi'
p113
S'TomBebbington'
p114
S'TomBebbington/hx-ffi'
p115
tp116
a(S'jive'
p117
S'ngrebenshikov'
p118
S'ngrebenshikov/jive'
p119
tp120
a(S'flixel-ui'
p121
S'HaxeFlixel'
p122
S'HaxeFlixel/flixel-ui'
p123
tp124
a(S'haxe-three.js'
p125
S'labe-me'
p126
S'labe-me/haxe-three.js'
p127
tp128
a(S'openfl-samples'
p129
S'openfl'
p130
S'openfl/openfl-samples'
p131
tp132
a(S'HaxePunk'
p133
S'HaxePunk'
p134
S'HaxePunk/HaxePunk'
p135
tp136
a(S'Kha'
p137
S'KTXSoftware'
p138
S'KTXSoftware/Kha'
p139
tp140
a(S'GPU-Fluid-Experiments'
p141
S'haxiomic'
p142
S'haxiomic/GPU-Fluid-Experiments'
p143
tp144
a(S'flambe'
p145
S'aduros'
p146
S'aduros/flambe'
p147
tp148
a(S'nape'
p149
S'deltaluca'
p150
S'deltaluca/nape'
p151
tp152
a(S'heaps'
p153
S'ncannasse'
p154
S'ncannasse/heaps'
p155
tp156
a(S'Hi-ReS-Stats'
p157
S'mrdoob'
p158
S'mrdoob/Hi-ReS-Stats'
p159
tp160
a(S'haxeui'
p161
S'ianharrigan'
p162
S'ianharrigan/haxeui'
p163
tp164
a(S'StablexUI'
p165
S'RealyUniqueName'
p166
S'RealyUniqueName/StablexUI'
p167
tp168
a(S'luxe'
p169
S'underscorediscovery'
p170
S'underscorediscovery/luxe'
p171
tp172
a(S'ds'
p173
S'polygonal'
p174
S'polygonal/ds'
p175
tp176
a(S'flixel-demos'
p177
S'HaxeFlixel'
p178
S'HaxeFlixel/flixel-demos'
p179
tp180
a(S'Cocktail'
p181
S'silexlabs'
p182
S'silexlabs/Cocktail'
p183
tp184
a(S'dconsole'
p185
S'tiagolr'
p186
S'tiagolr/dconsole'
p187
tp188
a(S'away3d-core-openfl'
p189
S'away3d'
p190
S'away3d/away3d-core-openfl'
p191
tp192
a(S'bazaarBot'
p193
S'larsiusprime'
p194
S'larsiusprime/bazaarBot'
p195
tp196
a(S'HUGS'
p197
S'proletariatgames'
p198
S'proletariatgames/HUGS'
p199
tp200
a(S'haxe'
p201
S'HaxeFoundation'
p202
S'HaxeFoundation/haxe'
p203
tp204
a(S'openfl'
p205
S'openfl'
p206
S'openfl/openfl'
p207
tp208
a(S'flixel'
p209
S'HaxeFlixel'
p210
S'HaxeFlixel/flixel'
p211
tp212
a(S'flixel-demos'
p213
S'HaxeFlixel'
p214
S'HaxeFlixel/flixel-demos'
p215
tp216
a(S'flixel-ui'
p217
S'HaxeFlixel'
p218
S'HaxeFlixel/flixel-ui'
p219
tp220
a(S'Kha'
p221
S'KTXSoftware'
p222
S'KTXSoftware/Kha'
p223
tp224
a(S'heaps'
p225
S'ncannasse'
p226
S'ncannasse/heaps'
p227
tp228
a(S'format'
p229
S'HaxeFoundation'
p230
S'HaxeFoundation/format'
p231
tp232
a(S'haxe-js-kit'
p233
S'clemos'
p234
S'clemos/haxe-js-kit'
p235
tp236
a(S'thx.core'
p237
S'fponticelli'
p238
S'fponticelli/thx.core'
p239
tp240
a(S'haxe-macro-workshop-2015'
p241
S'macronauts'
p242
S'macronauts/haxe-macro-workshop-2015'
p243
tp244
a(S'hx-ffi'
p245
S'TomBebbington'
p246
S'TomBebbington/hx-ffi'
p247
tp248
a(S'jive'
p249
S'ngrebenshikov'
p250
S'ngrebenshikov/jive'
p251
tp252
a(S'protohx'
p253
S'nitrobin'
p254
S'nitrobin/protohx'
p255
tp256
a(S'openfl-samples'
p257
S'openfl'
p258
S'openfl/openfl-samples'
p259
tp260
a(S'haxe-three.js'
p261
S'labe-me'
p262
S'labe-me/haxe-three.js'
p263
tp264
a(S'hxssl'
p265
S'tong'
p266
S'tong/hxssl'
p267
tp268
a(S'GPU-Fluid-Experiments'
p269
S'haxiomic'
p270
S'haxiomic/GPU-Fluid-Experiments'
p271
tp272
a(S'flambe'
p273
S'aduros'
p274
S'aduros/flambe'
p275
tp276
a(S'nape'
p277
S'deltaluca'
p278
S'deltaluca/nape'
p279
tp280
a(S'HaxePunk'
p281
S'HaxePunk'
p282
S'HaxePunk/HaxePunk'
p283
tp284
a(S'Hi-ReS-Stats'
p285
S'mrdoob'
p286
S'mrdoob/Hi-ReS-Stats'
p287
tp288
a(S'haxeui'
p289
S'ianharrigan'
p290
S'ianharrigan/haxeui'
p291
tp292
a(S'StablexUI'
p293
S'RealyUniqueName'
p294
S'RealyUniqueName/StablexUI'
p295
tp296
a(S'luxe'
p297
S'underscorediscovery'
p298
S'underscorediscovery/luxe'
p299
tp300
a.