(lp0
(S'Apollo'
p1
S'Capgemini'
p2
S'Capgemini/Apollo'
p3
tp4
a(S'atlas-examples'
p5
S'hashicorp'
p6
S'hashicorp/atlas-examples'
p7
tp8
a(S'hashiconf-2015'
p9
S'kelseyhightower'
p10
S'kelseyhightower/hashiconf-2015'
p11
tp12
a(S'tsuru-terraform'
p13
S'alphagov'
p14
S'alphagov/tsuru-terraform'
p15
tp16
a(S'aws-terraform'
p17
S'xuwang'
p18
S'xuwang/aws-terraform'
p19
tp20
a(S'infrastructure'
p21
S'brandfolder'
p22
S'brandfolder/infrastructure'
p23
tp24
a(S'atpg'
p25
S'eastzone'
p26
S'eastzone/atpg'
p27
tp28
a(S'tf_aws_vpc'
p29
S'terraform-community-modules'
p30
S'terraform-community-modules/tf_aws_vpc'
p31
tp32
a(S'kraken'
p33
S'Samsung-AG'
p34
S'Samsung-AG/kraken'
p35
tp36
a(S'docker-vault'
p37
S'sjourdan'
p38
S'sjourdan/docker-vault'
p39
tp40
a(S'infrastructure'
p41
S'peterbourgon'
p42
S'peterbourgon/infrastructure'
p43
tp44
a(S'terraform-ecs-autoscaling'
p45
S'RobotsAndPencils'
p46
S'RobotsAndPencils/terraform-ecs-autoscaling'
p47
tp48
a(S'terraform-aws-bosh'
p49
S'cloudfoundry-community'
p50
S'cloudfoundry-community/terraform-aws-bosh'
p51
tp52
a(S'terraform-amazon-ecs'
p53
S'Capgemini'
p54
S'Capgemini/terraform-amazon-ecs'
p55
tp56
a(S'terraform-workshop'
p57
S'sethvargo'
p58
S'sethvargo/terraform-workshop'
p59
tp60
a(S'terraform-nomad'
p61
S'ContainerSolutions'
p62
S'ContainerSolutions/terraform-nomad'
p63
tp64
a(S'aws-sandbox'
p65
S'joescii'
p66
S'joescii/aws-sandbox'
p67
tp68
a(S'atlas-demo'
p69
S'sethvargo'
p70
S'sethvargo/atlas-demo'
p71
tp72
a(S'terraform-aws-docker'
p73
S'salizzar'
p74
S'salizzar/terraform-aws-docker'
p75
tp76
a(S'terraform-isucon'
p77
S'matsuu'
p78
S'matsuu/terraform-isucon'
p79
tp80
a(S'terraform-scaleio'
p81
S'mcowger'
p82
S'mcowger/terraform-scaleio'
p83
tp84
a(S'tf-dnsimple-gh-pages'
p85
S'tcnksm'
p86
S'tcnksm/tf-dnsimple-gh-pages'
p87
tp88
a(S'oreno-terraform-ecs'
p89
S'inokappa'
p90
S'inokappa/oreno-terraform-ecs'
p91
tp92
a(S'aws-terraform-modules'
p93
S'joescii'
p94
S'joescii/aws-terraform-modules'
p95
tp96
a(S'docker-consul-terraform-cluster'
p97
S'shokunin'
p98
S'shokunin/docker-consul-terraform-cluster'
p99
tp100
a(S'Apollo'
p101
S'Capgemini'
p102
S'Capgemini/Apollo'
p103
tp104
a(S'atlas-examples'
p105
S'hashicorp'
p106
S'hashicorp/atlas-examples'
p107
tp108
a(S'hashiconf-2015'
p109
S'kelseyhightower'
p110
S'kelseyhightower/hashiconf-2015'
p111
tp112
a(S'tsuru-terraform'
p113
S'alphagov'
p114
S'alphagov/tsuru-terraform'
p115
tp116
a(S'aws-terraform'
p117
S'xuwang'
p118
S'xuwang/aws-terraform'
p119
tp120
a(S'infrastructure'
p121
S'brandfolder'
p122
S'brandfolder/infrastructure'
p123
tp124
a(S'atpg'
p125
S'eastzone'
p126
S'eastzone/atpg'
p127
tp128
a(S'tf_aws_vpc'
p129
S'terraform-community-modules'
p130
S'terraform-community-modules/tf_aws_vpc'
p131
tp132
a(S'kraken'
p133
S'Samsung-AG'
p134
S'Samsung-AG/kraken'
p135
tp136
a(S'docker-vault'
p137
S'sjourdan'
p138
S'sjourdan/docker-vault'
p139
tp140
a(S'infrastructure'
p141
S'peterbourgon'
p142
S'peterbourgon/infrastructure'
p143
tp144
a(S'terraform-ecs-autoscaling'
p145
S'RobotsAndPencils'
p146
S'RobotsAndPencils/terraform-ecs-autoscaling'
p147
tp148
a(S'terraform-aws-bosh'
p149
S'cloudfoundry-community'
p150
S'cloudfoundry-community/terraform-aws-bosh'
p151
tp152
a(S'terraform-amazon-ecs'
p153
S'Capgemini'
p154
S'Capgemini/terraform-amazon-ecs'
p155
tp156
a(S'terraform-workshop'
p157
S'sethvargo'
p158
S'sethvargo/terraform-workshop'
p159
tp160
a(S'terraform-nomad'
p161
S'ContainerSolutions'
p162
S'ContainerSolutions/terraform-nomad'
p163
tp164
a(S'terraform-isucon'
p165
S'matsuu'
p166
S'matsuu/terraform-isucon'
p167
tp168
a(S'terraform-aws-docker'
p169
S'salizzar'
p170
S'salizzar/terraform-aws-docker'
p171
tp172
a(S'aws-sandbox'
p173
S'joescii'
p174
S'joescii/aws-sandbox'
p175
tp176
a(S'atlas-demo'
p177
S'sethvargo'
p178
S'sethvargo/atlas-demo'
p179
tp180
a(S'terraform-scaleio'
p181
S'mcowger'
p182
S'mcowger/terraform-scaleio'
p183
tp184
a(S'oreno-terraform-ecs'
p185
S'inokappa'
p186
S'inokappa/oreno-terraform-ecs'
p187
tp188
a(S'lift-jetty-cluster'
p189
S'joescii'
p190
S'joescii/lift-jetty-cluster'
p191
tp192
a(S'Apollo'
p193
S'udacity'
p194
S'udacity/Apollo'
p195
tp196
a(S'aws-terraform-modules'
p197
S'joescii'
p198
S'joescii/aws-terraform-modules'
p199
tp200
a(S'Apollo'
p201
S'Capgemini'
p202
S'Capgemini/Apollo'
p203
tp204
a(S'atlas-examples'
p205
S'hashicorp'
p206
S'hashicorp/atlas-examples'
p207
tp208
a(S'hashiconf-2015'
p209
S'kelseyhightower'
p210
S'kelseyhightower/hashiconf-2015'
p211
tp212
a(S'tsuru-terraform'
p213
S'alphagov'
p214
S'alphagov/tsuru-terraform'
p215
tp216
a(S'aws-terraform'
p217
S'xuwang'
p218
S'xuwang/aws-terraform'
p219
tp220
a(S'infrastructure'
p221
S'brandfolder'
p222
S'brandfolder/infrastructure'
p223
tp224
a(S'atpg'
p225
S'eastzone'
p226
S'eastzone/atpg'
p227
tp228
a(S'tf_aws_vpc'
p229
S'terraform-community-modules'
p230
S'terraform-community-modules/tf_aws_vpc'
p231
tp232
a(S'kraken'
p233
S'Samsung-AG'
p234
S'Samsung-AG/kraken'
p235
tp236
a(S'docker-vault'
p237
S'sjourdan'
p238
S'sjourdan/docker-vault'
p239
tp240
a(S'terraform-ecs-autoscaling'
p241
S'RobotsAndPencils'
p242
S'RobotsAndPencils/terraform-ecs-autoscaling'
p243
tp244
a(S'terraform-aws-bosh'
p245
S'cloudfoundry-community'
p246
S'cloudfoundry-community/terraform-aws-bosh'
p247
tp248
a(S'infrastructure'
p249
S'peterbourgon'
p250
S'peterbourgon/infrastructure'
p251
tp252
a(S'terraform-amazon-ecs'
p253
S'Capgemini'
p254
S'Capgemini/terraform-amazon-ecs'
p255
tp256
a(S'terraform-workshop'
p257
S'sethvargo'
p258
S'sethvargo/terraform-workshop'
p259
tp260
a(S'terraform-nomad'
p261
S'ContainerSolutions'
p262
S'ContainerSolutions/terraform-nomad'
p263
tp264
a(S'terraform-scaleio'
p265
S'mcowger'
p266
S'mcowger/terraform-scaleio'
p267
tp268
a(S'terraform-isucon'
p269
S'matsuu'
p270
S'matsuu/terraform-isucon'
p271
tp272
a(S'aws-sandbox'
p273
S'joescii'
p274
S'joescii/aws-sandbox'
p275
tp276
a(S'terraform-aws-docker'
p277
S'salizzar'
p278
S'salizzar/terraform-aws-docker'
p279
tp280
a(S'atlas-demo'
p281
S'sethvargo'
p282
S'sethvargo/atlas-demo'
p283
tp284
a(S'TinyMacros'
p285
S'chrib'
p286
S'chrib/TinyMacros'
p287
tp288
a(S'aws-terraform-modules'
p289
S'joescii'
p290
S'joescii/aws-terraform-modules'
p291
tp292
a(S'oreno-terraform-ecs'
p293
S'inokappa'
p294
S'inokappa/oreno-terraform-ecs'
p295
tp296
a(S'docker-consul-terraform-cluster'
p297
S'shokunin'
p298
S'shokunin/docker-consul-terraform-cluster'
p299
tp300
a.