(lp0
(S'zxcvbn'
p1
S'dropbox'
p2
S'dropbox/zxcvbn'
p3
tp4
a(S'FreeCodeCamp'
p5
S'FreeCodeCamp'
p6
S'FreeCodeCamp/FreeCodeCamp'
p7
tp8
a(S'simple-icons'
p9
S'danleech'
p10
S'danleech/simple-icons'
p11
tp12
a(S'Font-Awesome'
p13
S'FortAwesome'
p14
S'FortAwesome/Font-Awesome'
p15
tp16
a(S'HackerNewsReader'
p17
S'rnystrom'
p18
S'rnystrom/HackerNewsReader'
p19
tp20
a(S'material-design-icons'
p21
S'google'
p22
S'google/material-design-icons'
p23
tp24
a(S'AdminLTE'
p25
S'almasaeed2010'
p26
S'almasaeed2010/AdminLTE'
p27
tp28
a(S'learnxinyminutes-docs'
p29
S'adambard'
p30
S'adambard/learnxinyminutes-docs'
p31
tp32
a(S'js-the-right-way'
p33
S'braziljs'
p34
S'braziljs/js-the-right-way'
p35
tp36
a(S'fonts'
p37
S'google'
p38
S'google/fonts'
p39
tp40
a(S'Rich-Hickey-fanclub'
p41
S'tallesl'
p42
S'tallesl/Rich-Hickey-fanclub'
p43
tp44
a(S'polymer'
p45
S'Polymer'
p46
S'Polymer/polymer'
p47
tp48
a(S'angular-seed'
p49
S'angular'
p50
S'angular/angular-seed'
p51
tp52
a(S'web-starter-kit'
p53
S'google'
p54
S'google/web-starter-kit'
p55
tp56
a(S'WebFundamentals'
p57
S'google'
p58
S'google/WebFundamentals'
p59
tp60
a(S'pelican'
p61
S'getpelican'
p62
S'getpelican/pelican'
p63
tp64
a(S'emoji-cheat-sheet.com'
p65
S'arvida'
p66
S'arvida/emoji-cheat-sheet.com'
p67
tp68
a(S'Arduino'
p69
S'arduino'
p70
S'arduino/Arduino'
p71
tp72
a(S'courses'
p73
S'rdpeng'
p74
S'rdpeng/courses'
p75
tp76
a(S'learn'
p77
S'jsbin'
p78
S'jsbin/learn'
p79
tp80
a(S'base16-builder'
p81
S'chriskempson'
p82
S'chriskempson/base16-builder'
p83
tp84
a(S'jquery-treetable'
p85
S'ludo'
p86
S'ludo/jquery-treetable'
p87
tp88
a(S'pathlogger'
p89
S'eugenpirogoff'
p90
S'eugenpirogoff/pathlogger'
p91
tp92
a(S'krakendash'
p93
S'krakendash'
p94
S'krakendash/krakendash'
p95
tp96
a(S'wapuu'
p97
S'jawordpressorg'
p98
S'jawordpressorg/wapuu'
p99
tp100
a(S'FreeCodeCamp'
p101
S'FreeCodeCamp'
p102
S'FreeCodeCamp/FreeCodeCamp'
p103
tp104
a(S'simple-icons'
p105
S'danleech'
p106
S'danleech/simple-icons'
p107
tp108
a(S'zxcvbn'
p109
S'dropbox'
p110
S'dropbox/zxcvbn'
p111
tp112
a(S'Rich-Hickey-fanclub'
p113
S'tallesl'
p114
S'tallesl/Rich-Hickey-fanclub'
p115
tp116
a(S'Font-Awesome'
p117
S'FortAwesome'
p118
S'FortAwesome/Font-Awesome'
p119
tp120
a(S'material-design-icons'
p121
S'google'
p122
S'google/material-design-icons'
p123
tp124
a(S'AdminLTE'
p125
S'almasaeed2010'
p126
S'almasaeed2010/AdminLTE'
p127
tp128
a(S'polymer'
p129
S'Polymer'
p130
S'Polymer/polymer'
p131
tp132
a(S'gson'
p133
S'google'
p134
S'google/gson'
p135
tp136
a(S'walle-web'
p137
S'meolu'
p138
S'meolu/walle-web'
p139
tp140
a(S'angular-seed'
p141
S'angular'
p142
S'angular/angular-seed'
p143
tp144
a(S'learnxinyminutes-docs'
p145
S'adambard'
p146
S'adambard/learnxinyminutes-docs'
p147
tp148
a(S'HackerNewsReader'
p149
S'rnystrom'
p150
S'rnystrom/HackerNewsReader'
p151
tp152
a(S'WebFundamentals'
p153
S'google'
p154
S'google/WebFundamentals'
p155
tp156
a(S'styleguide'
p157
S'google'
p158
S'google/styleguide'
p159
tp160
a(S'fonts'
p161
S'google'
p162
S'google/fonts'
p163
tp164
a(S'js-the-right-way'
p165
S'braziljs'
p166
S'braziljs/js-the-right-way'
p167
tp168
a(S'patchwork'
p169
S'jlord'
p170
S'jlord/patchwork'
p171
tp172
a(S'chosen'
p173
S'harvesthq'
p174
S'harvesthq/chosen'
p175
tp176
a(S'web-starter-kit'
p177
S'google'
p178
S'google/web-starter-kit'
p179
tp180
a(S'3d-touch-canvas'
p181
S'cheeaun'
p182
S'cheeaun/3d-touch-canvas'
p183
tp184
a(S'WeiboPicBed'
p185
S'Suxiaogang'
p186
S'Suxiaogang/WeiboPicBed'
p187
tp188
a(S'source-map-explorer'
p189
S'danvk'
p190
S'danvk/source-map-explorer'
p191
tp192
a(S'uikit'
p193
S'uikit'
p194
S'uikit/uikit'
p195
tp196
a(S'ecma262'
p197
S'tc39'
p198
S'tc39/ecma262'
p199
tp200
a(S'FreeCodeCamp'
p201
S'FreeCodeCamp'
p202
S'FreeCodeCamp/FreeCodeCamp'
p203
tp204
a(S'typebase.css'
p205
S'devinhunt'
p206
S'devinhunt/typebase.css'
p207
tp208
a(S'simple-icons'
p209
S'danleech'
p210
S'danleech/simple-icons'
p211
tp212
a(S'Font-Awesome'
p213
S'FortAwesome'
p214
S'FortAwesome/Font-Awesome'
p215
tp216
a(S'material-design-icons'
p217
S'google'
p218
S'google/material-design-icons'
p219
tp220
a(S'AdminLTE'
p221
S'almasaeed2010'
p222
S'almasaeed2010/AdminLTE'
p223
tp224
a(S'styleguide'
p225
S'google'
p226
S'google/styleguide'
p227
tp228
a(S'zxcvbn'
p229
S'dropbox'
p230
S'dropbox/zxcvbn'
p231
tp232
a(S'learnxinyminutes-docs'
p233
S'adambard'
p234
S'adambard/learnxinyminutes-docs'
p235
tp236
a(S'polymer'
p237
S'Polymer'
p238
S'Polymer/polymer'
p239
tp240
a(S'Rich-Hickey-fanclub'
p241
S'tallesl'
p242
S'tallesl/Rich-Hickey-fanclub'
p243
tp244
a(S'ecma262'
p245
S'tc39'
p246
S'tc39/ecma262'
p247
tp248
a(S'angular-seed'
p249
S'angular'
p250
S'angular/angular-seed'
p251
tp252
a(S'gson'
p253
S'google'
p254
S'google/gson'
p255
tp256
a(S'walle-web'
p257
S'meolu'
p258
S'meolu/walle-web'
p259
tp260
a(S'fonts'
p261
S'google'
p262
S'google/fonts'
p263
tp264
a(S'web-starter-kit'
p265
S'google'
p266
S'google/web-starter-kit'
p267
tp268
a(S'patchwork'
p269
S'jlord'
p270
S'jlord/patchwork'
p271
tp272
a(S'WebFundamentals'
p273
S'google'
p274
S'google/WebFundamentals'
p275
tp276
a(S'TheJavaScriptEncyclopedia'
p277
S'douglascrockford'
p278
S'douglascrockford/TheJavaScriptEncyclopedia'
p279
tp280
a(S'courses'
p281
S'rdpeng'
p282
S'rdpeng/courses'
p283
tp284
a(S'Python-Pedia'
p285
S'Parbhat'
p286
S'Parbhat/Python-Pedia'
p287
tp288
a(S'chosen'
p289
S'harvesthq'
p290
S'harvesthq/chosen'
p291
tp292
a(S'courses'
p293
S'bcaffo'
p294
S'bcaffo/courses'
p295
tp296
a(S'quick-select'
p297
S'eggboxio'
p298
S'eggboxio/quick-select'
p299
tp300
a.