(lp0
(S'pineal'
p1
S'edne'
p2
S'edne/pineal'
p3
tp4
a(S'blender-hylang-live-code'
p5
S'chr15m'
p6
S'chr15m/blender-hylang-live-code'
p7
tp8
a(S'HyREPL'
p9
S'Foxboron'
p10
S'Foxboron/HyREPL'
p11
tp12
a(S'adderall'
p13
S'algernon'
p14
S'algernon/adderall'
p15
tp16
a(S'sushy'
p17
S'rcarmo'
p18
S'rcarmo/sushy'
p19
tp20
a(S'hydiomatic'
p21
S'hylang'
p22
S'hylang/hydiomatic'
p23
tp24
a(S'spectre'
p25
S'bryangarza'
p26
S'bryangarza/spectre'
p27
tp28
a(S'hyskell'
p29
S'kirbyfan64'
p30
S'kirbyfan64/hyskell'
p31
tp32
a(S'hygdrop'
p33
S'hylang'
p34
S'hylang/hygdrop'
p35
tp36
a(S'snitch'
p37
S'paultag'
p38
S'paultag/snitch'
p39
tp40
a(S'hyclops'
p41
S'danneu'
p42
S'danneu/hyclops'
p43
tp44
a(S'python-processor'
p45
S'svetlyak40wt'
p46
S'svetlyak40wt/python-processor'
p47
tp48
a(S'hytest'
p49
S'kirbyfan64'
p50
S'kirbyfan64/hytest'
p51
tp52
a(S'hypo'
p53
S'ryuslash'
p54
S'ryuslash/hypo'
p55
tp56
a(S'hyer'
p57
S'pyx'
p58
S'pyx/hyer'
p59
tp60
a(S'mp_suggest'
p61
S'elfsternberg'
p62
S'elfsternberg/mp_suggest'
p63
tp64
a(S'macros'
p65
S'Hylands'
p66
S'Hylands/macros'
p67
tp68
a(S'imitator'
p69
S'etienneandre'
p70
S'etienneandre/imitator'
p71
tp72
a(S'lenin'
p73
S'paultag'
p74
S'paultag/lenin'
p75
tp76
a(S'acid'
p77
S'paultag'
p78
S'paultag/acid'
p79
tp80
a(S'marx'
p81
S'paultag'
p82
S'paultag/marx'
p83
tp84
a(S'fern'
p85
S'198d'
p86
S'198d/fern'
p87
tp88
a(S'Hywaii'
p89
S'mudphone'
p90
S'mudphone/Hywaii'
p91
tp92
a(S'lysergide'
p93
S'paultag'
p94
S'paultag/lysergide'
p95
tp96
a(S'yesbina'
p97
S'asmundg'
p98
S'asmundg/yesbina'
p99
tp100
a(S'pineal'
p101
S'edne'
p102
S'edne/pineal'
p103
tp104
a(S'blender-hylang-live-code'
p105
S'chr15m'
p106
S'chr15m/blender-hylang-live-code'
p107
tp108
a(S'HyREPL'
p109
S'Foxboron'
p110
S'Foxboron/HyREPL'
p111
tp112
a(S'adderall'
p113
S'algernon'
p114
S'algernon/adderall'
p115
tp116
a(S'sushy'
p117
S'rcarmo'
p118
S'rcarmo/sushy'
p119
tp120
a(S'hydiomatic'
p121
S'hylang'
p122
S'hylang/hydiomatic'
p123
tp124
a(S'spectre'
p125
S'bryangarza'
p126
S'bryangarza/spectre'
p127
tp128
a(S'hyskell'
p129
S'kirbyfan64'
p130
S'kirbyfan64/hyskell'
p131
tp132
a(S'hygdrop'
p133
S'hylang'
p134
S'hylang/hygdrop'
p135
tp136
a(S'snitch'
p137
S'paultag'
p138
S'paultag/snitch'
p139
tp140
a(S'hyclops'
p141
S'danneu'
p142
S'danneu/hyclops'
p143
tp144
a(S'python-processor'
p145
S'svetlyak40wt'
p146
S'svetlyak40wt/python-processor'
p147
tp148
a(S'hytest'
p149
S'kirbyfan64'
p150
S'kirbyfan64/hytest'
p151
tp152
a(S'hypo'
p153
S'ryuslash'
p154
S'ryuslash/hypo'
p155
tp156
a(S'hyer'
p157
S'pyx'
p158
S'pyx/hyer'
p159
tp160
a(S'mp_suggest'
p161
S'elfsternberg'
p162
S'elfsternberg/mp_suggest'
p163
tp164
a(S'macros'
p165
S'Hylands'
p166
S'Hylands/macros'
p167
tp168
a(S'imitator'
p169
S'etienneandre'
p170
S'etienneandre/imitator'
p171
tp172
a(S'lenin'
p173
S'paultag'
p174
S'paultag/lenin'
p175
tp176
a(S'acid'
p177
S'paultag'
p178
S'paultag/acid'
p179
tp180
a(S'marx'
p181
S'paultag'
p182
S'paultag/marx'
p183
tp184
a(S'fern'
p185
S'198d'
p186
S'198d/fern'
p187
tp188
a(S'Hywaii'
p189
S'mudphone'
p190
S'mudphone/Hywaii'
p191
tp192
a(S'lysergide'
p193
S'paultag'
p194
S'paultag/lysergide'
p195
tp196
a(S'yesbina'
p197
S'asmundg'
p198
S'asmundg/yesbina'
p199
tp200
a(S'pineal'
p201
S'edne'
p202
S'edne/pineal'
p203
tp204
a(S'blender-hylang-live-code'
p205
S'chr15m'
p206
S'chr15m/blender-hylang-live-code'
p207
tp208
a(S'HyREPL'
p209
S'Foxboron'
p210
S'Foxboron/HyREPL'
p211
tp212
a(S'adderall'
p213
S'algernon'
p214
S'algernon/adderall'
p215
tp216
a(S'sushy'
p217
S'rcarmo'
p218
S'rcarmo/sushy'
p219
tp220
a(S'hydiomatic'
p221
S'hylang'
p222
S'hylang/hydiomatic'
p223
tp224
a(S'spectre'
p225
S'bryangarza'
p226
S'bryangarza/spectre'
p227
tp228
a(S'hyskell'
p229
S'kirbyfan64'
p230
S'kirbyfan64/hyskell'
p231
tp232
a(S'hygdrop'
p233
S'hylang'
p234
S'hylang/hygdrop'
p235
tp236
a(S'snitch'
p237
S'paultag'
p238
S'paultag/snitch'
p239
tp240
a(S'hyclops'
p241
S'danneu'
p242
S'danneu/hyclops'
p243
tp244
a(S'python-processor'
p245
S'svetlyak40wt'
p246
S'svetlyak40wt/python-processor'
p247
tp248
a(S'hytest'
p249
S'kirbyfan64'
p250
S'kirbyfan64/hytest'
p251
tp252
a(S'hypo'
p253
S'ryuslash'
p254
S'ryuslash/hypo'
p255
tp256
a(S'hyer'
p257
S'pyx'
p258
S'pyx/hyer'
p259
tp260
a(S'mp_suggest'
p261
S'elfsternberg'
p262
S'elfsternberg/mp_suggest'
p263
tp264
a(S'macros'
p265
S'Hylands'
p266
S'Hylands/macros'
p267
tp268
a(S'imitator'
p269
S'etienneandre'
p270
S'etienneandre/imitator'
p271
tp272
a(S'lenin'
p273
S'paultag'
p274
S'paultag/lenin'
p275
tp276
a(S'acid'
p277
S'paultag'
p278
S'paultag/acid'
p279
tp280
a(S'marx'
p281
S'paultag'
p282
S'paultag/marx'
p283
tp284
a(S'fern'
p285
S'198d'
p286
S'198d/fern'
p287
tp288
a(S'Hywaii'
p289
S'mudphone'
p290
S'mudphone/Hywaii'
p291
tp292
a(S'lysergide'
p293
S'paultag'
p294
S'paultag/lysergide'
p295
tp296
a(S'yesbina'
p297
S'asmundg'
p298
S'asmundg/yesbina'
p299
tp300
a.