(lp0
(S'influenza_pH1N1_timecourse'
p1
S'wilkelab'
p2
S'wilkelab/influenza_pH1N1_timecourse'
p3
tp4
a(S'tsk4j'
p5
S'uw-dims'
p6
S'uw-dims/tsk4j'
p7
tp8
a(S'hiv_structural_determinants'
p9
S'ausmeyer'
p10
S'ausmeyer/hiv_structural_determinants'
p11
tp12
a(S'hiv_structural_determinants-paper-now'
p13
S'ausmeyer'
p14
S'ausmeyer/hiv_structural_determinants-paper-now'
p15
tp16
a(S'hyphy-support'
p17
S'spond'
p18
S'spond/hyphy-support'
p19
tp20
a(S'Yiayias'
p21
S'dylanaraps'
p22
S'dylanaraps/Yiayias'
p23
tp24
a(S'befunge'
p25
S'mikota'
p26
S'mikota/befunge'
p27
tp28
a(S'influenza_pH1N1_timecourse'
p29
S'wilkelab'
p30
S'wilkelab/influenza_pH1N1_timecourse'
p31
tp32
a(S'tsk4j'
p33
S'uw-dims'
p34
S'uw-dims/tsk4j'
p35
tp36
a(S'hiv_structural_determinants'
p37
S'ausmeyer'
p38
S'ausmeyer/hiv_structural_determinants'
p39
tp40
a(S'hiv_structural_determinants-paper-now'
p41
S'ausmeyer'
p42
S'ausmeyer/hiv_structural_determinants-paper-now'
p43
tp44
a(S'hyphy-support'
p45
S'spond'
p46
S'spond/hyphy-support'
p47
tp48
a(S'Yiayias'
p49
S'dylanaraps'
p50
S'dylanaraps/Yiayias'
p51
tp52
a(S'befunge'
p53
S'mikota'
p54
S'mikota/befunge'
p55
tp56
a(S'influenza_pH1N1_timecourse'
p57
S'wilkelab'
p58
S'wilkelab/influenza_pH1N1_timecourse'
p59
tp60
a(S'tsk4j'
p61
S'uw-dims'
p62
S'uw-dims/tsk4j'
p63
tp64
a(S'hiv_structural_determinants'
p65
S'ausmeyer'
p66
S'ausmeyer/hiv_structural_determinants'
p67
tp68
a(S'hiv_structural_determinants-paper-now'
p69
S'ausmeyer'
p70
S'ausmeyer/hiv_structural_determinants-paper-now'
p71
tp72
a(S'hyphy-support'
p73
S'spond'
p74
S'spond/hyphy-support'
p75
tp76
a(S'Yiayias'
p77
S'dylanaraps'
p78
S'dylanaraps/Yiayias'
p79
tp80
a(S'befunge'
p81
S'mikota'
p82
S'mikota/befunge'
p83
tp84
a.