(lp0
(S'android-proguard-snippets'
p1
S'krschultz'
p2
S'krschultz/android-proguard-snippets'
p3
tp4
a(S'boards'
p5
S'guanix'
p6
S'guanix/boards'
p7
tp8
a(S'IDLAstro'
p9
S'wlandsman'
p10
S'wlandsman/IDLAstro'
p11
tp12
a(S'NanoFury'
p13
S'nanofury'
p14
S'nanofury/NanoFury'
p15
tp16
a(S'KiCAD-Keyboard-Tutorial'
p17
S'BathroomEpiphanies'
p18
S'BathroomEpiphanies/KiCAD-Keyboard-Tutorial'
p19
tp20
a(S'gpibusb-pcb'
p21
S'Galvant'
p22
S'Galvant/gpibusb-pcb'
p23
tp24
a(S'usb_wrapper-pcb'
p25
S'Galvant'
p26
S'Galvant/usb_wrapper-pcb'
p27
tp28
a(S'FlyingBone'
p29
S'piranha32'
p30
S'piranha32/FlyingBone'
p31
tp32
a(S'pbi'
p33
S'pcbsd'
p34
S'pcbsd/pbi'
p35
tp36
a(S'AVRISP'
p37
S'phenoptix'
p38
S'phenoptix/AVRISP'
p39
tp40
a(S'BeagleDancer'
p41
S'dominicgs'
p42
S'dominicgs/BeagleDancer'
p43
tp44
a(S'4x6'
p45
S'regack'
p46
S'regack/4x6'
p47
tp48
a(S'lx9'
p49
S'makestuff'
p50
S'makestuff/lx9'
p51
tp52
a(S'mglib'
p53
S'mgalloy'
p54
S'mgalloy/mglib'
p55
tp56
a(S'poppy-electronics'
p57
S'poppy-project'
p58
S'poppy-project/poppy-electronics'
p59
tp60
a(S'Parallella-RF'
p61
S'myriadrf'
p62
S'myriadrf/Parallella-RF'
p63
tp64
a(S'mr_radar'
p65
S'loxodes'
p66
S'loxodes/mr_radar'
p67
tp68
a(S'LandTrendr-2012'
p69
S'KennedyResearch'
p70
S'KennedyResearch/LandTrendr-2012'
p71
tp72
a(S'eagle'
p73
S'simonmonk'
p74
S'simonmonk/eagle'
p75
tp76
a(S'qtcreator-project-structure'
p77
S'FSund'
p78
S'FSund/qtcreator-project-structure'
p79
tp80
a(S'MCTK'
p81
S'dawhite'
p82
S'dawhite/MCTK'
p83
tp84
a(S'mgunit'
p85
S'mgalloy'
p86
S'mgalloy/mgunit'
p87
tp88
a(S'ofqmake'
p89
S'samdraz'
p90
S'samdraz/ofqmake'
p91
tp92
a(S'XpressoSmoothie'
p93
S'TopherMan'
p94
S'TopherMan/XpressoSmoothie'
p95
tp96
a(S'RFM69BreakoutBoard'
p97
S'BitKnitting'
p98
S'BitKnitting/RFM69BreakoutBoard'
p99
tp100
a(S'android-proguard-snippets'
p101
S'krschultz'
p102
S'krschultz/android-proguard-snippets'
p103
tp104
a(S'boards'
p105
S'guanix'
p106
S'guanix/boards'
p107
tp108
a(S'IDLAstro'
p109
S'wlandsman'
p110
S'wlandsman/IDLAstro'
p111
tp112
a(S'NanoFury'
p113
S'nanofury'
p114
S'nanofury/NanoFury'
p115
tp116
a(S'gpibusb-pcb'
p117
S'Galvant'
p118
S'Galvant/gpibusb-pcb'
p119
tp120
a(S'KiCAD-Keyboard-Tutorial'
p121
S'BathroomEpiphanies'
p122
S'BathroomEpiphanies/KiCAD-Keyboard-Tutorial'
p123
tp124
a(S'usb_wrapper-pcb'
p125
S'Galvant'
p126
S'Galvant/usb_wrapper-pcb'
p127
tp128
a(S'FlyingBone'
p129
S'piranha32'
p130
S'piranha32/FlyingBone'
p131
tp132
a(S'pbi'
p133
S'pcbsd'
p134
S'pcbsd/pbi'
p135
tp136
a(S'AVRISP'
p137
S'phenoptix'
p138
S'phenoptix/AVRISP'
p139
tp140
a(S'BeagleDancer'
p141
S'dominicgs'
p142
S'dominicgs/BeagleDancer'
p143
tp144
a(S'lx9'
p145
S'makestuff'
p146
S'makestuff/lx9'
p147
tp148
a(S'4x6'
p149
S'regack'
p150
S'regack/4x6'
p151
tp152
a(S'mglib'
p153
S'mgalloy'
p154
S'mgalloy/mglib'
p155
tp156
a(S'poppy-electronics'
p157
S'poppy-project'
p158
S'poppy-project/poppy-electronics'
p159
tp160
a(S'Parallella-RF'
p161
S'myriadrf'
p162
S'myriadrf/Parallella-RF'
p163
tp164
a(S'LandTrendr-2012'
p165
S'KennedyResearch'
p166
S'KennedyResearch/LandTrendr-2012'
p167
tp168
a(S'mr_radar'
p169
S'loxodes'
p170
S'loxodes/mr_radar'
p171
tp172
a(S'eagle'
p173
S'simonmonk'
p174
S'simonmonk/eagle'
p175
tp176
a(S'mgunit'
p177
S'mgalloy'
p178
S'mgalloy/mgunit'
p179
tp180
a(S'qtcreator-project-structure'
p181
S'FSund'
p182
S'FSund/qtcreator-project-structure'
p183
tp184
a(S'ofqmake'
p185
S'samdraz'
p186
S'samdraz/ofqmake'
p187
tp188
a(S'MCTK'
p189
S'dawhite'
p190
S'dawhite/MCTK'
p191
tp192
a(S'XpressoSmoothie'
p193
S'TopherMan'
p194
S'TopherMan/XpressoSmoothie'
p195
tp196
a(S'SDR'
p197
S'bmazin'
p198
S'bmazin/SDR'
p199
tp200
a(S'android-proguard-snippets'
p201
S'krschultz'
p202
S'krschultz/android-proguard-snippets'
p203
tp204
a(S'boards'
p205
S'guanix'
p206
S'guanix/boards'
p207
tp208
a(S'IDLAstro'
p209
S'wlandsman'
p210
S'wlandsman/IDLAstro'
p211
tp212
a(S'NanoFury'
p213
S'nanofury'
p214
S'nanofury/NanoFury'
p215
tp216
a(S'gpibusb-pcb'
p217
S'Galvant'
p218
S'Galvant/gpibusb-pcb'
p219
tp220
a(S'KiCAD-Keyboard-Tutorial'
p221
S'BathroomEpiphanies'
p222
S'BathroomEpiphanies/KiCAD-Keyboard-Tutorial'
p223
tp224
a(S'usb_wrapper-pcb'
p225
S'Galvant'
p226
S'Galvant/usb_wrapper-pcb'
p227
tp228
a(S'FlyingBone'
p229
S'piranha32'
p230
S'piranha32/FlyingBone'
p231
tp232
a(S'pbi'
p233
S'pcbsd'
p234
S'pcbsd/pbi'
p235
tp236
a(S'AVRISP'
p237
S'phenoptix'
p238
S'phenoptix/AVRISP'
p239
tp240
a(S'BeagleDancer'
p241
S'dominicgs'
p242
S'dominicgs/BeagleDancer'
p243
tp244
a(S'lx9'
p245
S'makestuff'
p246
S'makestuff/lx9'
p247
tp248
a(S'4x6'
p249
S'regack'
p250
S'regack/4x6'
p251
tp252
a(S'mglib'
p253
S'mgalloy'
p254
S'mgalloy/mglib'
p255
tp256
a(S'poppy-electronics'
p257
S'poppy-project'
p258
S'poppy-project/poppy-electronics'
p259
tp260
a(S'Parallella-RF'
p261
S'myriadrf'
p262
S'myriadrf/Parallella-RF'
p263
tp264
a(S'LandTrendr-2012'
p265
S'KennedyResearch'
p266
S'KennedyResearch/LandTrendr-2012'
p267
tp268
a(S'mr_radar'
p269
S'loxodes'
p270
S'loxodes/mr_radar'
p271
tp272
a(S'eagle'
p273
S'simonmonk'
p274
S'simonmonk/eagle'
p275
tp276
a(S'mgunit'
p277
S'mgalloy'
p278
S'mgalloy/mgunit'
p279
tp280
a(S'qtcreator-project-structure'
p281
S'FSund'
p282
S'FSund/qtcreator-project-structure'
p283
tp284
a(S'ofqmake'
p285
S'samdraz'
p286
S'samdraz/ofqmake'
p287
tp288
a(S'MCTK'
p289
S'dawhite'
p290
S'dawhite/MCTK'
p291
tp292
a(S'XpressoSmoothie'
p293
S'TopherMan'
p294
S'TopherMan/XpressoSmoothie'
p295
tp296
a(S'SDR'
p297
S'bmazin'
p298
S'bmazin/SDR'
p299
tp300
a.