(lp0
(S'iridium'
p1
S'puffnfresh'
p2
S'puffnfresh/iridium'
p3
tp4
a(S'idris2048'
p5
S'KesterTong'
p6
S'KesterTong/idris2048'
p7
tp8
a(S'idris-demos'
p9
S'edwinb'
p10
S'edwinb/idris-demos'
p11
tp12
a(S'quantities'
p13
S'timjb'
p14
S'timjb/quantities'
p15
tp16
a(S'idris-koans'
p17
S'idris-hackers'
p18
S'idris-hackers/idris-koans'
p19
tp20
a(S'lightyear'
p21
S'ziman'
p22
S'ziman/lightyear'
p23
tp24
a(S'idris-crypto'
p25
S'idris-hackers'
p26
S'idris-hackers/idris-crypto'
p27
tp28
a(S'IdrisNet2'
p29
S'SimonJF'
p30
S'SimonJF/IdrisNet2'
p31
tp32
a(S'idris101'
p33
S'ToJans'
p34
S'ToJans/idris101'
p35
tp36
a(S'idris-type-providers'
p37
S'david-christiansen'
p38
S'david-christiansen/idris-type-providers'
p39
tp40
a(S'HoTT-Idris'
p41
S'fmota'
p42
S'fmota/HoTT-Idris'
p43
tp44
a(S'SDL-idris'
p45
S'edwinb'
p46
S'edwinb/SDL-idris'
p47
tp48
a(S'iQuery'
p49
S'idris-hackers'
p50
S'idris-hackers/iQuery'
p51
tp52
a(S'IdrisAtGalois2015'
p53
S'david-christiansen'
p54
S'david-christiansen/IdrisAtGalois2015'
p55
tp56
a(S'IdrisScript'
p57
S'idris-hackers'
p58
S'idris-hackers/IdrisScript'
p59
tp60
a(S'idris-quickcheck'
p61
S'david-christiansen'
p62
S'david-christiansen/idris-quickcheck'
p63
tp64
a(S'IdrisSqlite'
p65
S'david-christiansen'
p66
S'david-christiansen/IdrisSqlite'
p67
tp68
a(S'tarts'
p69
S'japesinator'
p70
S'japesinator/tarts'
p71
tp72
a(S'IdrisObjCExperiment'
p73
S'andyarvanitis'
p74
S'andyarvanitis/IdrisObjCExperiment'
p75
tp76
a(S'WS-idr'
p77
S'edwinb'
p78
S'edwinb/WS-idr'
p79
tp80
a(S'idris-blink'
p81
S'stepcut'
p82
S'stepcut/idris-blink'
p83
tp84
a(S'Verified'
p85
S'reynir'
p86
S'reynir/Verified'
p87
tp88
a(S'idris-cph-exercises'
p89
S'idris-hackers'
p90
S'idris-hackers/idris-cph-exercises'
p91
tp92
a(S'bam-idris-blog'
p93
S'puffnfresh'
p94
S'puffnfresh/bam-idris-blog'
p95
tp96
a(S'Idris-WebGL'
p97
S'MaxOw'
p98
S'MaxOw/Idris-WebGL'
p99
tp100
a(S'iridium'
p101
S'puffnfresh'
p102
S'puffnfresh/iridium'
p103
tp104
a(S'idris2048'
p105
S'KesterTong'
p106
S'KesterTong/idris2048'
p107
tp108
a(S'idris-demos'
p109
S'edwinb'
p110
S'edwinb/idris-demos'
p111
tp112
a(S'quantities'
p113
S'timjb'
p114
S'timjb/quantities'
p115
tp116
a(S'idris-koans'
p117
S'idris-hackers'
p118
S'idris-hackers/idris-koans'
p119
tp120
a(S'lightyear'
p121
S'ziman'
p122
S'ziman/lightyear'
p123
tp124
a(S'idris-crypto'
p125
S'idris-hackers'
p126
S'idris-hackers/idris-crypto'
p127
tp128
a(S'IdrisNet2'
p129
S'SimonJF'
p130
S'SimonJF/IdrisNet2'
p131
tp132
a(S'idris101'
p133
S'ToJans'
p134
S'ToJans/idris101'
p135
tp136
a(S'idris-type-providers'
p137
S'david-christiansen'
p138
S'david-christiansen/idris-type-providers'
p139
tp140
a(S'HoTT-Idris'
p141
S'fmota'
p142
S'fmota/HoTT-Idris'
p143
tp144
a(S'SDL-idris'
p145
S'edwinb'
p146
S'edwinb/SDL-idris'
p147
tp148
a(S'iQuery'
p149
S'idris-hackers'
p150
S'idris-hackers/iQuery'
p151
tp152
a(S'IdrisAtGalois2015'
p153
S'david-christiansen'
p154
S'david-christiansen/IdrisAtGalois2015'
p155
tp156
a(S'IdrisScript'
p157
S'idris-hackers'
p158
S'idris-hackers/IdrisScript'
p159
tp160
a(S'idris-quickcheck'
p161
S'david-christiansen'
p162
S'david-christiansen/idris-quickcheck'
p163
tp164
a(S'IdrisSqlite'
p165
S'david-christiansen'
p166
S'david-christiansen/IdrisSqlite'
p167
tp168
a(S'tarts'
p169
S'japesinator'
p170
S'japesinator/tarts'
p171
tp172
a(S'IdrisObjCExperiment'
p173
S'andyarvanitis'
p174
S'andyarvanitis/IdrisObjCExperiment'
p175
tp176
a(S'WS-idr'
p177
S'edwinb'
p178
S'edwinb/WS-idr'
p179
tp180
a(S'idris-blink'
p181
S'stepcut'
p182
S'stepcut/idris-blink'
p183
tp184
a(S'Verified'
p185
S'reynir'
p186
S'reynir/Verified'
p187
tp188
a(S'idris-cph-exercises'
p189
S'idris-hackers'
p190
S'idris-hackers/idris-cph-exercises'
p191
tp192
a(S'bam-idris-blog'
p193
S'puffnfresh'
p194
S'puffnfresh/bam-idris-blog'
p195
tp196
a(S'Idris-WebGL'
p197
S'MaxOw'
p198
S'MaxOw/Idris-WebGL'
p199
tp200
a(S'iridium'
p201
S'puffnfresh'
p202
S'puffnfresh/iridium'
p203
tp204
a(S'idris2048'
p205
S'KesterTong'
p206
S'KesterTong/idris2048'
p207
tp208
a(S'idris-demos'
p209
S'edwinb'
p210
S'edwinb/idris-demos'
p211
tp212
a(S'quantities'
p213
S'timjb'
p214
S'timjb/quantities'
p215
tp216
a(S'idris-koans'
p217
S'idris-hackers'
p218
S'idris-hackers/idris-koans'
p219
tp220
a(S'lightyear'
p221
S'ziman'
p222
S'ziman/lightyear'
p223
tp224
a(S'idris-crypto'
p225
S'idris-hackers'
p226
S'idris-hackers/idris-crypto'
p227
tp228
a(S'IdrisNet2'
p229
S'SimonJF'
p230
S'SimonJF/IdrisNet2'
p231
tp232
a(S'idris101'
p233
S'ToJans'
p234
S'ToJans/idris101'
p235
tp236
a(S'idris-type-providers'
p237
S'david-christiansen'
p238
S'david-christiansen/idris-type-providers'
p239
tp240
a(S'HoTT-Idris'
p241
S'fmota'
p242
S'fmota/HoTT-Idris'
p243
tp244
a(S'SDL-idris'
p245
S'edwinb'
p246
S'edwinb/SDL-idris'
p247
tp248
a(S'iQuery'
p249
S'idris-hackers'
p250
S'idris-hackers/iQuery'
p251
tp252
a(S'IdrisAtGalois2015'
p253
S'david-christiansen'
p254
S'david-christiansen/IdrisAtGalois2015'
p255
tp256
a(S'IdrisScript'
p257
S'idris-hackers'
p258
S'idris-hackers/IdrisScript'
p259
tp260
a(S'idris-quickcheck'
p261
S'david-christiansen'
p262
S'david-christiansen/idris-quickcheck'
p263
tp264
a(S'IdrisSqlite'
p265
S'david-christiansen'
p266
S'david-christiansen/IdrisSqlite'
p267
tp268
a(S'tarts'
p269
S'japesinator'
p270
S'japesinator/tarts'
p271
tp272
a(S'IdrisObjCExperiment'
p273
S'andyarvanitis'
p274
S'andyarvanitis/IdrisObjCExperiment'
p275
tp276
a(S'WS-idr'
p277
S'edwinb'
p278
S'edwinb/WS-idr'
p279
tp280
a(S'idris-blink'
p281
S'stepcut'
p282
S'stepcut/idris-blink'
p283
tp284
a(S'Verified'
p285
S'reynir'
p286
S'reynir/Verified'
p287
tp288
a(S'idris-cph-exercises'
p289
S'idris-hackers'
p290
S'idris-hackers/idris-cph-exercises'
p291
tp292
a(S'bam-idris-blog'
p293
S'puffnfresh'
p294
S'puffnfresh/bam-idris-blog'
p295
tp296
a(S'Idris-WebGL'
p297
S'MaxOw'
p298
S'MaxOw/Idris-WebGL'
p299
tp300
a.