(lp0
(S'igorutils'
p1
S'yamad'
p2
S'yamad/igorutils'
p3
tp4
a(S'DataPro'
p5
S'JaneliaSciComp'
p6
S'JaneliaSciComp/DataPro'
p7
tp8
a(S'igor-snippets'
p9
S'wwzhang'
p10
S'wwzhang/igor-snippets'
p11
tp12
a(S'ConMatNMRPro'
p13
S'ammounce'
p14
S'ammounce/ConMatNMRPro'
p15
tp16
a(S'Igor'
p17
S'paul-voyles'
p18
S'paul-voyles/Igor'
p19
tp20
a(S'importtool'
p21
S'Yohko'
p22
S'Yohko/importtool'
p23
tp24
a(S'igor'
p25
S'baccuslab'
p26
S'baccuslab/igor'
p27
tp28
a(S'matrix-overview-printer'
p29
S'carlodri'
p30
S'carlodri/matrix-overview-printer'
p31
tp32
a(S'APP-SERVER-WebFamilyTree'
p33
S'OS2World'
p34
S'OS2World/APP-SERVER-WebFamilyTree'
p35
tp36
a(S'motofit'
p37
S'andyfaff'
p38
S'andyfaff/motofit'
p39
tp40
a(S'Schroedinger_SOLVER-IgorPRO'
p41
S'chumo'
p42
S'chumo/Schroedinger_SOLVER-IgorPRO'
p43
tp44
a(S'Specs2WSXM'
p45
S'chumo'
p46
S'chumo/Specs2WSXM'
p47
tp48
a(S'G.A.M.E.'
p49
S'chumo'
p50
S'chumo/G.A.M.E.'
p51
tp52
a(S'IGOR_functions'
p53
S'KasHir'
p54
S'KasHir/IGOR_functions'
p55
tp56
a(S'lt-igor'
p57
S'baccan0'
p58
S'baccan0/lt-igor'
p59
tp60
a(S'Igor-Pro-procedures'
p61
S'comptech'
p62
S'comptech/Igor-Pro-procedures'
p63
tp64
a(S'UTIL-DISK-hfsinst'
p65
S'OS2World'
p66
S'OS2World/UTIL-DISK-hfsinst'
p67
tp68
a(S'LaueGo'
p69
S'34IDE'
p70
S'34IDE/LaueGo'
p71
tp72
a(S'srs-igor'
p73
S'dleifohcs'
p74
S'dleifohcs/srs-igor'
p75
tp76
a(S'Corduroy'
p77
S'dudmanj'
p78
S'dudmanj/Corduroy'
p79
tp80
a(S'ver.Current'
p81
S'gji'
p82
S'gji/ver.Current'
p83
tp84
a(S'Linescan-panel-Igor'
p85
S'atranvan'
p86
S'atranvan/Linescan-panel-Igor'
p87
tp88
a(S'sr-scripts'
p89
S'JQIamo'
p90
S'JQIamo/sr-scripts'
p91
tp92
a(S'atom-interferometry'
p93
S'wholmgren'
p94
S'wholmgren/atom-interferometry'
p95
tp96
a(S'xy_fit_pow'
p97
S'yyu1'
p98
S'yyu1/xy_fit_pow'
p99
tp100
a(S'igorutils'
p101
S'yamad'
p102
S'yamad/igorutils'
p103
tp104
a(S'DataPro'
p105
S'JaneliaSciComp'
p106
S'JaneliaSciComp/DataPro'
p107
tp108
a(S'igor-snippets'
p109
S'wwzhang'
p110
S'wwzhang/igor-snippets'
p111
tp112
a(S'ConMatNMRPro'
p113
S'ammounce'
p114
S'ammounce/ConMatNMRPro'
p115
tp116
a(S'Igor'
p117
S'paul-voyles'
p118
S'paul-voyles/Igor'
p119
tp120
a(S'importtool'
p121
S'Yohko'
p122
S'Yohko/importtool'
p123
tp124
a(S'igor'
p125
S'baccuslab'
p126
S'baccuslab/igor'
p127
tp128
a(S'matrix-overview-printer'
p129
S'carlodri'
p130
S'carlodri/matrix-overview-printer'
p131
tp132
a(S'APP-SERVER-WebFamilyTree'
p133
S'OS2World'
p134
S'OS2World/APP-SERVER-WebFamilyTree'
p135
tp136
a(S'motofit'
p137
S'andyfaff'
p138
S'andyfaff/motofit'
p139
tp140
a(S'Schroedinger_SOLVER-IgorPRO'
p141
S'chumo'
p142
S'chumo/Schroedinger_SOLVER-IgorPRO'
p143
tp144
a(S'Specs2WSXM'
p145
S'chumo'
p146
S'chumo/Specs2WSXM'
p147
tp148
a(S'G.A.M.E.'
p149
S'chumo'
p150
S'chumo/G.A.M.E.'
p151
tp152
a(S'IGOR_functions'
p153
S'KasHir'
p154
S'KasHir/IGOR_functions'
p155
tp156
a(S'lt-igor'
p157
S'baccan0'
p158
S'baccan0/lt-igor'
p159
tp160
a(S'Igor-Pro-procedures'
p161
S'comptech'
p162
S'comptech/Igor-Pro-procedures'
p163
tp164
a(S'UTIL-DISK-hfsinst'
p165
S'OS2World'
p166
S'OS2World/UTIL-DISK-hfsinst'
p167
tp168
a(S'LaueGo'
p169
S'34IDE'
p170
S'34IDE/LaueGo'
p171
tp172
a(S'srs-igor'
p173
S'dleifohcs'
p174
S'dleifohcs/srs-igor'
p175
tp176
a(S'Corduroy'
p177
S'dudmanj'
p178
S'dudmanj/Corduroy'
p179
tp180
a(S'ver.Current'
p181
S'gji'
p182
S'gji/ver.Current'
p183
tp184
a(S'Linescan-panel-Igor'
p185
S'atranvan'
p186
S'atranvan/Linescan-panel-Igor'
p187
tp188
a(S'sr-scripts'
p189
S'JQIamo'
p190
S'JQIamo/sr-scripts'
p191
tp192
a(S'atom-interferometry'
p193
S'wholmgren'
p194
S'wholmgren/atom-interferometry'
p195
tp196
a(S'xy_fit_pow'
p197
S'yyu1'
p198
S'yyu1/xy_fit_pow'
p199
tp200
a(S'igorutils'
p201
S'yamad'
p202
S'yamad/igorutils'
p203
tp204
a(S'DataPro'
p205
S'JaneliaSciComp'
p206
S'JaneliaSciComp/DataPro'
p207
tp208
a(S'igor-snippets'
p209
S'wwzhang'
p210
S'wwzhang/igor-snippets'
p211
tp212
a(S'ConMatNMRPro'
p213
S'ammounce'
p214
S'ammounce/ConMatNMRPro'
p215
tp216
a(S'Igor'
p217
S'paul-voyles'
p218
S'paul-voyles/Igor'
p219
tp220
a(S'importtool'
p221
S'Yohko'
p222
S'Yohko/importtool'
p223
tp224
a(S'igor'
p225
S'baccuslab'
p226
S'baccuslab/igor'
p227
tp228
a(S'matrix-overview-printer'
p229
S'carlodri'
p230
S'carlodri/matrix-overview-printer'
p231
tp232
a(S'APP-SERVER-WebFamilyTree'
p233
S'OS2World'
p234
S'OS2World/APP-SERVER-WebFamilyTree'
p235
tp236
a(S'motofit'
p237
S'andyfaff'
p238
S'andyfaff/motofit'
p239
tp240
a(S'Schroedinger_SOLVER-IgorPRO'
p241
S'chumo'
p242
S'chumo/Schroedinger_SOLVER-IgorPRO'
p243
tp244
a(S'Specs2WSXM'
p245
S'chumo'
p246
S'chumo/Specs2WSXM'
p247
tp248
a(S'G.A.M.E.'
p249
S'chumo'
p250
S'chumo/G.A.M.E.'
p251
tp252
a(S'IGOR_functions'
p253
S'KasHir'
p254
S'KasHir/IGOR_functions'
p255
tp256
a(S'lt-igor'
p257
S'baccan0'
p258
S'baccan0/lt-igor'
p259
tp260
a(S'Igor-Pro-procedures'
p261
S'comptech'
p262
S'comptech/Igor-Pro-procedures'
p263
tp264
a(S'UTIL-DISK-hfsinst'
p265
S'OS2World'
p266
S'OS2World/UTIL-DISK-hfsinst'
p267
tp268
a(S'LaueGo'
p269
S'34IDE'
p270
S'34IDE/LaueGo'
p271
tp272
a(S'srs-igor'
p273
S'dleifohcs'
p274
S'dleifohcs/srs-igor'
p275
tp276
a(S'Corduroy'
p277
S'dudmanj'
p278
S'dudmanj/Corduroy'
p279
tp280
a(S'ver.Current'
p281
S'gji'
p282
S'gji/ver.Current'
p283
tp284
a(S'Linescan-panel-Igor'
p285
S'atranvan'
p286
S'atranvan/Linescan-panel-Igor'
p287
tp288
a(S'sr-scripts'
p289
S'JQIamo'
p290
S'JQIamo/sr-scripts'
p291
tp292
a(S'atom-interferometry'
p293
S'wholmgren'
p294
S'wholmgren/atom-interferometry'
p295
tp296
a(S'xy_fit_pow'
p297
S'yyu1'
p298
S'yyu1/xy_fit_pow'
p299
tp300
a.