(lp0
(S'Flexible-Survival'
p1
S'Nuku'
p2
S'Nuku/Flexible-Survival'
p3
tp4
a(S'kerkerkruip'
p5
S'i7'
p6
S'i7/kerkerkruip'
p7
tp8
a(S'extensions'
p9
S'i7'
p10
S'i7/extensions'
p11
tp12
a(S'archive'
p13
S'i7'
p14
S'i7/archive'
p15
tp16
a(S'strangeloop2014'
p17
S'lealbaugh'
p18
S'lealbaugh/strangeloop2014'
p19
tp20
a(S'I7-2014-Spanish'
p21
S'sarganar'
p22
S'sarganar/I7-2014-Spanish'
p23
tp24
a(S'red-herrings'
p25
S'BartMassey'
p26
S'BartMassey/red-herrings'
p27
tp28
a(S'Flexible-Survival'
p29
S'TigerStripes'
p30
S'TigerStripes/Flexible-Survival'
p31
tp32
a(S'ATTACK'
p33
S'i7'
p34
S'i7/ATTACK'
p35
tp36
a(S'Flexible-Survival'
p37
S'Kyvi-Stormbreaker'
p38
S'Kyvi-Stormbreaker/Flexible-Survival'
p39
tp40
a(S'i7-exts'
p41
S'erkyrath'
p42
S'erkyrath/i7-exts'
p43
tp44
a(S'inform7game'
p45
S'guyfleeman'
p46
S'guyfleeman/inform7game'
p47
tp48
a(S'FlexibleSurvival-2.0'
p49
S'dantheman629'
p50
S'dantheman629/FlexibleSurvival-2.0'
p51
tp52
a(S'sparkle'
p53
S'juhana'
p54
S'juhana/sparkle'
p55
tp56
a(S'i7-spanish'
p57
S'matias-biato'
p58
S'matias-biato/i7-spanish'
p59
tp60
a(S'A-Day-in-the-Life-of-a-Teenage-Wizard'
p61
S'jkunimune15'
p62
S'jkunimune15/A-Day-in-the-Life-of-a-Teenage-Wizard'
p63
tp64
a(S'Flexible-Survival'
p65
S'Kasirith'
p66
S'Kasirith/Flexible-Survival'
p67
tp68
a(S'bitwise'
p69
S'BartMassey'
p70
S'BartMassey/bitwise'
p71
tp72
a(S'fyrevm-web'
p73
S'ChicagoDave'
p74
S'ChicagoDave/fyrevm-web'
p75
tp76
a(S'AIF'
p77
S'FictitiousFrode'
p78
S'FictitiousFrode/AIF'
p79
tp80
a(S'exquisite-corpse'
p81
S'EverybodyIF'
p82
S'EverybodyIF/exquisite-corpse'
p83
tp84
a(S'Gamedev'
p85
S'cody-c'
p86
S'cody-c/Gamedev'
p87
tp88
a(S'textfyre'
p89
S'ChicagoDave'
p90
S'ChicagoDave/textfyre'
p91
tp92
a(S'glimmr-i7x'
p93
S'ektemple'
p94
S'ektemple/glimmr-i7x'
p95
tp96
a(S'Time-Troubles'
p97
S'devonlee111'
p98
S'devonlee111/Time-Troubles'
p99
tp100
a(S'Flexible-Survival'
p101
S'Nuku'
p102
S'Nuku/Flexible-Survival'
p103
tp104
a(S'kerkerkruip'
p105
S'i7'
p106
S'i7/kerkerkruip'
p107
tp108
a(S'extensions'
p109
S'i7'
p110
S'i7/extensions'
p111
tp112
a(S'archive'
p113
S'i7'
p114
S'i7/archive'
p115
tp116
a(S'strangeloop2014'
p117
S'lealbaugh'
p118
S'lealbaugh/strangeloop2014'
p119
tp120
a(S'I7-2014-Spanish'
p121
S'sarganar'
p122
S'sarganar/I7-2014-Spanish'
p123
tp124
a(S'red-herrings'
p125
S'BartMassey'
p126
S'BartMassey/red-herrings'
p127
tp128
a(S'Flexible-Survival'
p129
S'TigerStripes'
p130
S'TigerStripes/Flexible-Survival'
p131
tp132
a(S'ATTACK'
p133
S'i7'
p134
S'i7/ATTACK'
p135
tp136
a(S'Flexible-Survival'
p137
S'Kyvi-Stormbreaker'
p138
S'Kyvi-Stormbreaker/Flexible-Survival'
p139
tp140
a(S'i7-exts'
p141
S'erkyrath'
p142
S'erkyrath/i7-exts'
p143
tp144
a(S'inform7game'
p145
S'guyfleeman'
p146
S'guyfleeman/inform7game'
p147
tp148
a(S'FlexibleSurvival-2.0'
p149
S'dantheman629'
p150
S'dantheman629/FlexibleSurvival-2.0'
p151
tp152
a(S'sparkle'
p153
S'juhana'
p154
S'juhana/sparkle'
p155
tp156
a(S'i7-spanish'
p157
S'matias-biato'
p158
S'matias-biato/i7-spanish'
p159
tp160
a(S'A-Day-in-the-Life-of-a-Teenage-Wizard'
p161
S'jkunimune15'
p162
S'jkunimune15/A-Day-in-the-Life-of-a-Teenage-Wizard'
p163
tp164
a(S'Flexible-Survival'
p165
S'Kasirith'
p166
S'Kasirith/Flexible-Survival'
p167
tp168
a(S'bitwise'
p169
S'BartMassey'
p170
S'BartMassey/bitwise'
p171
tp172
a(S'fyrevm-web'
p173
S'ChicagoDave'
p174
S'ChicagoDave/fyrevm-web'
p175
tp176
a(S'AIF'
p177
S'FictitiousFrode'
p178
S'FictitiousFrode/AIF'
p179
tp180
a(S'exquisite-corpse'
p181
S'EverybodyIF'
p182
S'EverybodyIF/exquisite-corpse'
p183
tp184
a(S'Gamedev'
p185
S'cody-c'
p186
S'cody-c/Gamedev'
p187
tp188
a(S'textfyre'
p189
S'ChicagoDave'
p190
S'ChicagoDave/textfyre'
p191
tp192
a(S'glimmr-i7x'
p193
S'ektemple'
p194
S'ektemple/glimmr-i7x'
p195
tp196
a(S'Time-Troubles'
p197
S'devonlee111'
p198
S'devonlee111/Time-Troubles'
p199
tp200
a(S'Flexible-Survival'
p201
S'Nuku'
p202
S'Nuku/Flexible-Survival'
p203
tp204
a(S'kerkerkruip'
p205
S'i7'
p206
S'i7/kerkerkruip'
p207
tp208
a(S'extensions'
p209
S'i7'
p210
S'i7/extensions'
p211
tp212
a(S'archive'
p213
S'i7'
p214
S'i7/archive'
p215
tp216
a(S'strangeloop2014'
p217
S'lealbaugh'
p218
S'lealbaugh/strangeloop2014'
p219
tp220
a(S'I7-2014-Spanish'
p221
S'sarganar'
p222
S'sarganar/I7-2014-Spanish'
p223
tp224
a(S'red-herrings'
p225
S'BartMassey'
p226
S'BartMassey/red-herrings'
p227
tp228
a(S'Flexible-Survival'
p229
S'TigerStripes'
p230
S'TigerStripes/Flexible-Survival'
p231
tp232
a(S'ATTACK'
p233
S'i7'
p234
S'i7/ATTACK'
p235
tp236
a(S'Flexible-Survival'
p237
S'Kyvi-Stormbreaker'
p238
S'Kyvi-Stormbreaker/Flexible-Survival'
p239
tp240
a(S'i7-exts'
p241
S'erkyrath'
p242
S'erkyrath/i7-exts'
p243
tp244
a(S'inform7game'
p245
S'guyfleeman'
p246
S'guyfleeman/inform7game'
p247
tp248
a(S'sparkle'
p249
S'juhana'
p250
S'juhana/sparkle'
p251
tp252
a(S'i7-spanish'
p253
S'matias-biato'
p254
S'matias-biato/i7-spanish'
p255
tp256
a(S'Flexible-Survival'
p257
S'Kasirith'
p258
S'Kasirith/Flexible-Survival'
p259
tp260
a(S'bitwise'
p261
S'BartMassey'
p262
S'BartMassey/bitwise'
p263
tp264
a(S'FlexibleSurvival-2.0'
p265
S'dantheman629'
p266
S'dantheman629/FlexibleSurvival-2.0'
p267
tp268
a(S'A-Day-in-the-Life-of-a-Teenage-Wizard'
p269
S'jkunimune15'
p270
S'jkunimune15/A-Day-in-the-Life-of-a-Teenage-Wizard'
p271
tp272
a(S'fyrevm-web'
p273
S'ChicagoDave'
p274
S'ChicagoDave/fyrevm-web'
p275
tp276
a(S'themepark'
p277
S'karlh626'
p278
S'karlh626/themepark'
p279
tp280
a(S'textfyre'
p281
S'ChicagoDave'
p282
S'ChicagoDave/textfyre'
p283
tp284
a(S'exquisite-corpse'
p285
S'EverybodyIF'
p286
S'EverybodyIF/exquisite-corpse'
p287
tp288
a(S'glimmr-i7x'
p289
S'ektemple'
p290
S'ektemple/glimmr-i7x'
p291
tp292
a(S'nil'
p293
S'prenaux'
p294
S'prenaux/nil'
p295
tp296
a(S'Gamedev'
p297
S'cody-c'
p298
S'cody-c/Gamedev'
p299
tp300
a.