(lp0
(S'windows-installer'
p1
S'boot2docker'
p2
S'boot2docker/windows-installer'
p3
tp4
a(S'toolbox'
p5
S'docker'
p6
S'docker/toolbox'
p7
tp8
a(S'WPN-XM'
p9
S'WPN-XM'
p10
S'WPN-XM/WPN-XM'
p11
tp12
a(S'innodependencyinstaller'
p13
S'stfx'
p14
S'stfx/innodependencyinstaller'
p15
tp16
a(S'citadel'
p17
S'davewx7'
p18
S'davewx7/citadel'
p19
tp20
a(S'smartmontools-win'
p21
S'deajan'
p22
S'deajan/smartmontools-win'
p23
tp24
a(S'bravura'
p25
S'steinbergmedia'
p26
S'steinbergmedia/bravura'
p27
tp28
a(S'elixir-windows-setup'
p29
S'elixir-lang'
p30
S'elixir-lang/elixir-windows-setup'
p31
tp32
a(S'SickRageInstaller'
p33
S'VinceVal'
p34
S'VinceVal/SickRageInstaller'
p35
tp36
a(S'fixtsrc'
p37
S'Sduibek'
p38
S'Sduibek/fixtsrc'
p39
tp40
a(S'OverlayPlugin-Compiler'
p41
S'ezsoftware'
p42
S'ezsoftware/OverlayPlugin-Compiler'
p43
tp44
a(S'Gamer-Lab_SDK_Launcher'
p45
S'EpicMorg'
p46
S'EpicMorg/Gamer-Lab_SDK_Launcher'
p47
tp48
a(S'dart-windows'
p49
S'GeKorm'
p50
S'GeKorm/dart-windows'
p51
tp52
a(S'fixtlang'
p53
S'Sduibek'
p54
S'Sduibek/fixtlang'
p55
tp56
a(S'AviUtlInstaller'
p57
S'MaverickTse'
p58
S'MaverickTse/AviUtlInstaller'
p59
tp60
a(S'm3bie'
p61
S'CentralLabFacilities'
p62
S'CentralLabFacilities/m3bie'
p63
tp64
a(S'dxx-rebirth-installer'
p65
S'Mako88'
p66
S'Mako88/dxx-rebirth-installer'
p67
tp68
a(S'virtualization-tools'
p69
S'hosting90'
p70
S'hosting90/virtualization-tools'
p71
tp72
a(S'Video-Editor_OLD'
p73
S'GitUser0001'
p74
S'GitUser0001/Video-Editor_OLD'
p75
tp76
a(S'Instalador-de-Apache-Server'
p77
S'RogerByte'
p78
S'RogerByte/Instalador-de-Apache-Server'
p79
tp80
a(S'Strobe-IT-Support'
p81
S'StrobeTechnologiesLtd'
p82
S'StrobeTechnologiesLtd/Strobe-IT-Support'
p83
tp84
a(S'misp-client-windows'
p85
S'jigsawsecurity'
p86
S'jigsawsecurity/misp-client-windows'
p87
tp88
a(S'jpm4j.installers'
p89
S'jpm4j'
p90
S'jpm4j/jpm4j.installers'
p91
tp92
a(S'Report_designer'
p93
S'ignatovskaya'
p94
S'ignatovskaya/Report_designer'
p95
tp96
a(S'ka-lite-installer-windows'
p97
S'ruimalheiro'
p98
S'ruimalheiro/ka-lite-installer-windows'
p99
tp100
a(S'toolbox'
p101
S'docker'
p102
S'docker/toolbox'
p103
tp104
a(S'windows-installer'
p105
S'boot2docker'
p106
S'boot2docker/windows-installer'
p107
tp108
a(S'WPN-XM'
p109
S'WPN-XM'
p110
S'WPN-XM/WPN-XM'
p111
tp112
a(S'innodependencyinstaller'
p113
S'stfx'
p114
S'stfx/innodependencyinstaller'
p115
tp116
a(S'citadel'
p117
S'davewx7'
p118
S'davewx7/citadel'
p119
tp120
a(S'smartmontools-win'
p121
S'deajan'
p122
S'deajan/smartmontools-win'
p123
tp124
a(S'bravura'
p125
S'steinbergmedia'
p126
S'steinbergmedia/bravura'
p127
tp128
a(S'elixir-windows-setup'
p129
S'elixir-lang'
p130
S'elixir-lang/elixir-windows-setup'
p131
tp132
a(S'SickRageInstaller'
p133
S'VinceVal'
p134
S'VinceVal/SickRageInstaller'
p135
tp136
a(S'fixtsrc'
p137
S'Sduibek'
p138
S'Sduibek/fixtsrc'
p139
tp140
a(S'Gamer-Lab_SDK_Launcher'
p141
S'EpicMorg'
p142
S'EpicMorg/Gamer-Lab_SDK_Launcher'
p143
tp144
a(S'dart-windows'
p145
S'GeKorm'
p146
S'GeKorm/dart-windows'
p147
tp148
a(S'OverlayPlugin-Compiler'
p149
S'ezsoftware'
p150
S'ezsoftware/OverlayPlugin-Compiler'
p151
tp152
a(S'fixtlang'
p153
S'Sduibek'
p154
S'Sduibek/fixtlang'
p155
tp156
a(S'm3bie'
p157
S'CentralLabFacilities'
p158
S'CentralLabFacilities/m3bie'
p159
tp160
a(S'AviUtlInstaller'
p161
S'MaverickTse'
p162
S'MaverickTse/AviUtlInstaller'
p163
tp164
a(S'dxx-rebirth-installer'
p165
S'Mako88'
p166
S'Mako88/dxx-rebirth-installer'
p167
tp168
a(S'virtualization-tools'
p169
S'hosting90'
p170
S'hosting90/virtualization-tools'
p171
tp172
a(S'developer-platform-install'
p173
S'redhat-developer-tooling'
p174
S'redhat-developer-tooling/developer-platform-install'
p175
tp176
a(S'Instalador-de-Apache-Server'
p177
S'RogerByte'
p178
S'RogerByte/Instalador-de-Apache-Server'
p179
tp180
a(S'Strobe-IT-Support'
p181
S'StrobeTechnologiesLtd'
p182
S'StrobeTechnologiesLtd/Strobe-IT-Support'
p183
tp184
a(S'Report_designer'
p185
S'ignatovskaya'
p186
S'ignatovskaya/Report_designer'
p187
tp188
a(S'jpm4j.installers'
p189
S'jpm4j'
p190
S'jpm4j/jpm4j.installers'
p191
tp192
a(S'ka-lite-installer-windows'
p193
S'ruimalheiro'
p194
S'ruimalheiro/ka-lite-installer-windows'
p195
tp196
a(S'mongodb-win-install-script'
p197
S'rexzhang'
p198
S'rexzhang/mongodb-win-install-script'
p199
tp200
a(S'toolbox'
p201
S'docker'
p202
S'docker/toolbox'
p203
tp204
a(S'WPN-XM'
p205
S'WPN-XM'
p206
S'WPN-XM/WPN-XM'
p207
tp208
a(S'windows-installer'
p209
S'boot2docker'
p210
S'boot2docker/windows-installer'
p211
tp212
a(S'innodependencyinstaller'
p213
S'stfx'
p214
S'stfx/innodependencyinstaller'
p215
tp216
a(S'citadel'
p217
S'davewx7'
p218
S'davewx7/citadel'
p219
tp220
a(S'bravura'
p221
S'steinbergmedia'
p222
S'steinbergmedia/bravura'
p223
tp224
a(S'smartmontools-win'
p225
S'deajan'
p226
S'deajan/smartmontools-win'
p227
tp228
a(S'SickRageInstaller'
p229
S'VinceVal'
p230
S'VinceVal/SickRageInstaller'
p231
tp232
a(S'elixir-windows-setup'
p233
S'elixir-lang'
p234
S'elixir-lang/elixir-windows-setup'
p235
tp236
a(S'fixtsrc'
p237
S'Sduibek'
p238
S'Sduibek/fixtsrc'
p239
tp240
a(S'fixtlang'
p241
S'Sduibek'
p242
S'Sduibek/fixtlang'
p243
tp244
a(S'OverlayPlugin-Compiler'
p245
S'ezsoftware'
p246
S'ezsoftware/OverlayPlugin-Compiler'
p247
tp248
a(S'Gamer-Lab_SDK_Launcher'
p249
S'EpicMorg'
p250
S'EpicMorg/Gamer-Lab_SDK_Launcher'
p251
tp252
a(S'dart-windows'
p253
S'GeKorm'
p254
S'GeKorm/dart-windows'
p255
tp256
a(S'm3bie'
p257
S'CentralLabFacilities'
p258
S'CentralLabFacilities/m3bie'
p259
tp260
a(S'AviUtlInstaller'
p261
S'MaverickTse'
p262
S'MaverickTse/AviUtlInstaller'
p263
tp264
a(S'dxx-rebirth-installer'
p265
S'Mako88'
p266
S'Mako88/dxx-rebirth-installer'
p267
tp268
a(S'virtualization-tools'
p269
S'hosting90'
p270
S'hosting90/virtualization-tools'
p271
tp272
a(S'developer-platform-install'
p273
S'redhat-developer-tooling'
p274
S'redhat-developer-tooling/developer-platform-install'
p275
tp276
a(S'Video-Editor_OLD'
p277
S'GitUser0001'
p278
S'GitUser0001/Video-Editor_OLD'
p279
tp280
a(S'Instalador-de-Apache-Server'
p281
S'RogerByte'
p282
S'RogerByte/Instalador-de-Apache-Server'
p283
tp284
a(S'Strobe-IT-Support'
p285
S'StrobeTechnologiesLtd'
p286
S'StrobeTechnologiesLtd/Strobe-IT-Support'
p287
tp288
a(S'misp-client-windows'
p289
S'jigsawsecurity'
p290
S'jigsawsecurity/misp-client-windows'
p291
tp292
a(S'jpm4j.installers'
p293
S'jpm4j'
p294
S'jpm4j/jpm4j.installers'
p295
tp296
a(S'Report_designer'
p297
S'ignatovskaya'
p298
S'ignatovskaya/Report_designer'
p299
tp300
a.