(lp0
(S'pki-io'
p1
S'pki-io'
p2
S'pki-io/pki-io'
p3
tp4
a(S'backpacking'
p5
S'cdcarter'
p6
S'cdcarter/backpacking'
p7
tp8
a(S'IoSpec'
p9
S'jeremytregunna'
p10
S'jeremytregunna/IoSpec'
p11
tp12
a(S'iowiki'
p13
S'tumble'
p14
S'tumble/iowiki'
p15
tp16
a(S'yown'
p17
S'whymirror'
p18
S'whymirror/yown'
p19
tp20
a(S'ike'
p21
S'defunkt'
p22
S'defunkt/ike'
p23
tp24
a(S'iota'
p25
S'tyler'
p26
S'tyler/iota'
p27
tp28
a(S'eerie'
p29
S'josip'
p30
S'josip/eerie'
p31
tp32
a(S'jasmineio'
p33
S'bekkopen'
p34
S'bekkopen/jasmineio'
p35
tp36
a(S'baas.io-sdk-ios'
p37
S'baasio'
p38
S'baasio/baas.io-sdk-ios'
p39
tp40
a(S'dns'
p41
S'DNS-API'
p42
S'DNS-API/dns'
p43
tp44
a(S'io-snippets'
p45
S'oleganza'
p46
S'oleganza/io-snippets'
p47
tp48
a(S'iospec2'
p49
S'quag'
p50
S'quag/iospec2'
p51
tp52
a(S'yown'
p53
S'iamjwc'
p54
S'iamjwc/yown'
p55
tp56
a(S'io-json'
p57
S'quag'
p58
S'quag/io-json'
p59
tp60
a(S'blackpool'
p61
S'pgregory'
p62
S'pgregory/blackpool'
p63
tp64
a(S'iopackage'
p65
S'oleganza'
p66
S'oleganza/iopackage'
p67
tp68
a(S'generys'
p69
S'josip'
p70
S'josip/generys'
p71
tp72
a(S'iodis'
p73
S'vangberg'
p74
S'vangberg/iodis'
p75
tp76
a(S'boid'
p77
S'jdp'
p78
S'jdp/boid'
p79
tp80
a(S'icis'
p81
S'qxjit'
p82
S'qxjit/icis'
p83
tp84
a(S'jim'
p85
S'imownbey'
p86
S'imownbey/jim'
p87
tp88
a(S'io-scgi'
p89
S'jdp'
p90
S'jdp/io-scgi'
p91
tp92
a(S'netz'
p93
S'fredreichbier'
p94
S'fredreichbier/netz'
p95
tp96
a(S'iorm'
p97
S'fredreichbier'
p98
S'fredreichbier/iorm'
p99
tp100
a(S'pki-io'
p101
S'pki-io'
p102
S'pki-io/pki-io'
p103
tp104
a(S'backpacking'
p105
S'cdcarter'
p106
S'cdcarter/backpacking'
p107
tp108
a(S'IoSpec'
p109
S'jeremytregunna'
p110
S'jeremytregunna/IoSpec'
p111
tp112
a(S'iowiki'
p113
S'tumble'
p114
S'tumble/iowiki'
p115
tp116
a(S'yown'
p117
S'whymirror'
p118
S'whymirror/yown'
p119
tp120
a(S'ike'
p121
S'defunkt'
p122
S'defunkt/ike'
p123
tp124
a(S'iota'
p125
S'tyler'
p126
S'tyler/iota'
p127
tp128
a(S'eerie'
p129
S'josip'
p130
S'josip/eerie'
p131
tp132
a(S'jasmineio'
p133
S'bekkopen'
p134
S'bekkopen/jasmineio'
p135
tp136
a(S'baas.io-sdk-ios'
p137
S'baasio'
p138
S'baasio/baas.io-sdk-ios'
p139
tp140
a(S'dns'
p141
S'DNS-API'
p142
S'DNS-API/dns'
p143
tp144
a(S'io-snippets'
p145
S'oleganza'
p146
S'oleganza/io-snippets'
p147
tp148
a(S'iospec2'
p149
S'quag'
p150
S'quag/iospec2'
p151
tp152
a(S'yown'
p153
S'iamjwc'
p154
S'iamjwc/yown'
p155
tp156
a(S'io-json'
p157
S'quag'
p158
S'quag/io-json'
p159
tp160
a(S'blackpool'
p161
S'pgregory'
p162
S'pgregory/blackpool'
p163
tp164
a(S'iopackage'
p165
S'oleganza'
p166
S'oleganza/iopackage'
p167
tp168
a(S'generys'
p169
S'josip'
p170
S'josip/generys'
p171
tp172
a(S'iodis'
p173
S'vangberg'
p174
S'vangberg/iodis'
p175
tp176
a(S'boid'
p177
S'jdp'
p178
S'jdp/boid'
p179
tp180
a(S'icis'
p181
S'qxjit'
p182
S'qxjit/icis'
p183
tp184
a(S'jim'
p185
S'imownbey'
p186
S'imownbey/jim'
p187
tp188
a(S'io-scgi'
p189
S'jdp'
p190
S'jdp/io-scgi'
p191
tp192
a(S'netz'
p193
S'fredreichbier'
p194
S'fredreichbier/netz'
p195
tp196
a(S'iorm'
p197
S'fredreichbier'
p198
S'fredreichbier/iorm'
p199
tp200
a(S'pki-io'
p201
S'pki-io'
p202
S'pki-io/pki-io'
p203
tp204
a(S'backpacking'
p205
S'cdcarter'
p206
S'cdcarter/backpacking'
p207
tp208
a(S'IoSpec'
p209
S'jeremytregunna'
p210
S'jeremytregunna/IoSpec'
p211
tp212
a(S'iowiki'
p213
S'tumble'
p214
S'tumble/iowiki'
p215
tp216
a(S'yown'
p217
S'whymirror'
p218
S'whymirror/yown'
p219
tp220
a(S'ike'
p221
S'defunkt'
p222
S'defunkt/ike'
p223
tp224
a(S'iota'
p225
S'tyler'
p226
S'tyler/iota'
p227
tp228
a(S'eerie'
p229
S'josip'
p230
S'josip/eerie'
p231
tp232
a(S'jasmineio'
p233
S'bekkopen'
p234
S'bekkopen/jasmineio'
p235
tp236
a(S'baas.io-sdk-ios'
p237
S'baasio'
p238
S'baasio/baas.io-sdk-ios'
p239
tp240
a(S'dns'
p241
S'DNS-API'
p242
S'DNS-API/dns'
p243
tp244
a(S'io-snippets'
p245
S'oleganza'
p246
S'oleganza/io-snippets'
p247
tp248
a(S'iospec2'
p249
S'quag'
p250
S'quag/iospec2'
p251
tp252
a(S'yown'
p253
S'iamjwc'
p254
S'iamjwc/yown'
p255
tp256
a(S'io-json'
p257
S'quag'
p258
S'quag/io-json'
p259
tp260
a(S'blackpool'
p261
S'pgregory'
p262
S'pgregory/blackpool'
p263
tp264
a(S'iopackage'
p265
S'oleganza'
p266
S'oleganza/iopackage'
p267
tp268
a(S'generys'
p269
S'josip'
p270
S'josip/generys'
p271
tp272
a(S'iodis'
p273
S'vangberg'
p274
S'vangberg/iodis'
p275
tp276
a(S'boid'
p277
S'jdp'
p278
S'jdp/boid'
p279
tp280
a(S'icis'
p281
S'qxjit'
p282
S'qxjit/icis'
p283
tp284
a(S'jim'
p285
S'imownbey'
p286
S'imownbey/jim'
p287
tp288
a(S'io-scgi'
p289
S'jdp'
p290
S'jdp/io-scgi'
p291
tp292
a(S'netz'
p293
S'fredreichbier'
p294
S'fredreichbier/netz'
p295
tp296
a(S'iorm'
p297
S'fredreichbier'
p298
S'fredreichbier/iorm'
p299
tp300
a.