(lp0
(S'gameoflife'
p1
S'maryrosecook'
p2
S'maryrosecook/gameoflife'
p3
tp4
a(S'Ioke_TTT'
p5
S'KevinLiddle'
p6
S'KevinLiddle/Ioke_TTT'
p7
tp8
a(S'Byeloblog'
p9
S'flaviusb'
p10
S'flaviusb/Byeloblog'
p11
tp12
a(S'TwitAtom-client'
p13
S'flaviusb'
p14
S'flaviusb/TwitAtom-client'
p15
tp16
a(S'BattleLanguageIoke'
p17
S'elefevre'
p18
S'elefevre/BattleLanguageIoke'
p19
tp20
a(S'Kata-Sierpinski-ioke-'
p21
S'dgageot'
p22
S'dgageot/Kata-Sierpinski-ioke-'
p23
tp24
a(S'Kata-Weights-ioke'
p25
S'dgageot'
p26
S'dgageot/Kata-Weights-ioke'
p27
tp28
a(S'Kata-Misc-ioke'
p29
S'dgageot'
p30
S'dgageot/Kata-Misc-ioke'
p31
tp32
a(S'Kata-Lags-ioke'
p33
S'dgageot'
p34
S'dgageot/Kata-Lags-ioke'
p35
tp36
a(S'my-tweets'
p37
S'flaviusb'
p38
S'flaviusb/my-tweets'
p39
tp40
a(S'flaviusb.net'
p41
S'flaviusb'
p42
S'flaviusb/flaviusb.net'
p43
tp44
a(S'whyso.co.nz'
p45
S'flaviusb'
p46
S'flaviusb/whyso.co.nz'
p47
tp48
a(S'Kata-Misc-ioke'
p49
S'jamiepg1'
p50
S'jamiepg1/Kata-Misc-ioke'
p51
tp52
a(S'Kata-Weights-ioke'
p53
S'jamiepg1'
p54
S'jamiepg1/Kata-Weights-ioke'
p55
tp56
a(S'Ioke_TTT'
p57
S'jamiepg1'
p58
S'jamiepg1/Ioke_TTT'
p59
tp60
a(S'Kata-Sierpinski-ioke-'
p61
S'jamiepg1'
p62
S'jamiepg1/Kata-Sierpinski-ioke-'
p63
tp64
a(S'BattleLanguageIoke'
p65
S'jamiepg1'
p66
S'jamiepg1/BattleLanguageIoke'
p67
tp68
a(S'Kata-Lags-ioke'
p69
S'jamiepg1'
p70
S'jamiepg1/Kata-Lags-ioke'
p71
tp72
a(S'my-tweets'
p73
S'jamiepg1'
p74
S'jamiepg1/my-tweets'
p75
tp76
a(S'flaviusb.net'
p77
S'jamiepg1'
p78
S'jamiepg1/flaviusb.net'
p79
tp80
a(S'whyso.co.nz'
p81
S'jamiepg1'
p82
S'jamiepg1/whyso.co.nz'
p83
tp84
a(S'Byeloblog'
p85
S'delihiros'
p86
S'delihiros/Byeloblog'
p87
tp88
a(S'gameoflife'
p89
S'jamiepg1'
p90
S'jamiepg1/gameoflife'
p91
tp92
a(S'ischeme'
p93
S'reprah'
p94
S'reprah/ischeme'
p95
tp96
a(S'TwitAtom-client'
p97
S'jamiepg1'
p98
S'jamiepg1/TwitAtom-client'
p99
tp100
a(S'gameoflife'
p101
S'maryrosecook'
p102
S'maryrosecook/gameoflife'
p103
tp104
a(S'Ioke_TTT'
p105
S'KevinLiddle'
p106
S'KevinLiddle/Ioke_TTT'
p107
tp108
a(S'Byeloblog'
p109
S'flaviusb'
p110
S'flaviusb/Byeloblog'
p111
tp112
a(S'TwitAtom-client'
p113
S'flaviusb'
p114
S'flaviusb/TwitAtom-client'
p115
tp116
a(S'BattleLanguageIoke'
p117
S'elefevre'
p118
S'elefevre/BattleLanguageIoke'
p119
tp120
a(S'Kata-Sierpinski-ioke-'
p121
S'dgageot'
p122
S'dgageot/Kata-Sierpinski-ioke-'
p123
tp124
a(S'Kata-Weights-ioke'
p125
S'dgageot'
p126
S'dgageot/Kata-Weights-ioke'
p127
tp128
a(S'Kata-Misc-ioke'
p129
S'dgageot'
p130
S'dgageot/Kata-Misc-ioke'
p131
tp132
a(S'Kata-Lags-ioke'
p133
S'dgageot'
p134
S'dgageot/Kata-Lags-ioke'
p135
tp136
a(S'my-tweets'
p137
S'flaviusb'
p138
S'flaviusb/my-tweets'
p139
tp140
a(S'flaviusb.net'
p141
S'flaviusb'
p142
S'flaviusb/flaviusb.net'
p143
tp144
a(S'whyso.co.nz'
p145
S'flaviusb'
p146
S'flaviusb/whyso.co.nz'
p147
tp148
a(S'Kata-Misc-ioke'
p149
S'jamiepg1'
p150
S'jamiepg1/Kata-Misc-ioke'
p151
tp152
a(S'Kata-Weights-ioke'
p153
S'jamiepg1'
p154
S'jamiepg1/Kata-Weights-ioke'
p155
tp156
a(S'Ioke_TTT'
p157
S'jamiepg1'
p158
S'jamiepg1/Ioke_TTT'
p159
tp160
a(S'Kata-Sierpinski-ioke-'
p161
S'jamiepg1'
p162
S'jamiepg1/Kata-Sierpinski-ioke-'
p163
tp164
a(S'BattleLanguageIoke'
p165
S'jamiepg1'
p166
S'jamiepg1/BattleLanguageIoke'
p167
tp168
a(S'Kata-Lags-ioke'
p169
S'jamiepg1'
p170
S'jamiepg1/Kata-Lags-ioke'
p171
tp172
a(S'my-tweets'
p173
S'jamiepg1'
p174
S'jamiepg1/my-tweets'
p175
tp176
a(S'flaviusb.net'
p177
S'jamiepg1'
p178
S'jamiepg1/flaviusb.net'
p179
tp180
a(S'whyso.co.nz'
p181
S'jamiepg1'
p182
S'jamiepg1/whyso.co.nz'
p183
tp184
a(S'Byeloblog'
p185
S'delihiros'
p186
S'delihiros/Byeloblog'
p187
tp188
a(S'gameoflife'
p189
S'jamiepg1'
p190
S'jamiepg1/gameoflife'
p191
tp192
a(S'ischeme'
p193
S'reprah'
p194
S'reprah/ischeme'
p195
tp196
a(S'TwitAtom-client'
p197
S'jamiepg1'
p198
S'jamiepg1/TwitAtom-client'
p199
tp200
a(S'gameoflife'
p201
S'maryrosecook'
p202
S'maryrosecook/gameoflife'
p203
tp204
a(S'Ioke_TTT'
p205
S'KevinLiddle'
p206
S'KevinLiddle/Ioke_TTT'
p207
tp208
a(S'Byeloblog'
p209
S'flaviusb'
p210
S'flaviusb/Byeloblog'
p211
tp212
a(S'TwitAtom-client'
p213
S'flaviusb'
p214
S'flaviusb/TwitAtom-client'
p215
tp216
a(S'BattleLanguageIoke'
p217
S'elefevre'
p218
S'elefevre/BattleLanguageIoke'
p219
tp220
a(S'Kata-Sierpinski-ioke-'
p221
S'dgageot'
p222
S'dgageot/Kata-Sierpinski-ioke-'
p223
tp224
a(S'Kata-Weights-ioke'
p225
S'dgageot'
p226
S'dgageot/Kata-Weights-ioke'
p227
tp228
a(S'Kata-Misc-ioke'
p229
S'dgageot'
p230
S'dgageot/Kata-Misc-ioke'
p231
tp232
a(S'Kata-Lags-ioke'
p233
S'dgageot'
p234
S'dgageot/Kata-Lags-ioke'
p235
tp236
a(S'my-tweets'
p237
S'flaviusb'
p238
S'flaviusb/my-tweets'
p239
tp240
a(S'flaviusb.net'
p241
S'flaviusb'
p242
S'flaviusb/flaviusb.net'
p243
tp244
a(S'whyso.co.nz'
p245
S'flaviusb'
p246
S'flaviusb/whyso.co.nz'
p247
tp248
a(S'Kata-Misc-ioke'
p249
S'jamiepg1'
p250
S'jamiepg1/Kata-Misc-ioke'
p251
tp252
a(S'Kata-Weights-ioke'
p253
S'jamiepg1'
p254
S'jamiepg1/Kata-Weights-ioke'
p255
tp256
a(S'Ioke_TTT'
p257
S'jamiepg1'
p258
S'jamiepg1/Ioke_TTT'
p259
tp260
a(S'Kata-Sierpinski-ioke-'
p261
S'jamiepg1'
p262
S'jamiepg1/Kata-Sierpinski-ioke-'
p263
tp264
a(S'BattleLanguageIoke'
p265
S'jamiepg1'
p266
S'jamiepg1/BattleLanguageIoke'
p267
tp268
a(S'Kata-Lags-ioke'
p269
S'jamiepg1'
p270
S'jamiepg1/Kata-Lags-ioke'
p271
tp272
a(S'my-tweets'
p273
S'jamiepg1'
p274
S'jamiepg1/my-tweets'
p275
tp276
a(S'flaviusb.net'
p277
S'jamiepg1'
p278
S'jamiepg1/flaviusb.net'
p279
tp280
a(S'whyso.co.nz'
p281
S'jamiepg1'
p282
S'jamiepg1/whyso.co.nz'
p283
tp284
a(S'Byeloblog'
p285
S'delihiros'
p286
S'delihiros/Byeloblog'
p287
tp288
a(S'gameoflife'
p289
S'jamiepg1'
p290
S'jamiepg1/gameoflife'
p291
tp292
a(S'ischeme'
p293
S'reprah'
p294
S'reprah/ischeme'
p295
tp296
a(S'TwitAtom-client'
p297
S'jamiepg1'
p298
S'jamiepg1/TwitAtom-client'
p299
tp300
a.