(lp0
(S'l4v'
p1
S'seL4'
p2
S'seL4/l4v'
p3
tp4
a(S'isabelle'
p5
S'seL4'
p6
S'seL4/isabelle'
p7
tp8
a(S'scyther-proof'
p9
S'meiersi'
p10
S'meiersi/scyther-proof'
p11
tp12
a(S'sturm'
p13
S'3of8'
p14
S'3of8/sturm'
p15
tp16
a(S'Tangle-Isabelle'
p17
S'prathamesh-t'
p18
S'prathamesh-t/Tangle-Isabelle'
p19
tp20
a(S'isabelle_algebra'
p21
S'javra'
p22
S'javra/isabelle_algebra'
p23
tp24
a(S'StorageStackSemantics'
p25
S'ramanala'
p26
S'ramanala/StorageStackSemantics'
p27
tp28
a(S'Iptables_Semantics'
p29
S'diekmann'
p30
S'diekmann/Iptables_Semantics'
p31
tp32
a(S'isabelle'
p33
S'avigad'
p34
S'avigad/isabelle'
p35
tp36
a(S'halicore'
p37
S'davidlazar'
p38
S'davidlazar/halicore'
p39
tp40
a(S'l4v'
p41
S'NICTA'
p42
S'NICTA/l4v'
p43
tp44
a(S'thesis-2'
p45
S'jamiepg1'
p46
S'jamiepg1/thesis-2'
p47
tp48
a(S'Thesis'
p49
S'Alasdair'
p50
S'Alasdair/Thesis'
p51
tp52
a(S'PrincipiaMetaphysica'
p53
S'cbenzmueller'
p54
S'cbenzmueller/PrincipiaMetaphysica'
p55
tp56
a(S'ML-for-NTS'
p57
S'tjark'
p58
S'tjark/ML-for-NTS'
p59
tp60
a(S'isabelle'
p61
S'jamiepg1'
p62
S'jamiepg1/isabelle'
p63
tp64
a(S'isabelle'
p65
S'jianqili'
p66
S'jianqili/isabelle'
p67
tp68
a(S'SCIS2014'
p69
S'ehah'
p70
S'ehah/SCIS2014'
p71
tp72
a(S'thesis'
p73
S'01mf02'
p74
S'01mf02/thesis'
p75
tp76
a(S'utp-main'
p77
S'isabelle-utp'
p78
S'isabelle-utp/utp-main'
p79
tp80
a(S'FM2014'
p81
S'Alasdair'
p82
S'Alasdair/FM2014'
p83
tp84
a(S'hol-optics'
p85
S'larsrh'
p86
S'larsrh/hol-optics'
p87
tp88
a(S'topoS'
p89
S'diekmann'
p90
S'diekmann/topoS'
p91
tp92
a(S'isabelle'
p93
S'MerelyAPseudonym'
p94
S'MerelyAPseudonym/isabelle'
p95
tp96
a(S'samth.github.com'
p97
S'samth'
p98
S'samth/samth.github.com'
p99
tp100
a(S'l4v'
p101
S'seL4'
p102
S'seL4/l4v'
p103
tp104
a(S'isabelle'
p105
S'seL4'
p106
S'seL4/isabelle'
p107
tp108
a(S'scyther-proof'
p109
S'meiersi'
p110
S'meiersi/scyther-proof'
p111
tp112
a(S'sturm'
p113
S'3of8'
p114
S'3of8/sturm'
p115
tp116
a(S'Tangle-Isabelle'
p117
S'prathamesh-t'
p118
S'prathamesh-t/Tangle-Isabelle'
p119
tp120
a(S'isabelle_algebra'
p121
S'javra'
p122
S'javra/isabelle_algebra'
p123
tp124
a(S'StorageStackSemantics'
p125
S'ramanala'
p126
S'ramanala/StorageStackSemantics'
p127
tp128
a(S'Iptables_Semantics'
p129
S'diekmann'
p130
S'diekmann/Iptables_Semantics'
p131
tp132
a(S'isabelle'
p133
S'avigad'
p134
S'avigad/isabelle'
p135
tp136
a(S'halicore'
p137
S'davidlazar'
p138
S'davidlazar/halicore'
p139
tp140
a(S'l4v'
p141
S'NICTA'
p142
S'NICTA/l4v'
p143
tp144
a(S'thesis-2'
p145
S'jamiepg1'
p146
S'jamiepg1/thesis-2'
p147
tp148
a(S'Thesis'
p149
S'Alasdair'
p150
S'Alasdair/Thesis'
p151
tp152
a(S'PrincipiaMetaphysica'
p153
S'cbenzmueller'
p154
S'cbenzmueller/PrincipiaMetaphysica'
p155
tp156
a(S'ML-for-NTS'
p157
S'tjark'
p158
S'tjark/ML-for-NTS'
p159
tp160
a(S'isabelle'
p161
S'jamiepg1'
p162
S'jamiepg1/isabelle'
p163
tp164
a(S'isabelle'
p165
S'jianqili'
p166
S'jianqili/isabelle'
p167
tp168
a(S'SCIS2014'
p169
S'ehah'
p170
S'ehah/SCIS2014'
p171
tp172
a(S'thesis'
p173
S'01mf02'
p174
S'01mf02/thesis'
p175
tp176
a(S'utp-main'
p177
S'isabelle-utp'
p178
S'isabelle-utp/utp-main'
p179
tp180
a(S'FM2014'
p181
S'Alasdair'
p182
S'Alasdair/FM2014'
p183
tp184
a(S'hol-optics'
p185
S'larsrh'
p186
S'larsrh/hol-optics'
p187
tp188
a(S'topoS'
p189
S'diekmann'
p190
S'diekmann/topoS'
p191
tp192
a(S'isabelle'
p193
S'MerelyAPseudonym'
p194
S'MerelyAPseudonym/isabelle'
p195
tp196
a(S'samth.github.com'
p197
S'samth'
p198
S'samth/samth.github.com'
p199
tp200
a(S'l4v'
p201
S'seL4'
p202
S'seL4/l4v'
p203
tp204
a(S'isabelle'
p205
S'seL4'
p206
S'seL4/isabelle'
p207
tp208
a(S'scyther-proof'
p209
S'meiersi'
p210
S'meiersi/scyther-proof'
p211
tp212
a(S'sturm'
p213
S'3of8'
p214
S'3of8/sturm'
p215
tp216
a(S'Tangle-Isabelle'
p217
S'prathamesh-t'
p218
S'prathamesh-t/Tangle-Isabelle'
p219
tp220
a(S'isabelle_algebra'
p221
S'javra'
p222
S'javra/isabelle_algebra'
p223
tp224
a(S'StorageStackSemantics'
p225
S'ramanala'
p226
S'ramanala/StorageStackSemantics'
p227
tp228
a(S'Iptables_Semantics'
p229
S'diekmann'
p230
S'diekmann/Iptables_Semantics'
p231
tp232
a(S'isabelle'
p233
S'avigad'
p234
S'avigad/isabelle'
p235
tp236
a(S'halicore'
p237
S'davidlazar'
p238
S'davidlazar/halicore'
p239
tp240
a(S'l4v'
p241
S'NICTA'
p242
S'NICTA/l4v'
p243
tp244
a(S'thesis-2'
p245
S'jamiepg1'
p246
S'jamiepg1/thesis-2'
p247
tp248
a(S'Thesis'
p249
S'Alasdair'
p250
S'Alasdair/Thesis'
p251
tp252
a(S'PrincipiaMetaphysica'
p253
S'cbenzmueller'
p254
S'cbenzmueller/PrincipiaMetaphysica'
p255
tp256
a(S'ML-for-NTS'
p257
S'tjark'
p258
S'tjark/ML-for-NTS'
p259
tp260
a(S'isabelle'
p261
S'jamiepg1'
p262
S'jamiepg1/isabelle'
p263
tp264
a(S'isabelle'
p265
S'jianqili'
p266
S'jianqili/isabelle'
p267
tp268
a(S'SCIS2014'
p269
S'ehah'
p270
S'ehah/SCIS2014'
p271
tp272
a(S'thesis'
p273
S'01mf02'
p274
S'01mf02/thesis'
p275
tp276
a(S'utp-main'
p277
S'isabelle-utp'
p278
S'isabelle-utp/utp-main'
p279
tp280
a(S'FM2014'
p281
S'Alasdair'
p282
S'Alasdair/FM2014'
p283
tp284
a(S'hol-optics'
p285
S'larsrh'
p286
S'larsrh/hol-optics'
p287
tp288
a(S'topoS'
p289
S'diekmann'
p290
S'diekmann/topoS'
p291
tp292
a(S'isabelle'
p293
S'MerelyAPseudonym'
p294
S'MerelyAPseudonym/isabelle'
p295
tp296
a(S'samth.github.com'
p297
S'samth'
p298
S'samth/samth.github.com'
p299
tp300
a.