(lp0
(S'snippets'
p1
S'wyc'
p2
S'wyc/snippets'
p3
tp4
a(S'jacks'
p5
S'bakerjd99'
p6
S'bakerjd99/jacks'
p7
tp8
a(S'syndir'
p9
S'tangentstorm'
p10
S'tangentstorm/syndir'
p11
tp12
a(S'type-system-j'
p13
S'Pascal-J'
p14
S'Pascal-J/type-system-j'
p15
tp16
a(S'JtoLaTeX'
p17
S'mlochbaum'
p18
S'mlochbaum/JtoLaTeX'
p19
tp20
a(S'j_table'
p21
S'yikelu'
p22
S'yikelu/j_table'
p23
tp24
a(S'j-scripts'
p25
S'wenderen'
p26
S'wenderen/j-scripts'
p27
tp28
a(S'jkmeans'
p29
S'VincentToups'
p30
S'VincentToups/jkmeans'
p31
tp32
a(S'JUtilities'
p33
S'DevonMcC'
p34
S'DevonMcC/JUtilities'
p35
tp36
a(S'Project-Euler'
p37
S'Eratosthenes'
p38
S'Eratosthenes/Project-Euler'
p39
tp40
a(S'j-nearest-neighbor'
p41
S'locklin'
p42
S'locklin/j-nearest-neighbor'
p43
tp44
a(S'jgplsrc'
p45
S'jbnicolai'
p46
S'jbnicolai/jgplsrc'
p47
tp48
a(S'nifty'
p49
S'rdm'
p50
S'rdm/nifty'
p51
tp52
a(S'j-fork-server'
p53
S'joebo'
p54
S'joebo/j-fork-server'
p55
tp56
a(S'jlang'
p57
S'rdm'
p58
S'rdm/jlang'
p59
tp60
a(S'j'
p61
S'ndpar'
p62
S'ndpar/j'
p63
tp64
a(g61
S'hoosierEE'
p65
S'hoosierEE/j'
p66
tp67
a(S'joddumps'
p68
S'bakerjd99'
p69
S'bakerjd99/joddumps'
p70
tp71
a(S'conway'
p72
S'hagleitn'
p73
S'hagleitn/conway'
p74
tp75
a(S'j-lapacke'
p76
S'locklin'
p77
S'locklin/j-lapacke'
p78
tp79
a(S'jicjacjoe'
p80
S'robertjlooby'
p81
S'robertjlooby/jicjacjoe'
p82
tp83
a(S'lingvo_e'
p84
S'j0k'
p85
S'j0k/lingvo_e'
p86
tp87
a(S'ju'
p88
S'j0k'
p89
S'j0k/ju'
p90
tp91
a(S'life'
p92
S'j0k'
p93
S'j0k/life'
p94
tp95
a(S'underJ'
p96
S'j0k'
p97
S'j0k/underJ'
p98
tp99
a(S'snippets'
p100
S'wyc'
p101
S'wyc/snippets'
p102
tp103
a(S'jacks'
p104
S'bakerjd99'
p105
S'bakerjd99/jacks'
p106
tp107
a(S'syndir'
p108
S'tangentstorm'
p109
S'tangentstorm/syndir'
p110
tp111
a(S'type-system-j'
p112
S'Pascal-J'
p113
S'Pascal-J/type-system-j'
p114
tp115
a(S'JtoLaTeX'
p116
S'mlochbaum'
p117
S'mlochbaum/JtoLaTeX'
p118
tp119
a(S'j_table'
p120
S'yikelu'
p121
S'yikelu/j_table'
p122
tp123
a(S'j-scripts'
p124
S'wenderen'
p125
S'wenderen/j-scripts'
p126
tp127
a(S'jkmeans'
p128
S'VincentToups'
p129
S'VincentToups/jkmeans'
p130
tp131
a(S'JUtilities'
p132
S'DevonMcC'
p133
S'DevonMcC/JUtilities'
p134
tp135
a(S'Project-Euler'
p136
S'Eratosthenes'
p137
S'Eratosthenes/Project-Euler'
p138
tp139
a(S'j-nearest-neighbor'
p140
S'locklin'
p141
S'locklin/j-nearest-neighbor'
p142
tp143
a(S'jgplsrc'
p144
S'jbnicolai'
p145
S'jbnicolai/jgplsrc'
p146
tp147
a(S'nifty'
p148
S'rdm'
p149
S'rdm/nifty'
p150
tp151
a(S'j-fork-server'
p152
S'joebo'
p153
S'joebo/j-fork-server'
p154
tp155
a(S'jlang'
p156
S'rdm'
p157
S'rdm/jlang'
p158
tp159
a(g61
S'ndpar'
p160
S'ndpar/j'
p161
tp162
a(g61
S'hoosierEE'
p163
S'hoosierEE/j'
p164
tp165
a(S'joddumps'
p166
S'bakerjd99'
p167
S'bakerjd99/joddumps'
p168
tp169
a(S'conway'
p170
S'hagleitn'
p171
S'hagleitn/conway'
p172
tp173
a(S'j-lapacke'
p174
S'locklin'
p175
S'locklin/j-lapacke'
p176
tp177
a(S'jicjacjoe'
p178
S'robertjlooby'
p179
S'robertjlooby/jicjacjoe'
p180
tp181
a(S'lingvo_e'
p182
S'j0k'
p183
S'j0k/lingvo_e'
p184
tp185
a(S'ju'
p186
S'j0k'
p187
S'j0k/ju'
p188
tp189
a(S'life'
p190
S'j0k'
p191
S'j0k/life'
p192
tp193
a(S'underJ'
p194
S'j0k'
p195
S'j0k/underJ'
p196
tp197
a(S'snippets'
p198
S'wyc'
p199
S'wyc/snippets'
p200
tp201
a(S'jacks'
p202
S'bakerjd99'
p203
S'bakerjd99/jacks'
p204
tp205
a(S'syndir'
p206
S'tangentstorm'
p207
S'tangentstorm/syndir'
p208
tp209
a(S'type-system-j'
p210
S'Pascal-J'
p211
S'Pascal-J/type-system-j'
p212
tp213
a(S'JtoLaTeX'
p214
S'mlochbaum'
p215
S'mlochbaum/JtoLaTeX'
p216
tp217
a(S'j_table'
p218
S'yikelu'
p219
S'yikelu/j_table'
p220
tp221
a(S'j-scripts'
p222
S'wenderen'
p223
S'wenderen/j-scripts'
p224
tp225
a(S'jkmeans'
p226
S'VincentToups'
p227
S'VincentToups/jkmeans'
p228
tp229
a(S'JUtilities'
p230
S'DevonMcC'
p231
S'DevonMcC/JUtilities'
p232
tp233
a(S'Project-Euler'
p234
S'Eratosthenes'
p235
S'Eratosthenes/Project-Euler'
p236
tp237
a(S'j-nearest-neighbor'
p238
S'locklin'
p239
S'locklin/j-nearest-neighbor'
p240
tp241
a(S'jgplsrc'
p242
S'jbnicolai'
p243
S'jbnicolai/jgplsrc'
p244
tp245
a(S'nifty'
p246
S'rdm'
p247
S'rdm/nifty'
p248
tp249
a(S'j-fork-server'
p250
S'joebo'
p251
S'joebo/j-fork-server'
p252
tp253
a(S'jlang'
p254
S'rdm'
p255
S'rdm/jlang'
p256
tp257
a(g61
S'ndpar'
p258
S'ndpar/j'
p259
tp260
a(g61
S'hoosierEE'
p261
S'hoosierEE/j'
p262
tp263
a(S'joddumps'
p264
S'bakerjd99'
p265
S'bakerjd99/joddumps'
p266
tp267
a(S'conway'
p268
S'hagleitn'
p269
S'hagleitn/conway'
p270
tp271
a(S'j-lapacke'
p272
S'locklin'
p273
S'locklin/j-lapacke'
p274
tp275
a(S'jicjacjoe'
p276
S'robertjlooby'
p277
S'robertjlooby/jicjacjoe'
p278
tp279
a(S'lingvo_e'
p280
S'j0k'
p281
S'j0k/lingvo_e'
p282
tp283
a(S'ju'
p284
S'j0k'
p285
S'j0k/ju'
p286
tp287
a(S'life'
p288
S'j0k'
p289
S'j0k/life'
p290
tp291
a(S'underJ'
p292
S'j0k'
p293
S'j0k/underJ'
p294
tp295
a.