(lp0
(S'tdd-bytecode'
p1
S'alandipert'
p2
S'alandipert/tdd-bytecode'
p3
tp4
a(S'spoofax-jasmin'
p5
S'metaborg'
p6
S'metaborg/spoofax-jasmin'
p7
tp8
a(S'FizzBuzz'
p9
S'zenware'
p10
S'zenware/FizzBuzz'
p11
tp12
a(S'Compilatori'
p13
S'spoto'
p14
S'spoto/Compilatori'
p15
tp16
a(S'drlvm-vts-bundle'
p17
S'robovm'
p18
S'robovm/drlvm-vts-bundle'
p19
tp20
a(S'FizzBuzz'
p21
S'chc4'
p22
S'chc4/FizzBuzz'
p23
tp24
a(S'drlvm-vts-bundle'
p25
S'intrigus'
p26
S'intrigus/drlvm-vts-bundle'
p27
tp28
a(S'minic-ide'
p29
S'hohogpb'
p30
S'hohogpb/minic-ide'
p31
tp32
a(S'Compilatori'
p33
S'bogo410'
p34
S'bogo410/Compilatori'
p35
tp36
a(S'Compilatori'
p37
S'MadBox93'
p38
S'MadBox93/Compilatori'
p39
tp40
a(S'Compilatori'
p41
S'ThisIsLazza'
p42
S'ThisIsLazza/Compilatori'
p43
tp44
a(S'Compilatori'
p45
S'Sihemsesame'
p46
S'Sihemsesame/Compilatori'
p47
tp48
a(S'FizzBuzz'
p49
S'YoniKF'
p50
S'YoniKF/FizzBuzz'
p51
tp52
a(S'drlvm-vts-bundle'
p53
S'eGit'
p54
S'eGit/drlvm-vts-bundle'
p55
tp56
a(S'NumGuess'
p57
S'daroczig'
p58
S'daroczig/NumGuess'
p59
tp60
a(S'boot-jasmin'
p61
S'alandipert'
p62
S'alandipert/boot-jasmin'
p63
tp64
a(S'arch'
p65
S'revildab'
p66
S'revildab/arch'
p67
tp68
a(S'ProjectEulerJasmin'
p69
S'ShivamMistry'
p70
S'ShivamMistry/ProjectEulerJasmin'
p71
tp72
a(S'shantytown'
p73
S'mikeln'
p74
S'mikeln/shantytown'
p75
tp76
a(S'sg-hackathon-may-2015'
p77
S'ezra-g'
p78
S'ezra-g/sg-hackathon-may-2015'
p79
tp80
a(S'JasminSample'
p81
S'matsu-chara'
p82
S'matsu-chara/JasminSample'
p83
tp84
a(S'20150605'
p85
S'zuotao'
p86
S'zuotao/20150605'
p87
tp88
a(S'Jasmin'
p89
S'liao1995'
p90
S'liao1995/Jasmin'
p91
tp92
a(S'FizzBuzz'
p93
S'rhedshi'
p94
S'rhedshi/FizzBuzz'
p95
tp96
a(S'tdd-bytecode'
p97
S'alandipert'
p98
S'alandipert/tdd-bytecode'
p99
tp100
a(S'spoofax-jasmin'
p101
S'metaborg'
p102
S'metaborg/spoofax-jasmin'
p103
tp104
a(S'FizzBuzz'
p105
S'zenware'
p106
S'zenware/FizzBuzz'
p107
tp108
a(S'Compilatori'
p109
S'spoto'
p110
S'spoto/Compilatori'
p111
tp112
a(S'drlvm-vts-bundle'
p113
S'robovm'
p114
S'robovm/drlvm-vts-bundle'
p115
tp116
a(S'FizzBuzz'
p117
S'chc4'
p118
S'chc4/FizzBuzz'
p119
tp120
a(S'drlvm-vts-bundle'
p121
S'intrigus'
p122
S'intrigus/drlvm-vts-bundle'
p123
tp124
a(S'minic-ide'
p125
S'hohogpb'
p126
S'hohogpb/minic-ide'
p127
tp128
a(S'Compilatori'
p129
S'bogo410'
p130
S'bogo410/Compilatori'
p131
tp132
a(S'Compilatori'
p133
S'MadBox93'
p134
S'MadBox93/Compilatori'
p135
tp136
a(S'Compilatori'
p137
S'ThisIsLazza'
p138
S'ThisIsLazza/Compilatori'
p139
tp140
a(S'Compilatori'
p141
S'Sihemsesame'
p142
S'Sihemsesame/Compilatori'
p143
tp144
a(S'FizzBuzz'
p145
S'YoniKF'
p146
S'YoniKF/FizzBuzz'
p147
tp148
a(S'drlvm-vts-bundle'
p149
S'eGit'
p150
S'eGit/drlvm-vts-bundle'
p151
tp152
a(S'NumGuess'
p153
S'daroczig'
p154
S'daroczig/NumGuess'
p155
tp156
a(S'CS4201_COMP'
p157
S'ojd2'
p158
S'ojd2/CS4201_COMP'
p159
tp160
a(S'boot-jasmin'
p161
S'alandipert'
p162
S'alandipert/boot-jasmin'
p163
tp164
a(S'arch'
p165
S'revildab'
p166
S'revildab/arch'
p167
tp168
a(S'ProjectEulerJasmin'
p169
S'ShivamMistry'
p170
S'ShivamMistry/ProjectEulerJasmin'
p171
tp172
a(S'shantytown'
p173
S'mikeln'
p174
S'mikeln/shantytown'
p175
tp176
a(S'sg-hackathon-may-2015'
p177
S'ezra-g'
p178
S'ezra-g/sg-hackathon-may-2015'
p179
tp180
a(S'JasminSample'
p181
S'matsu-chara'
p182
S'matsu-chara/JasminSample'
p183
tp184
a(S'20150605'
p185
S'zuotao'
p186
S'zuotao/20150605'
p187
tp188
a(S'Jasmin'
p189
S'liao1995'
p190
S'liao1995/Jasmin'
p191
tp192
a(S'FizzBuzz'
p193
S'rhedshi'
p194
S'rhedshi/FizzBuzz'
p195
tp196
a(S'tdd-bytecode'
p197
S'alandipert'
p198
S'alandipert/tdd-bytecode'
p199
tp200
a(S'spoofax-jasmin'
p201
S'metaborg'
p202
S'metaborg/spoofax-jasmin'
p203
tp204
a(S'FizzBuzz'
p205
S'zenware'
p206
S'zenware/FizzBuzz'
p207
tp208
a(S'Compilatori'
p209
S'spoto'
p210
S'spoto/Compilatori'
p211
tp212
a(S'drlvm-vts-bundle'
p213
S'robovm'
p214
S'robovm/drlvm-vts-bundle'
p215
tp216
a(S'FizzBuzz'
p217
S'chc4'
p218
S'chc4/FizzBuzz'
p219
tp220
a(S'drlvm-vts-bundle'
p221
S'intrigus'
p222
S'intrigus/drlvm-vts-bundle'
p223
tp224
a(S'minic-ide'
p225
S'hohogpb'
p226
S'hohogpb/minic-ide'
p227
tp228
a(S'Compilatori'
p229
S'bogo410'
p230
S'bogo410/Compilatori'
p231
tp232
a(S'Compilatori'
p233
S'MadBox93'
p234
S'MadBox93/Compilatori'
p235
tp236
a(S'Compilatori'
p237
S'ThisIsLazza'
p238
S'ThisIsLazza/Compilatori'
p239
tp240
a(S'Compilatori'
p241
S'Sihemsesame'
p242
S'Sihemsesame/Compilatori'
p243
tp244
a(S'FizzBuzz'
p245
S'YoniKF'
p246
S'YoniKF/FizzBuzz'
p247
tp248
a(S'drlvm-vts-bundle'
p249
S'eGit'
p250
S'eGit/drlvm-vts-bundle'
p251
tp252
a(S'NumGuess'
p253
S'daroczig'
p254
S'daroczig/NumGuess'
p255
tp256
a(S'CS4201_COMP'
p257
S'ojd2'
p258
S'ojd2/CS4201_COMP'
p259
tp260
a(S'boot-jasmin'
p261
S'alandipert'
p262
S'alandipert/boot-jasmin'
p263
tp264
a(S'arch'
p265
S'revildab'
p266
S'revildab/arch'
p267
tp268
a(S'ProjectEulerJasmin'
p269
S'ShivamMistry'
p270
S'ShivamMistry/ProjectEulerJasmin'
p271
tp272
a(S'shantytown'
p273
S'mikeln'
p274
S'mikeln/shantytown'
p275
tp276
a(S'sg-hackathon-may-2015'
p277
S'ezra-g'
p278
S'ezra-g/sg-hackathon-may-2015'
p279
tp280
a(S'JasminSample'
p281
S'matsu-chara'
p282
S'matsu-chara/JasminSample'
p283
tp284
a(S'20150605'
p285
S'zuotao'
p286
S'zuotao/20150605'
p287
tp288
a(S'Jasmin'
p289
S'liao1995'
p290
S'liao1995/Jasmin'
p291
tp292
a(S'FizzBuzz'
p293
S'rhedshi'
p294
S'rhedshi/FizzBuzz'
p295
tp296
a.