(lp0
(S'butter'
p1
S'butterproject'
p2
S'butterproject/butter'
p3
tp4
a(S'jquery-tips-everyone-should-know'
p5
S'AllThingsSmitty'
p6
S'AllThingsSmitty/jquery-tips-everyone-should-know'
p7
tp8
a(S'rollup'
p9
S'rollup'
p10
S'rollup/rollup'
p11
tp12
a(S'valid.js'
p13
S'dleitee'
p14
S'dleitee/valid.js'
p15
tp16
a(S'nightmare'
p17
S'segmentio'
p18
S'segmentio/nightmare'
p19
tp20
a(S'react-dom-stream'
p21
S'aickin'
p22
S'aickin/react-dom-stream'
p23
tp24
a(S'smartcrop.js'
p25
S'jwagner'
p26
S'jwagner/smartcrop.js'
p27
tp28
a(S'material-ui'
p29
S'callemall'
p30
S'callemall/material-ui'
p31
tp32
a(S'quick-pomelo'
p33
S'rain1017'
p34
S'rain1017/quick-pomelo'
p35
tp36
a(S'mysam'
p37
S'daffl'
p38
S'daffl/mysam'
p39
tp40
a(S'react-desktop'
p41
S'gabrielbull'
p42
S'gabrielbull/react-desktop'
p43
tp44
a(S'redux'
p45
S'rackt'
p46
S'rackt/redux'
p47
tp48
a(S'smart-mirror'
p49
S'evancohen'
p50
S'evancohen/smart-mirror'
p51
tp52
a(S'react-native'
p53
S'facebook'
p54
S'facebook/react-native'
p55
tp56
a(S'react'
p57
S'facebook'
p58
S'facebook/react'
p59
tp60
a(S'angular.js'
p61
S'angular'
p62
S'angular/angular.js'
p63
tp64
a(S'FinanceReactNative'
p65
S'7kfpun'
p66
S'7kfpun/FinanceReactNative'
p67
tp68
a(S'You-Dont-Know-JS'
p69
S'getify'
p70
S'getify/You-Dont-Know-JS'
p71
tp72
a(S'vue'
p73
S'vuejs'
p74
S'vuejs/vue'
p75
tp76
a(S'webpack'
p77
S'webpack'
p78
S'webpack/webpack'
p79
tp80
a(S'javascript'
p81
S'airbnb'
p82
S'airbnb/javascript'
p83
tp84
a(S'nodegarden'
p85
S'pakastin'
p86
S'pakastin/nodegarden'
p87
tp88
a(S'docker-menu'
p89
S'rdsubhas'
p90
S'rdsubhas/docker-menu'
p91
tp92
a(S'clipboard.js'
p93
S'zenorocha'
p94
S'zenorocha/clipboard.js'
p95
tp96
a(S'react-router'
p97
S'rackt'
p98
S'rackt/react-router'
p99
tp100
a(S'react-desktop'
p101
S'gabrielbull'
p102
S'gabrielbull/react-desktop'
p103
tp104
a(S'smartcrop.js'
p105
S'jwagner'
p106
S'jwagner/smartcrop.js'
p107
tp108
a(S'jquery-tips-everyone-should-know'
p109
S'AllThingsSmitty'
p110
S'AllThingsSmitty/jquery-tips-everyone-should-know'
p111
tp112
a(S'structor'
p113
S'ipselon'
p114
S'ipselon/structor'
p115
tp116
a(S'nightmare'
p117
S'segmentio'
p118
S'segmentio/nightmare'
p119
tp120
a(S'rollup'
p121
S'rollup'
p122
S'rollup/rollup'
p123
tp124
a(S'butter'
p125
S'butterproject'
p126
S'butterproject/butter'
p127
tp128
a(S'react-dom-stream'
p129
S'aickin'
p130
S'aickin/react-dom-stream'
p131
tp132
a(S'react'
p133
S'facebook'
p134
S'facebook/react'
p135
tp136
a(S'react-native'
p137
S'facebook'
p138
S'facebook/react-native'
p139
tp140
a(S'You-Dont-Know-JS'
p141
S'getify'
p142
S'getify/You-Dont-Know-JS'
p143
tp144
a(S'platform'
p145
S'mattermost'
p146
S'mattermost/platform'
p147
tp148
a(S'redux'
p149
S'rackt'
p150
S'rackt/redux'
p151
tp152
a(S'angular.js'
p153
S'angular'
p154
S'angular/angular.js'
p155
tp156
a(S'falcor'
p157
S'Netflix'
p158
S'Netflix/falcor'
p159
tp160
a(S'clipboard.js'
p161
S'zenorocha'
p162
S'zenorocha/clipboard.js'
p163
tp164
a(S'javascript'
p165
S'airbnb'
p166
S'airbnb/javascript'
p167
tp168
a(S'nodegarden'
p169
S'pakastin'
p170
S'pakastin/nodegarden'
p171
tp172
a(S'vue'
p173
S'vuejs'
p174
S'vuejs/vue'
p175
tp176
a(S'webpack'
p177
S'webpack'
p178
S'webpack/webpack'
p179
tp180
a(S'd3'
p181
S'mbostock'
p182
S'mbostock/d3'
p183
tp184
a(S'node'
p185
S'nodejs'
p186
S'nodejs/node'
p187
tp188
a(S'volkswagen'
p189
S'auchenberg'
p190
S'auchenberg/volkswagen'
p191
tp192
a(S'material-ui'
p193
S'callemall'
p194
S'callemall/material-ui'
p195
tp196
a(S'amphtml'
p197
S'ampproject'
p198
S'ampproject/amphtml'
p199
tp200
a(S'clipboard.js'
p201
S'zenorocha'
p202
S'zenorocha/clipboard.js'
p203
tp204
a(S'smartcrop.js'
p205
S'jwagner'
p206
S'jwagner/smartcrop.js'
p207
tp208
a(S'volkswagen'
p209
S'auchenberg'
p210
S'auchenberg/volkswagen'
p211
tp212
a(S'amphtml'
p213
S'ampproject'
p214
S'ampproject/amphtml'
p215
tp216
a(S'react-desktop'
p217
S'gabrielbull'
p218
S'gabrielbull/react-desktop'
p219
tp220
a(S'popmotion'
p221
S'Popmotion'
p222
S'Popmotion/popmotion'
p223
tp224
a(S'relax'
p225
S'relax'
p226
S'relax/relax'
p227
tp228
a(S'react-native'
p229
S'facebook'
p230
S'facebook/react-native'
p231
tp232
a(S'react'
p233
S'facebook'
p234
S'facebook/react'
p235
tp236
a(S'redux'
p237
S'rackt'
p238
S'rackt/redux'
p239
tp240
a(S'gatsby'
p241
S'gatsbyjs'
p242
S'gatsbyjs/gatsby'
p243
tp244
a(S'platform'
p245
S'mattermost'
p246
S'mattermost/platform'
p247
tp248
a(S'You-Dont-Know-JS'
p249
S'getify'
p250
S'getify/You-Dont-Know-JS'
p251
tp252
a(S'angular.js'
p253
S'angular'
p254
S'angular/angular.js'
p255
tp256
a(S'flux-challenge'
p257
S'staltz'
p258
S'staltz/flux-challenge'
p259
tp260
a(S'jquery-tips-everyone-should-know'
p261
S'AllThingsSmitty'
p262
S'AllThingsSmitty/jquery-tips-everyone-should-know'
p263
tp264
a(S'node'
p265
S'nodejs'
p266
S'nodejs/node'
p267
tp268
a(S'd3'
p269
S'mbostock'
p270
S'mbostock/d3'
p271
tp272
a(S'structor'
p273
S'ipselon'
p274
S'ipselon/structor'
p275
tp276
a(S'javascript'
p277
S'airbnb'
p278
S'airbnb/javascript'
p279
tp280
a(S'ContentTools'
p281
S'GetmeUK'
p282
S'GetmeUK/ContentTools'
p283
tp284
a(S'nightmare'
p285
S'segmentio'
p286
S'segmentio/nightmare'
p287
tp288
a(S'meteor'
p289
S'meteor'
p290
S'meteor/meteor'
p291
tp292
a(S'rollup'
p293
S'rollup'
p294
S'rollup/rollup'
p295
tp296
a(S'YouTransfer'
p297
S'remie'
p298
S'remie/YouTransfer'
p299
tp300
a.