(lp0
(S'ViewInspector'
p1
S'xfumihiro'
p2
S'xfumihiro/ViewInspector'
p3
tp4
a(S'FlowingDrawer'
p5
S'mxn21'
p6
S'mxn21/FlowingDrawer'
p7
tp8
a(S'atlasdb'
p9
S'palantir'
p10
S'palantir/atlasdb'
p11
tp12
a(S'NiceAppDemo'
p13
S'android-cjj'
p14
S'android-cjj/NiceAppDemo'
p15
tp16
a(S'javacpp'
p17
S'bytedeco'
p18
S'bytedeco/javacpp'
p19
tp20
a(S'iosched'
p21
S'google'
p22
S'google/iosched'
p23
tp24
a(S'fontbinding'
p25
S'lisawray'
p26
S'lisawray/fontbinding'
p27
tp28
a(S'AndroidWiFiADB'
p29
S'pedrovgs'
p30
S'pedrovgs/AndroidWiFiADB'
p31
tp32
a(S'TextSurface'
p33
S'elevenetc'
p34
S'elevenetc/TextSurface'
p35
tp36
a(S'VideoControllerView'
p37
S'brucetoo'
p38
S'brucetoo/VideoControllerView'
p39
tp40
a(S'RxJava'
p41
S'ReactiveX'
p42
S'ReactiveX/RxJava'
p43
tp44
a(S'ZhihuDailyPurify'
p45
S'izzyleung'
p46
S'izzyleung/ZhihuDailyPurify'
p47
tp48
a(S'android-UCToast'
p49
S'liaohuqiu'
p50
S'liaohuqiu/android-UCToast'
p51
tp52
a(S'java-design-patterns'
p53
S'iluwatar'
p54
S'iluwatar/java-design-patterns'
p55
tp56
a(S'Android-CleanArchitecture'
p57
S'android10'
p58
S'android10/Android-CleanArchitecture'
p59
tp60
a(S'blade'
p61
S'biezhi'
p62
S'biezhi/blade'
p63
tp64
a(S'Pickr'
p65
S'hitherejoe'
p66
S'hitherejoe/Pickr'
p67
tp68
a(S'glide'
p69
S'bumptech'
p70
S'bumptech/glide'
p71
tp72
a(S'okhttp'
p73
S'square'
p74
S'square/okhttp'
p75
tp76
a(S'retrofit'
p77
S'square'
p78
S'square/retrofit'
p79
tp80
a(S'GEM'
p81
S'Substance-Project'
p82
S'Substance-Project/GEM'
p83
tp84
a(S'MaterialDrawer'
p85
S'mikepenz'
p86
S'mikepenz/MaterialDrawer'
p87
tp88
a(S'RxBinding'
p89
S'JakeWharton'
p90
S'JakeWharton/RxBinding'
p91
tp92
a(S'Lobsterpicker'
p93
S'LarsWerkman'
p94
S'LarsWerkman/Lobsterpicker'
p95
tp96
a(S'libgdx'
p97
S'libgdx'
p98
S'libgdx/libgdx'
p99
tp100
a(S'TextSurface'
p101
S'elevenetc'
p102
S'elevenetc/TextSurface'
p103
tp104
a(S'AndroidWiFiADB'
p105
S'pedrovgs'
p106
S'pedrovgs/AndroidWiFiADB'
p107
tp108
a(S'FlowingDrawer'
p109
S'mxn21'
p110
S'mxn21/FlowingDrawer'
p111
tp112
a(S'VerticalViewPager'
p113
S'kaelaela'
p114
S'kaelaela/VerticalViewPager'
p115
tp116
a(S'android-UCToast'
p117
S'liaohuqiu'
p118
S'liaohuqiu/android-UCToast'
p119
tp120
a(S'iosched'
p121
S'google'
p122
S'google/iosched'
p123
tp124
a(S'fontbinding'
p125
S'lisawray'
p126
S'lisawray/fontbinding'
p127
tp128
a(S'RichText'
p129
S'zzhoujay'
p130
S'zzhoujay/RichText'
p131
tp132
a(S'java-design-patterns'
p133
S'iluwatar'
p134
S'iluwatar/java-design-patterns'
p135
tp136
a(S'RxJava'
p137
S'ReactiveX'
p138
S'ReactiveX/RxJava'
p139
tp140
a(S'KJGallery'
p141
S'kymjs'
p142
S'kymjs/KJGallery'
p143
tp144
a(S'material-theme-jetbrains'
p145
S'ChrisRM'
p146
S'ChrisRM/material-theme-jetbrains'
p147
tp148
a(S'digitus'
p149
S'afollestad'
p150
S'afollestad/digitus'
p151
tp152
a(S'AndResGuard'
p153
S'shwenzhang'
p154
S'shwenzhang/AndResGuard'
p155
tp156
a(S'glide'
p157
S'bumptech'
p158
S'bumptech/glide'
p159
tp160
a(S'retrofit'
p161
S'square'
p162
S'square/retrofit'
p163
tp164
a(S'leakcanary'
p165
S'square'
p166
S'square/leakcanary'
p167
tp168
a(S'A-MusicView'
p169
S'north2014'
p170
S'north2014/A-MusicView'
p171
tp172
a(S'AutosizeEditText'
p173
S'txusballesteros'
p174
S'txusballesteros/AutosizeEditText'
p175
tp176
a(S'okhttp'
p177
S'square'
p178
S'square/okhttp'
p179
tp180
a(S'photo-affix'
p181
S'afollestad'
p182
S'afollestad/photo-affix'
p183
tp184
a(S'RxPermissions'
p185
S'tbruyelle'
p186
S'tbruyelle/RxPermissions'
p187
tp188
a(S'Android-Universal-Image-Loader'
p189
S'nostra13'
p190
S'nostra13/Android-Universal-Image-Loader'
p191
tp192
a(S'CoordinatorBehaviorExample'
p193
S'saulmm'
p194
S'saulmm/CoordinatorBehaviorExample'
p195
tp196
a(S'guava'
p197
S'google'
p198
S'google/guava'
p199
tp200
a(S'ExplosionField'
p201
S'tyrantgit'
p202
S'tyrantgit/ExplosionField'
p203
tp204
a(S'material-theme-jetbrains'
p205
S'ChrisRM'
p206
S'ChrisRM/material-theme-jetbrains'
p207
tp208
a(S'TextSurface'
p209
S'elevenetc'
p210
S'elevenetc/TextSurface'
p211
tp212
a(S'iosched'
p213
S'google'
p214
S'google/iosched'
p215
tp216
a(S'Timber'
p217
S'naman14'
p218
S'naman14/Timber'
p219
tp220
a(S'AndResGuard'
p221
S'shwenzhang'
p222
S'shwenzhang/AndResGuard'
p223
tp224
a(S'java-design-patterns'
p225
S'iluwatar'
p226
S'iluwatar/java-design-patterns'
p227
tp228
a(S'AndroidWiFiADB'
p229
S'pedrovgs'
p230
S'pedrovgs/AndroidWiFiADB'
p231
tp232
a(S'RxJava'
p233
S'ReactiveX'
p234
S'ReactiveX/RxJava'
p235
tp236
a(S'FabricView'
p237
S'antwankakki'
p238
S'antwankakki/FabricView'
p239
tp240
a(S'RxPermissions'
p241
S'tbruyelle'
p242
S'tbruyelle/RxPermissions'
p243
tp244
a(S'retrofit'
p245
S'square'
p246
S'square/retrofit'
p247
tp248
a(S'okhttp'
p249
S'square'
p250
S'square/okhttp'
p251
tp252
a(S'guava'
p253
S'google'
p254
S'google/guava'
p255
tp256
a(S'elasticsearch'
p257
S'elastic'
p258
S'elastic/elasticsearch'
p259
tp260
a(S'A-MusicView'
p261
S'north2014'
p262
S'north2014/A-MusicView'
p263
tp264
a(S'leakcanary'
p265
S'square'
p266
S'square/leakcanary'
p267
tp268
a(S'FlowingDrawer'
p269
S'mxn21'
p270
S'mxn21/FlowingDrawer'
p271
tp272
a(S'DroidPlugin'
p273
S'Qihoo360'
p274
S'Qihoo360/DroidPlugin'
p275
tp276
a(S'ChangeSkin'
p277
S'hongyangAndroid'
p278
S'hongyangAndroid/ChangeSkin'
p279
tp280
a(S'HomeMirror'
p281
S'HannahMitt'
p282
S'HannahMitt/HomeMirror'
p283
tp284
a(S'smooth-app-bar-layout'
p285
S'henrytao-me'
p286
S'henrytao-me/smooth-app-bar-layout'
p287
tp288
a(S'glide'
p289
S'bumptech'
p290
S'bumptech/glide'
p291
tp292
a(S'Android-Universal-Image-Loader'
p293
S'nostra13'
p294
S'nostra13/Android-Universal-Image-Loader'
p295
tp296
a(S'spring-boot'
p297
S'spring-projects'
p298
S'spring-projects/spring-boot'
p299
tp300
a.