(lp0
(S'Compilation'
p1
S'PhantomD'
p2
S'PhantomD/Compilation'
p3
tp4
a(S'nim-idea'
p5
S'rgv151'
p6
S'rgv151/nim-idea'
p7
tp8
a(S'Compilation'
p9
S'PhantomD'
p10
S'PhantomD/Compilation'
p11
tp12
a(S'nim-idea'
p13
S'rgv151'
p14
S'rgv151/nim-idea'
p15
tp16
a(S'Compilation'
p17
S'PhantomD'
p18
S'PhantomD/Compilation'
p19
tp20
a(S'nim-idea'
p21
S'rgv151'
p22
S'rgv151/nim-idea'
p23
tp24
a.