(lp0
(S'nolap'
p1
S'28msec'
p2
S'28msec/nolap'
p3
tp4
a(S'jq-sudoku'
p5
S'slapresta'
p6
S'slapresta/jq-sudoku'
p7
tp8
a(S'jq-bigint'
p9
S'joelpurra'
p10
S'joelpurra/jq-bigint'
p11
tp12
a(S'JQ-FormCreation'
p13
S'TypeformIO'
p14
S'TypeformIO/JQ-FormCreation'
p15
tp16
a(S'decimalInfinite'
p17
S'ghislainfourny'
p18
S'ghislainfourny/decimalInfinite'
p19
tp20
a(S'jq_scripts'
p21
S'mivok'
p22
S'mivok/jq_scripts'
p23
tp24
a(S'xbrl-tutorial'
p25
S'28msec'
p26
S'28msec/xbrl-tutorial'
p27
tp28
a(S'jsoniq-mongodb-examples'
p29
S'wcandillon'
p30
S'wcandillon/jsoniq-mongodb-examples'
p31
tp32
a(S'jsoniq-documentdb'
p33
S'28msec'
p34
S'28msec/jsoniq-documentdb'
p35
tp36
a(S'jq-sudoku'
p37
S'jamiepg1'
p38
S'jamiepg1/jq-sudoku'
p39
tp40
a(S'nolap'
p41
S'pombredanne'
p42
S'pombredanne/nolap'
p43
tp44
a(S'cellstore'
p45
S'iand675'
p46
S'iand675/cellstore'
p47
tp48
a(S'cellstore'
p49
S'martinfaust'
p50
S'martinfaust/cellstore'
p51
tp52
a(S'jsoniq-demo'
p53
S'wcandillon'
p54
S'wcandillon/jsoniq-demo'
p55
tp56
a(S'cellstore'
p57
S'mindis'
p58
S'mindis/cellstore'
p59
tp60
a(S'jsoniq-documentdb'
p61
S'pombredanne'
p62
S'pombredanne/jsoniq-documentdb'
p63
tp64
a(S'trademark-import'
p65
S'pombredanne'
p66
S'pombredanne/trademark-import'
p67
tp68
a(S'cellstore'
p69
S'pombredanne'
p70
S'pombredanne/cellstore'
p71
tp72
a(S'bf.jq'
p73
S'MakeNowJust'
p74
S'MakeNowJust/bf.jq'
p75
tp76
a(S'rpgtextbased'
p77
S'jamiepg1'
p78
S'jamiepg1/rpgtextbased'
p79
tp80
a(S'jq_scripts'
p81
S'jamiepg1'
p82
S'jamiepg1/jq_scripts'
p83
tp84
a(S'openstack-examples'
p85
S'jamiepg1'
p86
S'jamiepg1/openstack-examples'
p87
tp88
a(S'app-disclosures'
p89
S'jamiepg1'
p90
S'jamiepg1/app-disclosures'
p91
tp92
a(S'cellstore'
p93
S'AndreSteenveld'
p94
S'AndreSteenveld/cellstore'
p95
tp96
a(S'secxbrl.info'
p97
S'jamiepg1'
p98
S'jamiepg1/secxbrl.info'
p99
tp100
a(S'nolap'
p101
S'28msec'
p102
S'28msec/nolap'
p103
tp104
a(S'jq-sudoku'
p105
S'slapresta'
p106
S'slapresta/jq-sudoku'
p107
tp108
a(S'jq-bigint'
p109
S'joelpurra'
p110
S'joelpurra/jq-bigint'
p111
tp112
a(S'JQ-FormCreation'
p113
S'TypeformIO'
p114
S'TypeformIO/JQ-FormCreation'
p115
tp116
a(S'decimalInfinite'
p117
S'ghislainfourny'
p118
S'ghislainfourny/decimalInfinite'
p119
tp120
a(S'jq_scripts'
p121
S'mivok'
p122
S'mivok/jq_scripts'
p123
tp124
a(S'xbrl-tutorial'
p125
S'28msec'
p126
S'28msec/xbrl-tutorial'
p127
tp128
a(S'jsoniq-mongodb-examples'
p129
S'wcandillon'
p130
S'wcandillon/jsoniq-mongodb-examples'
p131
tp132
a(S'jsoniq-documentdb'
p133
S'28msec'
p134
S'28msec/jsoniq-documentdb'
p135
tp136
a(S'jq-sudoku'
p137
S'jamiepg1'
p138
S'jamiepg1/jq-sudoku'
p139
tp140
a(S'nolap'
p141
S'pombredanne'
p142
S'pombredanne/nolap'
p143
tp144
a(S'cellstore'
p145
S'iand675'
p146
S'iand675/cellstore'
p147
tp148
a(S'cellstore'
p149
S'martinfaust'
p150
S'martinfaust/cellstore'
p151
tp152
a(S'jsoniq-demo'
p153
S'wcandillon'
p154
S'wcandillon/jsoniq-demo'
p155
tp156
a(S'cellstore'
p157
S'mindis'
p158
S'mindis/cellstore'
p159
tp160
a(S'jsoniq-documentdb'
p161
S'pombredanne'
p162
S'pombredanne/jsoniq-documentdb'
p163
tp164
a(S'trademark-import'
p165
S'pombredanne'
p166
S'pombredanne/trademark-import'
p167
tp168
a(S'cellstore'
p169
S'pombredanne'
p170
S'pombredanne/cellstore'
p171
tp172
a(S'bf.jq'
p173
S'MakeNowJust'
p174
S'MakeNowJust/bf.jq'
p175
tp176
a(S'rpgtextbased'
p177
S'jamiepg1'
p178
S'jamiepg1/rpgtextbased'
p179
tp180
a(S'jq_scripts'
p181
S'jamiepg1'
p182
S'jamiepg1/jq_scripts'
p183
tp184
a(S'openstack-examples'
p185
S'jamiepg1'
p186
S'jamiepg1/openstack-examples'
p187
tp188
a(S'app-disclosures'
p189
S'jamiepg1'
p190
S'jamiepg1/app-disclosures'
p191
tp192
a(S'cellstore'
p193
S'AndreSteenveld'
p194
S'AndreSteenveld/cellstore'
p195
tp196
a(S'secxbrl.info'
p197
S'jamiepg1'
p198
S'jamiepg1/secxbrl.info'
p199
tp200
a(S'nolap'
p201
S'28msec'
p202
S'28msec/nolap'
p203
tp204
a(S'jq-sudoku'
p205
S'slapresta'
p206
S'slapresta/jq-sudoku'
p207
tp208
a(S'jq-bigint'
p209
S'joelpurra'
p210
S'joelpurra/jq-bigint'
p211
tp212
a(S'JQ-FormCreation'
p213
S'TypeformIO'
p214
S'TypeformIO/JQ-FormCreation'
p215
tp216
a(S'decimalInfinite'
p217
S'ghislainfourny'
p218
S'ghislainfourny/decimalInfinite'
p219
tp220
a(S'jq_scripts'
p221
S'mivok'
p222
S'mivok/jq_scripts'
p223
tp224
a(S'xbrl-tutorial'
p225
S'28msec'
p226
S'28msec/xbrl-tutorial'
p227
tp228
a(S'jsoniq-mongodb-examples'
p229
S'wcandillon'
p230
S'wcandillon/jsoniq-mongodb-examples'
p231
tp232
a(S'jsoniq-documentdb'
p233
S'28msec'
p234
S'28msec/jsoniq-documentdb'
p235
tp236
a(S'jq-sudoku'
p237
S'jamiepg1'
p238
S'jamiepg1/jq-sudoku'
p239
tp240
a(S'nolap'
p241
S'pombredanne'
p242
S'pombredanne/nolap'
p243
tp244
a(S'cellstore'
p245
S'iand675'
p246
S'iand675/cellstore'
p247
tp248
a(S'cellstore'
p249
S'martinfaust'
p250
S'martinfaust/cellstore'
p251
tp252
a(S'jsoniq-demo'
p253
S'wcandillon'
p254
S'wcandillon/jsoniq-demo'
p255
tp256
a(S'cellstore'
p257
S'mindis'
p258
S'mindis/cellstore'
p259
tp260
a(S'jsoniq-documentdb'
p261
S'pombredanne'
p262
S'pombredanne/jsoniq-documentdb'
p263
tp264
a(S'trademark-import'
p265
S'pombredanne'
p266
S'pombredanne/trademark-import'
p267
tp268
a(S'cellstore'
p269
S'pombredanne'
p270
S'pombredanne/cellstore'
p271
tp272
a(S'bf.jq'
p273
S'MakeNowJust'
p274
S'MakeNowJust/bf.jq'
p275
tp276
a(S'rpgtextbased'
p277
S'jamiepg1'
p278
S'jamiepg1/rpgtextbased'
p279
tp280
a(S'jq_scripts'
p281
S'jamiepg1'
p282
S'jamiepg1/jq_scripts'
p283
tp284
a(S'openstack-examples'
p285
S'jamiepg1'
p286
S'jamiepg1/openstack-examples'
p287
tp288
a(S'app-disclosures'
p289
S'jamiepg1'
p290
S'jamiepg1/app-disclosures'
p291
tp292
a(S'cellstore'
p293
S'AndreSteenveld'
p294
S'AndreSteenveld/cellstore'
p295
tp296
a(S'secxbrl.info'
p297
S'jamiepg1'
p298
S'jamiepg1/secxbrl.info'
p299
tp300
a.