(lp0
(S'julia'
p1
S'JuliaLang'
p2
S'JuliaLang/julia'
p3
tp4
a(S'METADATA.jl'
p5
S'JuliaLang'
p6
S'JuliaLang/METADATA.jl'
p7
tp8
a(S'Clustering.jl'
p9
S'JuliaStats'
p10
S'JuliaStats/Clustering.jl'
p11
tp12
a(S'Gadfly.jl'
p13
S'dcjones'
p14
S'dcjones/Gadfly.jl'
p15
tp16
a(S'IJulia.jl'
p17
S'JuliaLang'
p18
S'JuliaLang/IJulia.jl'
p19
tp20
a(S'Mocha.jl'
p21
S'pluskid'
p22
S'pluskid/Mocha.jl'
p23
tp24
a(S'DataFrames.jl'
p25
S'JuliaStats'
p26
S'JuliaStats/DataFrames.jl'
p27
tp28
a(S'PyCall.jl'
p29
S'stevengj'
p30
S'stevengj/PyCall.jl'
p31
tp32
a(S'JuMP.jl'
p33
S'JuliaOpt'
p34
S'JuliaOpt/JuMP.jl'
p35
tp36
a(S'dictionary'
p37
S'adambom'
p38
S'adambom/dictionary'
p39
tp40
a(S'julia-tutorial'
p41
S'JuliaLang'
p42
S'JuliaLang/julia-tutorial'
p43
tp44
a(S'Escher.jl'
p45
S'shashi'
p46
S'shashi/Escher.jl'
p47
tp48
a(S'Optim.jl'
p49
S'JuliaOpt'
p50
S'JuliaOpt/Optim.jl'
p51
tp52
a(S'Morsel.jl'
p53
S'JuliaWeb'
p54
S'JuliaWeb/Morsel.jl'
p55
tp56
a(S'Distributions.jl'
p57
S'JuliaStats'
p58
S'JuliaStats/Distributions.jl'
p59
tp60
a(S'Convex.jl'
p61
S'JuliaOpt'
p62
S'JuliaOpt/Convex.jl'
p63
tp64
a(S'Cxx.jl'
p65
S'Keno'
p66
S'Keno/Cxx.jl'
p67
tp68
a(S'KUnet.jl'
p69
S'denizyuret'
p70
S'denizyuret/KUnet.jl'
p71
tp72
a(S'Interact.jl'
p73
S'JuliaLang'
p74
S'JuliaLang/Interact.jl'
p75
tp76
a(S'Graphs.jl'
p77
S'JuliaLang'
p78
S'JuliaLang/Graphs.jl'
p79
tp80
a(S'Winston.jl'
p81
S'nolta'
p82
S'nolta/Winston.jl'
p83
tp84
a(S'GeneticAlgorithms.jl'
p85
S'forio'
p86
S'forio/GeneticAlgorithms.jl'
p87
tp88
a(S'PyPlot.jl'
p89
S'stevengj'
p90
S'stevengj/PyPlot.jl'
p91
tp92
a(S'GLM.jl'
p93
S'JuliaStats'
p94
S'JuliaStats/GLM.jl'
p95
tp96
a(S'webstack.jl'
p97
S'recursecenter'
p98
S'recursecenter/webstack.jl'
p99
tp100
a(S'ParallelAccelerator.jl'
p101
S'IntelLabs'
p102
S'IntelLabs/ParallelAccelerator.jl'
p103
tp104
a(S'julia'
p105
S'JuliaLang'
p106
S'JuliaLang/julia'
p107
tp108
a(S'Gadfly.jl'
p109
S'dcjones'
p110
S'dcjones/Gadfly.jl'
p111
tp112
a(S'Mocha.jl'
p113
S'pluskid'
p114
S'pluskid/Mocha.jl'
p115
tp116
a(S'Distributions.jl'
p117
S'JuliaStats'
p118
S'JuliaStats/Distributions.jl'
p119
tp120
a(S'ODBC.jl'
p121
S'JuliaDB'
p122
S'JuliaDB/ODBC.jl'
p123
tp124
a(S'MPI.jl'
p125
S'JuliaParallel'
p126
S'JuliaParallel/MPI.jl'
p127
tp128
a(S'Match.jl'
p129
S'kmsquire'
p130
S'kmsquire/Match.jl'
p131
tp132
a(S'StatsBase.jl'
p133
S'JuliaStats'
p134
S'JuliaStats/StatsBase.jl'
p135
tp136
a(S'Mamba.jl'
p137
S'brian-j-smith'
p138
S'brian-j-smith/Mamba.jl'
p139
tp140
a(S'HttpServer.jl'
p141
S'JuliaWeb'
p142
S'JuliaWeb/HttpServer.jl'
p143
tp144
a(S'Benchmarks.jl'
p145
S'johnmyleswhite'
p146
S'johnmyleswhite/Benchmarks.jl'
p147
tp148
a(S'IJulia.jl'
p149
S'JuliaLang'
p150
S'JuliaLang/IJulia.jl'
p151
tp152
a(S'DataFrames.jl'
p153
S'JuliaStats'
p154
S'JuliaStats/DataFrames.jl'
p155
tp156
a(S'PyCall.jl'
p157
S'stevengj'
p158
S'stevengj/PyCall.jl'
p159
tp160
a(S'JuMP.jl'
p161
S'JuliaOpt'
p162
S'JuliaOpt/JuMP.jl'
p163
tp164
a(S'dictionary'
p165
S'adambom'
p166
S'adambom/dictionary'
p167
tp168
a(S'julia-tutorial'
p169
S'JuliaLang'
p170
S'JuliaLang/julia-tutorial'
p171
tp172
a(S'Escher.jl'
p173
S'shashi'
p174
S'shashi/Escher.jl'
p175
tp176
a(S'Optim.jl'
p177
S'JuliaOpt'
p178
S'JuliaOpt/Optim.jl'
p179
tp180
a(S'Morsel.jl'
p181
S'JuliaWeb'
p182
S'JuliaWeb/Morsel.jl'
p183
tp184
a(S'Convex.jl'
p185
S'JuliaOpt'
p186
S'JuliaOpt/Convex.jl'
p187
tp188
a(S'Cxx.jl'
p189
S'Keno'
p190
S'Keno/Cxx.jl'
p191
tp192
a(S'KUnet.jl'
p193
S'denizyuret'
p194
S'denizyuret/KUnet.jl'
p195
tp196
a(S'Interact.jl'
p197
S'JuliaLang'
p198
S'JuliaLang/Interact.jl'
p199
tp200
a(S'julia'
p201
S'JuliaLang'
p202
S'JuliaLang/julia'
p203
tp204
a(S'Mocha.jl'
p205
S'pluskid'
p206
S'pluskid/Mocha.jl'
p207
tp208
a(S'ParallelAccelerator.jl'
p209
S'IntelLabs'
p210
S'IntelLabs/ParallelAccelerator.jl'
p211
tp212
a(S'Gadfly.jl'
p213
S'dcjones'
p214
S'dcjones/Gadfly.jl'
p215
tp216
a(S'METADATA.jl'
p217
S'JuliaLang'
p218
S'JuliaLang/METADATA.jl'
p219
tp220
a(S'Escher.jl'
p221
S'shashi'
p222
S'shashi/Escher.jl'
p223
tp224
a(S'Nemo.jl'
p225
S'wbhart'
p226
S'wbhart/Nemo.jl'
p227
tp228
a(S'Plots.jl'
p229
S'tbreloff'
p230
S'tbreloff/Plots.jl'
p231
tp232
a(S'Distributions.jl'
p233
S'JuliaStats'
p234
S'JuliaStats/Distributions.jl'
p235
tp236
a(S'TextAnalysis.jl'
p237
S'johnmyleswhite'
p238
S'johnmyleswhite/TextAnalysis.jl'
p239
tp240
a(S'PyCall.jl'
p241
S'stevengj'
p242
S'stevengj/PyCall.jl'
p243
tp244
a(S'JuMP.jl'
p245
S'JuliaOpt'
p246
S'JuliaOpt/JuMP.jl'
p247
tp248
a(S'LightGraphs.jl'
p249
S'JuliaGraphs'
p250
S'JuliaGraphs/LightGraphs.jl'
p251
tp252
a(S'Optim.jl'
p253
S'JuliaOpt'
p254
S'JuliaOpt/Optim.jl'
p255
tp256
a(S'Cxx.jl'
p257
S'Keno'
p258
S'Keno/Cxx.jl'
p259
tp260
a(S'DataStructures.jl'
p261
S'JuliaLang'
p262
S'JuliaLang/DataStructures.jl'
p263
tp264
a(S'HttpServer.jl'
p265
S'JuliaWeb'
p266
S'JuliaWeb/HttpServer.jl'
p267
tp268
a(S'Reactive.jl'
p269
S'JuliaLang'
p270
S'JuliaLang/Reactive.jl'
p271
tp272
a(S'Vega.jl'
p273
S'johnmyleswhite'
p274
S'johnmyleswhite/Vega.jl'
p275
tp276
a(S'OnlineStats.jl'
p277
S'joshday'
p278
S'joshday/OnlineStats.jl'
p279
tp280
a(S'Match.jl'
p281
S'kmsquire'
p282
S'kmsquire/Match.jl'
p283
tp284
a(S'ForwardDiff.jl'
p285
S'JuliaDiff'
p286
S'JuliaDiff/ForwardDiff.jl'
p287
tp288
a(S'PostgreSQL.jl'
p289
S'JuliaDB'
p290
S'JuliaDB/PostgreSQL.jl'
p291
tp292
a(S'Jewel.jl'
p293
S'one-more-minute'
p294
S'one-more-minute/Jewel.jl'
p295
tp296
a(S'IJulia.jl'
p297
S'JuliaLang'
p298
S'JuliaLang/IJulia.jl'
p299
tp300
a.