(lp0
(S'rpi-rgb-led-matrix'
p1
S'hzeller'
p2
S'hzeller/rpi-rgb-led-matrix'
p3
tp4
a(S'hackrf'
p5
S'mossmann'
p6
S'mossmann/hackrf'
p7
tp8
a(S'usbarmory'
p9
S'inversepath'
p10
S'inversepath/usbarmory'
p11
tp12
a(S'atreus'
p13
S'technomancy'
p14
S'technomancy/atreus'
p15
tp16
a(S'HACKberry'
p17
S'exiii'
p18
S'exiii/HACKberry'
p19
tp20
a(S'BeagleLogic'
p21
S'abhishek-kakkar'
p22
S'abhishek-kakkar/BeagleLogic'
p23
tp24
a(S'picrin'
p25
S'picrin-scheme'
p26
S'picrin-scheme/picrin'
p27
tp28
a(S'cantact-hw'
p29
S'linklayer'
p30
S'linklayer/cantact-hw'
p31
tp32
a(S'g33k'
p33
S'hwiguna'
p34
S'hwiguna/g33k'
p35
tp36
a(S'ErgoDox'
p37
S'bishboria'
p38
S'bishboria/ErgoDox'
p39
tp40
a(S'fmcw'
p41
S'Ttl'
p42
S'Ttl/fmcw'
p43
tp44
a(S'ESP-Breakout'
p45
S'baoshi'
p46
S'baoshi/ESP-Breakout'
p47
tp48
a(S'health-data-standards'
p49
S'projectcypress'
p50
S'projectcypress/health-data-standards'
p51
tp52
a(S'bldc-hardware'
p53
S'vedderb'
p54
S'vedderb/bldc-hardware'
p55
tp56
a(S'HW-AC-Emeter'
p57
S'hwstar'
p58
S'hwstar/HW-AC-Emeter'
p59
tp60
a(S'pcieduino'
p61
S'moonpunchorg'
p62
S'moonpunchorg/pcieduino'
p63
tp64
a(S'cc11xx'
p65
S'mossmann'
p66
S'mossmann/cc11xx'
p67
tp68
a(S'wiflier'
p69
S'cnlohr'
p70
S'cnlohr/wiflier'
p71
tp72
a(S'crazyflie-electronics'
p73
S'bitcraze'
p74
S'bitcraze/crazyflie-electronics'
p75
tp76
a(S'retroreflectors'
p77
S'mossmann'
p78
S'mossmann/retroreflectors'
p79
tp80
a(S'alamode'
p81
S'wyolum'
p82
S'wyolum/alamode'
p83
tp84
a(S'Hermes-Lite'
p85
S'softerhardware'
p86
S'softerhardware/Hermes-Lite'
p87
tp88
a(S'fmcw2'
p89
S'Ttl'
p90
S'Ttl/fmcw2'
p91
tp92
a(S'KiCad-Libraries'
p93
S'imciner2'
p94
S'imciner2/KiCad-Libraries'
p95
tp96
a(S'esp12-appliance_mod'
p97
S'hwstar'
p98
S'hwstar/esp12-appliance_mod'
p99
tp100
a(S'hackrf'
p101
S'mossmann'
p102
S'mossmann/hackrf'
p103
tp104
a(S'usbarmory'
p105
S'inversepath'
p106
S'inversepath/usbarmory'
p107
tp108
a(S'atreus'
p109
S'technomancy'
p110
S'technomancy/atreus'
p111
tp112
a(S'rpi-rgb-led-matrix'
p113
S'hzeller'
p114
S'hzeller/rpi-rgb-led-matrix'
p115
tp116
a(S'HACKberry'
p117
S'exiii'
p118
S'exiii/HACKberry'
p119
tp120
a(S'BeagleLogic'
p121
S'abhishek-kakkar'
p122
S'abhishek-kakkar/BeagleLogic'
p123
tp124
a(S'picrin'
p125
S'picrin-scheme'
p126
S'picrin-scheme/picrin'
p127
tp128
a(S'cantact-hw'
p129
S'linklayer'
p130
S'linklayer/cantact-hw'
p131
tp132
a(S'g33k'
p133
S'hwiguna'
p134
S'hwiguna/g33k'
p135
tp136
a(S'ErgoDox'
p137
S'bishboria'
p138
S'bishboria/ErgoDox'
p139
tp140
a(S'fmcw'
p141
S'Ttl'
p142
S'Ttl/fmcw'
p143
tp144
a(S'ESP-Breakout'
p145
S'baoshi'
p146
S'baoshi/ESP-Breakout'
p147
tp148
a(S'health-data-standards'
p149
S'projectcypress'
p150
S'projectcypress/health-data-standards'
p151
tp152
a(S'bldc-hardware'
p153
S'vedderb'
p154
S'vedderb/bldc-hardware'
p155
tp156
a(S'HW-AC-Emeter'
p157
S'hwstar'
p158
S'hwstar/HW-AC-Emeter'
p159
tp160
a(S'pcieduino'
p161
S'moonpunchorg'
p162
S'moonpunchorg/pcieduino'
p163
tp164
a(S'cc11xx'
p165
S'mossmann'
p166
S'mossmann/cc11xx'
p167
tp168
a(S'crazyflie-electronics'
p169
S'bitcraze'
p170
S'bitcraze/crazyflie-electronics'
p171
tp172
a(S'wiflier'
p173
S'cnlohr'
p174
S'cnlohr/wiflier'
p175
tp176
a(S'retroreflectors'
p177
S'mossmann'
p178
S'mossmann/retroreflectors'
p179
tp180
a(S'alamode'
p181
S'wyolum'
p182
S'wyolum/alamode'
p183
tp184
a(S'Hermes-Lite'
p185
S'softerhardware'
p186
S'softerhardware/Hermes-Lite'
p187
tp188
a(S'fmcw2'
p189
S'Ttl'
p190
S'Ttl/fmcw2'
p191
tp192
a(S'KiCad-Libraries'
p193
S'imciner2'
p194
S'imciner2/KiCad-Libraries'
p195
tp196
a(S'esp12-appliance_mod'
p197
S'hwstar'
p198
S'hwstar/esp12-appliance_mod'
p199
tp200
a(S'hackrf'
p201
S'mossmann'
p202
S'mossmann/hackrf'
p203
tp204
a(S'usbarmory'
p205
S'inversepath'
p206
S'inversepath/usbarmory'
p207
tp208
a(S'rpi-rgb-led-matrix'
p209
S'hzeller'
p210
S'hzeller/rpi-rgb-led-matrix'
p211
tp212
a(S'g33k'
p213
S'hwiguna'
p214
S'hwiguna/g33k'
p215
tp216
a(S'atreus'
p217
S'technomancy'
p218
S'technomancy/atreus'
p219
tp220
a(S'HACKberry'
p221
S'exiii'
p222
S'exiii/HACKberry'
p223
tp224
a(S'BeagleLogic'
p225
S'abhishek-kakkar'
p226
S'abhishek-kakkar/BeagleLogic'
p227
tp228
a(S'picrin'
p229
S'picrin-scheme'
p230
S'picrin-scheme/picrin'
p231
tp232
a(S'cantact-hw'
p233
S'linklayer'
p234
S'linklayer/cantact-hw'
p235
tp236
a(S'ErgoDox'
p237
S'bishboria'
p238
S'bishboria/ErgoDox'
p239
tp240
a(S'fmcw'
p241
S'Ttl'
p242
S'Ttl/fmcw'
p243
tp244
a(S'ESP-Breakout'
p245
S'baoshi'
p246
S'baoshi/ESP-Breakout'
p247
tp248
a(S'health-data-standards'
p249
S'projectcypress'
p250
S'projectcypress/health-data-standards'
p251
tp252
a(S'bldc-hardware'
p253
S'vedderb'
p254
S'vedderb/bldc-hardware'
p255
tp256
a(S'HW-AC-Emeter'
p257
S'hwstar'
p258
S'hwstar/HW-AC-Emeter'
p259
tp260
a(S'pcieduino'
p261
S'moonpunchorg'
p262
S'moonpunchorg/pcieduino'
p263
tp264
a(S'cc11xx'
p265
S'mossmann'
p266
S'mossmann/cc11xx'
p267
tp268
a(S'wiflier'
p269
S'cnlohr'
p270
S'cnlohr/wiflier'
p271
tp272
a(S'crazyflie-electronics'
p273
S'bitcraze'
p274
S'bitcraze/crazyflie-electronics'
p275
tp276
a(S'retroreflectors'
p277
S'mossmann'
p278
S'mossmann/retroreflectors'
p279
tp280
a(S'alamode'
p281
S'wyolum'
p282
S'wyolum/alamode'
p283
tp284
a(S'Hermes-Lite'
p285
S'softerhardware'
p286
S'softerhardware/Hermes-Lite'
p287
tp288
a(S'fmcw2'
p289
S'Ttl'
p290
S'Ttl/fmcw2'
p291
tp292
a(S'KiCad-Libraries'
p293
S'imciner2'
p294
S'imciner2/KiCad-Libraries'
p295
tp296
a(S'esp12-appliance_mod'
p297
S'hwstar'
p298
S'hwstar/esp12-appliance_mod'
p299
tp300
a.