(lp0
(S'Polypkg'
p1
S'dell-oss'
p2
S'dell-oss/Polypkg'
p3
tp4
a(S'ScottHSmith.com'
p5
S'ScottSmith95'
p6
S'ScottSmith95/ScottHSmith.com'
p7
tp8
a(S'My-Personal-Website'
p9
S'zhitaoyin'
p10
S'zhitaoyin/My-Personal-Website'
p11
tp12
a(S'starter'
p13
S'kutoft'
p14
S'kutoft/starter'
p15
tp16
a(S'lofholm-se'
p17
S'KarlLofholm'
p18
S'KarlLofholm/lofholm-se'
p19
tp20
a(S'forix'
p21
S'phamnguyenhuy'
p22
S'phamnguyenhuy/forix'
p23
tp24
a(S'MyWebsite'
p25
S'ashangha'
p26
S'ashangha/MyWebsite'
p27
tp28
a(S'ashangha.github.io'
p29
S'ashangha'
p30
S'ashangha/ashangha.github.io'
p31
tp32
a(S'andreimaximov-web-site'
p33
S'andreimaximov'
p34
S'andreimaximov/andreimaximov-web-site'
p35
tp36
a(S'PhotoView_SamsungSmartTv'
p37
S'hoomi'
p38
S'hoomi/PhotoView_SamsungSmartTv'
p39
tp40
a(S'creativedevelopment'
p41
S'TobiasMeister98'
p42
S'TobiasMeister98/creativedevelopment'
p43
tp44
a(S'rossgray.github.io'
p45
S'rossgray'
p46
S'rossgray/rossgray.github.io'
p47
tp48
a(S'cd-module-starter'
p49
S'cdig'
p50
S'cdig/cd-module-starter'
p51
tp52
a(S'gravida'
p53
S'GioSensation'
p54
S'GioSensation/gravida'
p55
tp56
a(S'ScottHSmith.com'
p57
S'acburdine'
p58
S'acburdine/ScottHSmith.com'
p59
tp60
a(S'Polypkg'
p61
S'dell-oss'
p62
S'dell-oss/Polypkg'
p63
tp64
a(S'ScottHSmith.com'
p65
S'ScottSmith95'
p66
S'ScottSmith95/ScottHSmith.com'
p67
tp68
a(S'My-Personal-Website'
p69
S'zhitaoyin'
p70
S'zhitaoyin/My-Personal-Website'
p71
tp72
a(S'starter'
p73
S'kutoft'
p74
S'kutoft/starter'
p75
tp76
a(S'lofholm-se'
p77
S'KarlLofholm'
p78
S'KarlLofholm/lofholm-se'
p79
tp80
a(S'forix'
p81
S'phamnguyenhuy'
p82
S'phamnguyenhuy/forix'
p83
tp84
a(S'MyWebsite'
p85
S'ashangha'
p86
S'ashangha/MyWebsite'
p87
tp88
a(S'ashangha.github.io'
p89
S'ashangha'
p90
S'ashangha/ashangha.github.io'
p91
tp92
a(S'andreimaximov-web-site'
p93
S'andreimaximov'
p94
S'andreimaximov/andreimaximov-web-site'
p95
tp96
a(S'PhotoView_SamsungSmartTv'
p97
S'hoomi'
p98
S'hoomi/PhotoView_SamsungSmartTv'
p99
tp100
a(S'creativedevelopment'
p101
S'TobiasMeister98'
p102
S'TobiasMeister98/creativedevelopment'
p103
tp104
a(S'rossgray.github.io'
p105
S'rossgray'
p106
S'rossgray/rossgray.github.io'
p107
tp108
a(S'cd-module-starter'
p109
S'cdig'
p110
S'cdig/cd-module-starter'
p111
tp112
a(S'gravida'
p113
S'GioSensation'
p114
S'GioSensation/gravida'
p115
tp116
a(S'ScottHSmith.com'
p117
S'acburdine'
p118
S'acburdine/ScottHSmith.com'
p119
tp120
a(S'Polypkg'
p121
S'dell-oss'
p122
S'dell-oss/Polypkg'
p123
tp124
a(S'ScottHSmith.com'
p125
S'ScottSmith95'
p126
S'ScottSmith95/ScottHSmith.com'
p127
tp128
a(S'My-Personal-Website'
p129
S'zhitaoyin'
p130
S'zhitaoyin/My-Personal-Website'
p131
tp132
a(S'starter'
p133
S'kutoft'
p134
S'kutoft/starter'
p135
tp136
a(S'lofholm-se'
p137
S'KarlLofholm'
p138
S'KarlLofholm/lofholm-se'
p139
tp140
a(S'forix'
p141
S'phamnguyenhuy'
p142
S'phamnguyenhuy/forix'
p143
tp144
a(S'MyWebsite'
p145
S'ashangha'
p146
S'ashangha/MyWebsite'
p147
tp148
a(S'ashangha.github.io'
p149
S'ashangha'
p150
S'ashangha/ashangha.github.io'
p151
tp152
a(S'andreimaximov-web-site'
p153
S'andreimaximov'
p154
S'andreimaximov/andreimaximov-web-site'
p155
tp156
a(S'PhotoView_SamsungSmartTv'
p157
S'hoomi'
p158
S'hoomi/PhotoView_SamsungSmartTv'
p159
tp160
a(S'creativedevelopment'
p161
S'TobiasMeister98'
p162
S'TobiasMeister98/creativedevelopment'
p163
tp164
a(S'rossgray.github.io'
p165
S'rossgray'
p166
S'rossgray/rossgray.github.io'
p167
tp168
a(S'cd-module-starter'
p169
S'cdig'
p170
S'cdig/cd-module-starter'
p171
tp172
a(S'gravida'
p173
S'GioSensation'
p174
S'GioSensation/gravida'
p175
tp176
a(S'ScottHSmith.com'
p177
S'acburdine'
p178
S'acburdine/ScottHSmith.com'
p179
tp180
a.