(lp0
(S'funKTionale'
p1
S'MarioAriasC'
p2
S'MarioAriasC/funKTionale'
p3
tp4
a(S'workshop-jb'
p5
S'JetBrains'
p6
S'JetBrains/workshop-jb'
p7
tp8
a(S'swot'
p9
S'JetBrains'
p10
S'JetBrains/swot'
p11
tp12
a(S'anko'
p13
S'JetBrains'
p14
S'JetBrains/anko'
p15
tp16
a(S'lwjgl3'
p17
S'LWJGL'
p18
S'LWJGL/lwjgl3'
p19
tp20
a(S'kotterknife'
p21
S'JakeWharton'
p22
S'JakeWharton/kotterknife'
p23
tp24
a(S'Bandhook-Kotlin'
p25
S'antoniolg'
p26
S'antoniolg/Bandhook-Kotlin'
p27
tp28
a(S'RxKotlin'
p29
S'ReactiveX'
p30
S'ReactiveX/RxKotlin'
p31
tp32
a(S'KAndroid'
p33
S'pawegio'
p34
S'pawegio/KAndroid'
p35
tp36
a(S'haskell-idea-plugin'
p37
S'atsky'
p38
S'atsky/haskell-idea-plugin'
p39
tp40
a(S'MaterialStatusBarCompat'
p41
S'fython'
p42
S'fython/MaterialStatusBarCompat'
p43
tp44
a(S'TeamCity.Node'
p45
S'jonnyzzz'
p46
S'jonnyzzz/TeamCity.Node'
p47
tp48
a(S'AceJump'
p49
S'johnlindquist'
p50
S'johnlindquist/AceJump'
p51
tp52
a(S'wasabi'
p53
S'hhariri'
p54
S'hhariri/wasabi'
p55
tp56
a(S'kara'
p57
S'TinyMission'
p58
S'TinyMission/kara'
p59
tp60
a(S'settings-repository'
p61
S'develar'
p62
S'develar/settings-repository'
p63
tp64
a(S'kotlin-dagger-example'
p65
S'damianpetla'
p66
S'damianpetla/kotlin-dagger-example'
p67
tp68
a(S'palettehelper'
p69
S'hzsweers'
p70
S'hzsweers/palettehelper'
p71
tp72
a(S'spek'
p73
S'JetBrains'
p74
S'JetBrains/spek'
p75
tp76
a(S'kotlin-examples'
p77
S'JetBrains'
p78
S'JetBrains/kotlin-examples'
p79
tp80
a(S'android-kotlin-samples'
p81
S'irontec'
p82
S'irontec/android-kotlin-samples'
p83
tp84
a(S'kotlinAndroidLib'
p85
S'vladlichonos'
p86
S'vladlichonos/kotlinAndroidLib'
p87
tp88
a(S'tudounotepad'
p89
S'geminiwen'
p90
S'geminiwen/tudounotepad'
p91
tp92
a(S'kovenant'
p93
S'mplatvoet'
p94
S'mplatvoet/kovenant'
p95
tp96
a(S'androidKotlin'
p97
S'yoavst'
p98
S'yoavst/androidKotlin'
p99
tp100
a(S'anko'
p101
S'JetBrains'
p102
S'JetBrains/anko'
p103
tp104
a(S'RxKotlin'
p105
S'ReactiveX'
p106
S'ReactiveX/RxKotlin'
p107
tp108
a(S'intellij-rust'
p109
S'alexeykudinkin'
p110
S'alexeykudinkin/intellij-rust'
p111
tp112
a(S'kotterknife'
p113
S'JakeWharton'
p114
S'JakeWharton/kotterknife'
p115
tp116
a(S'workshop-jb'
p117
S'JetBrains'
p118
S'JetBrains/workshop-jb'
p119
tp120
a(S'lwjgl3'
p121
S'LWJGL'
p122
S'LWJGL/lwjgl3'
p123
tp124
a(S'Fuel'
p125
S'kittinunf'
p126
S'kittinunf/Fuel'
p127
tp128
a(S'kobalt'
p129
S'cbeust'
p130
S'cbeust/kobalt'
p131
tp132
a(S'injekt'
p133
S'kohesive'
p134
S'kohesive/injekt'
p135
tp136
a(S'Bandhook-Kotlin'
p137
S'antoniolg'
p138
S'antoniolg/Bandhook-Kotlin'
p139
tp140
a(S'KAndroid'
p141
S'pawegio'
p142
S'pawegio/KAndroid'
p143
tp144
a(S'haskell-idea-plugin'
p145
S'atsky'
p146
S'atsky/haskell-idea-plugin'
p147
tp148
a(S'MaterialStatusBarCompat'
p149
S'fython'
p150
S'fython/MaterialStatusBarCompat'
p151
tp152
a(S'TeamCity.Node'
p153
S'jonnyzzz'
p154
S'jonnyzzz/TeamCity.Node'
p155
tp156
a(S'AceJump'
p157
S'johnlindquist'
p158
S'johnlindquist/AceJump'
p159
tp160
a(S'wasabi'
p161
S'hhariri'
p162
S'hhariri/wasabi'
p163
tp164
a(S'kara'
p165
S'TinyMission'
p166
S'TinyMission/kara'
p167
tp168
a(S'settings-repository'
p169
S'develar'
p170
S'develar/settings-repository'
p171
tp172
a(S'kotlin-dagger-example'
p173
S'damianpetla'
p174
S'damianpetla/kotlin-dagger-example'
p175
tp176
a(S'palettehelper'
p177
S'hzsweers'
p178
S'hzsweers/palettehelper'
p179
tp180
a(S'swot'
p181
S'JetBrains'
p182
S'JetBrains/swot'
p183
tp184
a(S'spek'
p185
S'JetBrains'
p186
S'JetBrains/spek'
p187
tp188
a(S'kotlin-examples'
p189
S'JetBrains'
p190
S'JetBrains/kotlin-examples'
p191
tp192
a(S'android-kotlin-samples'
p193
S'irontec'
p194
S'irontec/android-kotlin-samples'
p195
tp196
a(S'kotlinAndroidLib'
p197
S'vladlichonos'
p198
S'vladlichonos/kotlinAndroidLib'
p199
tp200
a(S'anko'
p201
S'JetBrains'
p202
S'JetBrains/anko'
p203
tp204
a(S'lwjgl3'
p205
S'LWJGL'
p206
S'LWJGL/lwjgl3'
p207
tp208
a(S'intellij-rust'
p209
S'alexeykudinkin'
p210
S'alexeykudinkin/intellij-rust'
p211
tp212
a(S'RxKotlin'
p213
S'ReactiveX'
p214
S'ReactiveX/RxKotlin'
p215
tp216
a(S'workshop-jb'
p217
S'JetBrains'
p218
S'JetBrains/workshop-jb'
p219
tp220
a(S'Fuel'
p221
S'kittinunf'
p222
S'kittinunf/Fuel'
p223
tp224
a(S'kotterknife'
p225
S'JakeWharton'
p226
S'JakeWharton/kotterknife'
p227
tp228
a(S'kobalt'
p229
S'cbeust'
p230
S'cbeust/kobalt'
p231
tp232
a(S'kotlin-jetpack'
p233
S'nsk-mironov'
p234
S'nsk-mironov/kotlin-jetpack'
p235
tp236
a(S'injekt'
p237
S'kohesive'
p238
S'kohesive/injekt'
p239
tp240
a(S'funKTionale'
p241
S'MarioAriasC'
p242
S'MarioAriasC/funKTionale'
p243
tp244
a(S'kotlin-dagger-example'
p245
S'damianpetla'
p246
S'damianpetla/kotlin-dagger-example'
p247
tp248
a(S'KAndroid'
p249
S'pawegio'
p250
S'pawegio/KAndroid'
p251
tp252
a(S'kovenant'
p253
S'mplatvoet'
p254
S'mplatvoet/kovenant'
p255
tp256
a(S'spek'
p257
S'JetBrains'
p258
S'JetBrains/spek'
p259
tp260
a(S'Kotlin-for-Android-Developers'
p261
S'antoniolg'
p262
S'antoniolg/Kotlin-for-Android-Developers'
p263
tp264
a(S'haskell-idea-plugin'
p265
S'atsky'
p266
S'atsky/haskell-idea-plugin'
p267
tp268
a(S'Kotson'
p269
S'SalomonBrys'
p270
S'SalomonBrys/Kotson'
p271
tp272
a(S'Exposed'
p273
S'JetBrains'
p274
S'JetBrains/Exposed'
p275
tp276
a(S'klaxon'
p277
S'cbeust'
p278
S'cbeust/klaxon'
p279
tp280
a(S'jackson-module-kotlin'
p281
S'FasterXML'
p282
S'FasterXML/jackson-module-kotlin'
p283
tp284
a(S'kwery'
p285
S'andrewoma'
p286
S'andrewoma/kwery'
p287
tp288
a(S'Bandhook-Kotlin'
p289
S'antoniolg'
p290
S'antoniolg/Bandhook-Kotlin'
p291
tp292
a(S'MaterialStatusBarCompat'
p293
S'fython'
p294
S'fython/MaterialStatusBarCompat'
p295
tp296
a(S'TeamCity.Node'
p297
S'jonnyzzz'
p298
S'jonnyzzz/TeamCity.Node'
p299
tp300
a.