(lp0
(S'Fuse-API'
p1
S'kynetx'
p2
S'kynetx/Fuse-API'
p3
tp4
a(S'CloudOS_Tests'
p5
S'kynetx'
p6
S'kynetx/CloudOS_Tests'
p7
tp8
a(S'common'
p9
S'kre'
p10
S'kre/common'
p11
tp12
a(S'Dropbox-module'
p13
S'KRLRulesets'
p14
S'KRLRulesets/Dropbox-module'
p15
tp16
a(S'KBlog'
p17
S'windley'
p18
S'windley/KBlog'
p19
tp20
a(S'notifications'
p21
S'Picolab'
p22
S'Picolab/notifications'
p23
tp24
a(S'lab2'
p25
S'jimmyhales'
p26
S'jimmyhales/lab2'
p27
tp28
a(S'cs462'
p29
S'mercedesk'
p30
S'mercedesk/cs462'
p31
tp32
a(S'cs462'
p33
S'crand6'
p34
S'crand6/cs462'
p35
tp36
a(S'KRL'
p37
S'jarr416'
p38
S'jarr416/KRL'
p39
tp40
a(S'cs462'
p41
S'sublime1809'
p42
S'sublime1809/cs462'
p43
tp44
a(S'cs462-lab2'
p45
S'mikebcurtis'
p46
S'mikebcurtis/cs462-lab2'
p47
tp48
a(S'CS462'
p49
S'dasaxman'
p50
S'dasaxman/CS462'
p51
tp52
a(S'cs462-lab3'
p53
S'mikebcurtis'
p54
S'mikebcurtis/cs462-lab3'
p55
tp56
a(S'KRL'
p57
S'solargroovy'
p58
S'solargroovy/KRL'
p59
tp60
a(S'KRL'
p61
S'jacoblwright'
p62
S'jacoblwright/KRL'
p63
tp64
a(S'kre-tutorial'
p65
S'mikebcurtis'
p66
S'mikebcurtis/kre-tutorial'
p67
tp68
a(S'krl-starter'
p69
S'Steve525'
p70
S'Steve525/krl-starter'
p71
tp72
a(S'CS462-Event-Edition'
p73
S'jamiepg1'
p74
S'jamiepg1/CS462-Event-Edition'
p75
tp76
a(S'cs462'
p77
S'jarr416'
p78
S'jarr416/cs462'
p79
tp80
a(S'462'
p81
S'pickupj'
p82
S'pickupj/462'
p83
tp84
a(S'CS462'
p85
S'er1of6'
p86
S'er1of6/CS462'
p87
tp88
a(S'CloudHelloWorld'
p89
S'rbirdman'
p90
S'rbirdman/CloudHelloWorld'
p91
tp92
a(S'CS462'
p93
S'rbirdman'
p94
S'rbirdman/CS462'
p95
tp96
a(S'KRL1'
p97
S'JC-Orozco'
p98
S'JC-Orozco/KRL1'
p99
tp100
a(S'Fuse-API'
p101
S'kynetx'
p102
S'kynetx/Fuse-API'
p103
tp104
a(S'CloudOS_Tests'
p105
S'kynetx'
p106
S'kynetx/CloudOS_Tests'
p107
tp108
a(S'common'
p109
S'kre'
p110
S'kre/common'
p111
tp112
a(S'Dropbox-module'
p113
S'KRLRulesets'
p114
S'KRLRulesets/Dropbox-module'
p115
tp116
a(S'KBlog'
p117
S'windley'
p118
S'windley/KBlog'
p119
tp120
a(S'notifications'
p121
S'Picolab'
p122
S'Picolab/notifications'
p123
tp124
a(S'lab2'
p125
S'jimmyhales'
p126
S'jimmyhales/lab2'
p127
tp128
a(S'cs462'
p129
S'mercedesk'
p130
S'mercedesk/cs462'
p131
tp132
a(S'cs462'
p133
S'crand6'
p134
S'crand6/cs462'
p135
tp136
a(S'KRL'
p137
S'jarr416'
p138
S'jarr416/KRL'
p139
tp140
a(S'cs462'
p141
S'sublime1809'
p142
S'sublime1809/cs462'
p143
tp144
a(S'cs462-lab2'
p145
S'mikebcurtis'
p146
S'mikebcurtis/cs462-lab2'
p147
tp148
a(S'CS462'
p149
S'dasaxman'
p150
S'dasaxman/CS462'
p151
tp152
a(S'cs462-lab3'
p153
S'mikebcurtis'
p154
S'mikebcurtis/cs462-lab3'
p155
tp156
a(S'KRL'
p157
S'solargroovy'
p158
S'solargroovy/KRL'
p159
tp160
a(S'KRL'
p161
S'jacoblwright'
p162
S'jacoblwright/KRL'
p163
tp164
a(S'kre-tutorial'
p165
S'mikebcurtis'
p166
S'mikebcurtis/kre-tutorial'
p167
tp168
a(S'krl-starter'
p169
S'Steve525'
p170
S'Steve525/krl-starter'
p171
tp172
a(S'CS462-Event-Edition'
p173
S'jamiepg1'
p174
S'jamiepg1/CS462-Event-Edition'
p175
tp176
a(S'cs462'
p177
S'jarr416'
p178
S'jarr416/cs462'
p179
tp180
a(S'462'
p181
S'pickupj'
p182
S'pickupj/462'
p183
tp184
a(S'CS462'
p185
S'er1of6'
p186
S'er1of6/CS462'
p187
tp188
a(S'CloudHelloWorld'
p189
S'rbirdman'
p190
S'rbirdman/CloudHelloWorld'
p191
tp192
a(S'CS462'
p193
S'rbirdman'
p194
S'rbirdman/CS462'
p195
tp196
a(S'KRL1'
p197
S'JC-Orozco'
p198
S'JC-Orozco/KRL1'
p199
tp200
a(S'Fuse-API'
p201
S'kynetx'
p202
S'kynetx/Fuse-API'
p203
tp204
a(S'CloudOS_Tests'
p205
S'kynetx'
p206
S'kynetx/CloudOS_Tests'
p207
tp208
a(S'common'
p209
S'kre'
p210
S'kre/common'
p211
tp212
a(S'Dropbox-module'
p213
S'KRLRulesets'
p214
S'KRLRulesets/Dropbox-module'
p215
tp216
a(S'KBlog'
p217
S'windley'
p218
S'windley/KBlog'
p219
tp220
a(S'notifications'
p221
S'Picolab'
p222
S'Picolab/notifications'
p223
tp224
a(S'lab2'
p225
S'jimmyhales'
p226
S'jimmyhales/lab2'
p227
tp228
a(S'cs462'
p229
S'mercedesk'
p230
S'mercedesk/cs462'
p231
tp232
a(S'cs462'
p233
S'crand6'
p234
S'crand6/cs462'
p235
tp236
a(S'KRL'
p237
S'jarr416'
p238
S'jarr416/KRL'
p239
tp240
a(S'cs462'
p241
S'sublime1809'
p242
S'sublime1809/cs462'
p243
tp244
a(S'cs462-lab2'
p245
S'mikebcurtis'
p246
S'mikebcurtis/cs462-lab2'
p247
tp248
a(S'CS462'
p249
S'dasaxman'
p250
S'dasaxman/CS462'
p251
tp252
a(S'cs462-lab3'
p253
S'mikebcurtis'
p254
S'mikebcurtis/cs462-lab3'
p255
tp256
a(S'KRL'
p257
S'solargroovy'
p258
S'solargroovy/KRL'
p259
tp260
a(S'KRL'
p261
S'jacoblwright'
p262
S'jacoblwright/KRL'
p263
tp264
a(S'kre-tutorial'
p265
S'mikebcurtis'
p266
S'mikebcurtis/kre-tutorial'
p267
tp268
a(S'krl-starter'
p269
S'Steve525'
p270
S'Steve525/krl-starter'
p271
tp272
a(S'CS462-Event-Edition'
p273
S'jamiepg1'
p274
S'jamiepg1/CS462-Event-Edition'
p275
tp276
a(S'cs462'
p277
S'jarr416'
p278
S'jarr416/cs462'
p279
tp280
a(S'462'
p281
S'pickupj'
p282
S'pickupj/462'
p283
tp284
a(S'CS462'
p285
S'er1of6'
p286
S'er1of6/CS462'
p287
tp288
a(S'CloudHelloWorld'
p289
S'rbirdman'
p290
S'rbirdman/CloudHelloWorld'
p291
tp292
a(S'CS462'
p293
S'rbirdman'
p294
S'rbirdman/CS462'
p295
tp296
a(S'KRL1'
p297
S'JC-Orozco'
p298
S'JC-Orozco/KRL1'
p299
tp300
a.