(lp0
(S'AeroQuadConfigurator'
p1
S'AeroQuad'
p2
S'AeroQuad/AeroQuadConfigurator'
p3
tp4
a(S'MuLES'
p5
S'MuSAELab'
p6
S'MuSAELab/MuLES'
p7
tp8
a(S'JKI-State-Machine-Objects'
p9
S'JKISoftware'
p10
S'JKISoftware/JKI-State-Machine-Objects'
p11
tp12
a(S'frc-software'
p13
S'HuskieRobotics'
p14
S'HuskieRobotics/frc-software'
p15
tp16
a(S'ROS-for-LabVIEW-Software'
p17
S'tuftsBaxter'
p18
S'tuftsBaxter/ROS-for-LabVIEW-Software'
p19
tp20
a(S'JKI-EasyXML'
p21
S'JKISoftware'
p22
S'JKISoftware/JKI-EasyXML'
p23
tp24
a(S'JKI-State-Machine'
p25
S'JKISoftware'
p26
S'JKISoftware/JKI-State-Machine'
p27
tp28
a(S'OpenGDS'
p29
S'opengds'
p30
S'opengds/OpenGDS'
p31
tp32
a(S'LVExercises'
p33
S'illogicdev'
p34
S'illogicdev/LVExercises'
p35
tp36
a(S'Toolbox'
p37
S'MakerHub'
p38
S'MakerHub/Toolbox'
p39
tp40
a(S'2137-2014-roboRIO-Labview'
p41
S'TORC2137'
p42
S'TORC2137/2137-2014-roboRIO-Labview'
p43
tp44
a(S'2014'
p45
S'frc1124'
p46
S'frc1124/2014'
p47
tp48
a(S'SetList'
p49
S'JQIamo'
p50
S'JQIamo/SetList'
p51
tp52
a(S'LabVIEW-HMI'
p53
S'chrylarson'
p54
S'chrylarson/LabVIEW-HMI'
p55
tp56
a(S'2014-Aerial-Assist'
p57
S'Team2337'
p58
S'Team2337/2014-Aerial-Assist'
p59
tp60
a(S'frc-software-2015'
p61
S'HuskieRobotics'
p62
S'HuskieRobotics/frc-software-2015'
p63
tp64
a(S'LVTools-Palettes'
p65
S'NISystemsEngineering'
p66
S'NISystemsEngineering/LVTools-Palettes'
p67
tp68
a(S'TLB-Prime'
p69
S'NISystemsEngineering'
p70
S'NISystemsEngineering/TLB-Prime'
p71
tp72
a(S'2015-Hilltopper-Robotics'
p73
S'Zylviij'
p74
S'Zylviij/2015-Hilltopper-Robotics'
p75
tp76
a(S'Arduino-LabVIEW'
p77
S'marcomauro'
p78
S'marcomauro/Arduino-LabVIEW'
p79
tp80
a(S'FrontPanelLayout'
p81
S'NISystemsEngineering'
p82
S'NISystemsEngineering/FrontPanelLayout'
p83
tp84
a(S'3005_2014'
p85
S'FRC3005'
p86
S'FRC3005/3005_2014'
p87
tp88
a(S'LVDictionary'
p89
S'phaeron'
p90
S'phaeron/LVDictionary'
p91
tp92
a(S'Assert_API'
p93
S'NI-AssertAPI'
p94
S'NI-AssertAPI/Assert_API'
p95
tp96
a(S'lightning-base'
p97
S'frc-862'
p98
S'frc-862/lightning-base'
p99
tp100
a(S'AeroQuadConfigurator'
p101
S'AeroQuad'
p102
S'AeroQuad/AeroQuadConfigurator'
p103
tp104
a(S'MuLES'
p105
S'MuSAELab'
p106
S'MuSAELab/MuLES'
p107
tp108
a(S'JKI-State-Machine-Objects'
p109
S'JKISoftware'
p110
S'JKISoftware/JKI-State-Machine-Objects'
p111
tp112
a(S'frc-software'
p113
S'HuskieRobotics'
p114
S'HuskieRobotics/frc-software'
p115
tp116
a(S'ROS-for-LabVIEW-Software'
p117
S'tuftsBaxter'
p118
S'tuftsBaxter/ROS-for-LabVIEW-Software'
p119
tp120
a(S'JKI-EasyXML'
p121
S'JKISoftware'
p122
S'JKISoftware/JKI-EasyXML'
p123
tp124
a(S'JKI-State-Machine'
p125
S'JKISoftware'
p126
S'JKISoftware/JKI-State-Machine'
p127
tp128
a(S'OpenGDS'
p129
S'opengds'
p130
S'opengds/OpenGDS'
p131
tp132
a(S'LVExercises'
p133
S'illogicdev'
p134
S'illogicdev/LVExercises'
p135
tp136
a(S'Toolbox'
p137
S'MakerHub'
p138
S'MakerHub/Toolbox'
p139
tp140
a(S'2137-2014-roboRIO-Labview'
p141
S'TORC2137'
p142
S'TORC2137/2137-2014-roboRIO-Labview'
p143
tp144
a(S'2014'
p145
S'frc1124'
p146
S'frc1124/2014'
p147
tp148
a(S'SetList'
p149
S'JQIamo'
p150
S'JQIamo/SetList'
p151
tp152
a(S'LabVIEW-HMI'
p153
S'chrylarson'
p154
S'chrylarson/LabVIEW-HMI'
p155
tp156
a(S'2014-Aerial-Assist'
p157
S'Team2337'
p158
S'Team2337/2014-Aerial-Assist'
p159
tp160
a(S'frc-software-2015'
p161
S'HuskieRobotics'
p162
S'HuskieRobotics/frc-software-2015'
p163
tp164
a(S'LVTools-Palettes'
p165
S'NISystemsEngineering'
p166
S'NISystemsEngineering/LVTools-Palettes'
p167
tp168
a(S'TLB-Prime'
p169
S'NISystemsEngineering'
p170
S'NISystemsEngineering/TLB-Prime'
p171
tp172
a(S'2015-Hilltopper-Robotics'
p173
S'Zylviij'
p174
S'Zylviij/2015-Hilltopper-Robotics'
p175
tp176
a(S'Arduino-LabVIEW'
p177
S'marcomauro'
p178
S'marcomauro/Arduino-LabVIEW'
p179
tp180
a(S'FrontPanelLayout'
p181
S'NISystemsEngineering'
p182
S'NISystemsEngineering/FrontPanelLayout'
p183
tp184
a(S'3005_2014'
p185
S'FRC3005'
p186
S'FRC3005/3005_2014'
p187
tp188
a(S'LVDictionary'
p189
S'phaeron'
p190
S'phaeron/LVDictionary'
p191
tp192
a(S'Assert_API'
p193
S'NI-AssertAPI'
p194
S'NI-AssertAPI/Assert_API'
p195
tp196
a(S'lightning-base'
p197
S'frc-862'
p198
S'frc-862/lightning-base'
p199
tp200
a(S'AeroQuadConfigurator'
p201
S'AeroQuad'
p202
S'AeroQuad/AeroQuadConfigurator'
p203
tp204
a(S'MuLES'
p205
S'MuSAELab'
p206
S'MuSAELab/MuLES'
p207
tp208
a(S'JKI-State-Machine-Objects'
p209
S'JKISoftware'
p210
S'JKISoftware/JKI-State-Machine-Objects'
p211
tp212
a(S'frc-software'
p213
S'HuskieRobotics'
p214
S'HuskieRobotics/frc-software'
p215
tp216
a(S'ROS-for-LabVIEW-Software'
p217
S'tuftsBaxter'
p218
S'tuftsBaxter/ROS-for-LabVIEW-Software'
p219
tp220
a(S'JKI-EasyXML'
p221
S'JKISoftware'
p222
S'JKISoftware/JKI-EasyXML'
p223
tp224
a(S'JKI-State-Machine'
p225
S'JKISoftware'
p226
S'JKISoftware/JKI-State-Machine'
p227
tp228
a(S'OpenGDS'
p229
S'opengds'
p230
S'opengds/OpenGDS'
p231
tp232
a(S'LVExercises'
p233
S'illogicdev'
p234
S'illogicdev/LVExercises'
p235
tp236
a(S'Toolbox'
p237
S'MakerHub'
p238
S'MakerHub/Toolbox'
p239
tp240
a(S'2137-2014-roboRIO-Labview'
p241
S'TORC2137'
p242
S'TORC2137/2137-2014-roboRIO-Labview'
p243
tp244
a(S'2014'
p245
S'frc1124'
p246
S'frc1124/2014'
p247
tp248
a(S'SetList'
p249
S'JQIamo'
p250
S'JQIamo/SetList'
p251
tp252
a(S'LabVIEW-HMI'
p253
S'chrylarson'
p254
S'chrylarson/LabVIEW-HMI'
p255
tp256
a(S'2014-Aerial-Assist'
p257
S'Team2337'
p258
S'Team2337/2014-Aerial-Assist'
p259
tp260
a(S'frc-software-2015'
p261
S'HuskieRobotics'
p262
S'HuskieRobotics/frc-software-2015'
p263
tp264
a(S'LVTools-Palettes'
p265
S'NISystemsEngineering'
p266
S'NISystemsEngineering/LVTools-Palettes'
p267
tp268
a(S'TLB-Prime'
p269
S'NISystemsEngineering'
p270
S'NISystemsEngineering/TLB-Prime'
p271
tp272
a(S'2015-Hilltopper-Robotics'
p273
S'Zylviij'
p274
S'Zylviij/2015-Hilltopper-Robotics'
p275
tp276
a(S'Arduino-LabVIEW'
p277
S'marcomauro'
p278
S'marcomauro/Arduino-LabVIEW'
p279
tp280
a(S'FrontPanelLayout'
p281
S'NISystemsEngineering'
p282
S'NISystemsEngineering/FrontPanelLayout'
p283
tp284
a(S'3005_2014'
p285
S'FRC3005'
p286
S'FRC3005/3005_2014'
p287
tp288
a(S'LVDictionary'
p289
S'phaeron'
p290
S'phaeron/LVDictionary'
p291
tp292
a(S'Assert_API'
p293
S'NI-AssertAPI'
p294
S'NI-AssertAPI/Assert_API'
p295
tp296
a(S'lightning-base'
p297
S'frc-862'
p298
S'frc-862/lightning-base'
p299
tp300
a.