(lp0
(S'ABAP'
p1
S'https://github.com/trending?l=abap'
p2
tp3
a(S'ActionScript'
p4
S'https://github.com/trending?l=as3'
p5
tp6
a(S'Ada'
p7
S'https://github.com/trending?l=ada'
p8
tp9
a(S'Agda'
p10
S'https://github.com/trending?l=agda'
p11
tp12
a(S'AGS Script'
p13
S'https://github.com/trending?l=ags-script'
p14
tp15
a(S'Alloy'
p16
S'https://github.com/trending?l=alloy'
p17
tp18
a(S'AMPL'
p19
S'https://github.com/trending?l=ampl'
p20
tp21
a(S'ANTLR'
p22
S'https://github.com/trending?l=antlr'
p23
tp24
a(S'ApacheConf'
p25
S'https://github.com/trending?l=apacheconf'
p26
tp27
a(S'Apex'
p28
S'https://github.com/trending?l=apex'
p29
tp30
a(S'API Blueprint'
p31
S'https://github.com/trending?l=api-blueprint'
p32
tp33
a(S'APL'
p34
S'https://github.com/trending?l=apl'
p35
tp36
a(S'AppleScript'
p37
S'https://github.com/trending?l=applescript'
p38
tp39
a(S'Arc'
p40
S'https://github.com/trending?l=arc'
p41
tp42
a(S'Arduino'
p43
S'https://github.com/trending?l=arduino'
p44
tp45
a(S'ASP'
p46
S'https://github.com/trending?l=aspx-vb'
p47
tp48
a(S'AspectJ'
p49
S'https://github.com/trending?l=aspectj'
p50
tp51
a(S'Assembly'
p52
S'https://github.com/trending?l=nasm'
p53
tp54
a(S'ATS'
p55
S'https://github.com/trending?l=ats'
p56
tp57
a(S'Augeas'
p58
S'https://github.com/trending?l=augeas'
p59
tp60
a(S'AutoHotkey'
p61
S'https://github.com/trending?l=autohotkey'
p62
tp63
a(S'AutoIt'
p64
S'https://github.com/trending?l=autoit'
p65
tp66
a(S'Awk'
p67
S'https://github.com/trending?l=awk'
p68
tp69
a(S'Batchfile'
p70
S'https://github.com/trending?l=bat'
p71
tp72
a(S'Befunge'
p73
S'https://github.com/trending?l=befunge'
p74
tp75
a(S'Bison'
p76
S'https://github.com/trending?l=bison'
p77
tp78
a(S'BitBake'
p79
S'https://github.com/trending?l=bitbake'
p80
tp81
a(S'BlitzBasic'
p82
S'https://github.com/trending?l=blitzbasic'
p83
tp84
a(S'BlitzMax'
p85
S'https://github.com/trending?l=blitzmax'
p86
tp87
a(S'Bluespec'
p88
S'https://github.com/trending?l=bluespec'
p89
tp90
a(S'Boo'
p91
S'https://github.com/trending?l=boo'
p92
tp93
a(S'Brainfuck'
p94
S'https://github.com/trending?l=brainfuck'
p95
tp96
a(S'Brightscript'
p97
S'https://github.com/trending?l=brightscript'
p98
tp99
a(S'Bro'
p100
S'https://github.com/trending?l=bro'
p101
tp102
a(S'C'
p103
S'https://github.com/trending?l=c'
p104
tp105
a(S'C#'
p106
S'https://github.com/trending?l=csharp'
p107
tp108
a(S'C++'
p109
S'https://github.com/trending?l=cpp'
p110
tp111
a(S"Cap'n Proto"
p112
S'https://github.com/trending?l=cap%27n-proto'
p113
tp114
a(S'CartoCSS'
p115
S'https://github.com/trending?l=cartocss'
p116
tp117
a(S'Ceylon'
p118
S'https://github.com/trending?l=ceylon'
p119
tp120
a(S'Chapel'
p121
S'https://github.com/trending?l=chapel'
p122
tp123
a(S'Charity'
p124
S'https://github.com/trending?l=charity'
p125
tp126
a(S'ChucK'
p127
S'https://github.com/trending?l=chuck'
p128
tp129
a(S'Cirru'
p130
S'https://github.com/trending?l=cirru'
p131
tp132
a(S'Clarion'
p133
S'https://github.com/trending?l=clarion'
p134
tp135
a(S'Clean'
p136
S'https://github.com/trending?l=clean'
p137
tp138
a(S'CLIPS'
p139
S'https://github.com/trending?l=clips'
p140
tp141
a(S'Clojure'
p142
S'https://github.com/trending?l=clojure'
p143
tp144
a(S'CMake'
p145
S'https://github.com/trending?l=cmake'
p146
tp147
a(S'COBOL'
p148
S'https://github.com/trending?l=cobol'
p149
tp150
a(S'CoffeeScript'
p151
S'https://github.com/trending?l=coffeescript'
p152
tp153
a(S'ColdFusion'
p154
S'https://github.com/trending?l=cfm'
p155
tp156
a(S'Common Lisp'
p157
S'https://github.com/trending?l=common-lisp'
p158
tp159
a(S'Component Pascal'
p160
S'https://github.com/trending?l=component-pascal'
p161
tp162
a(S'Cool'
p163
S'https://github.com/trending?l=cool'
p164
tp165
a(S'Coq'
p166
S'https://github.com/trending?l=coq'
p167
tp168
a(S'Crystal'
p169
S'https://github.com/trending?l=crystal'
p170
tp171
a(S'CSS'
p172
S'https://github.com/trending?l=css'
p173
tp174
a(S'Cucumber'
p175
S'https://github.com/trending?l=cucumber'
p176
tp177
a(S'Cuda'
p178
S'https://github.com/trending?l=cuda'
p179
tp180
a(S'Cycript'
p181
S'https://github.com/trending?l=cycript'
p182
tp183
a(S'D'
p184
S'https://github.com/trending?l=d'
p185
tp186
a(S'Darcs Patch'
p187
S'https://github.com/trending?l=dpatch'
p188
tp189
a(S'Dart'
p190
S'https://github.com/trending?l=dart'
p191
tp192
a(S'Diff'
p193
S'https://github.com/trending?l=diff'
p194
tp195
a(S'DIGITAL Command Language'
p196
S'https://github.com/trending?l=digital-command-language'
p197
tp198
a(S'DM'
p199
S'https://github.com/trending?l=dm'
p200
tp201
a(S'Dogescript'
p202
S'https://github.com/trending?l=dogescript'
p203
tp204
a(S'DTrace'
p205
S'https://github.com/trending?l=dtrace'
p206
tp207
a(S'Dylan'
p208
S'https://github.com/trending?l=dylan'
p209
tp210
a(S'E'
p211
S'https://github.com/trending?l=e'
p212
tp213
a(S'Eagle'
p214
S'https://github.com/trending?l=eagle'
p215
tp216
a(S'eC'
p217
S'https://github.com/trending?l=ec'
p218
tp219
a(S'ECL'
p220
S'https://github.com/trending?l=ecl'
p221
tp222
a(S'Eiffel'
p223
S'https://github.com/trending?l=eiffel'
p224
tp225
a(S'Elixir'
p226
S'https://github.com/trending?l=elixir'
p227
tp228
a(S'Elm'
p229
S'https://github.com/trending?l=elm'
p230
tp231
a(S'Emacs Lisp'
p232
S'https://github.com/trending?l=emacs-lisp'
p233
tp234
a(S'EmberScript'
p235
S'https://github.com/trending?l=emberscript'
p236
tp237
a(S'Erlang'
p238
S'https://github.com/trending?l=erlang'
p239
tp240
a(S'F#'
p241
S'https://github.com/trending?l=fsharp'
p242
tp243
a(S'Factor'
p244
S'https://github.com/trending?l=factor'
p245
tp246
a(S'Fancy'
p247
S'https://github.com/trending?l=fancy'
p248
tp249
a(S'Fantom'
p250
S'https://github.com/trending?l=fantom'
p251
tp252
a(S'FLUX'
p253
S'https://github.com/trending?l=flux'
p254
tp255
a(S'Forth'
p256
S'https://github.com/trending?l=forth'
p257
tp258
a(S'FORTRAN'
p259
S'https://github.com/trending?l=fortran'
p260
tp261
a(S'Frege'
p262
S'https://github.com/trending?l=frege'
p263
tp264
a(S'Game Maker Language'
p265
S'https://github.com/trending?l=game-maker-language'
p266
tp267
a(S'GAMS'
p268
S'https://github.com/trending?l=gams'
p269
tp270
a(S'GAP'
p271
S'https://github.com/trending?l=gap'
p272
tp273
a(S'GDScript'
p274
S'https://github.com/trending?l=gdscript'
p275
tp276
a(S'Genshi'
p277
S'https://github.com/trending?l=genshi'
p278
tp279
a(S'Gettext Catalog'
p280
S'https://github.com/trending?l=pot'
p281
tp282
a(S'GLSL'
p283
S'https://github.com/trending?l=glsl'
p284
tp285
a(S'Glyph'
p286
S'https://github.com/trending?l=glyph'
p287
tp288
a(S'Gnuplot'
p289
S'https://github.com/trending?l=gnuplot'
p290
tp291
a(S'Go'
p292
S'https://github.com/trending?l=go'
p293
tp294
a(S'Golo'
p295
S'https://github.com/trending?l=golo'
p296
tp297
a(S'Gosu'
p298
S'https://github.com/trending?l=gosu'
p299
tp300
a(S'Grace'
p301
S'https://github.com/trending?l=grace'
p302
tp303
a(S'Grammatical Framework'
p304
S'https://github.com/trending?l=grammatical-framework'
p305
tp306
a(S'Groff'
p307
S'https://github.com/trending?l=groff'
p308
tp309
a(S'Groovy'
p310
S'https://github.com/trending?l=groovy'
p311
tp312
a(S'Hack'
p313
S'https://github.com/trending?l=hack'
p314
tp315
a(S'Handlebars'
p316
S'https://github.com/trending?l=handlebars'
p317
tp318
a(S'Harbour'
p319
S'https://github.com/trending?l=harbour'
p320
tp321
a(S'Haskell'
p322
S'https://github.com/trending?l=haskell'
p323
tp324
a(S'Haxe'
p325
S'https://github.com/trending?l=haxe'
p326
tp327
a(S'HCL'
p328
S'https://github.com/trending?l=hcl'
p329
tp330
a(S'HTML'
p331
S'https://github.com/trending?l=html'
p332
tp333
a(S'Hy'
p334
S'https://github.com/trending?l=hy'
p335
tp336
a(S'HyPhy'
p337
S'https://github.com/trending?l=hyphy'
p338
tp339
a(S'IDL'
p340
S'https://github.com/trending?l=idl'
p341
tp342
a(S'Idris'
p343
S'https://github.com/trending?l=idris'
p344
tp345
a(S'IGOR Pro'
p346
S'https://github.com/trending?l=igor-pro'
p347
tp348
a(S'Inform 7'
p349
S'https://github.com/trending?l=inform-7'
p350
tp351
a(S'Inno Setup'
p352
S'https://github.com/trending?l=inno-setup'
p353
tp354
a(S'Io'
p355
S'https://github.com/trending?l=io'
p356
tp357
a(S'Ioke'
p358
S'https://github.com/trending?l=ioke'
p359
tp360
a(S'Isabelle'
p361
S'https://github.com/trending?l=isabelle'
p362
tp363
a(S'J'
p364
S'https://github.com/trending?l=j'
p365
tp366
a(S'Jasmin'
p367
S'https://github.com/trending?l=jasmin'
p368
tp369
a(S'Java'
p370
S'https://github.com/trending?l=java'
p371
tp372
a(S'JavaScript'
p373
S'https://github.com/trending?l=javascript'
p374
tp375
a(S'JFlex'
p376
S'https://github.com/trending?l=jflex'
p377
tp378
a(S'JSONiq'
p379
S'https://github.com/trending?l=jsoniq'
p380
tp381
a(S'Julia'
p382
S'https://github.com/trending?l=julia'
p383
tp384
a(S'KiCad'
p385
S'https://github.com/trending?l=kicad'
p386
tp387
a(S'Kit'
p388
S'https://github.com/trending?l=kit'
p389
tp390
a(S'Kotlin'
p391
S'https://github.com/trending?l=kotlin'
p392
tp393
a(S'KRL'
p394
S'https://github.com/trending?l=krl'
p395
tp396
a(S'LabVIEW'
p397
S'https://github.com/trending?l=labview'
p398
tp399
a(S'Lasso'
p400
S'https://github.com/trending?l=lasso'
p401
tp402
a(S'Lean'
p403
S'https://github.com/trending?l=lean'
p404
tp405
a(S'Lex'
p406
S'https://github.com/trending?l=lex'
p407
tp408
a(S'LilyPond'
p409
S'https://github.com/trending?l=lilypond'
p410
tp411
a(S'Limbo'
p412
S'https://github.com/trending?l=limbo'
p413
tp414
a(S'Liquid'
p415
S'https://github.com/trending?l=liquid'
p416
tp417
a(S'LiveScript'
p418
S'https://github.com/trending?l=livescript'
p419
tp420
a(S'LLVM'
p421
S'https://github.com/trending?l=llvm'
p422
tp423
a(S'Logos'
p424
S'https://github.com/trending?l=logos'
p425
tp426
a(S'Logtalk'
p427
S'https://github.com/trending?l=logtalk'
p428
tp429
a(S'LOLCODE'
p430
S'https://github.com/trending?l=lolcode'
p431
tp432
a(S'LookML'
p433
S'https://github.com/trending?l=lookml'
p434
tp435
a(S'LoomScript'
p436
S'https://github.com/trending?l=loomscript'
p437
tp438
a(S'LSL'
p439
S'https://github.com/trending?l=lsl'
p440
tp441
a(S'Lua'
p442
S'https://github.com/trending?l=lua'
p443
tp444
a(S'M'
p445
S'https://github.com/trending?l=m'
p446
tp447
a(S'Makefile'
p448
S'https://github.com/trending?l=makefile'
p449
tp450
a(S'Mako'
p451
S'https://github.com/trending?l=mako'
p452
tp453
a(S'Markdown'
p454
S'https://github.com/trending?l=markdown'
p455
tp456
a(S'Mask'
p457
S'https://github.com/trending?l=mask'
p458
tp459
a(S'Mathematica'
p460
S'https://github.com/trending?l=mathematica'
p461
tp462
a(S'Matlab'
p463
S'https://github.com/trending?l=matlab'
p464
tp465
a(S'Max'
p466
S'https://github.com/trending?l=max%2Fmsp'
p467
tp468
a(S'Mercury'
p469
S'https://github.com/trending?l=mercury'
p470
tp471
a(S'MiniD'
p472
S'https://github.com/trending?l=minid'
p473
tp474
a(S'Mirah'
p475
S'https://github.com/trending?l=mirah'
p476
tp477
a(S'Modelica'
p478
S'https://github.com/trending?l=modelica'
p479
tp480
a(S'Modula-2'
p481
S'https://github.com/trending?l=modula-2'
p482
tp483
a(S'Module Management System'
p484
S'https://github.com/trending?l=module-management-system'
p485
tp486
a(S'Monkey'
p487
S'https://github.com/trending?l=monkey'
p488
tp489
a(S'Moocode'
p490
S'https://github.com/trending?l=moocode'
p491
tp492
a(S'MoonScript'
p493
S'https://github.com/trending?l=moonscript'
p494
tp495
a(S'MTML'
p496
S'https://github.com/trending?l=mtml'
p497
tp498
a(S'mupad'
p499
S'https://github.com/trending?l=mupad'
p500
tp501
a(S'Myghty'
p502
S'https://github.com/trending?l=myghty'
p503
tp504
a(S'NCL'
p505
S'https://github.com/trending?l=ncl'
p506
tp507
a(S'Nemerle'
p508
S'https://github.com/trending?l=nemerle'
p509
tp510
a(S'nesC'
p511
S'https://github.com/trending?l=nesc'
p512
tp513
a(S'NetLinx'
p514
S'https://github.com/trending?l=netlinx'
p515
tp516
a(S'NetLinx+ERB'
p517
S'https://github.com/trending?l=netlinx%2Berb'
p518
tp519
a(S'NetLogo'
p520
S'https://github.com/trending?l=netlogo'
p521
tp522
a(S'NewLisp'
p523
S'https://github.com/trending?l=newlisp'
p524
tp525
a(S'Nginx'
p526
S'https://github.com/trending?l=nginx'
p527
tp528
a(S'Nimrod'
p529
S'https://github.com/trending?l=nimrod'
p530
tp531
a(S'Nit'
p532
S'https://github.com/trending?l=nit'
p533
tp534
a(S'Nix'
p535
S'https://github.com/trending?l=nix'
p536
tp537
a(S'NSIS'
p538
S'https://github.com/trending?l=nsis'
p539
tp540
a(S'Nu'
p541
S'https://github.com/trending?l=nu'
p542
tp543
a(S'Objective-C'
p544
S'https://github.com/trending?l=objective-c'
p545
tp546
a(S'Objective-C++'
p547
S'https://github.com/trending?l=objective-c%2B%2B'
p548
tp549
a(S'Objective-J'
p550
S'https://github.com/trending?l=objective-j'
p551
tp552
a(S'OCaml'
p553
S'https://github.com/trending?l=ocaml'
p554
tp555
a(S'Omgrofl'
p556
S'https://github.com/trending?l=omgrofl'
p557
tp558
a(S'ooc'
p559
S'https://github.com/trending?l=ooc'
p560
tp561
a(S'Opa'
p562
S'https://github.com/trending?l=opa'
p563
tp564
a(S'Opal'
p565
S'https://github.com/trending?l=opal'
p566
tp567
a(S'OpenEdge ABL'
p568
S'https://github.com/trending?l=openedge-abl'
p569
tp570
a(S'OpenSCAD'
p571
S'https://github.com/trending?l=openscad'
p572
tp573
a(S'Ox'
p574
S'https://github.com/trending?l=ox'
p575
tp576
a(S'Oxygene'
p577
S'https://github.com/trending?l=oxygene'
p578
tp579
a(S'Oz'
p580
S'https://github.com/trending?l=oz'
p581
tp582
a(S'Pan'
p583
S'https://github.com/trending?l=pan'
p584
tp585
a(S'Papyrus'
p586
S'https://github.com/trending?l=papyrus'
p587
tp588
a(S'Parrot'
p589
S'https://github.com/trending?l=parrot'
p590
tp591
a(S'Pascal'
p592
S'https://github.com/trending?l=pascal'
p593
tp594
a(S'PAWN'
p595
S'https://github.com/trending?l=pawn'
p596
tp597
a(S'Perl'
p598
S'https://github.com/trending?l=perl'
p599
tp600
a(S'Perl6'
p601
S'https://github.com/trending?l=perl6'
p602
tp603
a(S'PHP'
p604
S'https://github.com/trending?l=php'
p605
tp606
a(S'PicoLisp'
p607
S'https://github.com/trending?l=picolisp'
p608
tp609
a(S'PigLatin'
p610
S'https://github.com/trending?l=piglatin'
p611
tp612
a(S'Pike'
p613
S'https://github.com/trending?l=pike'
p614
tp615
a(S'PLpgSQL'
p616
S'https://github.com/trending?l=plpgsql'
p617
tp618
a(S'PLSQL'
p619
S'https://github.com/trending?l=plsql'
p620
tp621
a(S'PogoScript'
p622
S'https://github.com/trending?l=pogoscript'
p623
tp624
a(S'PostScript'
p625
S'https://github.com/trending?l=postscript'
p626
tp627
a(S'PowerShell'
p628
S'https://github.com/trending?l=powershell'
p629
tp630
a(S'Processing'
p631
S'https://github.com/trending?l=processing'
p632
tp633
a(S'Prolog'
p634
S'https://github.com/trending?l=prolog'
p635
tp636
a(S'Propeller Spin'
p637
S'https://github.com/trending?l=propeller-spin'
p638
tp639
a(S'Protocol Buffer'
p640
S'https://github.com/trending?l=protocol-buffer'
p641
tp642
a(S'Puppet'
p643
S'https://github.com/trending?l=puppet'
p644
tp645
a(S'Pure Data'
p646
S'https://github.com/trending?l=pure-data'
p647
tp648
a(S'PureBasic'
p649
S'https://github.com/trending?l=purebasic'
p650
tp651
a(S'PureScript'
p652
S'https://github.com/trending?l=purescript'
p653
tp654
a(S'Python'
p655
S'https://github.com/trending?l=python'
p656
tp657
a(S'QMake'
p658
S'https://github.com/trending?l=qmake'
p659
tp660
a(S'QML'
p661
S'https://github.com/trending?l=qml'
p662
tp663
a(S'R'
p664
S'https://github.com/trending?l=r'
p665
tp666
a(S'Racket'
p667
S'https://github.com/trending?l=racket'
p668
tp669
a(S'Ragel in Ruby Host'
p670
S'https://github.com/trending?l=ragel-in-ruby-host'
p671
tp672
a(S'RAML'
p673
S'https://github.com/trending?l=raml'
p674
tp675
a(S'RDoc'
p676
S'https://github.com/trending?l=rdoc'
p677
tp678
a(S'REALbasic'
p679
S'https://github.com/trending?l=realbasic'
p680
tp681
a(S'Rebol'
p682
S'https://github.com/trending?l=rebol'
p683
tp684
a(S'Red'
p685
S'https://github.com/trending?l=red'
p686
tp687
a(S'Redcode'
p688
S'https://github.com/trending?l=redcode'
p689
tp690
a(S'RenderScript'
p691
S'https://github.com/trending?l=renderscript'
p692
tp693
a(S'RobotFramework'
p694
S'https://github.com/trending?l=robotframework'
p695
tp696
a(S'Rouge'
p697
S'https://github.com/trending?l=rouge'
p698
tp699
a(S'Ruby'
p700
S'https://github.com/trending?l=ruby'
p701
tp702
a(S'Rust'
p703
S'https://github.com/trending?l=rust'
p704
tp705
a(S'SaltStack'
p706
S'https://github.com/trending?l=saltstack'
p707
tp708
a(S'SAS'
p709
S'https://github.com/trending?l=sas'
p710
tp711
a(S'Scala'
p712
S'https://github.com/trending?l=scala'
p713
tp714
a(S'Scheme'
p715
S'https://github.com/trending?l=scheme'
p716
tp717
a(S'Scilab'
p718
S'https://github.com/trending?l=scilab'
p719
tp720
a(S'Self'
p721
S'https://github.com/trending?l=self'
p722
tp723
a(S'Shell'
p724
S'https://github.com/trending?l=bash'
p725
tp726
a(S'ShellSession'
p727
S'https://github.com/trending?l=shellsession'
p728
tp729
a(S'Shen'
p730
S'https://github.com/trending?l=shen'
p731
tp732
a(S'Slash'
p733
S'https://github.com/trending?l=slash'
p734
tp735
a(S'Smali'
p736
S'https://github.com/trending?l=smali'
p737
tp738
a(S'Smalltalk'
p739
S'https://github.com/trending?l=smalltalk'
p740
tp741
a(S'Smarty'
p742
S'https://github.com/trending?l=smarty'
p743
tp744
a(S'SMT'
p745
S'https://github.com/trending?l=smt'
p746
tp747
a(S'SourcePawn'
p748
S'https://github.com/trending?l=sourcepawn'
p749
tp750
a(S'SQF'
p751
S'https://github.com/trending?l=sqf'
p752
tp753
a(S'SQL'
p754
S'https://github.com/trending?l=sql'
p755
tp756
a(S'SQLPL'
p757
S'https://github.com/trending?l=sqlpl'
p758
tp759
a(S'Squirrel'
p760
S'https://github.com/trending?l=squirrel'
p761
tp762
a(S'Standard ML'
p763
S'https://github.com/trending?l=standard-ml'
p764
tp765
a(S'Stata'
p766
S'https://github.com/trending?l=stata'
p767
tp768
a(S'SuperCollider'
p769
S'https://github.com/trending?l=supercollider'
p770
tp771
a(S'Swift'
p772
S'https://github.com/trending?l=swift'
p773
tp774
a(S'SystemVerilog'
p775
S'https://github.com/trending?l=systemverilog'
p776
tp777
a(S'Tcl'
p778
S'https://github.com/trending?l=tcl'
p779
tp780
a(S'Tea'
p781
S'https://github.com/trending?l=tea'
p782
tp783
a(S'TeX'
p784
S'https://github.com/trending?l=tex'
p785
tp786
a(S'Thrift'
p787
S'https://github.com/trending?l=thrift'
p788
tp789
a(S'Turing'
p790
S'https://github.com/trending?l=turing'
p791
tp792
a(S'TXL'
p793
S'https://github.com/trending?l=txl'
p794
tp795
a(S'TypeScript'
p796
S'https://github.com/trending?l=typescript'
p797
tp798
a(S'UnrealScript'
p799
S'https://github.com/trending?l=unrealscript'
p800
tp801
a(S'Vala'
p802
S'https://github.com/trending?l=vala'
p803
tp804
a(S'VCL'
p805
S'https://github.com/trending?l=vcl'
p806
tp807
a(S'Verilog'
p808
S'https://github.com/trending?l=verilog'
p809
tp810
a(S'VHDL'
p811
S'https://github.com/trending?l=vhdl'
p812
tp813
a(S'VimL'
p814
S'https://github.com/trending?l=vim'
p815
tp816
a(S'Visual Basic'
p817
S'https://github.com/trending?l=visual-basic'
p818
tp819
a(S'Volt'
p820
S'https://github.com/trending?l=volt'
p821
tp822
a(S'Vue'
p823
S'https://github.com/trending?l=vue'
p824
tp825
a(S'Web Ontology Language'
p826
S'https://github.com/trending?l=web-ontology-language'
p827
tp828
a(S'WebIDL'
p829
S'https://github.com/trending?l=webidl'
p830
tp831
a(S'wisp'
p832
S'https://github.com/trending?l=wisp'
p833
tp834
a(S'X10'
p835
S'https://github.com/trending?l=x10'
p836
tp837
a(S'xBase'
p838
S'https://github.com/trending?l=xbase'
p839
tp840
a(S'XC'
p841
S'https://github.com/trending?l=xc'
p842
tp843
a(S'XML'
p844
S'https://github.com/trending?l=xml'
p845
tp846
a(S'Xojo'
p847
S'https://github.com/trending?l=xojo'
p848
tp849
a(S'XPages'
p850
S'https://github.com/trending?l=xpages'
p851
tp852
a(S'XProc'
p853
S'https://github.com/trending?l=xproc'
p854
tp855
a(S'XQuery'
p856
S'https://github.com/trending?l=xquery'
p857
tp858
a(S'XS'
p859
S'https://github.com/trending?l=xs'
p860
tp861
a(S'XSLT'
p862
S'https://github.com/trending?l=xslt'
p863
tp864
a(S'Xtend'
p865
S'https://github.com/trending?l=xtend'
p866
tp867
a(S'Yacc'
p868
S'https://github.com/trending?l=yacc'
p869
tp870
a(S'Zephir'
p871
S'https://github.com/trending?l=zephir'
p872
tp873
a(S'Zimpl'
p874
S'https://github.com/trending?l=zimpl'
p875
tp876
a.