(lp0
(S'Platform-platino'
p1
S'Lanica'
p2
S'Lanica/Platform-platino'
p3
tp4
a(S'tutorials'
p5
S'seg'
p6
S'seg/tutorials'
p7
tp8
a(S'lasio'
p9
S'kinverarity1'
p10
S'kinverarity1/lasio'
p11
tp12
a(S'knop'
p13
S'knop-project'
p14
S'knop-project/knop'
p15
tp16
a(S'RepRapLcd4D'
p17
S'MarcoAntonini'
p18
S'MarcoAntonini/RepRapLcd4D'
p19
tp20
a(S'ds'
p21
S'zeroloop'
p22
S'zeroloop/ds'
p23
tp24
a(S'notebooks'
p25
S'agile-geoscience'
p26
S'agile-geoscience/notebooks'
p27
tp28
a(S'Ultimate-Mapchooser'
p29
S'Steell'
p30
S'Steell/Ultimate-Mapchooser'
p31
tp32
a(S'cwls-las-reader'
p33
S'gpcarmo'
p34
S'gpcarmo/cwls-las-reader'
p35
tp36
a(S'Lasso-HTTP'
p37
S'bfad'
p38
S'bfad/Lasso-HTTP'
p39
tp40
a(S'tree-interpolator'
p41
S'cleveland-metroparks'
p42
S'cleveland-metroparks/tree-interpolator'
p43
tp44
a(S'hacksaw'
p45
S'kwinkunks'
p46
S'kwinkunks/hacksaw'
p47
tp48
a(S'kir-holiday-lights'
p49
S'google'
p50
S'google/kir-holiday-lights'
p51
tp52
a(S'rppy'
p53
S'sconten'
p54
S'sconten/rppy'
p55
tp56
a(S'notebooks'
p57
S'kwinkunks'
p58
S'kwinkunks/notebooks'
p59
tp60
a(S'Memcached'
p61
S'LassoSoft'
p62
S'LassoSoft/Memcached'
p63
tp64
a(S'polyglot'
p65
S'polyrabbit'
p66
S'polyrabbit/polyglot'
p67
tp68
a(S'postgis-cookbook-data'
p69
S'smathermather'
p70
S'smathermather/postgis-cookbook-data'
p71
tp72
a(S'rockhack'
p73
S'jfoshee'
p74
S'jfoshee/rockhack'
p75
tp76
a(S'pylasdev'
p77
S'kwinkunks'
p78
S'kwinkunks/pylasdev'
p79
tp80
a(S'slapcode'
p81
S'zeroloop'
p82
S'zeroloop/slapcode'
p83
tp84
a(S'git_make'
p85
S'bryanhirsch'
p86
S'bryanhirsch/git_make'
p87
tp88
a(S'aws-lasso8'
p89
S'fletc3her'
p90
S'fletc3her/aws-lasso8'
p91
tp92
a(S'timer'
p93
S'alongubkin'
p94
S'alongubkin/timer'
p95
tp96
a(S'las2witsml'
p97
S'wellstorm'
p98
S'wellstorm/las2witsml'
p99
tp100
a(S'Platform-platino'
p101
S'Lanica'
p102
S'Lanica/Platform-platino'
p103
tp104
a(S'tutorials'
p105
S'seg'
p106
S'seg/tutorials'
p107
tp108
a(S'lasio'
p109
S'kinverarity1'
p110
S'kinverarity1/lasio'
p111
tp112
a(S'knop'
p113
S'knop-project'
p114
S'knop-project/knop'
p115
tp116
a(S'RepRapLcd4D'
p117
S'MarcoAntonini'
p118
S'MarcoAntonini/RepRapLcd4D'
p119
tp120
a(S'ds'
p121
S'zeroloop'
p122
S'zeroloop/ds'
p123
tp124
a(S'notebooks'
p125
S'agile-geoscience'
p126
S'agile-geoscience/notebooks'
p127
tp128
a(S'Ultimate-Mapchooser'
p129
S'Steell'
p130
S'Steell/Ultimate-Mapchooser'
p131
tp132
a(S'cwls-las-reader'
p133
S'gpcarmo'
p134
S'gpcarmo/cwls-las-reader'
p135
tp136
a(S'Lasso-HTTP'
p137
S'bfad'
p138
S'bfad/Lasso-HTTP'
p139
tp140
a(S'tree-interpolator'
p141
S'cleveland-metroparks'
p142
S'cleveland-metroparks/tree-interpolator'
p143
tp144
a(S'hacksaw'
p145
S'kwinkunks'
p146
S'kwinkunks/hacksaw'
p147
tp148
a(S'kir-holiday-lights'
p149
S'google'
p150
S'google/kir-holiday-lights'
p151
tp152
a(S'rppy'
p153
S'sconten'
p154
S'sconten/rppy'
p155
tp156
a(S'notebooks'
p157
S'kwinkunks'
p158
S'kwinkunks/notebooks'
p159
tp160
a(S'Memcached'
p161
S'LassoSoft'
p162
S'LassoSoft/Memcached'
p163
tp164
a(S'polyglot'
p165
S'polyrabbit'
p166
S'polyrabbit/polyglot'
p167
tp168
a(S'postgis-cookbook-data'
p169
S'smathermather'
p170
S'smathermather/postgis-cookbook-data'
p171
tp172
a(S'rockhack'
p173
S'jfoshee'
p174
S'jfoshee/rockhack'
p175
tp176
a(S'pylasdev'
p177
S'kwinkunks'
p178
S'kwinkunks/pylasdev'
p179
tp180
a(S'slapcode'
p181
S'zeroloop'
p182
S'zeroloop/slapcode'
p183
tp184
a(S'git_make'
p185
S'bryanhirsch'
p186
S'bryanhirsch/git_make'
p187
tp188
a(S'aws-lasso8'
p189
S'fletc3her'
p190
S'fletc3her/aws-lasso8'
p191
tp192
a(S'timer'
p193
S'alongubkin'
p194
S'alongubkin/timer'
p195
tp196
a(S'las2witsml'
p197
S'wellstorm'
p198
S'wellstorm/las2witsml'
p199
tp200
a(S'tutorials'
p201
S'seg'
p202
S'seg/tutorials'
p203
tp204
a(S'Platform-platino'
p205
S'Lanica'
p206
S'Lanica/Platform-platino'
p207
tp208
a(S'lasio'
p209
S'kinverarity1'
p210
S'kinverarity1/lasio'
p211
tp212
a(S'knop'
p213
S'knop-project'
p214
S'knop-project/knop'
p215
tp216
a(S'RepRapLcd4D'
p217
S'MarcoAntonini'
p218
S'MarcoAntonini/RepRapLcd4D'
p219
tp220
a(S'notebooks'
p221
S'agile-geoscience'
p222
S'agile-geoscience/notebooks'
p223
tp224
a(S'ds'
p225
S'zeroloop'
p226
S'zeroloop/ds'
p227
tp228
a(S'Ultimate-Mapchooser'
p229
S'Steell'
p230
S'Steell/Ultimate-Mapchooser'
p231
tp232
a(S'cwls-las-reader'
p233
S'gpcarmo'
p234
S'gpcarmo/cwls-las-reader'
p235
tp236
a(S'Lasso-HTTP'
p237
S'bfad'
p238
S'bfad/Lasso-HTTP'
p239
tp240
a(S'tree-interpolator'
p241
S'cleveland-metroparks'
p242
S'cleveland-metroparks/tree-interpolator'
p243
tp244
a(S'hacksaw'
p245
S'kwinkunks'
p246
S'kwinkunks/hacksaw'
p247
tp248
a(S'rppy'
p249
S'sconten'
p250
S'sconten/rppy'
p251
tp252
a(S'kir-holiday-lights'
p253
S'google'
p254
S'google/kir-holiday-lights'
p255
tp256
a(S'polyglot'
p257
S'polyrabbit'
p258
S'polyrabbit/polyglot'
p259
tp260
a(S'postgis-cookbook-data'
p261
S'smathermather'
p262
S'smathermather/postgis-cookbook-data'
p263
tp264
a(S'Memcached'
p265
S'LassoSoft'
p266
S'LassoSoft/Memcached'
p267
tp268
a(S'rockhack'
p269
S'jfoshee'
p270
S'jfoshee/rockhack'
p271
tp272
a(S'pylasdev'
p273
S'kwinkunks'
p274
S'kwinkunks/pylasdev'
p275
tp276
a(S'notebooks'
p277
S'kwinkunks'
p278
S'kwinkunks/notebooks'
p279
tp280
a(S'aws-lasso8'
p281
S'fletc3her'
p282
S'fletc3her/aws-lasso8'
p283
tp284
a(S'lasso9-github-api'
p285
S'iamjono'
p286
S'iamjono/lasso9-github-api'
p287
tp288
a(S'timer'
p289
S'alongubkin'
p290
S'alongubkin/timer'
p291
tp292
a(S'laspy'
p293
S'hobu'
p294
S'hobu/laspy'
p295
tp296
a(S'slapcode'
p297
S'zeroloop'
p298
S'zeroloop/slapcode'
p299
tp300
a.