(lp0
(S'sequential_colimits'
p1
S'EgbertRijke'
p2
S'EgbertRijke/sequential_colimits'
p3
tp4
a(S'leanproved'
p5
S'htzh'
p6
S'htzh/leanproved'
p7
tp8
a(S'msc-thesis'
p9
S'leodemoura'
p10
S'leodemoura/msc-thesis'
p11
tp12
a(S'leansnippets'
p13
S'fpvandoorn'
p14
S'fpvandoorn/leansnippets'
p15
tp16
a(S'lean-tutorial'
p17
S'rodrigogribeiro'
p18
S'rodrigogribeiro/lean-tutorial'
p19
tp20
a(S'lean'
p21
S'SeulBaek'
p22
S'SeulBaek/lean'
p23
tp24
a(S'leanproved'
p25
S'leodemoura'
p26
S'leodemoura/leanproved'
p27
tp28
a(S'leanproved'
p29
S'avigad'
p30
S'avigad/leanproved'
p31
tp32
a(S'leansnippets'
p33
S'EgbertRijke'
p34
S'EgbertRijke/leansnippets'
p35
tp36
a(S'leansnippets'
p37
S'UlrikBuchholtz'
p38
S'UlrikBuchholtz/leansnippets'
p39
tp40
a(S'alc-lean'
p41
S'GPPassos'
p42
S'GPPassos/alc-lean'
p43
tp44
a(S'dill'
p45
S'dselsam'
p46
S'dselsam/dill'
p47
tp48
a(S'lean-tutorial'
p49
S'cjmazey'
p50
S'cjmazey/lean-tutorial'
p51
tp52
a(S'lean-project-15815'
p53
S'lkloh'
p54
S'lkloh/lean-project-15815'
p55
tp56
a(S'semantics-lean'
p57
S'Kha'
p58
S'Kha/semantics-lean'
p59
tp60
a(S'fib'
p61
S'bmalehorn'
p62
S'bmalehorn/fib'
p63
tp64
a(S'alc-lean'
p65
S'arademaker'
p66
S'arademaker/alc-lean'
p67
tp68
a(S'Birkhoff'
p69
S'fgdorais'
p70
S'fgdorais/Birkhoff'
p71
tp72
a(S'lean'
p73
S'petersonbill64'
p74
S'petersonbill64/lean'
p75
tp76
a(S'leanstuff'
p77
S'emc2'
p78
S'emc2/leanstuff'
p79
tp80
a(S'learning-lean'
p81
S'pcurry'
p82
S'pcurry/learning-lean'
p83
tp84
a(S'sequential_colimits'
p85
S'fpvandoorn'
p86
S'fpvandoorn/sequential_colimits'
p87
tp88
a(S'sequential_colimits'
p89
S'EgbertRijke'
p90
S'EgbertRijke/sequential_colimits'
p91
tp92
a(S'leanproved'
p93
S'htzh'
p94
S'htzh/leanproved'
p95
tp96
a(S'msc-thesis'
p97
S'leodemoura'
p98
S'leodemoura/msc-thesis'
p99
tp100
a(S'leansnippets'
p101
S'fpvandoorn'
p102
S'fpvandoorn/leansnippets'
p103
tp104
a(S'lean-tutorial'
p105
S'rodrigogribeiro'
p106
S'rodrigogribeiro/lean-tutorial'
p107
tp108
a(S'lean'
p109
S'SeulBaek'
p110
S'SeulBaek/lean'
p111
tp112
a(S'leanproved'
p113
S'leodemoura'
p114
S'leodemoura/leanproved'
p115
tp116
a(S'leanproved'
p117
S'avigad'
p118
S'avigad/leanproved'
p119
tp120
a(S'leansnippets'
p121
S'EgbertRijke'
p122
S'EgbertRijke/leansnippets'
p123
tp124
a(S'leansnippets'
p125
S'UlrikBuchholtz'
p126
S'UlrikBuchholtz/leansnippets'
p127
tp128
a(S'alc-lean'
p129
S'GPPassos'
p130
S'GPPassos/alc-lean'
p131
tp132
a(S'dill'
p133
S'dselsam'
p134
S'dselsam/dill'
p135
tp136
a(S'lean-tutorial'
p137
S'cjmazey'
p138
S'cjmazey/lean-tutorial'
p139
tp140
a(S'lean-project-15815'
p141
S'lkloh'
p142
S'lkloh/lean-project-15815'
p143
tp144
a(S'semantics-lean'
p145
S'Kha'
p146
S'Kha/semantics-lean'
p147
tp148
a(S'fib'
p149
S'bmalehorn'
p150
S'bmalehorn/fib'
p151
tp152
a(S'alc-lean'
p153
S'arademaker'
p154
S'arademaker/alc-lean'
p155
tp156
a(S'Birkhoff'
p157
S'fgdorais'
p158
S'fgdorais/Birkhoff'
p159
tp160
a(S'lean'
p161
S'petersonbill64'
p162
S'petersonbill64/lean'
p163
tp164
a(S'leanstuff'
p165
S'emc2'
p166
S'emc2/leanstuff'
p167
tp168
a(S'learning-lean'
p169
S'pcurry'
p170
S'pcurry/learning-lean'
p171
tp172
a(S'sequential_colimits'
p173
S'fpvandoorn'
p174
S'fpvandoorn/sequential_colimits'
p175
tp176
a(S'sequential_colimits'
p177
S'EgbertRijke'
p178
S'EgbertRijke/sequential_colimits'
p179
tp180
a(S'leanproved'
p181
S'htzh'
p182
S'htzh/leanproved'
p183
tp184
a(S'msc-thesis'
p185
S'leodemoura'
p186
S'leodemoura/msc-thesis'
p187
tp188
a(S'leansnippets'
p189
S'fpvandoorn'
p190
S'fpvandoorn/leansnippets'
p191
tp192
a(S'lean-tutorial'
p193
S'rodrigogribeiro'
p194
S'rodrigogribeiro/lean-tutorial'
p195
tp196
a(S'lean'
p197
S'SeulBaek'
p198
S'SeulBaek/lean'
p199
tp200
a(S'leanproved'
p201
S'leodemoura'
p202
S'leodemoura/leanproved'
p203
tp204
a(S'leanproved'
p205
S'avigad'
p206
S'avigad/leanproved'
p207
tp208
a(S'leansnippets'
p209
S'EgbertRijke'
p210
S'EgbertRijke/leansnippets'
p211
tp212
a(S'leansnippets'
p213
S'UlrikBuchholtz'
p214
S'UlrikBuchholtz/leansnippets'
p215
tp216
a(S'alc-lean'
p217
S'GPPassos'
p218
S'GPPassos/alc-lean'
p219
tp220
a(S'dill'
p221
S'dselsam'
p222
S'dselsam/dill'
p223
tp224
a(S'lean-tutorial'
p225
S'cjmazey'
p226
S'cjmazey/lean-tutorial'
p227
tp228
a(S'lean-project-15815'
p229
S'lkloh'
p230
S'lkloh/lean-project-15815'
p231
tp232
a(S'semantics-lean'
p233
S'Kha'
p234
S'Kha/semantics-lean'
p235
tp236
a(S'fib'
p237
S'bmalehorn'
p238
S'bmalehorn/fib'
p239
tp240
a(S'alc-lean'
p241
S'arademaker'
p242
S'arademaker/alc-lean'
p243
tp244
a(S'Birkhoff'
p245
S'fgdorais'
p246
S'fgdorais/Birkhoff'
p247
tp248
a(S'lean'
p249
S'petersonbill64'
p250
S'petersonbill64/lean'
p251
tp252
a(S'leanstuff'
p253
S'emc2'
p254
S'emc2/leanstuff'
p255
tp256
a(S'learning-lean'
p257
S'pcurry'
p258
S'pcurry/learning-lean'
p259
tp260
a(S'sequential_colimits'
p261
S'fpvandoorn'
p262
S'fpvandoorn/sequential_colimits'
p263
tp264
a.