(lp0
(S'cws_evaluation'
p1
S'ysc'
p2
S'ysc/cws_evaluation'
p3
tp4
a(S'corevoikko'
p5
S'voikko'
p6
S'voikko/corevoikko'
p7
tp8
a(S'jcseg'
p9
S'lionsoul2014'
p10
S'lionsoul2014/jcseg'
p11
tp12
a(S'icecorpus'
p13
S'antonkarl'
p14
S'antonkarl/icecorpus'
p15
tp16
a(S'fowlt'
p17
S'Woseseltops'
p18
S'Woseseltops/fowlt'
p19
tp20
a(S'xworker'
p21
S'x-meta'
p22
S'x-meta/xworker'
p23
tp24
a(S'sentlex'
p25
S'bohana'
p26
S'bohana/sentlex'
p27
tp28
a(S'tscan'
p29
S'proycon'
p30
S'proycon/tscan'
p31
tp32
a(S'IntelliJ-HLASM'
p33
S'candiduslynx'
p34
S'candiduslynx/IntelliJ-HLASM'
p35
tp36
a(S'NLP'
p37
S'MisaZhu'
p38
S'MisaZhu/NLP'
p39
tp40
a(S'Proyecto_Compiladores'
p41
S'CARLOSP7994'
p42
S'CARLOSP7994/Proyecto_Compiladores'
p43
tp44
a(S'ewts'
p45
S'eroux'
p46
S'eroux/ewts'
p47
tp48
a(S'boss'
p49
S'ebrian'
p50
S'ebrian/boss'
p51
tp52
a(S'valkuil'
p53
S'proycon'
p54
S'proycon/valkuil'
p55
tp56
a(S'N-eA'
p57
S'hltdi'
p58
S'hltdi/N-eA'
p59
tp60
a(S'Compiler-Design'
p61
S'hydai'
p62
S'hydai/Compiler-Design'
p63
tp64
a(S'nep-SentiWord-py'
p65
S'wannamit'
p66
S'wannamit/nep-SentiWord-py'
p67
tp68
a(S'Compiler-Exercise'
p69
S'fabriziodemaria'
p70
S'fabriziodemaria/Compiler-Exercise'
p71
tp72
a(S'liblex'
p73
S'vit1251'
p74
S'vit1251/liblex'
p75
tp76
a(S'zefram0'
p77
S'zarevucky'
p78
S'zarevucky/zefram0'
p79
tp80
a(S'Compile-Principle'
p81
S'JackieTseng'
p82
S'JackieTseng/Compile-Principle'
p83
tp84
a(S'Ancomlex'
p85
S'BrenFI'
p86
S'BrenFI/Ancomlex'
p87
tp88
a(S'Calculator'
p89
S'matsuneko22'
p90
S'matsuneko22/Calculator'
p91
tp92
a(S'Project'
p93
S'googlecosplay'
p94
S'googlecosplay/Project'
p95
tp96
a(S'TestJava'
p97
S'ThunderboltLei'
p98
S'ThunderboltLei/TestJava'
p99
tp100
a(S'cws_evaluation'
p101
S'ysc'
p102
S'ysc/cws_evaluation'
p103
tp104
a(S'corevoikko'
p105
S'voikko'
p106
S'voikko/corevoikko'
p107
tp108
a(S'jcseg'
p109
S'lionsoul2014'
p110
S'lionsoul2014/jcseg'
p111
tp112
a(S'icecorpus'
p113
S'antonkarl'
p114
S'antonkarl/icecorpus'
p115
tp116
a(S'fowlt'
p117
S'Woseseltops'
p118
S'Woseseltops/fowlt'
p119
tp120
a(S'xworker'
p121
S'x-meta'
p122
S'x-meta/xworker'
p123
tp124
a(S'sentlex'
p125
S'bohana'
p126
S'bohana/sentlex'
p127
tp128
a(S'tscan'
p129
S'proycon'
p130
S'proycon/tscan'
p131
tp132
a(S'IntelliJ-HLASM'
p133
S'candiduslynx'
p134
S'candiduslynx/IntelliJ-HLASM'
p135
tp136
a(S'NLP'
p137
S'MisaZhu'
p138
S'MisaZhu/NLP'
p139
tp140
a(S'Proyecto_Compiladores'
p141
S'CARLOSP7994'
p142
S'CARLOSP7994/Proyecto_Compiladores'
p143
tp144
a(S'ewts'
p145
S'eroux'
p146
S'eroux/ewts'
p147
tp148
a(S'boss'
p149
S'ebrian'
p150
S'ebrian/boss'
p151
tp152
a(S'valkuil'
p153
S'proycon'
p154
S'proycon/valkuil'
p155
tp156
a(S'N-eA'
p157
S'hltdi'
p158
S'hltdi/N-eA'
p159
tp160
a(S'Compiler-Design'
p161
S'hydai'
p162
S'hydai/Compiler-Design'
p163
tp164
a(S'nep-SentiWord-py'
p165
S'wannamit'
p166
S'wannamit/nep-SentiWord-py'
p167
tp168
a(S'Compiler-Exercise'
p169
S'fabriziodemaria'
p170
S'fabriziodemaria/Compiler-Exercise'
p171
tp172
a(S'liblex'
p173
S'vit1251'
p174
S'vit1251/liblex'
p175
tp176
a(S'zefram0'
p177
S'zarevucky'
p178
S'zarevucky/zefram0'
p179
tp180
a(S'Compile-Principle'
p181
S'JackieTseng'
p182
S'JackieTseng/Compile-Principle'
p183
tp184
a(S'Ancomlex'
p185
S'BrenFI'
p186
S'BrenFI/Ancomlex'
p187
tp188
a(S'Calculator'
p189
S'matsuneko22'
p190
S'matsuneko22/Calculator'
p191
tp192
a(S'Project'
p193
S'googlecosplay'
p194
S'googlecosplay/Project'
p195
tp196
a(S'TestJava'
p197
S'ThunderboltLei'
p198
S'ThunderboltLei/TestJava'
p199
tp200
a(S'cws_evaluation'
p201
S'ysc'
p202
S'ysc/cws_evaluation'
p203
tp204
a(S'corevoikko'
p205
S'voikko'
p206
S'voikko/corevoikko'
p207
tp208
a(S'jcseg'
p209
S'lionsoul2014'
p210
S'lionsoul2014/jcseg'
p211
tp212
a(S'icecorpus'
p213
S'antonkarl'
p214
S'antonkarl/icecorpus'
p215
tp216
a(S'fowlt'
p217
S'Woseseltops'
p218
S'Woseseltops/fowlt'
p219
tp220
a(S'xworker'
p221
S'x-meta'
p222
S'x-meta/xworker'
p223
tp224
a(S'sentlex'
p225
S'bohana'
p226
S'bohana/sentlex'
p227
tp228
a(S'tscan'
p229
S'proycon'
p230
S'proycon/tscan'
p231
tp232
a(S'IntelliJ-HLASM'
p233
S'candiduslynx'
p234
S'candiduslynx/IntelliJ-HLASM'
p235
tp236
a(S'NLP'
p237
S'MisaZhu'
p238
S'MisaZhu/NLP'
p239
tp240
a(S'Proyecto_Compiladores'
p241
S'CARLOSP7994'
p242
S'CARLOSP7994/Proyecto_Compiladores'
p243
tp244
a(S'ewts'
p245
S'eroux'
p246
S'eroux/ewts'
p247
tp248
a(S'boss'
p249
S'ebrian'
p250
S'ebrian/boss'
p251
tp252
a(S'valkuil'
p253
S'proycon'
p254
S'proycon/valkuil'
p255
tp256
a(S'N-eA'
p257
S'hltdi'
p258
S'hltdi/N-eA'
p259
tp260
a(S'Compiler-Design'
p261
S'hydai'
p262
S'hydai/Compiler-Design'
p263
tp264
a(S'nep-SentiWord-py'
p265
S'wannamit'
p266
S'wannamit/nep-SentiWord-py'
p267
tp268
a(S'Compiler-Exercise'
p269
S'fabriziodemaria'
p270
S'fabriziodemaria/Compiler-Exercise'
p271
tp272
a(S'liblex'
p273
S'vit1251'
p274
S'vit1251/liblex'
p275
tp276
a(S'zefram0'
p277
S'zarevucky'
p278
S'zarevucky/zefram0'
p279
tp280
a(S'Compile-Principle'
p281
S'JackieTseng'
p282
S'JackieTseng/Compile-Principle'
p283
tp284
a(S'Ancomlex'
p285
S'BrenFI'
p286
S'BrenFI/Ancomlex'
p287
tp288
a(S'Calculator'
p289
S'matsuneko22'
p290
S'matsuneko22/Calculator'
p291
tp292
a(S'Project'
p293
S'googlecosplay'
p294
S'googlecosplay/Project'
p295
tp296
a(S'TestJava'
p297
S'ThunderboltLei'
p298
S'ThunderboltLei/TestJava'
p299
tp300
a.