(lp0
(S'MutopiaProject'
p1
S'MutopiaProject'
p2
S'MutopiaProject/MutopiaProject'
p3
tp4
a(S'openlilylib'
p5
S'openlilylib'
p6
S'openlilylib/openlilylib'
p7
tp8
a(S'Lilypond-Sheet-Music'
p9
S'cellist'
p10
S'cellist/Lilypond-Sheet-Music'
p11
tp12
a(S'openbook'
p13
S'veltzer'
p14
S'veltzer/openbook'
p15
tp16
a(S'openmusictheory.github.io'
p17
S'openmusictheory'
p18
S'openmusictheory/openmusictheory.github.io'
p19
tp20
a(S'bagpipemusic'
p21
S'svenax'
p22
S'svenax/bagpipemusic'
p23
tp24
a(S'nenuvar'
p25
S'nsceaux'
p26
S'nsceaux/nenuvar'
p27
tp28
a(S'lilymusic'
p29
S'wbsoft'
p30
S'wbsoft/lilymusic'
p31
tp32
a(S'xiao-ge'
p33
S'luminr'
p34
S'luminr/xiao-ge'
p35
tp36
a(S'lalily'
p37
S'jpvoigt'
p38
S'jpvoigt/lalily'
p39
tp40
a(S'openmusictheory'
p41
S'hybrid-pedagogy'
p42
S'hybrid-pedagogy/openmusictheory'
p43
tp44
a(S'music'
p45
S'ciconia'
p46
S'ciconia/music'
p47
tp48
a(S'christmas-carols'
p49
S'bbloomf'
p50
S'bbloomf/christmas-carols'
p51
tp52
a(S'English-Hymns'
p53
S'jdodonnell'
p54
S'jdodonnell/English-Hymns'
p55
tp56
a(S'sheets'
p57
S'xaviershay'
p58
S'xaviershay/sheets'
p59
tp60
a(S'Sibelius7'
p61
S'crantila'
p62
S'crantila/Sibelius7'
p63
tp64
a(S'patadata'
p65
S'patacrep'
p66
S'patacrep/patadata'
p67
tp68
a(S'elysium'
p69
S'thSoft'
p70
S'thSoft/elysium'
p71
tp72
a(S'music'
p73
S'xrchz'
p74
S'xrchz/music'
p75
tp76
a(S'ersilia'
p77
S'josiah-wolf-oberholtzer'
p78
S'josiah-wolf-oberholtzer/ersilia'
p79
tp80
a(S'sheet-music'
p81
S'hilton'
p82
S'hilton/sheet-music'
p83
tp84
a(S'eog'
p85
S'kulp'
p86
S'kulp/eog'
p87
tp88
a(S'zaira'
p89
S'josiah-wolf-oberholtzer'
p90
S'josiah-wolf-oberholtzer/zaira'
p91
tp92
a(S'scores'
p93
S'jollyroger'
p94
S'jollyroger/scores'
p95
tp96
a(S'music-scores'
p97
S'liberforce'
p98
S'liberforce/music-scores'
p99
tp100
a(S'openlilylib'
p101
S'openlilylib'
p102
S'openlilylib/openlilylib'
p103
tp104
a(S'MutopiaProject'
p105
S'MutopiaProject'
p106
S'MutopiaProject/MutopiaProject'
p107
tp108
a(S'Lilypond-Sheet-Music'
p109
S'cellist'
p110
S'cellist/Lilypond-Sheet-Music'
p111
tp112
a(S'openbook'
p113
S'veltzer'
p114
S'veltzer/openbook'
p115
tp116
a(S'bagpipemusic'
p117
S'svenax'
p118
S'svenax/bagpipemusic'
p119
tp120
a(S'openmusictheory.github.io'
p121
S'openmusictheory'
p122
S'openmusictheory/openmusictheory.github.io'
p123
tp124
a(S'lilymusic'
p125
S'wbsoft'
p126
S'wbsoft/lilymusic'
p127
tp128
a(S'nenuvar'
p129
S'nsceaux'
p130
S'nsceaux/nenuvar'
p131
tp132
a(S'xiao-ge'
p133
S'luminr'
p134
S'luminr/xiao-ge'
p135
tp136
a(S'openmusictheory'
p137
S'hybrid-pedagogy'
p138
S'hybrid-pedagogy/openmusictheory'
p139
tp140
a(S'lalily'
p141
S'jpvoigt'
p142
S'jpvoigt/lalily'
p143
tp144
a(S'christmas-carols'
p145
S'bbloomf'
p146
S'bbloomf/christmas-carols'
p147
tp148
a(S'music'
p149
S'ciconia'
p150
S'ciconia/music'
p151
tp152
a(S'English-Hymns'
p153
S'jdodonnell'
p154
S'jdodonnell/English-Hymns'
p155
tp156
a(S'patadata'
p157
S'patacrep'
p158
S'patacrep/patadata'
p159
tp160
a(S'sheets'
p161
S'xaviershay'
p162
S'xaviershay/sheets'
p163
tp164
a(S'elysium'
p165
S'thSoft'
p166
S'thSoft/elysium'
p167
tp168
a(S'Sibelius7'
p169
S'crantila'
p170
S'crantila/Sibelius7'
p171
tp172
a(S'Music'
p173
S'Aversiste'
p174
S'Aversiste/Music'
p175
tp176
a(S'music-scores'
p177
S'liberforce'
p178
S'liberforce/music-scores'
p179
tp180
a(S'zaira'
p181
S'josiah-wolf-oberholtzer'
p182
S'josiah-wolf-oberholtzer/zaira'
p183
tp184
a(S'music'
p185
S'xrchz'
p186
S'xrchz/music'
p187
tp188
a(S'ersilia'
p189
S'josiah-wolf-oberholtzer'
p190
S'josiah-wolf-oberholtzer/ersilia'
p191
tp192
a(S'sheet-music'
p193
S'hilton'
p194
S'hilton/sheet-music'
p195
tp196
a(S'scores'
p197
S'jollyroger'
p198
S'jollyroger/scores'
p199
tp200
a(S'MutopiaProject'
p201
S'MutopiaProject'
p202
S'MutopiaProject/MutopiaProject'
p203
tp204
a(S'openlilylib'
p205
S'openlilylib'
p206
S'openlilylib/openlilylib'
p207
tp208
a(S'Lilypond-Sheet-Music'
p209
S'cellist'
p210
S'cellist/Lilypond-Sheet-Music'
p211
tp212
a(S'openbook'
p213
S'veltzer'
p214
S'veltzer/openbook'
p215
tp216
a(S'openmusictheory.github.io'
p217
S'openmusictheory'
p218
S'openmusictheory/openmusictheory.github.io'
p219
tp220
a(S'bagpipemusic'
p221
S'svenax'
p222
S'svenax/bagpipemusic'
p223
tp224
a(S'nenuvar'
p225
S'nsceaux'
p226
S'nsceaux/nenuvar'
p227
tp228
a(S'lilymusic'
p229
S'wbsoft'
p230
S'wbsoft/lilymusic'
p231
tp232
a(S'xiao-ge'
p233
S'luminr'
p234
S'luminr/xiao-ge'
p235
tp236
a(S'lalily'
p237
S'jpvoigt'
p238
S'jpvoigt/lalily'
p239
tp240
a(S'openmusictheory'
p241
S'hybrid-pedagogy'
p242
S'hybrid-pedagogy/openmusictheory'
p243
tp244
a(S'music'
p245
S'ciconia'
p246
S'ciconia/music'
p247
tp248
a(S'christmas-carols'
p249
S'bbloomf'
p250
S'bbloomf/christmas-carols'
p251
tp252
a(S'English-Hymns'
p253
S'jdodonnell'
p254
S'jdodonnell/English-Hymns'
p255
tp256
a(S'sheets'
p257
S'xaviershay'
p258
S'xaviershay/sheets'
p259
tp260
a(S'Sibelius7'
p261
S'crantila'
p262
S'crantila/Sibelius7'
p263
tp264
a(S'patadata'
p265
S'patacrep'
p266
S'patacrep/patadata'
p267
tp268
a(S'elysium'
p269
S'thSoft'
p270
S'thSoft/elysium'
p271
tp272
a(S'music'
p273
S'xrchz'
p274
S'xrchz/music'
p275
tp276
a(S'ersilia'
p277
S'josiah-wolf-oberholtzer'
p278
S'josiah-wolf-oberholtzer/ersilia'
p279
tp280
a(S'sheet-music'
p281
S'hilton'
p282
S'hilton/sheet-music'
p283
tp284
a(S'eog'
p285
S'kulp'
p286
S'kulp/eog'
p287
tp288
a(S'zaira'
p289
S'josiah-wolf-oberholtzer'
p290
S'josiah-wolf-oberholtzer/zaira'
p291
tp292
a(S'scores'
p293
S'jollyroger'
p294
S'jollyroger/scores'
p295
tp296
a(S'music-scores'
p297
S'liberforce'
p298
S'liberforce/music-scores'
p299
tp300
a.