(lp0
(S'shogun-data'
p1
S'shogun-toolbox'
p2
S'shogun-toolbox/shogun-data'
p3
tp4
a(S'rcssmin'
p5
S'ndparker'
p6
S'ndparker/rcssmin'
p7
tp8
a(S'Enitor'
p9
S'Ommac'
p10
S'Ommac/Enitor'
p11
tp12
a(S'Jacobi-ADMM'
p13
S'ZhiminPeng'
p14
S'ZhiminPeng/Jacobi-ADMM'
p15
tp16
a(S'plasticity'
p17
S'subroutines'
p18
S'subroutines/plasticity'
p19
tp20
a(S'iHW-TI-84-CE'
p21
S'jononon'
p22
S'jononon/iHW-TI-84-CE'
p23
tp24
a(S'MRonInferno'
p25
S'yaokai1117'
p26
S'yaokai1117/MRonInferno'
p27
tp28
a(S'NLP'
p29
S'anandp219'
p30
S'anandp219/NLP'
p31
tp32
a(S'biqa'
p33
S'Magnus1990P'
p34
S'Magnus1990P/biqa'
p35
tp36
a(S'acme-sac'
p37
S'flyingfisch'
p38
S'flyingfisch/acme-sac'
p39
tp40
a(S'acme-sac'
p41
S'azynheira'
p42
S'azynheira/acme-sac'
p43
tp44
a(S'sample'
p45
S'jatin-arora'
p46
S'jatin-arora/sample'
p47
tp48
a(S'matHFO'
p49
S'britodasilva'
p50
S'britodasilva/matHFO'
p51
tp52
a(S'mini_OS'
p53
S'eli-davis'
p54
S'eli-davis/mini_OS'
p55
tp56
a(S'my-ucla-website'
p57
S'ZhiminPeng'
p58
S'ZhiminPeng/my-ucla-website'
p59
tp60
a(S'fakefingerprint'
p61
S'OlafLee'
p62
S'OlafLee/fakefingerprint'
p63
tp64
a(S'acme-sac'
p65
S'lonjil'
p66
S'lonjil/acme-sac'
p67
tp68
a(S'matlabbatch_test'
p69
S'yzhizai'
p70
S'yzhizai/matlabbatch_test'
p71
tp72
a(S'acme-sac'
p73
S'dead-letter-office'
p74
S'dead-letter-office/acme-sac'
p75
tp76
a(S'acme-sac'
p77
S'gaganjyot'
p78
S'gaganjyot/acme-sac'
p79
tp80
a(S'ACMer-Rode'
p81
S'lkysyzxz'
p82
S'lkysyzxz/ACMer-Rode'
p83
tp84
a(S'igem'
p85
S'v0lta'
p86
S'v0lta/igem'
p87
tp88
a(S'cs434'
p89
S'hugheskatie'
p90
S'hugheskatie/cs434'
p91
tp92
a(S'infernolab1'
p93
S'ivan1993spb'
p94
S'ivan1993spb/infernolab1'
p95
tp96
a(S'readXrayMassCoef'
p97
S'antiquity'
p98
S'antiquity/readXrayMassCoef'
p99
tp100
a(S'shogun-data'
p101
S'shogun-toolbox'
p102
S'shogun-toolbox/shogun-data'
p103
tp104
a(S'rcssmin'
p105
S'ndparker'
p106
S'ndparker/rcssmin'
p107
tp108
a(S'Enitor'
p109
S'Ommac'
p110
S'Ommac/Enitor'
p111
tp112
a(S'Jacobi-ADMM'
p113
S'ZhiminPeng'
p114
S'ZhiminPeng/Jacobi-ADMM'
p115
tp116
a(S'plasticity'
p117
S'subroutines'
p118
S'subroutines/plasticity'
p119
tp120
a(S'iHW-TI-84-CE'
p121
S'jononon'
p122
S'jononon/iHW-TI-84-CE'
p123
tp124
a(S'MRonInferno'
p125
S'yaokai1117'
p126
S'yaokai1117/MRonInferno'
p127
tp128
a(S'NLP'
p129
S'anandp219'
p130
S'anandp219/NLP'
p131
tp132
a(S'biqa'
p133
S'Magnus1990P'
p134
S'Magnus1990P/biqa'
p135
tp136
a(S'acme-sac'
p137
S'flyingfisch'
p138
S'flyingfisch/acme-sac'
p139
tp140
a(S'acme-sac'
p141
S'azynheira'
p142
S'azynheira/acme-sac'
p143
tp144
a(S'sample'
p145
S'jatin-arora'
p146
S'jatin-arora/sample'
p147
tp148
a(S'matHFO'
p149
S'britodasilva'
p150
S'britodasilva/matHFO'
p151
tp152
a(S'mini_OS'
p153
S'eli-davis'
p154
S'eli-davis/mini_OS'
p155
tp156
a(S'my-ucla-website'
p157
S'ZhiminPeng'
p158
S'ZhiminPeng/my-ucla-website'
p159
tp160
a(S'fakefingerprint'
p161
S'OlafLee'
p162
S'OlafLee/fakefingerprint'
p163
tp164
a(S'acme-sac'
p165
S'lonjil'
p166
S'lonjil/acme-sac'
p167
tp168
a(S'matlabbatch_test'
p169
S'yzhizai'
p170
S'yzhizai/matlabbatch_test'
p171
tp172
a(S'acme-sac'
p173
S'dead-letter-office'
p174
S'dead-letter-office/acme-sac'
p175
tp176
a(S'acme-sac'
p177
S'gaganjyot'
p178
S'gaganjyot/acme-sac'
p179
tp180
a(S'ACMer-Rode'
p181
S'lkysyzxz'
p182
S'lkysyzxz/ACMer-Rode'
p183
tp184
a(S'igem'
p185
S'v0lta'
p186
S'v0lta/igem'
p187
tp188
a(S'cs434'
p189
S'hugheskatie'
p190
S'hugheskatie/cs434'
p191
tp192
a(S'infernolab1'
p193
S'ivan1993spb'
p194
S'ivan1993spb/infernolab1'
p195
tp196
a(S'readXrayMassCoef'
p197
S'antiquity'
p198
S'antiquity/readXrayMassCoef'
p199
tp200
a(S'shogun-data'
p201
S'shogun-toolbox'
p202
S'shogun-toolbox/shogun-data'
p203
tp204
a(S'rcssmin'
p205
S'ndparker'
p206
S'ndparker/rcssmin'
p207
tp208
a(S'Enitor'
p209
S'Ommac'
p210
S'Ommac/Enitor'
p211
tp212
a(S'Jacobi-ADMM'
p213
S'ZhiminPeng'
p214
S'ZhiminPeng/Jacobi-ADMM'
p215
tp216
a(S'plasticity'
p217
S'subroutines'
p218
S'subroutines/plasticity'
p219
tp220
a(S'iHW-TI-84-CE'
p221
S'jononon'
p222
S'jononon/iHW-TI-84-CE'
p223
tp224
a(S'MRonInferno'
p225
S'yaokai1117'
p226
S'yaokai1117/MRonInferno'
p227
tp228
a(S'NLP'
p229
S'anandp219'
p230
S'anandp219/NLP'
p231
tp232
a(S'biqa'
p233
S'Magnus1990P'
p234
S'Magnus1990P/biqa'
p235
tp236
a(S'acme-sac'
p237
S'flyingfisch'
p238
S'flyingfisch/acme-sac'
p239
tp240
a(S'acme-sac'
p241
S'azynheira'
p242
S'azynheira/acme-sac'
p243
tp244
a(S'sample'
p245
S'jatin-arora'
p246
S'jatin-arora/sample'
p247
tp248
a(S'matHFO'
p249
S'britodasilva'
p250
S'britodasilva/matHFO'
p251
tp252
a(S'mini_OS'
p253
S'eli-davis'
p254
S'eli-davis/mini_OS'
p255
tp256
a(S'my-ucla-website'
p257
S'ZhiminPeng'
p258
S'ZhiminPeng/my-ucla-website'
p259
tp260
a(S'fakefingerprint'
p261
S'OlafLee'
p262
S'OlafLee/fakefingerprint'
p263
tp264
a(S'acme-sac'
p265
S'lonjil'
p266
S'lonjil/acme-sac'
p267
tp268
a(S'matlabbatch_test'
p269
S'yzhizai'
p270
S'yzhizai/matlabbatch_test'
p271
tp272
a(S'acme-sac'
p273
S'dead-letter-office'
p274
S'dead-letter-office/acme-sac'
p275
tp276
a(S'acme-sac'
p277
S'gaganjyot'
p278
S'gaganjyot/acme-sac'
p279
tp280
a(S'ACMer-Rode'
p281
S'lkysyzxz'
p282
S'lkysyzxz/ACMer-Rode'
p283
tp284
a(S'igem'
p285
S'v0lta'
p286
S'v0lta/igem'
p287
tp288
a(S'cs434'
p289
S'hugheskatie'
p290
S'hugheskatie/cs434'
p291
tp292
a(S'infernolab1'
p293
S'ivan1993spb'
p294
S'ivan1993spb/infernolab1'
p295
tp296
a(S'readXrayMassCoef'
p297
S'antiquity'
p298
S'antiquity/readXrayMassCoef'
p299
tp300
a.