(lp0
(S'Timber'
p1
S'Shopify'
p2
S'Shopify/Timber'
p3
tp4
a(S'bootstrapify'
p5
S'luciddesign'
p6
S'luciddesign/bootstrapify'
p7
tp8
a(S'foundationify'
p9
S'lukebussey'
p10
S'lukebussey/foundationify'
p11
tp12
a(S'shopify-css-import'
p13
S'Shopify'
p14
S'Shopify/shopify-css-import'
p15
tp16
a(S'Shopify-Wish-List'
p17
S'zakhardage'
p18
S'zakhardage/Shopify-Wish-List'
p19
tp20
a(S'ajaxify-cart'
p21
S'carolineschnapp'
p22
S'carolineschnapp/ajaxify-cart'
p23
tp24
a(S'grunt-shopify-theme'
p25
S'ryanburnette'
p26
S'ryanburnette/grunt-shopify-theme'
p27
tp28
a(S'Shopify-Wish-List'
p29
S'jimlakey'
p30
S'jimlakey/Shopify-Wish-List'
p31
tp32
a(S'Shopify-Wholesale'
p33
S'zakhardage'
p34
S'zakhardage/Shopify-Wholesale'
p35
tp36
a(S'shopify-starter-theme'
p37
S'zoerooney'
p38
S'zoerooney/shopify-starter-theme'
p39
tp40
a(S'add-product-to-cart-automatically'
p41
S'carolineschnapp'
p42
S'carolineschnapp/add-product-to-cart-automatically'
p43
tp44
a(S'popup-ajax-subscribe-form'
p45
S'Twigs-for-Timber'
p46
S'Twigs-for-Timber/popup-ajax-subscribe-form'
p47
tp48
a(S'make-image-change-variant'
p49
S'carolineschnapp'
p50
S'carolineschnapp/make-image-change-variant'
p51
tp52
a(S'Sourdough'
p53
S'zakhardage'
p54
S'zakhardage/Sourdough'
p55
tp56
a(S'motioner'
p57
S'datasektionen'
p58
S'datasektionen/motioner'
p59
tp60
a(S'Shopify-Checkout-Customizer'
p61
S'Tricky3'
p62
S'Tricky3/Shopify-Checkout-Customizer'
p63
tp64
a(S'cart-attributes-validation'
p65
S'carolineschnapp'
p66
S'carolineschnapp/cart-attributes-validation'
p67
tp68
a(S'GUI-docs'
p69
S'WestpacCXTeam'
p70
S'WestpacCXTeam/GUI-docs'
p71
tp72
a(S'minimost'
p73
S'ombushop'
p74
S'ombushop/minimost'
p75
tp76
a(S'insales-bootstrap'
p77
S'tonystar'
p78
S'tonystar/insales-bootstrap'
p79
tp80
a(S'mixture'
p81
S'matthias-maier'
p82
S'matthias-maier/mixture'
p83
tp84
a(S'shopify-naked'
p85
S'thisiscapra'
p86
S'thisiscapra/shopify-naked'
p87
tp88
a(S'shopimake'
p89
S'Pixelbash'
p90
S'Pixelbash/shopimake'
p91
tp92
a(S'wooden'
p93
S'ombushop'
p94
S'ombushop/wooden'
p95
tp96
a(S'Tricky3eme'
p97
S'rickydazla'
p98
S'rickydazla/Tricky3eme'
p99
tp100
a(S'Timber'
p101
S'Shopify'
p102
S'Shopify/Timber'
p103
tp104
a(S'bootstrapify'
p105
S'luciddesign'
p106
S'luciddesign/bootstrapify'
p107
tp108
a(S'foundationify'
p109
S'lukebussey'
p110
S'lukebussey/foundationify'
p111
tp112
a(S'shopify-css-import'
p113
S'Shopify'
p114
S'Shopify/shopify-css-import'
p115
tp116
a(S'Shopify-Wish-List'
p117
S'zakhardage'
p118
S'zakhardage/Shopify-Wish-List'
p119
tp120
a(S'ajaxify-cart'
p121
S'carolineschnapp'
p122
S'carolineschnapp/ajaxify-cart'
p123
tp124
a(S'grunt-shopify-theme'
p125
S'ryanburnette'
p126
S'ryanburnette/grunt-shopify-theme'
p127
tp128
a(S'Shopify-Wish-List'
p129
S'jimlakey'
p130
S'jimlakey/Shopify-Wish-List'
p131
tp132
a(S'Shopify-Wholesale'
p133
S'zakhardage'
p134
S'zakhardage/Shopify-Wholesale'
p135
tp136
a(S'shopify-starter-theme'
p137
S'zoerooney'
p138
S'zoerooney/shopify-starter-theme'
p139
tp140
a(S'add-product-to-cart-automatically'
p141
S'carolineschnapp'
p142
S'carolineschnapp/add-product-to-cart-automatically'
p143
tp144
a(S'popup-ajax-subscribe-form'
p145
S'Twigs-for-Timber'
p146
S'Twigs-for-Timber/popup-ajax-subscribe-form'
p147
tp148
a(S'make-image-change-variant'
p149
S'carolineschnapp'
p150
S'carolineschnapp/make-image-change-variant'
p151
tp152
a(S'Sourdough'
p153
S'zakhardage'
p154
S'zakhardage/Sourdough'
p155
tp156
a(S'motioner'
p157
S'datasektionen'
p158
S'datasektionen/motioner'
p159
tp160
a(S'Shopify-Checkout-Customizer'
p161
S'Tricky3'
p162
S'Tricky3/Shopify-Checkout-Customizer'
p163
tp164
a(S'cart-attributes-validation'
p165
S'carolineschnapp'
p166
S'carolineschnapp/cart-attributes-validation'
p167
tp168
a(S'GUI-docs'
p169
S'WestpacCXTeam'
p170
S'WestpacCXTeam/GUI-docs'
p171
tp172
a(S'minimost'
p173
S'ombushop'
p174
S'ombushop/minimost'
p175
tp176
a(S'insales-bootstrap'
p177
S'tonystar'
p178
S'tonystar/insales-bootstrap'
p179
tp180
a(S'mixture'
p181
S'matthias-maier'
p182
S'matthias-maier/mixture'
p183
tp184
a(S'shopify-naked'
p185
S'thisiscapra'
p186
S'thisiscapra/shopify-naked'
p187
tp188
a(S'shopimake'
p189
S'Pixelbash'
p190
S'Pixelbash/shopimake'
p191
tp192
a(S'wooden'
p193
S'ombushop'
p194
S'ombushop/wooden'
p195
tp196
a(S'Tricky3eme'
p197
S'rickydazla'
p198
S'rickydazla/Tricky3eme'
p199
tp200
a(S'Timber'
p201
S'Shopify'
p202
S'Shopify/Timber'
p203
tp204
a(S'bootstrapify'
p205
S'luciddesign'
p206
S'luciddesign/bootstrapify'
p207
tp208
a(S'foundationify'
p209
S'lukebussey'
p210
S'lukebussey/foundationify'
p211
tp212
a(S'shopify-css-import'
p213
S'Shopify'
p214
S'Shopify/shopify-css-import'
p215
tp216
a(S'Shopify-Wish-List'
p217
S'zakhardage'
p218
S'zakhardage/Shopify-Wish-List'
p219
tp220
a(S'ajaxify-cart'
p221
S'carolineschnapp'
p222
S'carolineschnapp/ajaxify-cart'
p223
tp224
a(S'grunt-shopify-theme'
p225
S'ryanburnette'
p226
S'ryanburnette/grunt-shopify-theme'
p227
tp228
a(S'Shopify-Wish-List'
p229
S'jimlakey'
p230
S'jimlakey/Shopify-Wish-List'
p231
tp232
a(S'Shopify-Wholesale'
p233
S'zakhardage'
p234
S'zakhardage/Shopify-Wholesale'
p235
tp236
a(S'shopify-starter-theme'
p237
S'zoerooney'
p238
S'zoerooney/shopify-starter-theme'
p239
tp240
a(S'add-product-to-cart-automatically'
p241
S'carolineschnapp'
p242
S'carolineschnapp/add-product-to-cart-automatically'
p243
tp244
a(S'popup-ajax-subscribe-form'
p245
S'Twigs-for-Timber'
p246
S'Twigs-for-Timber/popup-ajax-subscribe-form'
p247
tp248
a(S'make-image-change-variant'
p249
S'carolineschnapp'
p250
S'carolineschnapp/make-image-change-variant'
p251
tp252
a(S'Sourdough'
p253
S'zakhardage'
p254
S'zakhardage/Sourdough'
p255
tp256
a(S'motioner'
p257
S'datasektionen'
p258
S'datasektionen/motioner'
p259
tp260
a(S'Shopify-Checkout-Customizer'
p261
S'Tricky3'
p262
S'Tricky3/Shopify-Checkout-Customizer'
p263
tp264
a(S'insales-bootstrap'
p265
S'tonystar'
p266
S'tonystar/insales-bootstrap'
p267
tp268
a(S'cart-attributes-validation'
p269
S'carolineschnapp'
p270
S'carolineschnapp/cart-attributes-validation'
p271
tp272
a(S'GUI-docs'
p273
S'WestpacCXTeam'
p274
S'WestpacCXTeam/GUI-docs'
p275
tp276
a(S'minimost'
p277
S'ombushop'
p278
S'ombushop/minimost'
p279
tp280
a(S'wooden'
p281
S'ombushop'
p282
S'ombushop/wooden'
p283
tp284
a(S'mixture'
p285
S'matthias-maier'
p286
S'matthias-maier/mixture'
p287
tp288
a(S'boilerplate--shopify'
p289
S'tomblanchard'
p290
S'tomblanchard/boilerplate--shopify'
p291
tp292
a(S'Tricky3eme'
p293
S'rickydazla'
p294
S'rickydazla/Tricky3eme'
p295
tp296
a(S'shopimake'
p297
S'Pixelbash'
p298
S'Pixelbash/shopimake'
p299
tp300
a.