(lp0
(S'LiveScript'
p1
S'gkz'
p2
S'gkz/LiveScript'
p3
tp4
a(S'grasp'
p5
S'gkz'
p6
S'gkz/grasp'
p7
tp8
a(S'prism-break'
p9
S'nylira'
p10
S'nylira/prism-break'
p11
tp12
a(S'pgrest'
p13
S'pgrest'
p14
S'pgrest/pgrest'
p15
tp16
a(S'prelude-ls'
p17
S'gkz'
p18
S'gkz/prelude-ls'
p19
tp20
a(S'ramda-cli'
p21
S'raine'
p22
S'raine/ramda-cli'
p23
tp24
a(S'hackfoldr'
p25
S'hackfoldr'
p26
S'hackfoldr/hackfoldr'
p27
tp28
a(S'eslisp'
p29
S'anko'
p30
S'anko/eslisp'
p31
tp32
a(S'arch'
p33
S'arch-js'
p34
S'arch-js/arch'
p35
tp36
a(S'nar'
p37
S'h2non'
p38
S'h2non/nar'
p39
tp40
a(S'type-check'
p41
S'gkz'
p42
S'gkz/type-check'
p43
tp44
a(S'qstn'
p45
S'daryl'
p46
S'daryl/qstn'
p47
tp48
a(S'react-selectize'
p49
S'furqanZafar'
p50
S'furqanZafar/react-selectize'
p51
tp52
a(S'twgeojson'
p53
S'g0v'
p54
S'g0v/twgeojson'
p55
tp56
a(S'claire'
p57
S'robotlolita'
p58
S'robotlolita/claire'
p59
tp60
a(S'optionator'
p61
S'gkz'
p62
S'gkz/optionator'
p63
tp64
a(S'gulp-riot'
p65
S'e-jigsaw'
p66
S'e-jigsaw/gulp-riot'
p67
tp68
a(S'ly.g0v.tw'
p69
S'g0v'
p70
S'g0v/ly.g0v.tw'
p71
tp72
a(S'sublime-scroll'
p73
S'demux'
p74
S'demux/sublime-scroll'
p75
tp76
a(S'diy'
p77
S'vzaccaria'
p78
S'vzaccaria/diy'
p79
tp80
a(S'plv8x'
p81
S'clkao'
p82
S'clkao/plv8x'
p83
tp84
a(S'gullet'
p85
S'clkao'
p86
S'clkao/gullet'
p87
tp88
a(S'E.A.K.'
p89
S'drumrollhq'
p90
S'drumrollhq/E.A.K.'
p91
tp92
a(S'tmpl-cli'
p93
S'raine'
p94
S'raine/tmpl-cli'
p95
tp96
a(S'hack.g0v.tw'
p97
S'g0v'
p98
S'g0v/hack.g0v.tw'
p99
tp100
a(S'eslisp'
p101
S'anko'
p102
S'anko/eslisp'
p103
tp104
a(S'react-selectize'
p105
S'furqanZafar'
p106
S'furqanZafar/react-selectize'
p107
tp108
a(S'prism-break'
p109
S'nylira'
p110
S'nylira/prism-break'
p111
tp112
a(S'ramda-cli'
p113
S'raine'
p114
S'raine/ramda-cli'
p115
tp116
a(S'hack.g0v.tw'
p117
S'g0v'
p118
S'g0v/hack.g0v.tw'
p119
tp120
a(S'LiveScript'
p121
S'gkz'
p122
S'gkz/LiveScript'
p123
tp124
a(S'grasp'
p125
S'gkz'
p126
S'gkz/grasp'
p127
tp128
a(S'pgrest'
p129
S'pgrest'
p130
S'pgrest/pgrest'
p131
tp132
a(S'prelude-ls'
p133
S'gkz'
p134
S'gkz/prelude-ls'
p135
tp136
a(S'hackfoldr'
p137
S'hackfoldr'
p138
S'hackfoldr/hackfoldr'
p139
tp140
a(S'arch'
p141
S'arch-js'
p142
S'arch-js/arch'
p143
tp144
a(S'nar'
p145
S'h2non'
p146
S'h2non/nar'
p147
tp148
a(S'type-check'
p149
S'gkz'
p150
S'gkz/type-check'
p151
tp152
a(S'qstn'
p153
S'daryl'
p154
S'daryl/qstn'
p155
tp156
a(S'twgeojson'
p157
S'g0v'
p158
S'g0v/twgeojson'
p159
tp160
a(S'claire'
p161
S'robotlolita'
p162
S'robotlolita/claire'
p163
tp164
a(S'optionator'
p165
S'gkz'
p166
S'gkz/optionator'
p167
tp168
a(S'gulp-riot'
p169
S'e-jigsaw'
p170
S'e-jigsaw/gulp-riot'
p171
tp172
a(S'ly.g0v.tw'
p173
S'g0v'
p174
S'g0v/ly.g0v.tw'
p175
tp176
a(S'sublime-scroll'
p177
S'demux'
p178
S'demux/sublime-scroll'
p179
tp180
a(S'diy'
p181
S'vzaccaria'
p182
S'vzaccaria/diy'
p183
tp184
a(S'plv8x'
p185
S'clkao'
p186
S'clkao/plv8x'
p187
tp188
a(S'gullet'
p189
S'clkao'
p190
S'clkao/gullet'
p191
tp192
a(S'tmpl-cli'
p193
S'raine'
p194
S'raine/tmpl-cli'
p195
tp196
a(S'E.A.K.'
p197
S'drumrollhq'
p198
S'drumrollhq/E.A.K.'
p199
tp200
a.