(lp0
(S'likely'
p1
S'biometrics'
p2
S'biometrics/likely'
p3
tp4
a(S'llvm-semantics'
p5
S'davidlazar'
p6
S'davidlazar/llvm-semantics'
p7
tp8
a(S'llvm-datalog'
p9
S'plast-lab'
p10
S'plast-lab/llvm-datalog'
p11
tp12
a(S'purdue'
p13
S'mbmccormick'
p14
S'mbmccormick/purdue'
p15
tp16
a(S'llvm-forth'
p17
S'ephsec'
p18
S'ephsec/llvm-forth'
p19
tp20
a(S'fuzzing-with-sanitizers'
p21
S'kcc'
p22
S'kcc/fuzzing-with-sanitizers'
p23
tp24
a(S'llvm-semantics'
p25
S'kframework'
p26
S'kframework/llvm-semantics'
p27
tp28
a(S'fpgajtag'
p29
S'cambridgehackers'
p30
S'cambridgehackers/fpgajtag'
p31
tp32
a(S'ska'
p33
S'tuxfan'
p34
S'tuxfan/ska'
p35
tp36
a(S'processwarp'
p37
S'processwarp'
p38
S'processwarp/processwarp'
p39
tp40
a(S'llvm2smt'
p41
S'SRI-CSL'
p42
S'SRI-CSL/llvm2smt'
p43
tp44
a(S'mbx'
p45
S'AlexDenisov'
p46
S'AlexDenisov/mbx'
p47
tp48
a(S'graphs'
p49
S'decomp'
p50
S'decomp/graphs'
p51
tp52
a(S'Lightweight-PGO-LLVM-Visualization'
p53
S'MikeShah'
p54
S'MikeShah/Lightweight-PGO-LLVM-Visualization'
p55
tp56
a(S'purdue'
p57
S'Mootix1313'
p58
S'Mootix1313/purdue'
p59
tp60
a(S'clang-pass'
p61
S'aktaylor08'
p62
S'aktaylor08/clang-pass'
p63
tp64
a(S'floor_examples'
p65
S'a2flo'
p66
S'a2flo/floor_examples'
p67
tp68
a(S'llvm-semantics-old'
p69
S'kframework'
p70
S'kframework/llvm-semantics-old'
p71
tp72
a(S'High_Level_Synthesis'
p73
S'frankyzhou'
p74
S'frankyzhou/High_Level_Synthesis'
p75
tp76
a(S'cs260-final-proj'
p77
S'zehranaz'
p78
S'zehranaz/cs260-final-proj'
p79
tp80
a(S'LLVM_3.5_codes'
p81
S'mlite'
p82
S'mlite/LLVM_3.5_codes'
p83
tp84
a(S'Atrophy'
p85
S'dallbee'
p86
S'dallbee/Atrophy'
p87
tp88
a(S'compiler'
p89
S'bcaceiro'
p90
S'bcaceiro/compiler'
p91
tp92
a(S'lli_undef_fix_admin'
p93
S'cschreiner'
p94
S'cschreiner/lli_undef_fix_admin'
p95
tp96
a(S'thesis-setup-stable'
p97
S'horenmar'
p98
S'horenmar/thesis-setup-stable'
p99
tp100
a(S'likely'
p101
S'biometrics'
p102
S'biometrics/likely'
p103
tp104
a(S'llvm-semantics'
p105
S'davidlazar'
p106
S'davidlazar/llvm-semantics'
p107
tp108
a(S'llvm-datalog'
p109
S'plast-lab'
p110
S'plast-lab/llvm-datalog'
p111
tp112
a(S'purdue'
p113
S'mbmccormick'
p114
S'mbmccormick/purdue'
p115
tp116
a(S'llvm-forth'
p117
S'ephsec'
p118
S'ephsec/llvm-forth'
p119
tp120
a(S'fuzzing-with-sanitizers'
p121
S'kcc'
p122
S'kcc/fuzzing-with-sanitizers'
p123
tp124
a(S'llvm-semantics'
p125
S'kframework'
p126
S'kframework/llvm-semantics'
p127
tp128
a(S'fpgajtag'
p129
S'cambridgehackers'
p130
S'cambridgehackers/fpgajtag'
p131
tp132
a(S'ska'
p133
S'tuxfan'
p134
S'tuxfan/ska'
p135
tp136
a(S'processwarp'
p137
S'processwarp'
p138
S'processwarp/processwarp'
p139
tp140
a(S'llvm2smt'
p141
S'SRI-CSL'
p142
S'SRI-CSL/llvm2smt'
p143
tp144
a(S'mbx'
p145
S'AlexDenisov'
p146
S'AlexDenisov/mbx'
p147
tp148
a(S'graphs'
p149
S'decomp'
p150
S'decomp/graphs'
p151
tp152
a(S'Lightweight-PGO-LLVM-Visualization'
p153
S'MikeShah'
p154
S'MikeShah/Lightweight-PGO-LLVM-Visualization'
p155
tp156
a(S'purdue'
p157
S'Mootix1313'
p158
S'Mootix1313/purdue'
p159
tp160
a(S'clang-pass'
p161
S'aktaylor08'
p162
S'aktaylor08/clang-pass'
p163
tp164
a(S'floor_examples'
p165
S'a2flo'
p166
S'a2flo/floor_examples'
p167
tp168
a(S'llvm-semantics-old'
p169
S'kframework'
p170
S'kframework/llvm-semantics-old'
p171
tp172
a(S'High_Level_Synthesis'
p173
S'frankyzhou'
p174
S'frankyzhou/High_Level_Synthesis'
p175
tp176
a(S'cs260-final-proj'
p177
S'zehranaz'
p178
S'zehranaz/cs260-final-proj'
p179
tp180
a(S'LLVM_3.5_codes'
p181
S'mlite'
p182
S'mlite/LLVM_3.5_codes'
p183
tp184
a(S'Atrophy'
p185
S'dallbee'
p186
S'dallbee/Atrophy'
p187
tp188
a(S'compiler'
p189
S'bcaceiro'
p190
S'bcaceiro/compiler'
p191
tp192
a(S'lli_undef_fix_admin'
p193
S'cschreiner'
p194
S'cschreiner/lli_undef_fix_admin'
p195
tp196
a(S'thesis-setup-stable'
p197
S'horenmar'
p198
S'horenmar/thesis-setup-stable'
p199
tp200
a(S'likely'
p201
S'biometrics'
p202
S'biometrics/likely'
p203
tp204
a(S'llvm-semantics'
p205
S'davidlazar'
p206
S'davidlazar/llvm-semantics'
p207
tp208
a(S'llvm-datalog'
p209
S'plast-lab'
p210
S'plast-lab/llvm-datalog'
p211
tp212
a(S'purdue'
p213
S'mbmccormick'
p214
S'mbmccormick/purdue'
p215
tp216
a(S'llvm-forth'
p217
S'ephsec'
p218
S'ephsec/llvm-forth'
p219
tp220
a(S'fuzzing-with-sanitizers'
p221
S'kcc'
p222
S'kcc/fuzzing-with-sanitizers'
p223
tp224
a(S'llvm-semantics'
p225
S'kframework'
p226
S'kframework/llvm-semantics'
p227
tp228
a(S'fpgajtag'
p229
S'cambridgehackers'
p230
S'cambridgehackers/fpgajtag'
p231
tp232
a(S'ska'
p233
S'tuxfan'
p234
S'tuxfan/ska'
p235
tp236
a(S'processwarp'
p237
S'processwarp'
p238
S'processwarp/processwarp'
p239
tp240
a(S'llvm2smt'
p241
S'SRI-CSL'
p242
S'SRI-CSL/llvm2smt'
p243
tp244
a(S'mbx'
p245
S'AlexDenisov'
p246
S'AlexDenisov/mbx'
p247
tp248
a(S'graphs'
p249
S'decomp'
p250
S'decomp/graphs'
p251
tp252
a(S'Lightweight-PGO-LLVM-Visualization'
p253
S'MikeShah'
p254
S'MikeShah/Lightweight-PGO-LLVM-Visualization'
p255
tp256
a(S'purdue'
p257
S'Mootix1313'
p258
S'Mootix1313/purdue'
p259
tp260
a(S'clang-pass'
p261
S'aktaylor08'
p262
S'aktaylor08/clang-pass'
p263
tp264
a(S'floor_examples'
p265
S'a2flo'
p266
S'a2flo/floor_examples'
p267
tp268
a(S'llvm-semantics-old'
p269
S'kframework'
p270
S'kframework/llvm-semantics-old'
p271
tp272
a(S'High_Level_Synthesis'
p273
S'frankyzhou'
p274
S'frankyzhou/High_Level_Synthesis'
p275
tp276
a(S'cs260-final-proj'
p277
S'zehranaz'
p278
S'zehranaz/cs260-final-proj'
p279
tp280
a(S'LLVM_3.5_codes'
p281
S'mlite'
p282
S'mlite/LLVM_3.5_codes'
p283
tp284
a(S'Atrophy'
p285
S'dallbee'
p286
S'dallbee/Atrophy'
p287
tp288
a(S'compiler'
p289
S'bcaceiro'
p290
S'bcaceiro/compiler'
p291
tp292
a(S'lli_undef_fix_admin'
p293
S'cschreiner'
p294
S'cschreiner/lli_undef_fix_admin'
p295
tp296
a(S'thesis-setup-stable'
p297
S'horenmar'
p298
S'horenmar/thesis-setup-stable'
p299
tp300
a.