(lp0
(S'GameFinal'
p1
S'woyaofacai'
p2
S'woyaofacai/GameFinal'
p3
tp4
a(S'classdump-dyld'
p5
S'limneos'
p6
S'limneos/classdump-dyld'
p7
tp8
a(S'GarageEngine'
p9
S'vova616'
p10
S'vova616/GarageEngine'
p11
tp12
a(S'Ignition'
p13
S'b3ll'
p14
S'b3ll/Ignition'
p15
tp16
a(S'blitz3d'
p17
S'blitz-research'
p18
S'blitz-research/blitz3d'
p19
tp20
a(S'iSpy'
p21
S'BishopFox'
p22
S'BishopFox/iSpy'
p23
tp24
a(S'MonoGame.Samples'
p25
S'MonoGame'
p26
S'MonoGame/MonoGame.Samples'
p27
tp28
a(S'tweaks'
p29
S'Xuzz'
p30
S'Xuzz/tweaks'
p31
tp32
a(S'Skua'
p33
S'iosre'
p34
S'iosre/Skua'
p35
tp36
a(S'libTransLock'
p37
S'freemanrepo'
p38
S'freemanrepo/libTransLock'
p39
tp40
a(S'preferenceloader'
p41
S'DHowett'
p42
S'DHowett/preferenceloader'
p43
tp44
a(S'PriorityHub'
p45
S'thomasfinch'
p46
S'thomasfinch/PriorityHub'
p47
tp48
a(S'MessageBox'
p49
S'b3ll'
p50
S'b3ll/MessageBox'
p51
tp52
a(S'Intro-Design-Patterns-Cpp-Qt5'
p53
S'bruceoutdoors'
p54
S'bruceoutdoors/Intro-Design-Patterns-Cpp-Qt5'
p55
tp56
a(S'TypeStatus'
p57
S'hbang'
p58
S'hbang/TypeStatus'
p59
tp60
a(S'SwipeShiftCaret'
p61
S'r-plus'
p62
S'r-plus/SwipeShiftCaret'
p63
tp64
a(S'theos-logos-examples'
p65
S'DHowett'
p66
S'DHowett/theos-logos-examples'
p67
tp68
a(S'Multiplexer'
p69
S'mlnlover11'
p70
S'mlnlover11/Multiplexer'
p71
tp72
a(S'Spectral'
p73
S'b3ll'
p74
S'b3ll/Spectral'
p75
tp76
a(S'Emoji83'
p77
S'PoomSmart'
p78
S'PoomSmart/Emoji83'
p79
tp80
a(S'CaptainHammer'
p81
S'rpetrich'
p82
S'rpetrich/CaptainHammer'
p83
tp84
a(S'NoAnnoyance'
p85
S'pNre'
p86
S'pNre/NoAnnoyance'
p87
tp88
a(S'LastApp'
p89
S'ashikase'
p90
S'ashikase/LastApp'
p91
tp92
a(S'WeeLoader'
p93
S'Xuzz'
p94
S'Xuzz/WeeLoader'
p95
tp96
a(S'Steam-Big-Picture-Grub-Theme'
p97
S'LegendaryBibo'
p98
S'LegendaryBibo/Steam-Big-Picture-Grub-Theme'
p99
tp100
a(S'GameFinal'
p101
S'woyaofacai'
p102
S'woyaofacai/GameFinal'
p103
tp104
a(S'classdump-dyld'
p105
S'limneos'
p106
S'limneos/classdump-dyld'
p107
tp108
a(S'GarageEngine'
p109
S'vova616'
p110
S'vova616/GarageEngine'
p111
tp112
a(S'Ignition'
p113
S'b3ll'
p114
S'b3ll/Ignition'
p115
tp116
a(S'blitz3d'
p117
S'blitz-research'
p118
S'blitz-research/blitz3d'
p119
tp120
a(S'iSpy'
p121
S'BishopFox'
p122
S'BishopFox/iSpy'
p123
tp124
a(S'MonoGame.Samples'
p125
S'MonoGame'
p126
S'MonoGame/MonoGame.Samples'
p127
tp128
a(S'tweaks'
p129
S'Xuzz'
p130
S'Xuzz/tweaks'
p131
tp132
a(S'Skua'
p133
S'iosre'
p134
S'iosre/Skua'
p135
tp136
a(S'libTransLock'
p137
S'freemanrepo'
p138
S'freemanrepo/libTransLock'
p139
tp140
a(S'preferenceloader'
p141
S'DHowett'
p142
S'DHowett/preferenceloader'
p143
tp144
a(S'PriorityHub'
p145
S'thomasfinch'
p146
S'thomasfinch/PriorityHub'
p147
tp148
a(S'MessageBox'
p149
S'b3ll'
p150
S'b3ll/MessageBox'
p151
tp152
a(S'Intro-Design-Patterns-Cpp-Qt5'
p153
S'bruceoutdoors'
p154
S'bruceoutdoors/Intro-Design-Patterns-Cpp-Qt5'
p155
tp156
a(S'TypeStatus'
p157
S'hbang'
p158
S'hbang/TypeStatus'
p159
tp160
a(S'SwipeShiftCaret'
p161
S'r-plus'
p162
S'r-plus/SwipeShiftCaret'
p163
tp164
a(S'theos-logos-examples'
p165
S'DHowett'
p166
S'DHowett/theos-logos-examples'
p167
tp168
a(S'Multiplexer'
p169
S'mlnlover11'
p170
S'mlnlover11/Multiplexer'
p171
tp172
a(S'Spectral'
p173
S'b3ll'
p174
S'b3ll/Spectral'
p175
tp176
a(S'Emoji83'
p177
S'PoomSmart'
p178
S'PoomSmart/Emoji83'
p179
tp180
a(S'CaptainHammer'
p181
S'rpetrich'
p182
S'rpetrich/CaptainHammer'
p183
tp184
a(S'NoAnnoyance'
p185
S'pNre'
p186
S'pNre/NoAnnoyance'
p187
tp188
a(S'LastApp'
p189
S'ashikase'
p190
S'ashikase/LastApp'
p191
tp192
a(S'WeeLoader'
p193
S'Xuzz'
p194
S'Xuzz/WeeLoader'
p195
tp196
a(S'Steam-Big-Picture-Grub-Theme'
p197
S'LegendaryBibo'
p198
S'LegendaryBibo/Steam-Big-Picture-Grub-Theme'
p199
tp200
a(S'GameFinal'
p201
S'woyaofacai'
p202
S'woyaofacai/GameFinal'
p203
tp204
a(S'classdump-dyld'
p205
S'limneos'
p206
S'limneos/classdump-dyld'
p207
tp208
a(S'GarageEngine'
p209
S'vova616'
p210
S'vova616/GarageEngine'
p211
tp212
a(S'Ignition'
p213
S'b3ll'
p214
S'b3ll/Ignition'
p215
tp216
a(S'blitz3d'
p217
S'blitz-research'
p218
S'blitz-research/blitz3d'
p219
tp220
a(S'iSpy'
p221
S'BishopFox'
p222
S'BishopFox/iSpy'
p223
tp224
a(S'MonoGame.Samples'
p225
S'MonoGame'
p226
S'MonoGame/MonoGame.Samples'
p227
tp228
a(S'tweaks'
p229
S'Xuzz'
p230
S'Xuzz/tweaks'
p231
tp232
a(S'Skua'
p233
S'iosre'
p234
S'iosre/Skua'
p235
tp236
a(S'libTransLock'
p237
S'freemanrepo'
p238
S'freemanrepo/libTransLock'
p239
tp240
a(S'preferenceloader'
p241
S'DHowett'
p242
S'DHowett/preferenceloader'
p243
tp244
a(S'PriorityHub'
p245
S'thomasfinch'
p246
S'thomasfinch/PriorityHub'
p247
tp248
a(S'MessageBox'
p249
S'b3ll'
p250
S'b3ll/MessageBox'
p251
tp252
a(S'Intro-Design-Patterns-Cpp-Qt5'
p253
S'bruceoutdoors'
p254
S'bruceoutdoors/Intro-Design-Patterns-Cpp-Qt5'
p255
tp256
a(S'TypeStatus'
p257
S'hbang'
p258
S'hbang/TypeStatus'
p259
tp260
a(S'SwipeShiftCaret'
p261
S'r-plus'
p262
S'r-plus/SwipeShiftCaret'
p263
tp264
a(S'theos-logos-examples'
p265
S'DHowett'
p266
S'DHowett/theos-logos-examples'
p267
tp268
a(S'Multiplexer'
p269
S'mlnlover11'
p270
S'mlnlover11/Multiplexer'
p271
tp272
a(S'Spectral'
p273
S'b3ll'
p274
S'b3ll/Spectral'
p275
tp276
a(S'Emoji83'
p277
S'PoomSmart'
p278
S'PoomSmart/Emoji83'
p279
tp280
a(S'CaptainHammer'
p281
S'rpetrich'
p282
S'rpetrich/CaptainHammer'
p283
tp284
a(S'NoAnnoyance'
p285
S'pNre'
p286
S'pNre/NoAnnoyance'
p287
tp288
a(S'LastApp'
p289
S'ashikase'
p290
S'ashikase/LastApp'
p291
tp292
a(S'WeeLoader'
p293
S'Xuzz'
p294
S'Xuzz/WeeLoader'
p295
tp296
a(S'Steam-Big-Picture-Grub-Theme'
p297
S'LegendaryBibo'
p298
S'LegendaryBibo/Steam-Big-Picture-Grub-Theme'
p299
tp300
a.