(lp0
(S'logtalk3'
p1
S'LogtalkDotOrg'
p2
S'LogtalkDotOrg/logtalk3'
p3
tp4
a(S'logtalk2'
p5
S'LogtalkDotOrg'
p6
S'LogtalkDotOrg/logtalk2'
p7
tp8
a(S'verdi-neruda'
p9
S'Joelbyte'
p10
S'Joelbyte/verdi-neruda'
p11
tp12
a(S'ESProNa'
p13
S'igler'
p14
S'igler/ESProNa'
p15
tp16
a(S'banpipe'
p17
S'cth'
p18
S'cth/banpipe'
p19
tp20
a(S'mapquery'
p21
S'java-prolog-connectivity'
p22
S'java-prolog-connectivity/mapquery'
p23
tp24
a(S'weak-bases'
p25
S'Joelbyte'
p26
S'Joelbyte/weak-bases'
p27
tp28
a(S'logtalk-experiments'
p29
S'koryonik'
p30
S'koryonik/logtalk-experiments'
p31
tp32
a(S'weak-bases'
p33
S'jamiepg1'
p34
S'jamiepg1/weak-bases'
p35
tp36
a(S'mapquery'
p37
S'jamiepg1'
p38
S'jamiepg1/mapquery'
p39
tp40
a(S'banpipe'
p41
S'jamiepg1'
p42
S'jamiepg1/banpipe'
p43
tp44
a(S'banpipe'
p45
S'pmoura'
p46
S'pmoura/banpipe'
p47
tp48
a(S'logtalk3'
p49
S'jamiepg1'
p50
S'jamiepg1/logtalk3'
p51
tp52
a(S'logtalk3'
p53
S'hyiltiz'
p54
S'hyiltiz/logtalk3'
p55
tp56
a(S'ESProNa'
p57
S'jamiepg1'
p58
S'jamiepg1/ESProNa'
p59
tp60
a(S'logtalk2'
p61
S'jamiepg1'
p62
S'jamiepg1/logtalk2'
p63
tp64
a(S'verdi-neruda'
p65
S'jamiepg1'
p66
S'jamiepg1/verdi-neruda'
p67
tp68
a(S'lgtstep'
p69
S'pmoura'
p70
S'pmoura/lgtstep'
p71
tp72
a(S'lflat'
p73
S'l-flat'
p74
S'l-flat/lflat'
p75
tp76
a(S'logtalk3'
p77
S'ugochirico'
p78
S'ugochirico/logtalk3'
p79
tp80
a(S'logtalk3'
p81
S'brianleepzx'
p82
S'brianleepzx/logtalk3'
p83
tp84
a(S'weak-bases'
p85
S'pmoura'
p86
S'pmoura/weak-bases'
p87
tp88
a(S'logtalk-experiments'
p89
S'LogtalkDotOrg'
p90
S'LogtalkDotOrg/logtalk-experiments'
p91
tp92
a(S'logtalk3'
p93
S'LogtalkDotOrg'
p94
S'LogtalkDotOrg/logtalk3'
p95
tp96
a(S'logtalk2'
p97
S'LogtalkDotOrg'
p98
S'LogtalkDotOrg/logtalk2'
p99
tp100
a(S'verdi-neruda'
p101
S'Joelbyte'
p102
S'Joelbyte/verdi-neruda'
p103
tp104
a(S'ESProNa'
p105
S'igler'
p106
S'igler/ESProNa'
p107
tp108
a(S'banpipe'
p109
S'cth'
p110
S'cth/banpipe'
p111
tp112
a(S'mapquery'
p113
S'java-prolog-connectivity'
p114
S'java-prolog-connectivity/mapquery'
p115
tp116
a(S'weak-bases'
p117
S'Joelbyte'
p118
S'Joelbyte/weak-bases'
p119
tp120
a(S'logtalk-experiments'
p121
S'koryonik'
p122
S'koryonik/logtalk-experiments'
p123
tp124
a(S'weak-bases'
p125
S'jamiepg1'
p126
S'jamiepg1/weak-bases'
p127
tp128
a(S'mapquery'
p129
S'jamiepg1'
p130
S'jamiepg1/mapquery'
p131
tp132
a(S'banpipe'
p133
S'jamiepg1'
p134
S'jamiepg1/banpipe'
p135
tp136
a(S'banpipe'
p137
S'pmoura'
p138
S'pmoura/banpipe'
p139
tp140
a(S'logtalk3'
p141
S'jamiepg1'
p142
S'jamiepg1/logtalk3'
p143
tp144
a(S'logtalk3'
p145
S'hyiltiz'
p146
S'hyiltiz/logtalk3'
p147
tp148
a(S'ESProNa'
p149
S'jamiepg1'
p150
S'jamiepg1/ESProNa'
p151
tp152
a(S'logtalk2'
p153
S'jamiepg1'
p154
S'jamiepg1/logtalk2'
p155
tp156
a(S'verdi-neruda'
p157
S'jamiepg1'
p158
S'jamiepg1/verdi-neruda'
p159
tp160
a(S'lgtstep'
p161
S'pmoura'
p162
S'pmoura/lgtstep'
p163
tp164
a(S'lflat'
p165
S'l-flat'
p166
S'l-flat/lflat'
p167
tp168
a(S'logtalk3'
p169
S'ugochirico'
p170
S'ugochirico/logtalk3'
p171
tp172
a(S'logtalk3'
p173
S'brianleepzx'
p174
S'brianleepzx/logtalk3'
p175
tp176
a(S'weak-bases'
p177
S'pmoura'
p178
S'pmoura/weak-bases'
p179
tp180
a(S'logtalk-experiments'
p181
S'LogtalkDotOrg'
p182
S'LogtalkDotOrg/logtalk-experiments'
p183
tp184
a(S'logtalk3'
p185
S'LogtalkDotOrg'
p186
S'LogtalkDotOrg/logtalk3'
p187
tp188
a(S'logtalk2'
p189
S'LogtalkDotOrg'
p190
S'LogtalkDotOrg/logtalk2'
p191
tp192
a(S'verdi-neruda'
p193
S'Joelbyte'
p194
S'Joelbyte/verdi-neruda'
p195
tp196
a(S'ESProNa'
p197
S'igler'
p198
S'igler/ESProNa'
p199
tp200
a(S'banpipe'
p201
S'cth'
p202
S'cth/banpipe'
p203
tp204
a(S'mapquery'
p205
S'java-prolog-connectivity'
p206
S'java-prolog-connectivity/mapquery'
p207
tp208
a(S'weak-bases'
p209
S'Joelbyte'
p210
S'Joelbyte/weak-bases'
p211
tp212
a(S'logtalk-experiments'
p213
S'koryonik'
p214
S'koryonik/logtalk-experiments'
p215
tp216
a(S'weak-bases'
p217
S'jamiepg1'
p218
S'jamiepg1/weak-bases'
p219
tp220
a(S'mapquery'
p221
S'jamiepg1'
p222
S'jamiepg1/mapquery'
p223
tp224
a(S'banpipe'
p225
S'jamiepg1'
p226
S'jamiepg1/banpipe'
p227
tp228
a(S'banpipe'
p229
S'pmoura'
p230
S'pmoura/banpipe'
p231
tp232
a(S'logtalk3'
p233
S'jamiepg1'
p234
S'jamiepg1/logtalk3'
p235
tp236
a(S'logtalk3'
p237
S'hyiltiz'
p238
S'hyiltiz/logtalk3'
p239
tp240
a(S'ESProNa'
p241
S'jamiepg1'
p242
S'jamiepg1/ESProNa'
p243
tp244
a(S'logtalk2'
p245
S'jamiepg1'
p246
S'jamiepg1/logtalk2'
p247
tp248
a(S'verdi-neruda'
p249
S'jamiepg1'
p250
S'jamiepg1/verdi-neruda'
p251
tp252
a(S'lgtstep'
p253
S'pmoura'
p254
S'pmoura/lgtstep'
p255
tp256
a(S'lflat'
p257
S'l-flat'
p258
S'l-flat/lflat'
p259
tp260
a(S'logtalk3'
p261
S'ugochirico'
p262
S'ugochirico/logtalk3'
p263
tp264
a(S'logtalk3'
p265
S'brianleepzx'
p266
S'brianleepzx/logtalk3'
p267
tp268
a(S'weak-bases'
p269
S'pmoura'
p270
S'pmoura/weak-bases'
p271
tp272
a(S'logtalk-experiments'
p273
S'LogtalkDotOrg'
p274
S'LogtalkDotOrg/logtalk-experiments'
p275
tp276
a.