(lp0
(S'httpd.lol'
p1
S'justinmeza'
p2
S'justinmeza/httpd.lol'
p3
tp4
a(S'loleuler'
p5
S'LeartS'
p6
S'LeartS/loleuler'
p7
tp8
a(S'fizzbuzz'
p9
S'kmoe'
p10
S'kmoe/fizzbuzz'
p11
tp12
a(S'eulol'
p13
S'markjreed'
p14
S'markjreed/eulol'
p15
tp16
a(S'tictactoelolcode'
p17
S'rodrigocaldeira'
p18
S'rodrigocaldeira/tictactoelolcode'
p19
tp20
a(S'ashley-madison-simulator'
p21
S'Holarse-Linuxgaming'
p22
S'Holarse-Linuxgaming/ashley-madison-simulator'
p23
tp24
a(S'lol'
p25
S'h3x3d'
p26
S'h3x3d/lol'
p27
tp28
a(S'lolcode'
p29
S'Kimbsy'
p30
S'Kimbsy/lolcode'
p31
tp32
a(S'LOLCATFUNYAY'
p33
S'kahjav'
p34
S'kahjav/LOLCATFUNYAY'
p35
tp36
a(S'Test'
p37
S'kriise'
p38
S'kriise/Test'
p39
tp40
a(S'lolcode'
p41
S'WamboJambo'
p42
S'WamboJambo/lolcode'
p43
tp44
a(S'httpd.lol'
p45
S'pombredanne'
p46
S'pombredanne/httpd.lol'
p47
tp48
a(S'LOLTracer'
p49
S'cbrghostrider'
p50
S'cbrghostrider/LOLTracer'
p51
tp52
a(S'esoteric_langs'
p53
S'ArturLange'
p54
S'ArturLange/esoteric_langs'
p55
tp56
a(S'gitkurs'
p57
S'sakjur'
p58
S'sakjur/gitkurs'
p59
tp60
a(S'Test'
p61
S'selujum'
p62
S'selujum/Test'
p63
tp64
a(S'ashley-madison-simulator'
p65
S'commel'
p66
S'commel/ashley-madison-simulator'
p67
tp68
a(S'dotfiles'
p69
S'tronje'
p70
S'tronje/dotfiles'
p71
tp72
a(S'hanoi-lol'
p73
S'ItsNickBarry'
p74
S'ItsNickBarry/hanoi-lol'
p75
tp76
a(S'spoj_lol'
p77
S'in0x'
p78
S'in0x/spoj_lol'
p79
tp80
a(S'gitTest'
p81
S'gaobin1019'
p82
S'gaobin1019/gitTest'
p83
tp84
a(S'LOLTACTOE'
p85
S'ssuksawat'
p86
S'ssuksawat/LOLTACTOE'
p87
tp88
a(S'FizzBuzz'
p89
S'Leappeler'
p90
S'Leappeler/FizzBuzz'
p91
tp92
a(S'Tic-Tac-Lol'
p93
S'Joimer'
p94
S'Joimer/Tic-Tac-Lol'
p95
tp96
a(S'hellolololol'
p97
S'kylemacey'
p98
S'kylemacey/hellolololol'
p99
tp100
a(S'httpd.lol'
p101
S'justinmeza'
p102
S'justinmeza/httpd.lol'
p103
tp104
a(S'loleuler'
p105
S'LeartS'
p106
S'LeartS/loleuler'
p107
tp108
a(S'fizzbuzz'
p109
S'kmoe'
p110
S'kmoe/fizzbuzz'
p111
tp112
a(S'eulol'
p113
S'markjreed'
p114
S'markjreed/eulol'
p115
tp116
a(S'tictactoelolcode'
p117
S'rodrigocaldeira'
p118
S'rodrigocaldeira/tictactoelolcode'
p119
tp120
a(S'ashley-madison-simulator'
p121
S'Holarse-Linuxgaming'
p122
S'Holarse-Linuxgaming/ashley-madison-simulator'
p123
tp124
a(S'lol'
p125
S'h3x3d'
p126
S'h3x3d/lol'
p127
tp128
a(S'lolcode'
p129
S'Kimbsy'
p130
S'Kimbsy/lolcode'
p131
tp132
a(S'LOLCATFUNYAY'
p133
S'kahjav'
p134
S'kahjav/LOLCATFUNYAY'
p135
tp136
a(S'Test'
p137
S'kriise'
p138
S'kriise/Test'
p139
tp140
a(S'lolcode'
p141
S'WamboJambo'
p142
S'WamboJambo/lolcode'
p143
tp144
a(S'httpd.lol'
p145
S'pombredanne'
p146
S'pombredanne/httpd.lol'
p147
tp148
a(S'LOLTracer'
p149
S'cbrghostrider'
p150
S'cbrghostrider/LOLTracer'
p151
tp152
a(S'esoteric_langs'
p153
S'ArturLange'
p154
S'ArturLange/esoteric_langs'
p155
tp156
a(S'gitkurs'
p157
S'sakjur'
p158
S'sakjur/gitkurs'
p159
tp160
a(S'Test'
p161
S'selujum'
p162
S'selujum/Test'
p163
tp164
a(S'ashley-madison-simulator'
p165
S'commel'
p166
S'commel/ashley-madison-simulator'
p167
tp168
a(S'dotfiles'
p169
S'tronje'
p170
S'tronje/dotfiles'
p171
tp172
a(S'hanoi-lol'
p173
S'ItsNickBarry'
p174
S'ItsNickBarry/hanoi-lol'
p175
tp176
a(S'spoj_lol'
p177
S'in0x'
p178
S'in0x/spoj_lol'
p179
tp180
a(S'gitTest'
p181
S'gaobin1019'
p182
S'gaobin1019/gitTest'
p183
tp184
a(S'LOLTACTOE'
p185
S'ssuksawat'
p186
S'ssuksawat/LOLTACTOE'
p187
tp188
a(S'FizzBuzz'
p189
S'Leappeler'
p190
S'Leappeler/FizzBuzz'
p191
tp192
a(S'Tic-Tac-Lol'
p193
S'Joimer'
p194
S'Joimer/Tic-Tac-Lol'
p195
tp196
a(S'hellolololol'
p197
S'kylemacey'
p198
S'kylemacey/hellolololol'
p199
tp200
a(S'httpd.lol'
p201
S'justinmeza'
p202
S'justinmeza/httpd.lol'
p203
tp204
a(S'loleuler'
p205
S'LeartS'
p206
S'LeartS/loleuler'
p207
tp208
a(S'fizzbuzz'
p209
S'kmoe'
p210
S'kmoe/fizzbuzz'
p211
tp212
a(S'eulol'
p213
S'markjreed'
p214
S'markjreed/eulol'
p215
tp216
a(S'tictactoelolcode'
p217
S'rodrigocaldeira'
p218
S'rodrigocaldeira/tictactoelolcode'
p219
tp220
a(S'ashley-madison-simulator'
p221
S'Holarse-Linuxgaming'
p222
S'Holarse-Linuxgaming/ashley-madison-simulator'
p223
tp224
a(S'lol'
p225
S'h3x3d'
p226
S'h3x3d/lol'
p227
tp228
a(S'lolcode'
p229
S'Kimbsy'
p230
S'Kimbsy/lolcode'
p231
tp232
a(S'LOLCATFUNYAY'
p233
S'kahjav'
p234
S'kahjav/LOLCATFUNYAY'
p235
tp236
a(S'Test'
p237
S'kriise'
p238
S'kriise/Test'
p239
tp240
a(S'lolcode'
p241
S'WamboJambo'
p242
S'WamboJambo/lolcode'
p243
tp244
a(S'httpd.lol'
p245
S'pombredanne'
p246
S'pombredanne/httpd.lol'
p247
tp248
a(S'LOLTracer'
p249
S'cbrghostrider'
p250
S'cbrghostrider/LOLTracer'
p251
tp252
a(S'esoteric_langs'
p253
S'ArturLange'
p254
S'ArturLange/esoteric_langs'
p255
tp256
a(S'gitkurs'
p257
S'sakjur'
p258
S'sakjur/gitkurs'
p259
tp260
a(S'Test'
p261
S'selujum'
p262
S'selujum/Test'
p263
tp264
a(S'ashley-madison-simulator'
p265
S'commel'
p266
S'commel/ashley-madison-simulator'
p267
tp268
a(S'dotfiles'
p269
S'tronje'
p270
S'tronje/dotfiles'
p271
tp272
a(S'hanoi-lol'
p273
S'ItsNickBarry'
p274
S'ItsNickBarry/hanoi-lol'
p275
tp276
a(S'spoj_lol'
p277
S'in0x'
p278
S'in0x/spoj_lol'
p279
tp280
a(S'gitTest'
p281
S'gaobin1019'
p282
S'gaobin1019/gitTest'
p283
tp284
a(S'LOLTACTOE'
p285
S'ssuksawat'
p286
S'ssuksawat/LOLTACTOE'
p287
tp288
a(S'FizzBuzz'
p289
S'Leappeler'
p290
S'Leappeler/FizzBuzz'
p291
tp292
a(S'Tic-Tac-Lol'
p293
S'Joimer'
p294
S'Joimer/Tic-Tac-Lol'
p295
tp296
a(S'hellolololol'
p297
S'kylemacey'
p298
S'kylemacey/hellolololol'
p299
tp300
a.