(lp0
(S'Looker_SystemStats'
p1
S'dovicn'
p2
S'dovicn/Looker_SystemStats'
p3
tp4
a(S'looker-snowplow'
p5
S'joaolcorreia'
p6
S'joaolcorreia/looker-snowplow'
p7
tp8
a(S'reddit.lookml'
p9
S'wilg'
p10
S'wilg/reddit.lookml'
p11
tp12
a(S'looker-for-pipes'
p13
S'ibm-cds-labs'
p14
S'ibm-cds-labs/looker-for-pipes'
p15
tp16
a(S'snowplow-full-demo-lookml'
p17
S'snowplow'
p18
S'snowplow/snowplow-full-demo-lookml'
p19
tp20
a(S'PO-Status'
p21
S'aposillico'
p22
S'aposillico/PO-Status'
p23
tp24
a(S'greenpeace'
p25
S'steindawg'
p26
S'steindawg/greenpeace'
p27
tp28
a(S'looker'
p29
S'slickdeals-seth'
p30
S'slickdeals-seth/looker'
p31
tp32
a(S'looker-for-pipes'
p33
S'Sylens'
p34
S'Sylens/looker-for-pipes'
p35
tp36
a(S'staging_looker'
p37
S'jjglide'
p38
S'jjglide/staging_looker'
p39
tp40
a(S'analytics'
p41
S'anupambagchi'
p42
S'anupambagchi/analytics'
p43
tp44
a(S'looker'
p45
S'jonhara'
p46
S'jonhara/looker'
p47
tp48
a(S'looker_warroom'
p49
S'jonhara'
p50
S'jonhara/looker_warroom'
p51
tp52
a(S'looker-demo'
p53
S'Drcollinjc'
p54
S'Drcollinjc/looker-demo'
p55
tp56
a(S'openfoodfacts.lookml'
p57
S'wilg'
p58
S'wilg/openfoodfacts.lookml'
p59
tp60
a(S'looker_warroom_v2'
p61
S'jonhara'
p62
S'jonhara/looker_warroom_v2'
p63
tp64
a(S'xplenty-looker'
p65
S'xplenty'
p66
S'xplenty/xplenty-looker'
p67
tp68
a(S'custom_time_comparison'
p69
S'segahm'
p70
S'segahm/custom_time_comparison'
p71
tp72
a(S'lending_club'
p73
S'segahm'
p74
S'segahm/lending_club'
p75
tp76
a(S'looker_invite'
p77
S'jjglide'
p78
S'jjglide/looker_invite'
p79
tp80
a(S'bnktrns'
p81
S'scarneval'
p82
S'scarneval/bnktrns'
p83
tp84
a(S'qh-ltv-looker-model'
p85
S'ghayes'
p86
S'ghayes/qh-ltv-looker-model'
p87
tp88
a(S'testy'
p89
S'popmonkey'
p90
S'popmonkey/testy'
p91
tp92
a(S'Finery-Looker'
p93
S'andrew-finery'
p94
S'andrew-finery/Finery-Looker'
p95
tp96
a(S'Finery_Looker_Data'
p97
S'andrew-finery'
p98
S'andrew-finery/Finery_Looker_Data'
p99
tp100
a(S'Looker_SystemStats'
p101
S'dovicn'
p102
S'dovicn/Looker_SystemStats'
p103
tp104
a(S'looker-snowplow'
p105
S'joaolcorreia'
p106
S'joaolcorreia/looker-snowplow'
p107
tp108
a(S'reddit.lookml'
p109
S'wilg'
p110
S'wilg/reddit.lookml'
p111
tp112
a(S'looker-for-pipes'
p113
S'ibm-cds-labs'
p114
S'ibm-cds-labs/looker-for-pipes'
p115
tp116
a(S'snowplow-full-demo-lookml'
p117
S'snowplow'
p118
S'snowplow/snowplow-full-demo-lookml'
p119
tp120
a(S'PO-Status'
p121
S'aposillico'
p122
S'aposillico/PO-Status'
p123
tp124
a(S'greenpeace'
p125
S'steindawg'
p126
S'steindawg/greenpeace'
p127
tp128
a(S'looker'
p129
S'slickdeals-seth'
p130
S'slickdeals-seth/looker'
p131
tp132
a(S'looker-for-pipes'
p133
S'Sylens'
p134
S'Sylens/looker-for-pipes'
p135
tp136
a(S'staging_looker'
p137
S'jjglide'
p138
S'jjglide/staging_looker'
p139
tp140
a(S'analytics'
p141
S'anupambagchi'
p142
S'anupambagchi/analytics'
p143
tp144
a(S'looker'
p145
S'jonhara'
p146
S'jonhara/looker'
p147
tp148
a(S'looker_warroom'
p149
S'jonhara'
p150
S'jonhara/looker_warroom'
p151
tp152
a(S'looker-demo'
p153
S'Drcollinjc'
p154
S'Drcollinjc/looker-demo'
p155
tp156
a(S'openfoodfacts.lookml'
p157
S'wilg'
p158
S'wilg/openfoodfacts.lookml'
p159
tp160
a(S'looker_warroom_v2'
p161
S'jonhara'
p162
S'jonhara/looker_warroom_v2'
p163
tp164
a(S'xplenty-looker'
p165
S'xplenty'
p166
S'xplenty/xplenty-looker'
p167
tp168
a(S'custom_time_comparison'
p169
S'segahm'
p170
S'segahm/custom_time_comparison'
p171
tp172
a(S'lending_club'
p173
S'segahm'
p174
S'segahm/lending_club'
p175
tp176
a(S'looker_invite'
p177
S'jjglide'
p178
S'jjglide/looker_invite'
p179
tp180
a(S'bnktrns'
p181
S'scarneval'
p182
S'scarneval/bnktrns'
p183
tp184
a(S'qh-ltv-looker-model'
p185
S'ghayes'
p186
S'ghayes/qh-ltv-looker-model'
p187
tp188
a(S'testy'
p189
S'popmonkey'
p190
S'popmonkey/testy'
p191
tp192
a(S'Finery-Looker'
p193
S'andrew-finery'
p194
S'andrew-finery/Finery-Looker'
p195
tp196
a(S'Finery_Looker_Data'
p197
S'andrew-finery'
p198
S'andrew-finery/Finery_Looker_Data'
p199
tp200
a(S'Looker_SystemStats'
p201
S'dovicn'
p202
S'dovicn/Looker_SystemStats'
p203
tp204
a(S'looker-snowplow'
p205
S'joaolcorreia'
p206
S'joaolcorreia/looker-snowplow'
p207
tp208
a(S'reddit.lookml'
p209
S'wilg'
p210
S'wilg/reddit.lookml'
p211
tp212
a(S'looker-for-pipes'
p213
S'ibm-cds-labs'
p214
S'ibm-cds-labs/looker-for-pipes'
p215
tp216
a(S'snowplow-full-demo-lookml'
p217
S'snowplow'
p218
S'snowplow/snowplow-full-demo-lookml'
p219
tp220
a(S'PO-Status'
p221
S'aposillico'
p222
S'aposillico/PO-Status'
p223
tp224
a(S'greenpeace'
p225
S'steindawg'
p226
S'steindawg/greenpeace'
p227
tp228
a(S'looker'
p229
S'slickdeals-seth'
p230
S'slickdeals-seth/looker'
p231
tp232
a(S'looker-for-pipes'
p233
S'Sylens'
p234
S'Sylens/looker-for-pipes'
p235
tp236
a(S'staging_looker'
p237
S'jjglide'
p238
S'jjglide/staging_looker'
p239
tp240
a(S'analytics'
p241
S'anupambagchi'
p242
S'anupambagchi/analytics'
p243
tp244
a(S'looker'
p245
S'jonhara'
p246
S'jonhara/looker'
p247
tp248
a(S'looker_warroom'
p249
S'jonhara'
p250
S'jonhara/looker_warroom'
p251
tp252
a(S'looker-demo'
p253
S'Drcollinjc'
p254
S'Drcollinjc/looker-demo'
p255
tp256
a(S'openfoodfacts.lookml'
p257
S'wilg'
p258
S'wilg/openfoodfacts.lookml'
p259
tp260
a(S'looker_warroom_v2'
p261
S'jonhara'
p262
S'jonhara/looker_warroom_v2'
p263
tp264
a(S'xplenty-looker'
p265
S'xplenty'
p266
S'xplenty/xplenty-looker'
p267
tp268
a(S'custom_time_comparison'
p269
S'segahm'
p270
S'segahm/custom_time_comparison'
p271
tp272
a(S'lending_club'
p273
S'segahm'
p274
S'segahm/lending_club'
p275
tp276
a(S'looker_invite'
p277
S'jjglide'
p278
S'jjglide/looker_invite'
p279
tp280
a(S'bnktrns'
p281
S'scarneval'
p282
S'scarneval/bnktrns'
p283
tp284
a(S'qh-ltv-looker-model'
p285
S'ghayes'
p286
S'ghayes/qh-ltv-looker-model'
p287
tp288
a(S'testy'
p289
S'popmonkey'
p290
S'popmonkey/testy'
p291
tp292
a(S'Finery-Looker'
p293
S'andrew-finery'
p294
S'andrew-finery/Finery-Looker'
p295
tp296
a(S'Finery_Looker_Data'
p297
S'andrew-finery'
p298
S'andrew-finery/Finery_Looker_Data'
p299
tp300
a.