(lp0
(S'LoomSDK'
p1
S'LoomSDK'
p2
S'LoomSDK/LoomSDK'
p3
tp4
a(S'spec-ls'
p5
S'pixeldroid'
p6
S'pixeldroid/spec-ls'
p7
tp8
a(S'MultiMovieClip'
p9
S'Crwth'
p10
S'Crwth/MultiMovieClip'
p11
tp12
a(S'CodenameSnowman'
p13
S'SmilyOrg'
p14
S'SmilyOrg/CodenameSnowman'
p15
tp16
a(S'LoomSDK'
p17
S'flimflamboyant'
p18
S'flimflamboyant/LoomSDK'
p19
tp20
a(S'LoomSDK'
p21
S'jamesmintram'
p22
S'jamesmintram/LoomSDK'
p23
tp24
a(S'LoomSDK'
p25
S'amosl'
p26
S'amosl/LoomSDK'
p27
tp28
a(S'LoomSDK'
p29
S'errmalt'
p30
S'errmalt/LoomSDK'
p31
tp32
a(S'LoomSDK'
p33
S'jdconley'
p34
S'jdconley/LoomSDK'
p35
tp36
a(S'LoomSDK'
p37
S'themuflon'
p38
S'themuflon/LoomSDK'
p39
tp40
a(S'LoomSDK'
p41
S'alex-z82'
p42
S'alex-z82/LoomSDK'
p43
tp44
a(S'spec-ls'
p45
S'ellemenno'
p46
S'ellemenno/spec-ls'
p47
tp48
a(S'optionparser-ls'
p49
S'ellemenno'
p50
S'ellemenno/optionparser-ls'
p51
tp52
a(S'LoomSDK'
p53
S'24BitGames'
p54
S'24BitGames/LoomSDK'
p55
tp56
a(S'LoomSDK'
p57
S'ellemenno'
p58
S'ellemenno/LoomSDK'
p59
tp60
a(S'LoomSDK'
p61
S'RichardRanft'
p62
S'RichardRanft/LoomSDK'
p63
tp64
a(S'ScoreKeeper'
p65
S'bengarney'
p66
S'bengarney/ScoreKeeper'
p67
tp68
a(S'optionparser-ls'
p69
S'pixeldroid'
p70
S'pixeldroid/optionparser-ls'
p71
tp72
a(S'json-ls'
p73
S'pixeldroid'
p74
S'pixeldroid/json-ls'
p75
tp76
a(S'LoomPolyTest'
p77
S'ketaro'
p78
S'ketaro/LoomPolyTest'
p79
tp80
a(S'DogeCart'
p81
S'lunarraid'
p82
S'lunarraid/DogeCart'
p83
tp84
a(S'DashRunner'
p85
S'Newtsuck'
p86
S'Newtsuck/DashRunner'
p87
tp88
a(S'TileDungeon'
p89
S'dtendr'
p90
S'dtendr/TileDungeon'
p91
tp92
a(S'RunnerMark-Loom'
p93
S'chongtianfeiyu'
p94
S'chongtianfeiyu/RunnerMark-Loom'
p95
tp96
a(S'LoomSDK'
p97
S'southpawfishel'
p98
S'southpawfishel/LoomSDK'
p99
tp100
a(S'LoomSDK'
p101
S'LoomSDK'
p102
S'LoomSDK/LoomSDK'
p103
tp104
a(S'spec-ls'
p105
S'pixeldroid'
p106
S'pixeldroid/spec-ls'
p107
tp108
a(S'MultiMovieClip'
p109
S'Crwth'
p110
S'Crwth/MultiMovieClip'
p111
tp112
a(S'CodenameSnowman'
p113
S'SmilyOrg'
p114
S'SmilyOrg/CodenameSnowman'
p115
tp116
a(S'LoomSDK'
p117
S'flimflamboyant'
p118
S'flimflamboyant/LoomSDK'
p119
tp120
a(S'LoomSDK'
p121
S'jamesmintram'
p122
S'jamesmintram/LoomSDK'
p123
tp124
a(S'LoomSDK'
p125
S'amosl'
p126
S'amosl/LoomSDK'
p127
tp128
a(S'LoomSDK'
p129
S'errmalt'
p130
S'errmalt/LoomSDK'
p131
tp132
a(S'LoomSDK'
p133
S'jdconley'
p134
S'jdconley/LoomSDK'
p135
tp136
a(S'LoomSDK'
p137
S'themuflon'
p138
S'themuflon/LoomSDK'
p139
tp140
a(S'LoomSDK'
p141
S'alex-z82'
p142
S'alex-z82/LoomSDK'
p143
tp144
a(S'spec-ls'
p145
S'ellemenno'
p146
S'ellemenno/spec-ls'
p147
tp148
a(S'optionparser-ls'
p149
S'ellemenno'
p150
S'ellemenno/optionparser-ls'
p151
tp152
a(S'LoomSDK'
p153
S'24BitGames'
p154
S'24BitGames/LoomSDK'
p155
tp156
a(S'LoomSDK'
p157
S'ellemenno'
p158
S'ellemenno/LoomSDK'
p159
tp160
a(S'LoomSDK'
p161
S'RichardRanft'
p162
S'RichardRanft/LoomSDK'
p163
tp164
a(S'ScoreKeeper'
p165
S'bengarney'
p166
S'bengarney/ScoreKeeper'
p167
tp168
a(S'optionparser-ls'
p169
S'pixeldroid'
p170
S'pixeldroid/optionparser-ls'
p171
tp172
a(S'json-ls'
p173
S'pixeldroid'
p174
S'pixeldroid/json-ls'
p175
tp176
a(S'LoomPolyTest'
p177
S'ketaro'
p178
S'ketaro/LoomPolyTest'
p179
tp180
a(S'DogeCart'
p181
S'lunarraid'
p182
S'lunarraid/DogeCart'
p183
tp184
a(S'DashRunner'
p185
S'Newtsuck'
p186
S'Newtsuck/DashRunner'
p187
tp188
a(S'TileDungeon'
p189
S'dtendr'
p190
S'dtendr/TileDungeon'
p191
tp192
a(S'RunnerMark-Loom'
p193
S'chongtianfeiyu'
p194
S'chongtianfeiyu/RunnerMark-Loom'
p195
tp196
a(S'LoomSDK'
p197
S'southpawfishel'
p198
S'southpawfishel/LoomSDK'
p199
tp200
a(S'LoomSDK'
p201
S'LoomSDK'
p202
S'LoomSDK/LoomSDK'
p203
tp204
a(S'spec-ls'
p205
S'pixeldroid'
p206
S'pixeldroid/spec-ls'
p207
tp208
a(S'MultiMovieClip'
p209
S'Crwth'
p210
S'Crwth/MultiMovieClip'
p211
tp212
a(S'CodenameSnowman'
p213
S'SmilyOrg'
p214
S'SmilyOrg/CodenameSnowman'
p215
tp216
a(S'LoomSDK'
p217
S'flimflamboyant'
p218
S'flimflamboyant/LoomSDK'
p219
tp220
a(S'LoomSDK'
p221
S'jamesmintram'
p222
S'jamesmintram/LoomSDK'
p223
tp224
a(S'LoomSDK'
p225
S'amosl'
p226
S'amosl/LoomSDK'
p227
tp228
a(S'LoomSDK'
p229
S'errmalt'
p230
S'errmalt/LoomSDK'
p231
tp232
a(S'LoomSDK'
p233
S'jdconley'
p234
S'jdconley/LoomSDK'
p235
tp236
a(S'LoomSDK'
p237
S'themuflon'
p238
S'themuflon/LoomSDK'
p239
tp240
a(S'LoomSDK'
p241
S'alex-z82'
p242
S'alex-z82/LoomSDK'
p243
tp244
a(S'spec-ls'
p245
S'ellemenno'
p246
S'ellemenno/spec-ls'
p247
tp248
a(S'optionparser-ls'
p249
S'ellemenno'
p250
S'ellemenno/optionparser-ls'
p251
tp252
a(S'LoomSDK'
p253
S'24BitGames'
p254
S'24BitGames/LoomSDK'
p255
tp256
a(S'LoomSDK'
p257
S'ellemenno'
p258
S'ellemenno/LoomSDK'
p259
tp260
a(S'LoomSDK'
p261
S'RichardRanft'
p262
S'RichardRanft/LoomSDK'
p263
tp264
a(S'ScoreKeeper'
p265
S'bengarney'
p266
S'bengarney/ScoreKeeper'
p267
tp268
a(S'optionparser-ls'
p269
S'pixeldroid'
p270
S'pixeldroid/optionparser-ls'
p271
tp272
a(S'json-ls'
p273
S'pixeldroid'
p274
S'pixeldroid/json-ls'
p275
tp276
a(S'LoomPolyTest'
p277
S'ketaro'
p278
S'ketaro/LoomPolyTest'
p279
tp280
a(S'DogeCart'
p281
S'lunarraid'
p282
S'lunarraid/DogeCart'
p283
tp284
a(S'DashRunner'
p285
S'Newtsuck'
p286
S'Newtsuck/DashRunner'
p287
tp288
a(S'TileDungeon'
p289
S'dtendr'
p290
S'dtendr/TileDungeon'
p291
tp292
a(S'RunnerMark-Loom'
p293
S'chongtianfeiyu'
p294
S'chongtianfeiyu/RunnerMark-Loom'
p295
tp296
a(S'LoomSDK'
p297
S'southpawfishel'
p298
S'southpawfishel/LoomSDK'
p299
tp300
a.