(lp0
(S'opencollar'
p1
S'OpenCollar'
p2
S'OpenCollar/opencollar'
p3
tp4
a(S'OpenCollarOwnerHud'
p5
S'VirtualDisgrace'
p6
S'VirtualDisgrace/OpenCollarOwnerHud'
p7
tp8
a(S'active-npcs'
p9
S'opensimworld'
p10
S'opensimworld/active-npcs'
p11
tp12
a(S'LSL'
p13
S'piriys'
p14
S'piriys/LSL'
p15
tp16
a(S'OpenCollarAO'
p17
S'VirtualDisgrace'
p18
S'VirtualDisgrace/OpenCollarAO'
p19
tp20
a(S'inshape-inworld'
p21
S'InWorldz'
p22
S'InWorldz/inshape-inworld'
p23
tp24
a(S'SL-XOBJ'
p25
S'JasXSL'
p26
S'JasXSL/SL-XOBJ'
p27
tp28
a(S'Cuffs'
p29
S'OpenNC'
p30
S'OpenNC/Cuffs'
p31
tp32
a(S'INFO-467_LSL'
p33
S'Info467'
p34
S'Info467/INFO-467_LSL'
p35
tp36
a(S'openTiS'
p37
S'Tonaie'
p38
S'Tonaie/openTiS'
p39
tp40
a(S'lslvoter'
p41
S'ssm2017'
p42
S'ssm2017/lslvoter'
p43
tp44
a(S'DrizzleScript'
p45
S'DoomRater'
p46
S'DoomRater/DrizzleScript'
p47
tp48
a(S'mal-lsl'
p49
S'mmcgill'
p50
S'mmcgill/mal-lsl'
p51
tp52
a(S'npose-ui'
p53
S'nirea'
p54
S'nirea/npose-ui'
p55
tp56
a(S'Collar'
p57
S'VirtualDisgrace'
p58
S'VirtualDisgrace/Collar'
p59
tp60
a(S'nightbloom2'
p61
S'SoloMornington'
p62
S'SoloMornington/nightbloom2'
p63
tp64
a(S'nPose-V2'
p65
S'nPoseTeam'
p66
S'nPoseTeam/nPose-V2'
p67
tp68
a(S'NextRelay'
p69
S'SatomiAhn'
p70
S'SatomiAhn/NextRelay'
p71
tp72
a(S'LSL-Scripts'
p73
S'Outworldz'
p74
S'Outworldz/LSL-Scripts'
p75
tp76
a(S'cdkey'
p77
S'emmamei'
p78
S'emmamei/cdkey'
p79
tp80
a(S'LSL'
p81
S'Sakarias-Longhorn'
p82
S'Sakarias-Longhorn/LSL'
p83
tp84
a(S'DNPandas'
p85
S'JasXSL'
p86
S'JasXSL/DNPandas'
p87
tp88
a(S'lsl-repo'
p89
S'Ratany'
p90
S'Ratany/lsl-repo'
p91
tp92
a(S'GoThongs'
p93
S'JasXSL'
p94
S'JasXSL/GoThongs'
p95
tp96
a(S'openTiS'
p97
S'Kadah'
p98
S'Kadah/openTiS'
p99
tp100
a(S'opencollar'
p101
S'OpenCollar'
p102
S'OpenCollar/opencollar'
p103
tp104
a(S'OpenCollarOwnerHud'
p105
S'VirtualDisgrace'
p106
S'VirtualDisgrace/OpenCollarOwnerHud'
p107
tp108
a(S'active-npcs'
p109
S'opensimworld'
p110
S'opensimworld/active-npcs'
p111
tp112
a(S'LSL'
p113
S'piriys'
p114
S'piriys/LSL'
p115
tp116
a(S'OpenCollarAO'
p117
S'VirtualDisgrace'
p118
S'VirtualDisgrace/OpenCollarAO'
p119
tp120
a(S'inshape-inworld'
p121
S'InWorldz'
p122
S'InWorldz/inshape-inworld'
p123
tp124
a(S'SL-XOBJ'
p125
S'JasXSL'
p126
S'JasXSL/SL-XOBJ'
p127
tp128
a(S'Cuffs'
p129
S'OpenNC'
p130
S'OpenNC/Cuffs'
p131
tp132
a(S'INFO-467_LSL'
p133
S'Info467'
p134
S'Info467/INFO-467_LSL'
p135
tp136
a(S'openTiS'
p137
S'Tonaie'
p138
S'Tonaie/openTiS'
p139
tp140
a(S'lslvoter'
p141
S'ssm2017'
p142
S'ssm2017/lslvoter'
p143
tp144
a(S'DrizzleScript'
p145
S'DoomRater'
p146
S'DoomRater/DrizzleScript'
p147
tp148
a(S'mal-lsl'
p149
S'mmcgill'
p150
S'mmcgill/mal-lsl'
p151
tp152
a(S'npose-ui'
p153
S'nirea'
p154
S'nirea/npose-ui'
p155
tp156
a(S'Collar'
p157
S'VirtualDisgrace'
p158
S'VirtualDisgrace/Collar'
p159
tp160
a(S'nightbloom2'
p161
S'SoloMornington'
p162
S'SoloMornington/nightbloom2'
p163
tp164
a(S'nPose-V2'
p165
S'nPoseTeam'
p166
S'nPoseTeam/nPose-V2'
p167
tp168
a(S'NextRelay'
p169
S'SatomiAhn'
p170
S'SatomiAhn/NextRelay'
p171
tp172
a(S'LSL-Scripts'
p173
S'Outworldz'
p174
S'Outworldz/LSL-Scripts'
p175
tp176
a(S'cdkey'
p177
S'emmamei'
p178
S'emmamei/cdkey'
p179
tp180
a(S'LSL'
p181
S'Sakarias-Longhorn'
p182
S'Sakarias-Longhorn/LSL'
p183
tp184
a(S'DNPandas'
p185
S'JasXSL'
p186
S'JasXSL/DNPandas'
p187
tp188
a(S'lsl-repo'
p189
S'Ratany'
p190
S'Ratany/lsl-repo'
p191
tp192
a(S'GoThongs'
p193
S'JasXSL'
p194
S'JasXSL/GoThongs'
p195
tp196
a(S'openTiS'
p197
S'Kadah'
p198
S'Kadah/openTiS'
p199
tp200
a(S'opencollar'
p201
S'OpenCollar'
p202
S'OpenCollar/opencollar'
p203
tp204
a(S'OpenCollarOwnerHud'
p205
S'VirtualDisgrace'
p206
S'VirtualDisgrace/OpenCollarOwnerHud'
p207
tp208
a(S'active-npcs'
p209
S'opensimworld'
p210
S'opensimworld/active-npcs'
p211
tp212
a(S'LSL'
p213
S'piriys'
p214
S'piriys/LSL'
p215
tp216
a(S'OpenCollarAO'
p217
S'VirtualDisgrace'
p218
S'VirtualDisgrace/OpenCollarAO'
p219
tp220
a(S'inshape-inworld'
p221
S'InWorldz'
p222
S'InWorldz/inshape-inworld'
p223
tp224
a(S'SL-XOBJ'
p225
S'JasXSL'
p226
S'JasXSL/SL-XOBJ'
p227
tp228
a(S'Cuffs'
p229
S'OpenNC'
p230
S'OpenNC/Cuffs'
p231
tp232
a(S'INFO-467_LSL'
p233
S'Info467'
p234
S'Info467/INFO-467_LSL'
p235
tp236
a(S'openTiS'
p237
S'Tonaie'
p238
S'Tonaie/openTiS'
p239
tp240
a(S'lslvoter'
p241
S'ssm2017'
p242
S'ssm2017/lslvoter'
p243
tp244
a(S'DrizzleScript'
p245
S'DoomRater'
p246
S'DoomRater/DrizzleScript'
p247
tp248
a(S'mal-lsl'
p249
S'mmcgill'
p250
S'mmcgill/mal-lsl'
p251
tp252
a(S'npose-ui'
p253
S'nirea'
p254
S'nirea/npose-ui'
p255
tp256
a(S'Collar'
p257
S'VirtualDisgrace'
p258
S'VirtualDisgrace/Collar'
p259
tp260
a(S'nightbloom2'
p261
S'SoloMornington'
p262
S'SoloMornington/nightbloom2'
p263
tp264
a(S'nPose-V2'
p265
S'nPoseTeam'
p266
S'nPoseTeam/nPose-V2'
p267
tp268
a(S'NextRelay'
p269
S'SatomiAhn'
p270
S'SatomiAhn/NextRelay'
p271
tp272
a(S'LSL-Scripts'
p273
S'Outworldz'
p274
S'Outworldz/LSL-Scripts'
p275
tp276
a(S'cdkey'
p277
S'emmamei'
p278
S'emmamei/cdkey'
p279
tp280
a(S'LSL'
p281
S'Sakarias-Longhorn'
p282
S'Sakarias-Longhorn/LSL'
p283
tp284
a(S'DNPandas'
p285
S'JasXSL'
p286
S'JasXSL/DNPandas'
p287
tp288
a(S'lsl-repo'
p289
S'Ratany'
p290
S'Ratany/lsl-repo'
p291
tp292
a(S'GoThongs'
p293
S'JasXSL'
p294
S'JasXSL/GoThongs'
p295
tp296
a(S'openTiS'
p297
S'Kadah'
p298
S'Kadah/openTiS'
p299
tp300
a.