(lp0
(S'openface'
p1
S'cmusatyalab'
p2
S'cmusatyalab/openface'
p3
tp4
a(S'koreader'
p5
S'koreader'
p6
S'koreader/koreader'
p7
tp8
a(S'kong'
p9
S'Mashape'
p10
S'Mashape/kong'
p11
tp12
a(S'CorsixTH'
p13
S'CorsixTH'
p14
S'CorsixTH/CorsixTH'
p15
tp16
a(S'NutScript'
p17
S'Chessnut'
p18
S'Chessnut/NutScript'
p19
tp20
a(S'moonscript'
p21
S'leafo'
p22
S'leafo/moonscript'
p23
tp24
a(S'garrysmod'
p25
S'garrynewman'
p26
S'garrynewman/garrysmod'
p27
tp28
a(S'waifu2x'
p29
S'nagadomi'
p30
S'nagadomi/waifu2x'
p31
tp32
a(S'neural-style'
p33
S'jcjohnson'
p34
S'jcjohnson/neural-style'
p35
tp36
a(S'luvit'
p37
S'luvit'
p38
S'luvit/luvit'
p39
tp40
a(S'char-rnn'
p41
S'karpathy'
p42
S'karpathy/char-rnn'
p43
tp44
a(S'Algorithm-Implementations'
p45
S'kennyledet'
p46
S'kennyledet/Algorithm-Implementations'
p47
tp48
a(S'neuralart'
p49
S'kaishengtai'
p50
S'kaishengtai/neuralart'
p51
tp52
a(S'lsyncd'
p53
S'axkibe'
p54
S'axkibe/lsyncd'
p55
tp56
a(S'snabbswitch'
p57
S'SnabbCo'
p58
S'SnabbCo/snabbswitch'
p59
tp60
a(S'ZeroBraneStudio'
p61
S'pkulchenko'
p62
S'pkulchenko/ZeroBraneStudio'
p63
tp64
a(S'awesome-copycats'
p65
S'copycat-killer'
p66
S'copycat-killer/awesome-copycats'
p67
tp68
a(S'luafun'
p69
S'rtsisyk'
p70
S'rtsisyk/luafun'
p71
tp72
a(S'luakit'
p73
S'mason-larobina'
p74
S'mason-larobina/luakit'
p75
tp76
a(S'hawkthorne-journey'
p77
S'hawkthorne'
p78
S'hawkthorne/hawkthorne-journey'
p79
tp80
a(S'iTorch'
p81
S'facebook'
p82
S'facebook/iTorch'
p83
tp84
a(S'middleclass'
p85
S'kikito'
p86
S'kikito/middleclass'
p87
tp88
a(S'telegram-bot'
p89
S'yagop'
p90
S'yagop/telegram-bot'
p91
tp92
a(S'awesome'
p93
S'awesomeWM'
p94
S'awesomeWM/awesome'
p95
tp96
a(S'owasp-modsecurity-crs'
p97
S'SpiderLabs'
p98
S'SpiderLabs/owasp-modsecurity-crs'
p99
tp100
a(S'openface'
p101
S'cmusatyalab'
p102
S'cmusatyalab/openface'
p103
tp104
a(S'kong'
p105
S'Mashape'
p106
S'Mashape/kong'
p107
tp108
a(S'word-rnn'
p109
S'larspars'
p110
S'larspars/word-rnn'
p111
tp112
a(S'char-rnn'
p113
S'karpathy'
p114
S'karpathy/char-rnn'
p115
tp116
a(S'koreader'
p117
S'koreader'
p118
S'koreader/koreader'
p119
tp120
a(S'DeepMind-Atari-Deep-Q-Learner'
p121
S'kuz'
p122
S'kuz/DeepMind-Atari-Deep-Q-Learner'
p123
tp124
a(S'ngx_lua_waf'
p125
S'loveshell'
p126
S'loveshell/ngx_lua_waf'
p127
tp128
a(S'luvit'
p129
S'luvit'
p130
S'luvit/luvit'
p131
tp132
a(S'rnn'
p133
S'Element-Research'
p134
S'Element-Research/rnn'
p135
tp136
a(S'typedlua'
p137
S'andremm'
p138
S'andremm/typedlua'
p139
tp140
a(S'moonscript'
p141
S'leafo'
p142
S'leafo/moonscript'
p143
tp144
a(S'nn'
p145
S'torch'
p146
S'torch/nn'
p147
tp148
a(S'snabbswitch'
p149
S'SnabbCo'
p150
S'SnabbCo/snabbswitch'
p151
tp152
a(S'ntopng'
p153
S'ntop'
p154
S'ntop/ntopng'
p155
tp156
a(S'awesome-copycats'
p157
S'copycat-killer'
p158
S'copycat-killer/awesome-copycats'
p159
tp160
a(S'iTorch'
p161
S'facebook'
p162
S'facebook/iTorch'
p163
tp164
a(S'luci'
p165
S'openwrt'
p166
S'openwrt/luci'
p167
tp168
a(S'luarocks'
p169
S'keplerproject'
p170
S'keplerproject/luarocks'
p171
tp172
a(S'Algorithm-Implementations'
p173
S'kennyledet'
p174
S'kennyledet/Algorithm-Implementations'
p175
tp176
a(S'ZeroBraneStudio'
p177
S'pkulchenko'
p178
S'pkulchenko/ZeroBraneStudio'
p179
tp180
a(S'debugger.lua'
p181
S'slembcke'
p182
S'slembcke/debugger.lua'
p183
tp184
a(S'GameTracking'
p185
S'SteamDatabase'
p186
S'SteamDatabase/GameTracking'
p187
tp188
a(S'bAbI-tasks'
p189
S'facebook'
p190
S'facebook/bAbI-tasks'
p191
tp192
a(S'minetest_game'
p193
S'minetest'
p194
S'minetest/minetest_game'
p195
tp196
a(S'postapoc'
p197
S'Ofaloaf'
p198
S'Ofaloaf/postapoc'
p199
tp200
a(S'openface'
p201
S'cmusatyalab'
p202
S'cmusatyalab/openface'
p203
tp204
a(S'kong'
p205
S'Mashape'
p206
S'Mashape/kong'
p207
tp208
a(S'char-rnn'
p209
S'karpathy'
p210
S'karpathy/char-rnn'
p211
tp212
a(S'bAbI-tasks'
p213
S'facebook'
p214
S'facebook/bAbI-tasks'
p215
tp216
a(S'word-rnn'
p217
S'larspars'
p218
S'larspars/word-rnn'
p219
tp220
a(S'koreader'
p221
S'koreader'
p222
S'koreader/koreader'
p223
tp224
a(S'ntopng'
p225
S'ntop'
p226
S'ntop/ntopng'
p227
tp228
a(S'rnn'
p229
S'Element-Research'
p230
S'Element-Research/rnn'
p231
tp232
a(S'nn'
p233
S'torch'
p234
S'torch/nn'
p235
tp236
a(S'GameTracking'
p237
S'SteamDatabase'
p238
S'SteamDatabase/GameTracking'
p239
tp240
a(S'CorsixTH'
p241
S'CorsixTH'
p242
S'CorsixTH/CorsixTH'
p243
tp244
a(S'telegram-bot'
p245
S'yagop'
p246
S'yagop/telegram-bot'
p247
tp248
a(S'ngx_lua_waf'
p249
S'loveshell'
p250
S'loveshell/ngx_lua_waf'
p251
tp252
a(S'awesome'
p253
S'awesomeWM'
p254
S'awesomeWM/awesome'
p255
tp256
a(S'luvit'
p257
S'luvit'
p258
S'luvit/luvit'
p259
tp260
a(S'iTorch'
p261
S'facebook'
p262
S'facebook/iTorch'
p263
tp264
a(S'lua-promises'
p265
S'zserge'
p266
S'zserge/lua-promises'
p267
tp268
a(S'DeepMind-Atari-Deep-Q-Learner'
p269
S'kuz'
p270
S'kuz/DeepMind-Atari-Deep-Q-Learner'
p271
tp272
a(S'Algorithm-Implementations'
p273
S'kennyledet'
p274
S'kennyledet/Algorithm-Implementations'
p275
tp276
a(S'awesome-copycats'
p277
S'copycat-killer'
p278
S'copycat-killer/awesome-copycats'
p279
tp280
a(S'luci'
p281
S'openwrt'
p282
S'openwrt/luci'
p283
tp284
a(S'luarocks'
p285
S'keplerproject'
p286
S'keplerproject/luarocks'
p287
tp288
a(S'snabbswitch'
p289
S'SnabbCo'
p290
S'SnabbCo/snabbswitch'
p291
tp292
a(S'darkstar'
p293
S'DarkstarProject'
p294
S'DarkstarProject/darkstar'
p295
tp296
a(S'ZeroBraneStudio'
p297
S'pkulchenko'
p298
S'pkulchenko/ZeroBraneStudio'
p299
tp300
a.