(lp0
(S'Slash'
p1
S'chrisdevereux'
p2
S'chrisdevereux/Slash'
p3
tp4
a(S'AttributedMarkdown'
p5
S'dreamwieber'
p6
S'dreamwieber/AttributedMarkdown'
p7
tp8
a(S'InfColorPicker'
p9
S'InfinitApps'
p10
S'InfinitApps/InfColorPicker'
p11
tp12
a(S'MMD-QuickLook'
p13
S'ttscoff'
p14
S'ttscoff/MMD-QuickLook'
p15
tp16
a(S'RayTracer'
p17
S'marczych'
p18
S'marczych/RayTracer'
p19
tp20
a(S'MacPoison'
p21
S'Dominic12'
p22
S'Dominic12/MacPoison'
p23
tp24
a(S'AnsiLove.framework'
p25
S'ansilove'
p26
S'ansilove/AnsiLove.framework'
p27
tp28
a(S'EWD'
p29
S'robtweed'
p30
S'robtweed/EWD'
p31
tp32
a(S'firebase-titanium'
p33
S'LeftLaneLab'
p34
S'LeftLaneLab/firebase-titanium'
p35
tp36
a(S'ossmeter'
p37
S'ossmeter'
p38
S'ossmeter/ossmeter'
p39
tp40
a(S'test'
p41
S'DuncanMC'
p42
S'DuncanMC/test'
p43
tp44
a(S'CLinUiP'
p45
S'borochris'
p46
S'borochris/CLinUiP'
p47
tp48
a(S'DataBallet'
p49
S'lparenteau'
p50
S'lparenteau/DataBallet'
p51
tp52
a(S'SKIDS'
p53
S'OSEHRA'
p54
S'OSEHRA/SKIDS'
p55
tp56
a(S'VistA-M'
p57
S'OSEHRA'
p58
S'OSEHRA/VistA-M'
p59
tp60
a(S'MunsellAndKubelkaMunkToolbox'
p61
S'colour-science'
p62
S'colour-science/MunsellAndKubelkaMunkToolbox'
p63
tp64
a(S'M-Web-Server'
p65
S'shabiel'
p66
S'shabiel/M-Web-Server'
p67
tp68
a(S'SEN-and-TurboSoft'
p69
S'SedimentExperimentalistNetwork'
p70
S'SedimentExperimentalistNetwork/SEN-and-TurboSoft'
p71
tp72
a(S'EngineeringNotationFormatter'
p73
S'dhoerl'
p74
S'dhoerl/EngineeringNotationFormatter'
p75
tp76
a(S'M-Web-Server'
p77
S'OSEHRA-Sandbox'
p78
S'OSEHRA-Sandbox/M-Web-Server'
p79
tp80
a(S'FOIA-RPMS'
p81
S'ChristopherEdwards'
p82
S'ChristopherEdwards/FOIA-RPMS'
p83
tp84
a(S'3D_Retrieval_scan2search'
p85
S'mincongzhang'
p86
S'mincongzhang/3D_Retrieval_scan2search'
p87
tp88
a(S'PUF'
p89
S'karanahujax'
p90
S'karanahujax/PUF'
p91
tp92
a(S'MRI_scripts'
p93
S'KuperbergLab'
p94
S'KuperbergLab/MRI_scripts'
p95
tp96
a(S'DSD'
p97
S'rripio'
p98
S'rripio/DSD'
p99
tp100
a(S'Slash'
p101
S'chrisdevereux'
p102
S'chrisdevereux/Slash'
p103
tp104
a(S'AttributedMarkdown'
p105
S'dreamwieber'
p106
S'dreamwieber/AttributedMarkdown'
p107
tp108
a(S'InfColorPicker'
p109
S'InfinitApps'
p110
S'InfinitApps/InfColorPicker'
p111
tp112
a(S'MMD-QuickLook'
p113
S'ttscoff'
p114
S'ttscoff/MMD-QuickLook'
p115
tp116
a(S'RayTracer'
p117
S'marczych'
p118
S'marczych/RayTracer'
p119
tp120
a(S'MacPoison'
p121
S'Dominic12'
p122
S'Dominic12/MacPoison'
p123
tp124
a(S'AnsiLove.framework'
p125
S'ansilove'
p126
S'ansilove/AnsiLove.framework'
p127
tp128
a(S'EWD'
p129
S'robtweed'
p130
S'robtweed/EWD'
p131
tp132
a(S'firebase-titanium'
p133
S'LeftLaneLab'
p134
S'LeftLaneLab/firebase-titanium'
p135
tp136
a(S'ossmeter'
p137
S'ossmeter'
p138
S'ossmeter/ossmeter'
p139
tp140
a(S'test'
p141
S'DuncanMC'
p142
S'DuncanMC/test'
p143
tp144
a(S'CLinUiP'
p145
S'borochris'
p146
S'borochris/CLinUiP'
p147
tp148
a(S'DataBallet'
p149
S'lparenteau'
p150
S'lparenteau/DataBallet'
p151
tp152
a(S'SKIDS'
p153
S'OSEHRA'
p154
S'OSEHRA/SKIDS'
p155
tp156
a(S'VistA-M'
p157
S'OSEHRA'
p158
S'OSEHRA/VistA-M'
p159
tp160
a(S'MunsellAndKubelkaMunkToolbox'
p161
S'colour-science'
p162
S'colour-science/MunsellAndKubelkaMunkToolbox'
p163
tp164
a(S'M-Web-Server'
p165
S'shabiel'
p166
S'shabiel/M-Web-Server'
p167
tp168
a(S'SEN-and-TurboSoft'
p169
S'SedimentExperimentalistNetwork'
p170
S'SedimentExperimentalistNetwork/SEN-and-TurboSoft'
p171
tp172
a(S'EngineeringNotationFormatter'
p173
S'dhoerl'
p174
S'dhoerl/EngineeringNotationFormatter'
p175
tp176
a(S'M-Web-Server'
p177
S'OSEHRA-Sandbox'
p178
S'OSEHRA-Sandbox/M-Web-Server'
p179
tp180
a(S'FOIA-RPMS'
p181
S'ChristopherEdwards'
p182
S'ChristopherEdwards/FOIA-RPMS'
p183
tp184
a(S'3D_Retrieval_scan2search'
p185
S'mincongzhang'
p186
S'mincongzhang/3D_Retrieval_scan2search'
p187
tp188
a(S'PUF'
p189
S'karanahujax'
p190
S'karanahujax/PUF'
p191
tp192
a(S'MRI_scripts'
p193
S'KuperbergLab'
p194
S'KuperbergLab/MRI_scripts'
p195
tp196
a(S'DSD'
p197
S'rripio'
p198
S'rripio/DSD'
p199
tp200
a(S'Slash'
p201
S'chrisdevereux'
p202
S'chrisdevereux/Slash'
p203
tp204
a(S'AttributedMarkdown'
p205
S'dreamwieber'
p206
S'dreamwieber/AttributedMarkdown'
p207
tp208
a(S'InfColorPicker'
p209
S'InfinitApps'
p210
S'InfinitApps/InfColorPicker'
p211
tp212
a(S'MMD-QuickLook'
p213
S'ttscoff'
p214
S'ttscoff/MMD-QuickLook'
p215
tp216
a(S'RayTracer'
p217
S'marczych'
p218
S'marczych/RayTracer'
p219
tp220
a(S'MacPoison'
p221
S'Dominic12'
p222
S'Dominic12/MacPoison'
p223
tp224
a(S'AnsiLove.framework'
p225
S'ansilove'
p226
S'ansilove/AnsiLove.framework'
p227
tp228
a(S'EWD'
p229
S'robtweed'
p230
S'robtweed/EWD'
p231
tp232
a(S'firebase-titanium'
p233
S'LeftLaneLab'
p234
S'LeftLaneLab/firebase-titanium'
p235
tp236
a(S'ossmeter'
p237
S'ossmeter'
p238
S'ossmeter/ossmeter'
p239
tp240
a(S'test'
p241
S'DuncanMC'
p242
S'DuncanMC/test'
p243
tp244
a(S'CLinUiP'
p245
S'borochris'
p246
S'borochris/CLinUiP'
p247
tp248
a(S'DataBallet'
p249
S'lparenteau'
p250
S'lparenteau/DataBallet'
p251
tp252
a(S'SKIDS'
p253
S'OSEHRA'
p254
S'OSEHRA/SKIDS'
p255
tp256
a(S'VistA-M'
p257
S'OSEHRA'
p258
S'OSEHRA/VistA-M'
p259
tp260
a(S'MunsellAndKubelkaMunkToolbox'
p261
S'colour-science'
p262
S'colour-science/MunsellAndKubelkaMunkToolbox'
p263
tp264
a(S'M-Web-Server'
p265
S'shabiel'
p266
S'shabiel/M-Web-Server'
p267
tp268
a(S'SEN-and-TurboSoft'
p269
S'SedimentExperimentalistNetwork'
p270
S'SedimentExperimentalistNetwork/SEN-and-TurboSoft'
p271
tp272
a(S'EngineeringNotationFormatter'
p273
S'dhoerl'
p274
S'dhoerl/EngineeringNotationFormatter'
p275
tp276
a(S'M-Web-Server'
p277
S'OSEHRA-Sandbox'
p278
S'OSEHRA-Sandbox/M-Web-Server'
p279
tp280
a(S'FOIA-RPMS'
p281
S'ChristopherEdwards'
p282
S'ChristopherEdwards/FOIA-RPMS'
p283
tp284
a(S'3D_Retrieval_scan2search'
p285
S'mincongzhang'
p286
S'mincongzhang/3D_Retrieval_scan2search'
p287
tp288
a(S'PUF'
p289
S'karanahujax'
p290
S'karanahujax/PUF'
p291
tp292
a(S'MRI_scripts'
p293
S'KuperbergLab'
p294
S'KuperbergLab/MRI_scripts'
p295
tp296
a(S'DSD'
p297
S'rripio'
p298
S'rripio/DSD'
p299
tp300
a.