(lp0
(S'buildroot'
p1
S'buildroot'
p2
S'buildroot/buildroot'
p3
tp4
a(S'proprietary_vendor_lge'
p5
S'TheMuppets'
p6
S'TheMuppets/proprietary_vendor_lge'
p7
tp8
a(S'mxe'
p9
S'mxe'
p10
S'mxe/mxe'
p11
tp12
a(S'buildroot'
p13
S'Metrological'
p14
S'Metrological/buildroot'
p15
tp16
a(S'breeze-icon-theme'
p17
S'NitruxSA'
p18
S'NitruxSA/breeze-icon-theme'
p19
tp20
a(S'android_build'
p21
S'CyanogenMod'
p22
S'CyanogenMod/android_build'
p23
tp24
a(S'learnhaskell'
p25
S'bitemyapp'
p26
S'bitemyapp/learnhaskell'
p27
tp28
a(S'OpenELEC.tv'
p29
S'OpenELEC'
p30
S'OpenELEC/OpenELEC.tv'
p31
tp32
a(S'source-sans-pro'
p33
S'adobe-fonts'
p34
S'adobe-fonts/source-sans-pro'
p35
tp36
a(S'zh-google-styleguide'
p37
S'zh-google-styleguide'
p38
S'zh-google-styleguide/zh-google-styleguide'
p39
tp40
a(S'hadoop-book'
p41
S'tomwhite'
p42
S'tomwhite/hadoop-book'
p43
tp44
a(S'node-csv'
p45
S'wdavidw'
p46
S'wdavidw/node-csv'
p47
tp48
a(S'GenericMakefile'
p49
S'mbcrawfo'
p50
S'mbcrawfo/GenericMakefile'
p51
tp52
a(S'acme-spec'
p53
S'letsencrypt'
p54
S'letsencrypt/acme-spec'
p55
tp56
a(S'gitmagic'
p57
S'blynn'
p58
S'blynn/gitmagic'
p59
tp60
a(S'spksrc'
p61
S'SynoCommunity'
p62
S'SynoCommunity/spksrc'
p63
tp64
a(S'awesome-web-scraping'
p65
S'lorien'
p66
S'lorien/awesome-web-scraping'
p67
tp68
a(S'Arduino-Makefile'
p69
S'sudar'
p70
S'sudar/Arduino-Makefile'
p71
tp72
a(S'noobs'
p73
S'raspberrypi'
p74
S'raspberrypi/noobs'
p75
tp76
a(S'docker-consul'
p77
S'gliderlabs'
p78
S'gliderlabs/docker-consul'
p79
tp80
a(S'developer'
p81
S'phodal'
p82
S'phodal/developer'
p83
tp84
a(S'flint'
p85
S'facebook'
p86
S'facebook/flint'
p87
tp88
a(S'packages'
p89
S'openwrt'
p90
S'openwrt/packages'
p91
tp92
a(S'sdc'
p93
S'joyent'
p94
S'joyent/sdc'
p95
tp96
a(S'frida'
p97
S'frida'
p98
S'frida/frida'
p99
tp100
a(S'learnhaskell'
p101
S'bitemyapp'
p102
S'bitemyapp/learnhaskell'
p103
tp104
a(S'acme-spec'
p105
S'letsencrypt'
p106
S'letsencrypt/acme-spec'
p107
tp108
a(S'awesome-web-scraping'
p109
S'lorien'
p110
S'lorien/awesome-web-scraping'
p111
tp112
a(S'motioneyeos'
p113
S'ccrisan'
p114
S'ccrisan/motioneyeos'
p115
tp116
a(S'node.docker'
p117
S'cusspvz'
p118
S'cusspvz/node.docker'
p119
tp120
a(S'docker-stacks'
p121
S'jupyter'
p122
S'jupyter/docker-stacks'
p123
tp124
a(S'packages'
p125
S'openwrt'
p126
S'openwrt/packages'
p127
tp128
a(S'OpenELEC.tv'
p129
S'OpenELEC'
p130
S'OpenELEC/OpenELEC.tv'
p131
tp132
a(S'css-houdini-drafts'
p133
S'w3c'
p134
S'w3c/css-houdini-drafts'
p135
tp136
a(S'open-c-book'
p137
S'tinyclub'
p138
S'tinyclub/open-c-book'
p139
tp140
a(S'buildroot'
p141
S'Metrological'
p142
S'Metrological/buildroot'
p143
tp144
a(S'spksrc'
p145
S'SynoCommunity'
p146
S'SynoCommunity/spksrc'
p147
tp148
a(S'android_build'
p149
S'CyanogenMod'
p150
S'CyanogenMod/android_build'
p151
tp152
a(S'proprietary_vendor_motorola'
p153
S'TheMuppets'
p154
S'TheMuppets/proprietary_vendor_motorola'
p155
tp156
a(S'proprietary_vendor_lge'
p157
S'TheMuppets'
p158
S'TheMuppets/proprietary_vendor_lge'
p159
tp160
a(S'android_vendor_pac'
p161
S'PAC-ROM'
p162
S'PAC-ROM/android_vendor_pac'
p163
tp164
a(S'OpenWRT-package-softether'
p165
S'el1n'
p166
S'el1n/OpenWRT-package-softether'
p167
tp168
a(S'Lakka'
p169
S'libretro'
p170
S'libretro/Lakka'
p171
tp172
a(S'device_brcm_rpi2'
p173
S'peyo-hd'
p174
S'peyo-hd/device_brcm_rpi2'
p175
tp176
a(S'nodejs-rpm'
p177
S'kazuhisya'
p178
S'kazuhisya/nodejs-rpm'
p179
tp180
a(S'firmware'
p181
S'freifunk-berlin'
p182
S'freifunk-berlin/firmware'
p183
tp184
a(S'source-sans-pro'
p185
S'adobe-fonts'
p186
S'adobe-fonts/source-sans-pro'
p187
tp188
a(S'zh-google-styleguide'
p189
S'zh-google-styleguide'
p190
S'zh-google-styleguide/zh-google-styleguide'
p191
tp192
a(S'hadoop-book'
p193
S'tomwhite'
p194
S'tomwhite/hadoop-book'
p195
tp196
a(S'node-csv'
p197
S'wdavidw'
p198
S'wdavidw/node-csv'
p199
tp200
a(S'learnhaskell'
p201
S'bitemyapp'
p202
S'bitemyapp/learnhaskell'
p203
tp204
a(S'awesome-web-scraping'
p205
S'lorien'
p206
S'lorien/awesome-web-scraping'
p207
tp208
a(S'node.docker'
p209
S'cusspvz'
p210
S'cusspvz/node.docker'
p211
tp212
a(S'packages'
p213
S'openwrt'
p214
S'openwrt/packages'
p215
tp216
a(S'acme-spec'
p217
S'letsencrypt'
p218
S'letsencrypt/acme-spec'
p219
tp220
a(S'motioneyeos'
p221
S'ccrisan'
p222
S'ccrisan/motioneyeos'
p223
tp224
a(S'android_build'
p225
S'CyanogenMod'
p226
S'CyanogenMod/android_build'
p227
tp228
a(S'OpenELEC.tv'
p229
S'OpenELEC'
p230
S'OpenELEC/OpenELEC.tv'
p231
tp232
a(S'docker-stacks'
p233
S'jupyter'
p234
S'jupyter/docker-stacks'
p235
tp236
a(S'skype-unofficial-client'
p237
S'haskellcamargo'
p238
S'haskellcamargo/skype-unofficial-client'
p239
tp240
a(S'rumprun-packages'
p241
S'rumpkernel'
p242
S'rumpkernel/rumprun-packages'
p243
tp244
a(S'nerves-sdk'
p245
S'nerves-project'
p246
S'nerves-project/nerves-sdk'
p247
tp248
a(S'erlang.mk'
p249
S'ninenines'
p250
S'ninenines/erlang.mk'
p251
tp252
a(S'sdc'
p253
S'joyent'
p254
S'joyent/sdc'
p255
tp256
a(S'breeze-icon-theme'
p257
S'NitruxSA'
p258
S'NitruxSA/breeze-icon-theme'
p259
tp260
a(S'spksrc'
p261
S'SynoCommunity'
p262
S'SynoCommunity/spksrc'
p263
tp264
a(S'platform_build'
p265
S'android'
p266
S'android/platform_build'
p267
tp268
a(S'open-c-book'
p269
S'tinyclub'
p270
S'tinyclub/open-c-book'
p271
tp272
a(S'device_brcm_rpi2'
p273
S'peyo-hd'
p274
S'peyo-hd/device_brcm_rpi2'
p275
tp276
a(S'buildroot'
p277
S'buildroot'
p278
S'buildroot/buildroot'
p279
tp280
a(S'CHIP-buildroot'
p281
S'NextThingCo'
p282
S'NextThingCo/CHIP-buildroot'
p283
tp284
a(S'Lakka'
p285
S'libretro'
p286
S'libretro/Lakka'
p287
tp288
a(S'css-houdini-drafts'
p289
S'w3c'
p290
S'w3c/css-houdini-drafts'
p291
tp292
a(S'mxe'
p293
S'mxe'
p294
S'mxe/mxe'
p295
tp296
a(S'buildroot'
p297
S'Metrological'
p298
S'Metrological/buildroot'
p299
tp300
a.