(lp0
(S'ofSite'
p1
S'openframeworks'
p2
S'openframeworks/ofSite'
p3
tp4
a(S'zookeepr'
p5
S'zookeepr'
p6
S'zookeepr/zookeepr'
p7
tp8
a(S'ofSiteJp'
p9
S'tado'
p10
S'tado/ofSiteJp'
p11
tp12
a(S'copyvios'
p13
S'earwig'
p14
S'earwig/copyvios'
p15
tp16
a(S'kafka-hue'
p17
S'keedio'
p18
S'keedio/kafka-hue'
p19
tp20
a(S'purchase-reporting'
p21
S'OCA'
p22
S'OCA/purchase-reporting'
p23
tp24
a(S'manufacture-reporting'
p25
S'OCA'
p26
S'OCA/manufacture-reporting'
p27
tp28
a(S'storm-hue'
p29
S'keedio'
p30
S'keedio/storm-hue'
p31
tp32
a(S'Fursuiter'
p33
S'FursuiterNET'
p34
S'FursuiterNET/Fursuiter'
p35
tp36
a(S'pre-commit.github.io'
p37
S'pre-commit'
p38
S'pre-commit/pre-commit.github.io'
p39
tp40
a(S'TNTFL-web'
p41
S'jamesremuscat'
p42
S'jamesremuscat/TNTFL-web'
p43
tp44
a(S'superdash'
p45
S'sontek'
p46
S'sontek/superdash'
p47
tp48
a(S'alexander.soto.io'
p49
S'alexandersoto'
p50
S'alexandersoto/alexander.soto.io'
p51
tp52
a(S'custom-report'
p53
S'akretion'
p54
S'akretion/custom-report'
p55
tp56
a(S'andysite'
p57
S'csm725'
p58
S'csm725/andysite'
p59
tp60
a(S'kafka-hue'
p61
S'jasonliaoxiaoge'
p62
S'jasonliaoxiaoge/kafka-hue'
p63
tp64
a(S'gedmin.as'
p65
S'mgedmin'
p66
S'mgedmin/gedmin.as'
p67
tp68
a(S'zookeepr'
p69
S'iseppi'
p70
S'iseppi/zookeepr'
p71
tp72
a(S'blog'
p73
S'parente'
p74
S'parente/blog'
p75
tp76
a(S'Leap'
p77
S'LiquidCode'
p78
S'LiquidCode/Leap'
p79
tp80
a(S'ofSite'
p81
S'jshaw'
p82
S'jshaw/ofSite'
p83
tp84
a(S'ofSite'
p85
S'tornoteli'
p86
S'tornoteli/ofSite'
p87
tp88
a(S'ramdisk_mako'
p89
S'franciscofranco'
p90
S'franciscofranco/ramdisk_mako'
p91
tp92
a(S'openfisca-web-site'
p93
S'openfisca'
p94
S'openfisca/openfisca-web-site'
p95
tp96
a(S'clldmpg'
p97
S'clld'
p98
S'clld/clldmpg'
p99
tp100
a(S'ofSite'
p101
S'openframeworks'
p102
S'openframeworks/ofSite'
p103
tp104
a(S'zookeepr'
p105
S'zookeepr'
p106
S'zookeepr/zookeepr'
p107
tp108
a(S'ofSiteJp'
p109
S'tado'
p110
S'tado/ofSiteJp'
p111
tp112
a(S'copyvios'
p113
S'earwig'
p114
S'earwig/copyvios'
p115
tp116
a(S'kafka-hue'
p117
S'keedio'
p118
S'keedio/kafka-hue'
p119
tp120
a(S'purchase-reporting'
p121
S'OCA'
p122
S'OCA/purchase-reporting'
p123
tp124
a(S'manufacture-reporting'
p125
S'OCA'
p126
S'OCA/manufacture-reporting'
p127
tp128
a(S'Fursuiter'
p129
S'FursuiterNET'
p130
S'FursuiterNET/Fursuiter'
p131
tp132
a(S'storm-hue'
p133
S'keedio'
p134
S'keedio/storm-hue'
p135
tp136
a(S'pre-commit.github.io'
p137
S'pre-commit'
p138
S'pre-commit/pre-commit.github.io'
p139
tp140
a(S'TNTFL-web'
p141
S'jamesremuscat'
p142
S'jamesremuscat/TNTFL-web'
p143
tp144
a(S'blog'
p145
S'parente'
p146
S'parente/blog'
p147
tp148
a(S'gedmin.as'
p149
S'mgedmin'
p150
S'mgedmin/gedmin.as'
p151
tp152
a(S'kafka-hue'
p153
S'jasonliaoxiaoge'
p154
S'jasonliaoxiaoge/kafka-hue'
p155
tp156
a(S'custom-report'
p157
S'akretion'
p158
S'akretion/custom-report'
p159
tp160
a(S'superdash'
p161
S'sontek'
p162
S'sontek/superdash'
p163
tp164
a(S'alexander.soto.io'
p165
S'alexandersoto'
p166
S'alexandersoto/alexander.soto.io'
p167
tp168
a(S'andysite'
p169
S'csm725'
p170
S'csm725/andysite'
p171
tp172
a(S'zookeepr'
p173
S'iseppi'
p174
S'iseppi/zookeepr'
p175
tp176
a(S'resume'
p177
S'cristobalcl'
p178
S'cristobalcl/resume'
p179
tp180
a(S'floraverse.com'
p181
S'eevee'
p182
S'eevee/floraverse.com'
p183
tp184
a(S'ocerp_pbm'
p185
S'AMTOCERP'
p186
S'AMTOCERP/ocerp_pbm'
p187
tp188
a(S'EZShare'
p189
S'xmcp'
p190
S'xmcp/EZShare'
p191
tp192
a(S'flexi-core-system'
p193
S'flexi-system'
p194
S'flexi-system/flexi-core-system'
p195
tp196
a(S'pyckapps.visit_counter'
p197
S'kashifpk'
p198
S'kashifpk/pyckapps.visit_counter'
p199
tp200
a(S'ofSite'
p201
S'openframeworks'
p202
S'openframeworks/ofSite'
p203
tp204
a(S'zookeepr'
p205
S'zookeepr'
p206
S'zookeepr/zookeepr'
p207
tp208
a(S'ofSiteJp'
p209
S'tado'
p210
S'tado/ofSiteJp'
p211
tp212
a(S'copyvios'
p213
S'earwig'
p214
S'earwig/copyvios'
p215
tp216
a(S'kafka-hue'
p217
S'keedio'
p218
S'keedio/kafka-hue'
p219
tp220
a(S'purchase-reporting'
p221
S'OCA'
p222
S'OCA/purchase-reporting'
p223
tp224
a(S'manufacture-reporting'
p225
S'OCA'
p226
S'OCA/manufacture-reporting'
p227
tp228
a(S'storm-hue'
p229
S'keedio'
p230
S'keedio/storm-hue'
p231
tp232
a(S'Fursuiter'
p233
S'FursuiterNET'
p234
S'FursuiterNET/Fursuiter'
p235
tp236
a(S'pre-commit.github.io'
p237
S'pre-commit'
p238
S'pre-commit/pre-commit.github.io'
p239
tp240
a(S'TNTFL-web'
p241
S'jamesremuscat'
p242
S'jamesremuscat/TNTFL-web'
p243
tp244
a(S'custom-report'
p245
S'akretion'
p246
S'akretion/custom-report'
p247
tp248
a(S'kafka-hue'
p249
S'jasonliaoxiaoge'
p250
S'jasonliaoxiaoge/kafka-hue'
p251
tp252
a(S'blog'
p253
S'parente'
p254
S'parente/blog'
p255
tp256
a(S'zookeepr'
p257
S'iseppi'
p258
S'iseppi/zookeepr'
p259
tp260
a(S'superdash'
p261
S'sontek'
p262
S'sontek/superdash'
p263
tp264
a(S'alexander.soto.io'
p265
S'alexandersoto'
p266
S'alexandersoto/alexander.soto.io'
p267
tp268
a(S'gedmin.as'
p269
S'mgedmin'
p270
S'mgedmin/gedmin.as'
p271
tp272
a(S'andysite'
p273
S'csm725'
p274
S'csm725/andysite'
p275
tp276
a(S'resume'
p277
S'cristobalcl'
p278
S'cristobalcl/resume'
p279
tp280
a(S'floraverse.com'
p281
S'eevee'
p282
S'eevee/floraverse.com'
p283
tp284
a(S'ocerp_pbm'
p285
S'AMTOCERP'
p286
S'AMTOCERP/ocerp_pbm'
p287
tp288
a(S'EZShare'
p289
S'xmcp'
p290
S'xmcp/EZShare'
p291
tp292
a(S'compulife'
p293
S'kashifpk'
p294
S'kashifpk/compulife'
p295
tp296
a(S'flexi-core-system'
p297
S'flexi-system'
p298
S'flexi-system/flexi-core-system'
p299
tp300
a.