(lp0
(S'bapa_overlay'
p1
S'Bapabooiee'
p2
S'Bapabooiee/bapa_overlay'
p3
tp4
a(S'astroclass'
p5
S'EdwardJKim'
p6
S'EdwardJKim/astroclass'
p7
tp8
a(S'sublime-portage'
p9
S'krizalys'
p10
S'krizalys/sublime-portage'
p11
tp12
a(S'gentoo-config'
p13
S'Heather'
p14
S'Heather/gentoo-config'
p15
tp16
a(S'gentoo-dfbsd'
p17
S'hottabich'
p18
S'hottabich/gentoo-dfbsd'
p19
tp20
a(S'portage'
p21
S'jcpetkovich'
p22
S'jcpetkovich/portage'
p23
tp24
a(S'SDUnityChanOnline2'
p25
S'zabaglione'
p26
S'zabaglione/SDUnityChanOnline2'
p27
tp28
a(S'streetView01'
p29
S'nodatsu'
p30
S'nodatsu/streetView01'
p31
tp32
a(S'After_the_Storm'
p33
S'shikadilord'
p34
S'shikadilord/After_the_Storm'
p35
tp36
a(S'learning-unity-chan-running'
p37
S'urouro'
p38
S'urouro/learning-unity-chan-running'
p39
tp40
a(S'Study'
p41
S'Zu0'
p42
S'Zu0/Study'
p43
tp44
a(S'eeix'
p45
S'mofm'
p46
S'mofm/eeix'
p47
tp48
a(S'LableToRegion'
p49
S'pishilong'
p50
S'pishilong/LableToRegion'
p51
tp52
a(S'LaelaUesmaes_MPmaps'
p53
S'ProditorMagnus'
p54
S'ProditorMagnus/LaelaUesmaes_MPmaps'
p55
tp56
a(S'streetView01'
p57
S'zodsoft'
p58
S'zodsoft/streetView01'
p59
tp60
a(S'gentoo-config'
p61
S'Leryan'
p62
S'Leryan/gentoo-config'
p63
tp64
a(S'linux_conf'
p65
S'ruukina'
p66
S'ruukina/linux_conf'
p67
tp68
a(S'laptop.paigeat.info'
p69
S'cloudkitsch'
p70
S'cloudkitsch/laptop.paigeat.info'
p71
tp72
a(S'UnityChan'
p73
S'neillloool'
p74
S'neillloool/UnityChan'
p75
tp76
a(S'gentoo_configs'
p77
S'ivdunin'
p78
S'ivdunin/gentoo_configs'
p79
tp80
a(S'portage-config'
p81
S'Pinkbyte'
p82
S'Pinkbyte/portage-config'
p83
tp84
a(S'testgitcommit'
p85
S'YoshinoriIwaki'
p86
S'YoshinoriIwaki/testgitcommit'
p87
tp88
a(S'Unity_chanRun'
p89
S'aminaura'
p90
S'aminaura/Unity_chanRun'
p91
tp92
a(S'UnityShadersAndEffectsCookbook'
p93
S's2kw'
p94
S's2kw/UnityShadersAndEffectsCookbook'
p95
tp96
a(S'Valley_of_the_Ancients'
p97
S'trewe'
p98
S'trewe/Valley_of_the_Ancients'
p99
tp100
a(S'bapa_overlay'
p101
S'Bapabooiee'
p102
S'Bapabooiee/bapa_overlay'
p103
tp104
a(S'astroclass'
p105
S'EdwardJKim'
p106
S'EdwardJKim/astroclass'
p107
tp108
a(S'sublime-portage'
p109
S'krizalys'
p110
S'krizalys/sublime-portage'
p111
tp112
a(S'gentoo-config'
p113
S'Heather'
p114
S'Heather/gentoo-config'
p115
tp116
a(S'gentoo-dfbsd'
p117
S'hottabich'
p118
S'hottabich/gentoo-dfbsd'
p119
tp120
a(S'portage'
p121
S'jcpetkovich'
p122
S'jcpetkovich/portage'
p123
tp124
a(S'SDUnityChanOnline2'
p125
S'zabaglione'
p126
S'zabaglione/SDUnityChanOnline2'
p127
tp128
a(S'streetView01'
p129
S'nodatsu'
p130
S'nodatsu/streetView01'
p131
tp132
a(S'After_the_Storm'
p133
S'shikadilord'
p134
S'shikadilord/After_the_Storm'
p135
tp136
a(S'learning-unity-chan-running'
p137
S'urouro'
p138
S'urouro/learning-unity-chan-running'
p139
tp140
a(S'Study'
p141
S'Zu0'
p142
S'Zu0/Study'
p143
tp144
a(S'eeix'
p145
S'mofm'
p146
S'mofm/eeix'
p147
tp148
a(S'LableToRegion'
p149
S'pishilong'
p150
S'pishilong/LableToRegion'
p151
tp152
a(S'LaelaUesmaes_MPmaps'
p153
S'ProditorMagnus'
p154
S'ProditorMagnus/LaelaUesmaes_MPmaps'
p155
tp156
a(S'streetView01'
p157
S'zodsoft'
p158
S'zodsoft/streetView01'
p159
tp160
a(S'gentoo-config'
p161
S'Leryan'
p162
S'Leryan/gentoo-config'
p163
tp164
a(S'linux_conf'
p165
S'ruukina'
p166
S'ruukina/linux_conf'
p167
tp168
a(S'laptop.paigeat.info'
p169
S'cloudkitsch'
p170
S'cloudkitsch/laptop.paigeat.info'
p171
tp172
a(S'UnityChan'
p173
S'neillloool'
p174
S'neillloool/UnityChan'
p175
tp176
a(S'gentoo_configs'
p177
S'ivdunin'
p178
S'ivdunin/gentoo_configs'
p179
tp180
a(S'portage-config'
p181
S'Pinkbyte'
p182
S'Pinkbyte/portage-config'
p183
tp184
a(S'testgitcommit'
p185
S'YoshinoriIwaki'
p186
S'YoshinoriIwaki/testgitcommit'
p187
tp188
a(S'Unity_chanRun'
p189
S'aminaura'
p190
S'aminaura/Unity_chanRun'
p191
tp192
a(S'UnityShadersAndEffectsCookbook'
p193
S's2kw'
p194
S's2kw/UnityShadersAndEffectsCookbook'
p195
tp196
a(S'Valley_of_the_Ancients'
p197
S'trewe'
p198
S'trewe/Valley_of_the_Ancients'
p199
tp200
a(S'bapa_overlay'
p201
S'Bapabooiee'
p202
S'Bapabooiee/bapa_overlay'
p203
tp204
a(S'astroclass'
p205
S'EdwardJKim'
p206
S'EdwardJKim/astroclass'
p207
tp208
a(S'sublime-portage'
p209
S'krizalys'
p210
S'krizalys/sublime-portage'
p211
tp212
a(S'gentoo-config'
p213
S'Heather'
p214
S'Heather/gentoo-config'
p215
tp216
a(S'gentoo-dfbsd'
p217
S'hottabich'
p218
S'hottabich/gentoo-dfbsd'
p219
tp220
a(S'portage'
p221
S'jcpetkovich'
p222
S'jcpetkovich/portage'
p223
tp224
a(S'SDUnityChanOnline2'
p225
S'zabaglione'
p226
S'zabaglione/SDUnityChanOnline2'
p227
tp228
a(S'streetView01'
p229
S'nodatsu'
p230
S'nodatsu/streetView01'
p231
tp232
a(S'After_the_Storm'
p233
S'shikadilord'
p234
S'shikadilord/After_the_Storm'
p235
tp236
a(S'learning-unity-chan-running'
p237
S'urouro'
p238
S'urouro/learning-unity-chan-running'
p239
tp240
a(S'Study'
p241
S'Zu0'
p242
S'Zu0/Study'
p243
tp244
a(S'eeix'
p245
S'mofm'
p246
S'mofm/eeix'
p247
tp248
a(S'LableToRegion'
p249
S'pishilong'
p250
S'pishilong/LableToRegion'
p251
tp252
a(S'LaelaUesmaes_MPmaps'
p253
S'ProditorMagnus'
p254
S'ProditorMagnus/LaelaUesmaes_MPmaps'
p255
tp256
a(S'streetView01'
p257
S'zodsoft'
p258
S'zodsoft/streetView01'
p259
tp260
a(S'gentoo-config'
p261
S'Leryan'
p262
S'Leryan/gentoo-config'
p263
tp264
a(S'linux_conf'
p265
S'ruukina'
p266
S'ruukina/linux_conf'
p267
tp268
a(S'laptop.paigeat.info'
p269
S'cloudkitsch'
p270
S'cloudkitsch/laptop.paigeat.info'
p271
tp272
a(S'UnityChan'
p273
S'neillloool'
p274
S'neillloool/UnityChan'
p275
tp276
a(S'gentoo_configs'
p277
S'ivdunin'
p278
S'ivdunin/gentoo_configs'
p279
tp280
a(S'portage-config'
p281
S'Pinkbyte'
p282
S'Pinkbyte/portage-config'
p283
tp284
a(S'testgitcommit'
p285
S'YoshinoriIwaki'
p286
S'YoshinoriIwaki/testgitcommit'
p287
tp288
a(S'Unity_chanRun'
p289
S'aminaura'
p290
S'aminaura/Unity_chanRun'
p291
tp292
a(S'UnityShadersAndEffectsCookbook'
p293
S's2kw'
p294
S's2kw/UnityShadersAndEffectsCookbook'
p295
tp296
a(S'Valley_of_the_Ancients'
p297
S'trewe'
p298
S'trewe/Valley_of_the_Ancients'
p299
tp300
a.