(lp0
(S'NASA-3D-Resources'
p1
S'nasa'
p2
S'nasa/NASA-3D-Resources'
p3
tp4
a(S'WebGLSamples.github.io'
p5
S'WebGLSamples'
p6
S'WebGLSamples/WebGLSamples.github.io'
p7
tp8
a(S'MathematicaForPrediction'
p9
S'antononcube'
p10
S'antononcube/MathematicaForPrediction'
p11
tp12
a(S'rubber-loader'
p13
S'greenfrvr'
p14
S'greenfrvr/rubber-loader'
p15
tp16
a(S'books'
p17
S'spinlockirqsave'
p18
S'spinlockirqsave/books'
p19
tp20
a(S'domemaster-stereo-shader'
p21
S'zicher3d-org'
p22
S'zicher3d-org/domemaster-stereo-shader'
p23
tp24
a(S'tethering'
p25
S'rickyzhang82'
p26
S'rickyzhang82/tethering'
p27
tp28
a(S'OpenMaya'
p29
S'haggi'
p30
S'haggi/OpenMaya'
p31
tp32
a(S'Introduction-to-Autonomous-Robots'
p33
S'correll'
p34
S'correll/Introduction-to-Autonomous-Robots'
p35
tp36
a(S'RiggingToolbox'
p37
S'fabric-engine'
p38
S'fabric-engine/RiggingToolbox'
p39
tp40
a(S'WhyMathematica'
p41
S'emptymalei'
p42
S'emptymalei/WhyMathematica'
p43
tp44
a(S'FBX-glTF'
p45
S'cyrillef'
p46
S'cyrillef/FBX-glTF'
p47
tp48
a(S'Theorema'
p49
S'windsteiger'
p50
S'windsteiger/Theorema'
p51
tp52
a(S'BeagleBoard-exercises'
p53
S'MarkAYoder'
p54
S'MarkAYoder/BeagleBoard-exercises'
p55
tp56
a(S'ZombiePumpkinSlayer'
p57
S'adamtuliper'
p58
S'adamtuliper/ZombiePumpkinSlayer'
p59
tp60
a(S'MATLink'
p61
S'rsmenon'
p62
S'rsmenon/MATLink'
p63
tp64
a(S'RealSolarSystem'
p65
S'NathanKell'
p66
S'NathanKell/RealSolarSystem'
p67
tp68
a(S'Mathematica-Source-Highlighting'
p69
S'halirutan'
p70
S'halirutan/Mathematica-Source-Highlighting'
p71
tp72
a(S'launch'
p73
S'nriley'
p74
S'nriley/launch'
p75
tp76
a(S'ITP_OpenSourceAnimation'
p77
S'n1ckfg'
p78
S'n1ckfg/ITP_OpenSourceAnimation'
p79
tp80
a(S'QF101'
p81
S'Hexlet'
p82
S'Hexlet/QF101'
p83
tp84
a(S'MaTeX'
p85
S'szhorvat'
p86
S'szhorvat/MaTeX'
p87
tp88
a(S'gro'
p89
S'klavinslab'
p90
S'klavinslab/gro'
p91
tp92
a(S'quantum-utils-mathematica'
p93
S'QuantumUtils'
p94
S'QuantumUtils/quantum-utils-mathematica'
p95
tp96
a(S'ApplicationMaker'
p97
S'jmlopez-rod'
p98
S'jmlopez-rod/ApplicationMaker'
p99
tp100
a(S'NASA-3D-Resources'
p101
S'nasa'
p102
S'nasa/NASA-3D-Resources'
p103
tp104
a(S'WebGLSamples.github.io'
p105
S'WebGLSamples'
p106
S'WebGLSamples/WebGLSamples.github.io'
p107
tp108
a(S'MathematicaForPrediction'
p109
S'antononcube'
p110
S'antononcube/MathematicaForPrediction'
p111
tp112
a(S'rubber-loader'
p113
S'greenfrvr'
p114
S'greenfrvr/rubber-loader'
p115
tp116
a(S'books'
p117
S'spinlockirqsave'
p118
S'spinlockirqsave/books'
p119
tp120
a(S'domemaster-stereo-shader'
p121
S'zicher3d-org'
p122
S'zicher3d-org/domemaster-stereo-shader'
p123
tp124
a(S'tethering'
p125
S'rickyzhang82'
p126
S'rickyzhang82/tethering'
p127
tp128
a(S'OpenMaya'
p129
S'haggi'
p130
S'haggi/OpenMaya'
p131
tp132
a(S'Introduction-to-Autonomous-Robots'
p133
S'correll'
p134
S'correll/Introduction-to-Autonomous-Robots'
p135
tp136
a(S'RiggingToolbox'
p137
S'fabric-engine'
p138
S'fabric-engine/RiggingToolbox'
p139
tp140
a(S'WhyMathematica'
p141
S'emptymalei'
p142
S'emptymalei/WhyMathematica'
p143
tp144
a(S'FBX-glTF'
p145
S'cyrillef'
p146
S'cyrillef/FBX-glTF'
p147
tp148
a(S'Theorema'
p149
S'windsteiger'
p150
S'windsteiger/Theorema'
p151
tp152
a(S'BeagleBoard-exercises'
p153
S'MarkAYoder'
p154
S'MarkAYoder/BeagleBoard-exercises'
p155
tp156
a(S'ZombiePumpkinSlayer'
p157
S'adamtuliper'
p158
S'adamtuliper/ZombiePumpkinSlayer'
p159
tp160
a(S'MATLink'
p161
S'rsmenon'
p162
S'rsmenon/MATLink'
p163
tp164
a(S'RealSolarSystem'
p165
S'NathanKell'
p166
S'NathanKell/RealSolarSystem'
p167
tp168
a(S'Mathematica-Source-Highlighting'
p169
S'halirutan'
p170
S'halirutan/Mathematica-Source-Highlighting'
p171
tp172
a(S'launch'
p173
S'nriley'
p174
S'nriley/launch'
p175
tp176
a(S'ITP_OpenSourceAnimation'
p177
S'n1ckfg'
p178
S'n1ckfg/ITP_OpenSourceAnimation'
p179
tp180
a(S'QF101'
p181
S'Hexlet'
p182
S'Hexlet/QF101'
p183
tp184
a(S'MaTeX'
p185
S'szhorvat'
p186
S'szhorvat/MaTeX'
p187
tp188
a(S'gro'
p189
S'klavinslab'
p190
S'klavinslab/gro'
p191
tp192
a(S'quantum-utils-mathematica'
p193
S'QuantumUtils'
p194
S'QuantumUtils/quantum-utils-mathematica'
p195
tp196
a(S'ApplicationMaker'
p197
S'jmlopez-rod'
p198
S'jmlopez-rod/ApplicationMaker'
p199
tp200
a(S'NASA-3D-Resources'
p201
S'nasa'
p202
S'nasa/NASA-3D-Resources'
p203
tp204
a(S'books'
p205
S'spinlockirqsave'
p206
S'spinlockirqsave/books'
p207
tp208
a(S'Introduction-to-Autonomous-Robots'
p209
S'correll'
p210
S'correll/Introduction-to-Autonomous-Robots'
p211
tp212
a(S'BeagleBoard-exercises'
p213
S'MarkAYoder'
p214
S'MarkAYoder/BeagleBoard-exercises'
p215
tp216
a(S'WebGLSamples.github.io'
p217
S'WebGLSamples'
p218
S'WebGLSamples/WebGLSamples.github.io'
p219
tp220
a(S'MathematicaForPrediction'
p221
S'antononcube'
p222
S'antononcube/MathematicaForPrediction'
p223
tp224
a(S'rubber-loader'
p225
S'greenfrvr'
p226
S'greenfrvr/rubber-loader'
p227
tp228
a(S'domemaster-stereo-shader'
p229
S'zicher3d-org'
p230
S'zicher3d-org/domemaster-stereo-shader'
p231
tp232
a(S'tethering'
p233
S'rickyzhang82'
p234
S'rickyzhang82/tethering'
p235
tp236
a(S'OpenMaya'
p237
S'haggi'
p238
S'haggi/OpenMaya'
p239
tp240
a(S'RiggingToolbox'
p241
S'fabric-engine'
p242
S'fabric-engine/RiggingToolbox'
p243
tp244
a(S'WhyMathematica'
p245
S'emptymalei'
p246
S'emptymalei/WhyMathematica'
p247
tp248
a(S'FBX-glTF'
p249
S'cyrillef'
p250
S'cyrillef/FBX-glTF'
p251
tp252
a(S'Theorema'
p253
S'windsteiger'
p254
S'windsteiger/Theorema'
p255
tp256
a(S'RealSolarSystem'
p257
S'NathanKell'
p258
S'NathanKell/RealSolarSystem'
p259
tp260
a(S'MATLink'
p261
S'rsmenon'
p262
S'rsmenon/MATLink'
p263
tp264
a(S'ZombiePumpkinSlayer'
p265
S'adamtuliper'
p266
S'adamtuliper/ZombiePumpkinSlayer'
p267
tp268
a(S'launch'
p269
S'nriley'
p270
S'nriley/launch'
p271
tp272
a(S'Mathematica-Source-Highlighting'
p273
S'halirutan'
p274
S'halirutan/Mathematica-Source-Highlighting'
p275
tp276
a(S'ITP_OpenSourceAnimation'
p277
S'n1ckfg'
p278
S'n1ckfg/ITP_OpenSourceAnimation'
p279
tp280
a(S'gro'
p281
S'klavinslab'
p282
S'klavinslab/gro'
p283
tp284
a(S'MaTeX'
p285
S'szhorvat'
p286
S'szhorvat/MaTeX'
p287
tp288
a(S'QF101'
p289
S'Hexlet'
p290
S'Hexlet/QF101'
p291
tp292
a(S'quantum-utils-mathematica'
p293
S'QuantumUtils'
p294
S'QuantumUtils/quantum-utils-mathematica'
p295
tp296
a(S'ApplicationMaker'
p297
S'jmlopez-rod'
p298
S'jmlopez-rod/ApplicationMaker'
p299
tp300
a.