(lp0
(S'coco'
p1
S'pdollar'
p2
S'pdollar/coco'
p3
tp4
a(S'PRMLT'
p5
S'PRML'
p6
S'PRML/PRMLT'
p7
tp8
a(S'OpenTLD'
p9
S'zk00006'
p10
S'zk00006/OpenTLD'
p11
tp12
a(S'DeepLearnToolbox'
p13
S'rasmusbergpalm'
p14
S'rasmusbergpalm/DeepLearnToolbox'
p15
tp16
a(S'rcnn'
p17
S'rbgirshick'
p18
S'rbgirshick/rcnn'
p19
tp20
a(S'pmtk3'
p21
S'probml'
p22
S'probml/pmtk3'
p23
tp24
a(S'MemNN'
p25
S'facebook'
p26
S'facebook/MemNN'
p27
tp28
a(S'matlab2tikz'
p29
S'matlab2tikz'
p30
S'matlab2tikz/matlab2tikz'
p31
tp32
a(S'exemplarsvm'
p33
S'quantombone'
p34
S'quantombone/exemplarsvm'
p35
tp36
a(S'faster_rcnn'
p37
S'ShaoqingRen'
p38
S'ShaoqingRen/faster_rcnn'
p39
tp40
a(S'UFLDL-tutorial'
p41
S'danluu'
p42
S'danluu/UFLDL-tutorial'
p43
tp44
a(S'drake'
p45
S'RobotLocomotion'
p46
S'RobotLocomotion/drake'
p47
tp48
a(S'mexopencv'
p49
S'kyamagu'
p50
S'kyamagu/mexopencv'
p51
tp52
a(S'voc-dpm'
p53
S'rbgirshick'
p54
S'rbgirshick/voc-dpm'
p55
tp56
a(S'export_fig'
p57
S'altmany'
p58
S'altmany/export_fig'
p59
tp60
a(S'sparseFiltering'
p61
S'jngiam'
p62
S'jngiam/sparseFiltering'
p63
tp64
a(S'Stanford-Machine-Learning-Course'
p65
S'zhouxc'
p66
S'zhouxc/Stanford-Machine-Learning-Course'
p67
tp68
a(S'Coursera-Machine-Learning'
p69
S'jcgillespie'
p70
S'jcgillespie/Coursera-Machine-Learning'
p71
tp72
a(S'toolbox'
p73
S'pdollar'
p74
S'pdollar/toolbox'
p75
tp76
a(S'lrslibrary'
p77
S'andrewssobral'
p78
S'andrewssobral/lrslibrary'
p79
tp80
a(S'Octave'
p81
S'schneems'
p82
S'schneems/Octave'
p83
tp84
a(S'flandmark'
p85
S'uricamic'
p86
S'uricamic/flandmark'
p87
tp88
a(S'SPP_net'
p89
S'ShaoqingRen'
p90
S'ShaoqingRen/SPP_net'
p91
tp92
a(S'Optimal-LSH'
p93
S'yahoo'
p94
S'yahoo/Optimal-LSH'
p95
tp96
a(S'edges'
p97
S'pdollar'
p98
S'pdollar/edges'
p99
tp100
a(S'drake'
p101
S'RobotLocomotion'
p102
S'RobotLocomotion/drake'
p103
tp104
a(S'pmtk3'
p105
S'probml'
p106
S'probml/pmtk3'
p107
tp108
a(S'faster_rcnn'
p109
S'ShaoqingRen'
p110
S'ShaoqingRen/faster_rcnn'
p111
tp112
a(S'fieldtrip'
p113
S'fieldtrip'
p114
S'fieldtrip/fieldtrip'
p115
tp116
a(S'gptoolbox'
p117
S'alecjacobson'
p118
S'alecjacobson/gptoolbox'
p119
tp120
a(S'cobratoolbox'
p121
S'opencobra'
p122
S'opencobra/cobratoolbox'
p123
tp124
a(S'OpenTLD'
p125
S'zk00006'
p126
S'zk00006/OpenTLD'
p127
tp128
a(S'DeepLearnToolbox'
p129
S'rasmusbergpalm'
p130
S'rasmusbergpalm/DeepLearnToolbox'
p131
tp132
a(S'rcnn'
p133
S'rbgirshick'
p134
S'rbgirshick/rcnn'
p135
tp136
a(S'MemNN'
p137
S'facebook'
p138
S'facebook/MemNN'
p139
tp140
a(S'matlab2tikz'
p141
S'matlab2tikz'
p142
S'matlab2tikz/matlab2tikz'
p143
tp144
a(S'PRMLT'
p145
S'PRML'
p146
S'PRML/PRMLT'
p147
tp148
a(S'exemplarsvm'
p149
S'quantombone'
p150
S'quantombone/exemplarsvm'
p151
tp152
a(S'UFLDL-tutorial'
p153
S'danluu'
p154
S'danluu/UFLDL-tutorial'
p155
tp156
a(S'mexopencv'
p157
S'kyamagu'
p158
S'kyamagu/mexopencv'
p159
tp160
a(S'voc-dpm'
p161
S'rbgirshick'
p162
S'rbgirshick/voc-dpm'
p163
tp164
a(S'export_fig'
p165
S'altmany'
p166
S'altmany/export_fig'
p167
tp168
a(S'sparseFiltering'
p169
S'jngiam'
p170
S'jngiam/sparseFiltering'
p171
tp172
a(S'Stanford-Machine-Learning-Course'
p173
S'zhouxc'
p174
S'zhouxc/Stanford-Machine-Learning-Course'
p175
tp176
a(S'Coursera-Machine-Learning'
p177
S'jcgillespie'
p178
S'jcgillespie/Coursera-Machine-Learning'
p179
tp180
a(S'toolbox'
p181
S'pdollar'
p182
S'pdollar/toolbox'
p183
tp184
a(S'lrslibrary'
p185
S'andrewssobral'
p186
S'andrewssobral/lrslibrary'
p187
tp188
a(S'Octave'
p189
S'schneems'
p190
S'schneems/Octave'
p191
tp192
a(S'flandmark'
p193
S'uricamic'
p194
S'uricamic/flandmark'
p195
tp196
a(S'SPP_net'
p197
S'ShaoqingRen'
p198
S'ShaoqingRen/SPP_net'
p199
tp200
a(S'drake'
p201
S'RobotLocomotion'
p202
S'RobotLocomotion/drake'
p203
tp204
a(S'faster_rcnn'
p205
S'ShaoqingRen'
p206
S'ShaoqingRen/faster_rcnn'
p207
tp208
a(S'pmtk3'
p209
S'probml'
p210
S'probml/pmtk3'
p211
tp212
a(S'toolbox'
p213
S'pdollar'
p214
S'pdollar/toolbox'
p215
tp216
a(S'PRMLT'
p217
S'PRML'
p218
S'PRML/PRMLT'
p219
tp220
a(S'coco'
p221
S'pdollar'
p222
S'pdollar/coco'
p223
tp224
a(S'matlab2tikz'
p225
S'matlab2tikz'
p226
S'matlab2tikz/matlab2tikz'
p227
tp228
a(S'chebfun'
p229
S'chebfun'
p230
S'chebfun/chebfun'
p231
tp232
a(S'covarep'
p233
S'covarep'
p234
S'covarep/covarep'
p235
tp236
a(S'vot-toolkit'
p237
S'votchallenge'
p238
S'votchallenge/vot-toolkit'
p239
tp240
a(S'dynare'
p241
S'DynareTeam'
p242
S'DynareTeam/dynare'
p243
tp244
a(S'gptoolbox'
p245
S'alecjacobson'
p246
S'alecjacobson/gptoolbox'
p247
tp248
a(S'OpenTLD'
p249
S'zk00006'
p250
S'zk00006/OpenTLD'
p251
tp252
a(S'DeepLearnToolbox'
p253
S'rasmusbergpalm'
p254
S'rasmusbergpalm/DeepLearnToolbox'
p255
tp256
a(S'rcnn'
p257
S'rbgirshick'
p258
S'rbgirshick/rcnn'
p259
tp260
a(S'MemNN'
p261
S'facebook'
p262
S'facebook/MemNN'
p263
tp264
a(S'exemplarsvm'
p265
S'quantombone'
p266
S'quantombone/exemplarsvm'
p267
tp268
a(S'UFLDL-tutorial'
p269
S'danluu'
p270
S'danluu/UFLDL-tutorial'
p271
tp272
a(S'mexopencv'
p273
S'kyamagu'
p274
S'kyamagu/mexopencv'
p275
tp276
a(S'voc-dpm'
p277
S'rbgirshick'
p278
S'rbgirshick/voc-dpm'
p279
tp280
a(S'export_fig'
p281
S'altmany'
p282
S'altmany/export_fig'
p283
tp284
a(S'sparseFiltering'
p285
S'jngiam'
p286
S'jngiam/sparseFiltering'
p287
tp288
a(S'Stanford-Machine-Learning-Course'
p289
S'zhouxc'
p290
S'zhouxc/Stanford-Machine-Learning-Course'
p291
tp292
a(S'Coursera-Machine-Learning'
p293
S'jcgillespie'
p294
S'jcgillespie/Coursera-Machine-Learning'
p295
tp296
a(S'lrslibrary'
p297
S'andrewssobral'
p298
S'andrewssobral/lrslibrary'
p299
tp300
a.