(lp0
(S'BEAP'
p1
S'stretta'
p2
S'stretta/BEAP'
p3
tp4
a(S'OSC'
p5
S'CNMAT'
p6
S'CNMAT/OSC'
p7
tp8
a(S'ml-lib'
p9
S'cmuartfab'
p10
S'cmuartfab/ml-lib'
p11
tp12
a(S'maxtoolbox'
p13
S'natcl'
p14
S'natcl/maxtoolbox'
p15
tp16
a(S'HoaLibrary'
p17
S'CICM'
p18
S'CICM/HoaLibrary'
p19
tp20
a(S'aka.leapmotion'
p21
S'akamatsu'
p22
S'akamatsu/aka.leapmotion'
p23
tp24
a(S'max_package_downloader'
p25
S'natcl'
p26
S'natcl/max_package_downloader'
p27
tp28
a(S'CNMAT-MMJ-Depot'
p29
S'CNMAT'
p30
S'CNMAT/CNMAT-MMJ-Depot'
p31
tp32
a(S'jruby_for_max'
p33
S'adamjmurray'
p34
S'adamjmurray/jruby_for_max'
p35
tp36
a(S'AnoTag'
p37
S'mirrorboy714'
p38
S'mirrorboy714/AnoTag'
p39
tp40
a(S'HooToo-Tripmate-HT-TM02-OpenWRT'
p41
S'wingspinner'
p42
S'wingspinner/HooToo-Tripmate-HT-TM02-OpenWRT'
p43
tp44
a(S'internet-sensors'
p45
S'tkzic'
p46
S'tkzic/internet-sensors'
p47
tp48
a(S'HISSTools_Impulse_Response_Toolbox'
p49
S'HISSTools'
p50
S'HISSTools/HISSTools_Impulse_Response_Toolbox'
p51
tp52
a(S'ejies'
p53
S'emmanueljourdan'
p54
S'emmanueljourdan/ejies'
p55
tp56
a(S'Jitter'
p57
S'Syphon'
p58
S'Syphon/Jitter'
p59
tp60
a(S'IMI-Max-patches-for-Max6'
p61
S'imi'
p62
S'imi/IMI-Max-patches-for-Max6'
p63
tp64
a(S'swirly'
p65
S'rec'
p66
S'rec/swirly'
p67
tp68
a(S'karma'
p69
S'rconstanzo'
p70
S'rconstanzo/karma'
p71
tp72
a(S'illucia_dtr'
p73
S'paperkettle'
p74
S'paperkettle/illucia_dtr'
p75
tp76
a(S'CNMAT-odot'
p77
S'CNMAT'
p78
S'CNMAT/CNMAT-odot'
p79
tp80
a(S'ag.granular.suite'
p81
S'adrian-gierakowski'
p82
S'adrian-gierakowski/ag.granular.suite'
p83
tp84
a(S'LoopPI'
p85
S'szymonkaliski'
p86
S'szymonkaliski/LoopPI'
p87
tp88
a(S'arduivis'
p89
S'cskonopka'
p90
S'cskonopka/arduivis'
p91
tp92
a(S'monome_sum'
p93
S'monome'
p94
S'monome/monome_sum'
p95
tp96
a(S'JamomaMax'
p97
S'jamoma'
p98
S'jamoma/JamomaMax'
p99
tp100
a(S'BEAP'
p101
S'stretta'
p102
S'stretta/BEAP'
p103
tp104
a(S'OSC'
p105
S'CNMAT'
p106
S'CNMAT/OSC'
p107
tp108
a(S'ml-lib'
p109
S'cmuartfab'
p110
S'cmuartfab/ml-lib'
p111
tp112
a(S'maxtoolbox'
p113
S'natcl'
p114
S'natcl/maxtoolbox'
p115
tp116
a(S'HoaLibrary'
p117
S'CICM'
p118
S'CICM/HoaLibrary'
p119
tp120
a(S'aka.leapmotion'
p121
S'akamatsu'
p122
S'akamatsu/aka.leapmotion'
p123
tp124
a(S'max_package_downloader'
p125
S'natcl'
p126
S'natcl/max_package_downloader'
p127
tp128
a(S'CNMAT-MMJ-Depot'
p129
S'CNMAT'
p130
S'CNMAT/CNMAT-MMJ-Depot'
p131
tp132
a(S'jruby_for_max'
p133
S'adamjmurray'
p134
S'adamjmurray/jruby_for_max'
p135
tp136
a(S'AnoTag'
p137
S'mirrorboy714'
p138
S'mirrorboy714/AnoTag'
p139
tp140
a(S'HooToo-Tripmate-HT-TM02-OpenWRT'
p141
S'wingspinner'
p142
S'wingspinner/HooToo-Tripmate-HT-TM02-OpenWRT'
p143
tp144
a(S'internet-sensors'
p145
S'tkzic'
p146
S'tkzic/internet-sensors'
p147
tp148
a(S'HISSTools_Impulse_Response_Toolbox'
p149
S'HISSTools'
p150
S'HISSTools/HISSTools_Impulse_Response_Toolbox'
p151
tp152
a(S'ejies'
p153
S'emmanueljourdan'
p154
S'emmanueljourdan/ejies'
p155
tp156
a(S'Jitter'
p157
S'Syphon'
p158
S'Syphon/Jitter'
p159
tp160
a(S'IMI-Max-patches-for-Max6'
p161
S'imi'
p162
S'imi/IMI-Max-patches-for-Max6'
p163
tp164
a(S'swirly'
p165
S'rec'
p166
S'rec/swirly'
p167
tp168
a(S'karma'
p169
S'rconstanzo'
p170
S'rconstanzo/karma'
p171
tp172
a(S'illucia_dtr'
p173
S'paperkettle'
p174
S'paperkettle/illucia_dtr'
p175
tp176
a(S'CNMAT-odot'
p177
S'CNMAT'
p178
S'CNMAT/CNMAT-odot'
p179
tp180
a(S'ag.granular.suite'
p181
S'adrian-gierakowski'
p182
S'adrian-gierakowski/ag.granular.suite'
p183
tp184
a(S'LoopPI'
p185
S'szymonkaliski'
p186
S'szymonkaliski/LoopPI'
p187
tp188
a(S'arduivis'
p189
S'cskonopka'
p190
S'cskonopka/arduivis'
p191
tp192
a(S'monome_sum'
p193
S'monome'
p194
S'monome/monome_sum'
p195
tp196
a(S'JamomaMax'
p197
S'jamoma'
p198
S'jamoma/JamomaMax'
p199
tp200
a(S'BEAP'
p201
S'stretta'
p202
S'stretta/BEAP'
p203
tp204
a(S'OSC'
p205
S'CNMAT'
p206
S'CNMAT/OSC'
p207
tp208
a(S'ml-lib'
p209
S'cmuartfab'
p210
S'cmuartfab/ml-lib'
p211
tp212
a(S'maxtoolbox'
p213
S'natcl'
p214
S'natcl/maxtoolbox'
p215
tp216
a(S'HoaLibrary'
p217
S'CICM'
p218
S'CICM/HoaLibrary'
p219
tp220
a(S'aka.leapmotion'
p221
S'akamatsu'
p222
S'akamatsu/aka.leapmotion'
p223
tp224
a(S'max_package_downloader'
p225
S'natcl'
p226
S'natcl/max_package_downloader'
p227
tp228
a(S'CNMAT-MMJ-Depot'
p229
S'CNMAT'
p230
S'CNMAT/CNMAT-MMJ-Depot'
p231
tp232
a(S'jruby_for_max'
p233
S'adamjmurray'
p234
S'adamjmurray/jruby_for_max'
p235
tp236
a(S'AnoTag'
p237
S'mirrorboy714'
p238
S'mirrorboy714/AnoTag'
p239
tp240
a(S'HooToo-Tripmate-HT-TM02-OpenWRT'
p241
S'wingspinner'
p242
S'wingspinner/HooToo-Tripmate-HT-TM02-OpenWRT'
p243
tp244
a(S'internet-sensors'
p245
S'tkzic'
p246
S'tkzic/internet-sensors'
p247
tp248
a(S'HISSTools_Impulse_Response_Toolbox'
p249
S'HISSTools'
p250
S'HISSTools/HISSTools_Impulse_Response_Toolbox'
p251
tp252
a(S'ejies'
p253
S'emmanueljourdan'
p254
S'emmanueljourdan/ejies'
p255
tp256
a(S'Jitter'
p257
S'Syphon'
p258
S'Syphon/Jitter'
p259
tp260
a(S'IMI-Max-patches-for-Max6'
p261
S'imi'
p262
S'imi/IMI-Max-patches-for-Max6'
p263
tp264
a(S'swirly'
p265
S'rec'
p266
S'rec/swirly'
p267
tp268
a(S'karma'
p269
S'rconstanzo'
p270
S'rconstanzo/karma'
p271
tp272
a(S'illucia_dtr'
p273
S'paperkettle'
p274
S'paperkettle/illucia_dtr'
p275
tp276
a(S'CNMAT-odot'
p277
S'CNMAT'
p278
S'CNMAT/CNMAT-odot'
p279
tp280
a(S'ag.granular.suite'
p281
S'adrian-gierakowski'
p282
S'adrian-gierakowski/ag.granular.suite'
p283
tp284
a(S'LoopPI'
p285
S'szymonkaliski'
p286
S'szymonkaliski/LoopPI'
p287
tp288
a(S'arduivis'
p289
S'cskonopka'
p290
S'cskonopka/arduivis'
p291
tp292
a(S'monome_sum'
p293
S'monome'
p294
S'monome/monome_sum'
p295
tp296
a(S'JamomaMax'
p297
S'jamoma'
p298
S'jamoma/JamomaMax'
p299
tp300
a.