(lp0
(S'mercury'
p1
S'Mercury-Language'
p2
S'Mercury-Language/mercury'
p3
tp4
a(S'iOS-CAAnimation-group-demo'
p5
S'DuncanMC'
p6
S'DuncanMC/iOS-CAAnimation-group-demo'
p7
tp8
a(S'XNGMarkdownParser'
p9
S'xing'
p10
S'xing/XNGMarkdownParser'
p11
tp12
a(S'bower'
p13
S'wangp'
p14
S'wangp/bower'
p15
tp16
a(S'iOS-Web-View-Multiwindow'
p17
S'hessler'
p18
S'hessler/iOS-Web-View-Multiwindow'
p19
tp20
a(S'OCAEditableCollectionViewFlowLayout'
p21
S'kgomara'
p22
S'kgomara/OCAEditableCollectionViewFlowLayout'
p23
tp24
a(S'JKPTree'
p25
S'JanX2'
p26
S'JanX2/JKPTree'
p27
tp28
a(S'OculusSphericalVideoViewer'
p29
S'obviousjim'
p30
S'obviousjim/OculusSphericalVideoViewer'
p31
tp32
a(S'ofxThreadedVideoPlayer'
p33
S'armadillu'
p34
S'armadillu/ofxThreadedVideoPlayer'
p35
tp36
a(S'Mon_PFE_Resources'
p37
S'aitmlouk'
p38
S'aitmlouk/Mon_PFE_Resources'
p39
tp40
a(S'Apollo-lander'
p41
S'C4Cypher'
p42
S'C4Cypher/Apollo-lander'
p43
tp44
a(S'mercury-unicode'
p45
S'sebgod'
p46
S'sebgod/mercury-unicode'
p47
tp48
a(S'mfcgi'
p49
S'PaulBone'
p50
S'PaulBone/mfcgi'
p51
tp52
a(S'gsldap'
p53
S'gnustep'
p54
S'gnustep/gsldap'
p55
tp56
a(S'mercury-misc'
p57
S'juliensf'
p58
S'juliensf/mercury-misc'
p59
tp60
a(S'HyperInfoCtrl'
p61
S'HyperInfo'
p62
S'HyperInfo/HyperInfoCtrl'
p63
tp64
a(S'Earhart'
p65
S'tejonbiker'
p66
S'tejonbiker/Earhart'
p67
tp68
a(S'drafts'
p69
S'martinthomson'
p70
S'martinthomson/drafts'
p71
tp72
a(S'plasma'
p73
S'PaulBone'
p74
S'PaulBone/plasma'
p75
tp76
a(S'brass-plates'
p77
S'mndrix'
p78
S'mndrix/brass-plates'
p79
tp80
a(S'mercury-csv'
p81
S'juliensf'
p82
S'juliensf/mercury-csv'
p83
tp84
a(S'mercury'
p85
S'Wysaat'
p86
S'Wysaat/mercury'
p87
tp88
a(S'mclibs'
p89
S'PaulBone'
p90
S'PaulBone/mclibs'
p91
tp92
a(S'jabr-power-flow'
p93
S'sharnett'
p94
S'sharnett/jabr-power-flow'
p95
tp96
a(S'cadmium'
p97
S'Cadmium-Language'
p98
S'Cadmium-Language/cadmium'
p99
tp100
a(S'mercury'
p101
S'Mercury-Language'
p102
S'Mercury-Language/mercury'
p103
tp104
a(S'iOS-CAAnimation-group-demo'
p105
S'DuncanMC'
p106
S'DuncanMC/iOS-CAAnimation-group-demo'
p107
tp108
a(S'XNGMarkdownParser'
p109
S'xing'
p110
S'xing/XNGMarkdownParser'
p111
tp112
a(S'bower'
p113
S'wangp'
p114
S'wangp/bower'
p115
tp116
a(S'iOS-Web-View-Multiwindow'
p117
S'hessler'
p118
S'hessler/iOS-Web-View-Multiwindow'
p119
tp120
a(S'OCAEditableCollectionViewFlowLayout'
p121
S'kgomara'
p122
S'kgomara/OCAEditableCollectionViewFlowLayout'
p123
tp124
a(S'JKPTree'
p125
S'JanX2'
p126
S'JanX2/JKPTree'
p127
tp128
a(S'OculusSphericalVideoViewer'
p129
S'obviousjim'
p130
S'obviousjim/OculusSphericalVideoViewer'
p131
tp132
a(S'ofxThreadedVideoPlayer'
p133
S'armadillu'
p134
S'armadillu/ofxThreadedVideoPlayer'
p135
tp136
a(S'Mon_PFE_Resources'
p137
S'aitmlouk'
p138
S'aitmlouk/Mon_PFE_Resources'
p139
tp140
a(S'Apollo-lander'
p141
S'C4Cypher'
p142
S'C4Cypher/Apollo-lander'
p143
tp144
a(S'mercury-unicode'
p145
S'sebgod'
p146
S'sebgod/mercury-unicode'
p147
tp148
a(S'mfcgi'
p149
S'PaulBone'
p150
S'PaulBone/mfcgi'
p151
tp152
a(S'gsldap'
p153
S'gnustep'
p154
S'gnustep/gsldap'
p155
tp156
a(S'mercury-misc'
p157
S'juliensf'
p158
S'juliensf/mercury-misc'
p159
tp160
a(S'HyperInfoCtrl'
p161
S'HyperInfo'
p162
S'HyperInfo/HyperInfoCtrl'
p163
tp164
a(S'Earhart'
p165
S'tejonbiker'
p166
S'tejonbiker/Earhart'
p167
tp168
a(S'drafts'
p169
S'martinthomson'
p170
S'martinthomson/drafts'
p171
tp172
a(S'plasma'
p173
S'PaulBone'
p174
S'PaulBone/plasma'
p175
tp176
a(S'brass-plates'
p177
S'mndrix'
p178
S'mndrix/brass-plates'
p179
tp180
a(S'mercury-csv'
p181
S'juliensf'
p182
S'juliensf/mercury-csv'
p183
tp184
a(S'mercury'
p185
S'Wysaat'
p186
S'Wysaat/mercury'
p187
tp188
a(S'mclibs'
p189
S'PaulBone'
p190
S'PaulBone/mclibs'
p191
tp192
a(S'jabr-power-flow'
p193
S'sharnett'
p194
S'sharnett/jabr-power-flow'
p195
tp196
a(S'cadmium'
p197
S'Cadmium-Language'
p198
S'Cadmium-Language/cadmium'
p199
tp200
a(S'mercury'
p201
S'Mercury-Language'
p202
S'Mercury-Language/mercury'
p203
tp204
a(S'iOS-CAAnimation-group-demo'
p205
S'DuncanMC'
p206
S'DuncanMC/iOS-CAAnimation-group-demo'
p207
tp208
a(S'XNGMarkdownParser'
p209
S'xing'
p210
S'xing/XNGMarkdownParser'
p211
tp212
a(S'bower'
p213
S'wangp'
p214
S'wangp/bower'
p215
tp216
a(S'iOS-Web-View-Multiwindow'
p217
S'hessler'
p218
S'hessler/iOS-Web-View-Multiwindow'
p219
tp220
a(S'OCAEditableCollectionViewFlowLayout'
p221
S'kgomara'
p222
S'kgomara/OCAEditableCollectionViewFlowLayout'
p223
tp224
a(S'JKPTree'
p225
S'JanX2'
p226
S'JanX2/JKPTree'
p227
tp228
a(S'OculusSphericalVideoViewer'
p229
S'obviousjim'
p230
S'obviousjim/OculusSphericalVideoViewer'
p231
tp232
a(S'ofxThreadedVideoPlayer'
p233
S'armadillu'
p234
S'armadillu/ofxThreadedVideoPlayer'
p235
tp236
a(S'Mon_PFE_Resources'
p237
S'aitmlouk'
p238
S'aitmlouk/Mon_PFE_Resources'
p239
tp240
a(S'mercury-unicode'
p241
S'sebgod'
p242
S'sebgod/mercury-unicode'
p243
tp244
a(S'Apollo-lander'
p245
S'C4Cypher'
p246
S'C4Cypher/Apollo-lander'
p247
tp248
a(S'mfcgi'
p249
S'PaulBone'
p250
S'PaulBone/mfcgi'
p251
tp252
a(S'Earhart'
p253
S'tejonbiker'
p254
S'tejonbiker/Earhart'
p255
tp256
a(S'mercury-misc'
p257
S'juliensf'
p258
S'juliensf/mercury-misc'
p259
tp260
a(S'HyperInfoCtrl'
p261
S'HyperInfo'
p262
S'HyperInfo/HyperInfoCtrl'
p263
tp264
a(S'gsldap'
p265
S'gnustep'
p266
S'gnustep/gsldap'
p267
tp268
a(S'plasma'
p269
S'PaulBone'
p270
S'PaulBone/plasma'
p271
tp272
a(S'drafts'
p273
S'martinthomson'
p274
S'martinthomson/drafts'
p275
tp276
a(S'brass-plates'
p277
S'mndrix'
p278
S'mndrix/brass-plates'
p279
tp280
a(S'mercury-csv'
p281
S'juliensf'
p282
S'juliensf/mercury-csv'
p283
tp284
a(S'mercury'
p285
S'Wysaat'
p286
S'Wysaat/mercury'
p287
tp288
a(S'cadmium'
p289
S'Cadmium-Language'
p290
S'Cadmium-Language/cadmium'
p291
tp292
a(S'mclibs'
p293
S'PaulBone'
p294
S'PaulBone/mclibs'
p295
tp296
a(S'jabr-power-flow'
p297
S'sharnett'
p298
S'sharnett/jabr-power-flow'
p299
tp300
a.