(lp0
(S'mirah'
p1
S'mirah'
p2
S'mirah/mirah'
p3
tp4
a(S'dubious'
p5
S'mirah'
p6
S'mirah/dubious'
p7
tp8
a(S'Garrett'
p9
S'technomancy'
p10
S'technomancy/Garrett'
p11
tp12
a(S'ohai-android'
p13
S'technomancy'
p14
S'technomancy/ohai-android'
p15
tp16
a(S'upordown'
p17
S'zapnap'
p18
S'zapnap/upordown'
p19
tp20
a(S'mirah_book'
p21
S'rubygeeks'
p22
S'rubygeeks/mirah_book'
p23
tp24
a(S'msl'
p25
S'rubygeeks'
p26
S'rubygeeks/msl'
p27
tp28
a(S'mirah.hpi'
p29
S'calavera'
p30
S'calavera/mirah.hpi'
p31
tp32
a(S'mmeta'
p33
S'mirah'
p34
S'mirah/mmeta'
p35
tp36
a(S'vuvuzela-mirah-android'
p37
S'bastos'
p38
S'bastos/vuvuzela-mirah-android'
p39
tp40
a(S'mirah-guide'
p41
S'abscondment'
p42
S'abscondment/mirah-guide'
p43
tp44
a(S'shatner'
p45
S'baroquebobcat'
p46
S'baroquebobcat/shatner'
p47
tp48
a(S'mirah_model'
p49
S'mirah'
p50
S'mirah/mirah_model'
p51
tp52
a(S'hello-android-sudoku'
p53
S'anthonymoralez'
p54
S'anthonymoralez/hello-android-sudoku'
p55
tp56
a(S'skel-mirah-android'
p57
S'wats'
p58
S'wats/skel-mirah-android'
p59
tp60
a(S'mirahpaint'
p61
S'ess'
p62
S'ess/mirahpaint'
p63
tp64
a(S'androiddominion'
p65
S'shepheb'
p66
S'shepheb/androiddominion'
p67
tp68
a(S'TV-Director'
p69
S'wccrawford'
p70
S'wccrawford/TV-Director'
p71
tp72
a(S'mirah-hello'
p73
S'simplyianm'
p74
S'simplyianm/mirah-hello'
p75
tp76
a(S'Hello-Mirah--Android'
p77
S'larroy'
p78
S'larroy/Hello-Mirah--Android'
p79
tp80
a(S'BePresent'
p81
S'abscondment'
p82
S'abscondment/BePresent'
p83
tp84
a(S'hello-android-suggest'
p85
S'anthonymoralez'
p86
S'anthonymoralez/hello-android-suggest'
p87
tp88
a(S'kid'
p89
S'hammerdr'
p90
S'hammerdr/kid'
p91
tp92
a(S'bayes-android'
p93
S'txus'
p94
S'txus/bayes-android'
p95
tp96
a(S'DubiousHomepage'
p97
S'stmichaelis'
p98
S'stmichaelis/DubiousHomepage'
p99
tp100
a(S'mirah'
p101
S'mirah'
p102
S'mirah/mirah'
p103
tp104
a(S'dubious'
p105
S'mirah'
p106
S'mirah/dubious'
p107
tp108
a(S'Garrett'
p109
S'technomancy'
p110
S'technomancy/Garrett'
p111
tp112
a(S'ohai-android'
p113
S'technomancy'
p114
S'technomancy/ohai-android'
p115
tp116
a(S'upordown'
p117
S'zapnap'
p118
S'zapnap/upordown'
p119
tp120
a(S'mirah_book'
p121
S'rubygeeks'
p122
S'rubygeeks/mirah_book'
p123
tp124
a(S'msl'
p125
S'rubygeeks'
p126
S'rubygeeks/msl'
p127
tp128
a(S'mirah.hpi'
p129
S'calavera'
p130
S'calavera/mirah.hpi'
p131
tp132
a(S'mmeta'
p133
S'mirah'
p134
S'mirah/mmeta'
p135
tp136
a(S'vuvuzela-mirah-android'
p137
S'bastos'
p138
S'bastos/vuvuzela-mirah-android'
p139
tp140
a(S'mirah-guide'
p141
S'abscondment'
p142
S'abscondment/mirah-guide'
p143
tp144
a(S'shatner'
p145
S'baroquebobcat'
p146
S'baroquebobcat/shatner'
p147
tp148
a(S'mirah_model'
p149
S'mirah'
p150
S'mirah/mirah_model'
p151
tp152
a(S'hello-android-sudoku'
p153
S'anthonymoralez'
p154
S'anthonymoralez/hello-android-sudoku'
p155
tp156
a(S'skel-mirah-android'
p157
S'wats'
p158
S'wats/skel-mirah-android'
p159
tp160
a(S'mirahpaint'
p161
S'ess'
p162
S'ess/mirahpaint'
p163
tp164
a(S'androiddominion'
p165
S'shepheb'
p166
S'shepheb/androiddominion'
p167
tp168
a(S'TV-Director'
p169
S'wccrawford'
p170
S'wccrawford/TV-Director'
p171
tp172
a(S'mirah-hello'
p173
S'simplyianm'
p174
S'simplyianm/mirah-hello'
p175
tp176
a(S'Hello-Mirah--Android'
p177
S'larroy'
p178
S'larroy/Hello-Mirah--Android'
p179
tp180
a(S'BePresent'
p181
S'abscondment'
p182
S'abscondment/BePresent'
p183
tp184
a(S'hello-android-suggest'
p185
S'anthonymoralez'
p186
S'anthonymoralez/hello-android-suggest'
p187
tp188
a(S'kid'
p189
S'hammerdr'
p190
S'hammerdr/kid'
p191
tp192
a(S'bayes-android'
p193
S'txus'
p194
S'txus/bayes-android'
p195
tp196
a(S'DubiousHomepage'
p197
S'stmichaelis'
p198
S'stmichaelis/DubiousHomepage'
p199
tp200
a(S'mirah'
p201
S'mirah'
p202
S'mirah/mirah'
p203
tp204
a(S'dubious'
p205
S'mirah'
p206
S'mirah/dubious'
p207
tp208
a(S'Garrett'
p209
S'technomancy'
p210
S'technomancy/Garrett'
p211
tp212
a(S'ohai-android'
p213
S'technomancy'
p214
S'technomancy/ohai-android'
p215
tp216
a(S'upordown'
p217
S'zapnap'
p218
S'zapnap/upordown'
p219
tp220
a(S'mirah_book'
p221
S'rubygeeks'
p222
S'rubygeeks/mirah_book'
p223
tp224
a(S'msl'
p225
S'rubygeeks'
p226
S'rubygeeks/msl'
p227
tp228
a(S'mirah.hpi'
p229
S'calavera'
p230
S'calavera/mirah.hpi'
p231
tp232
a(S'mmeta'
p233
S'mirah'
p234
S'mirah/mmeta'
p235
tp236
a(S'vuvuzela-mirah-android'
p237
S'bastos'
p238
S'bastos/vuvuzela-mirah-android'
p239
tp240
a(S'mirah-guide'
p241
S'abscondment'
p242
S'abscondment/mirah-guide'
p243
tp244
a(S'shatner'
p245
S'baroquebobcat'
p246
S'baroquebobcat/shatner'
p247
tp248
a(S'mirah_model'
p249
S'mirah'
p250
S'mirah/mirah_model'
p251
tp252
a(S'hello-android-sudoku'
p253
S'anthonymoralez'
p254
S'anthonymoralez/hello-android-sudoku'
p255
tp256
a(S'skel-mirah-android'
p257
S'wats'
p258
S'wats/skel-mirah-android'
p259
tp260
a(S'mirahpaint'
p261
S'ess'
p262
S'ess/mirahpaint'
p263
tp264
a(S'androiddominion'
p265
S'shepheb'
p266
S'shepheb/androiddominion'
p267
tp268
a(S'TV-Director'
p269
S'wccrawford'
p270
S'wccrawford/TV-Director'
p271
tp272
a(S'mirah-hello'
p273
S'simplyianm'
p274
S'simplyianm/mirah-hello'
p275
tp276
a(S'Hello-Mirah--Android'
p277
S'larroy'
p278
S'larroy/Hello-Mirah--Android'
p279
tp280
a(S'BePresent'
p281
S'abscondment'
p282
S'abscondment/BePresent'
p283
tp284
a(S'hello-android-suggest'
p285
S'anthonymoralez'
p286
S'anthonymoralez/hello-android-suggest'
p287
tp288
a(S'kid'
p289
S'hammerdr'
p290
S'hammerdr/kid'
p291
tp292
a(S'bayes-android'
p293
S'txus'
p294
S'txus/bayes-android'
p295
tp296
a(S'DubiousHomepage'
p297
S'stmichaelis'
p298
S'stmichaelis/DubiousHomepage'
p299
tp300
a.