(lp0
(S'effectivescala'
p1
S'twitter'
p2
S'twitter/effectivescala'
p3
tp4
a(S'Modelica'
p5
S'modelica'
p6
S'modelica/Modelica'
p7
tp8
a(S'modelica-buildings'
p9
S'lbl-srg'
p10
S'lbl-srg/modelica-buildings'
p11
tp12
a(S'AixLib'
p13
S'RWTH-EBC'
p14
S'RWTH-EBC/AixLib'
p15
tp16
a(S'Thermocycle-library'
p17
S'thermocycle'
p18
S'thermocycle/Thermocycle-library'
p19
tp20
a(S'IDEAS'
p21
S'open-ideas'
p22
S'open-ideas/IDEAS'
p23
tp24
a(S'OMCompiler'
p25
S'OpenModelica'
p26
S'OpenModelica/OMCompiler'
p27
tp28
a(S'Physiolibrary'
p29
S'MarekMatejak'
p30
S'MarekMatejak/Physiolibrary'
p31
tp32
a(S'metamorphosys-desktop'
p33
S'metamorph-inc'
p34
S'metamorph-inc/metamorphosys-desktop'
p35
tp36
a(S'modelica-annex60'
p37
S'iea-annex60'
p38
S'iea-annex60/modelica-annex60'
p39
tp40
a(S'PowerSystems'
p41
S'modelica'
p42
S'modelica/PowerSystems'
p43
tp44
a(S'HelmholtzMedia'
p45
S'thorade'
p46
S'thorade/HelmholtzMedia'
p47
tp48
a(S'Integrated-Tool-Suite'
p49
S'jonathanshum'
p50
S'jonathanshum/Integrated-Tool-Suite'
p51
tp52
a(S'OpenHydraulics'
p53
S'cparedis'
p54
S'cparedis/OpenHydraulics'
p55
tp56
a(S'Modelica_DeviceDrivers'
p57
S'modelica'
p58
S'modelica/Modelica_DeviceDrivers'
p59
tp60
a(S'PlanarMechanics'
p61
S'dzimmer'
p62
S'dzimmer/PlanarMechanics'
p63
tp64
a(S'compliance'
p65
S'modelica-compliance'
p66
S'modelica-compliance/compliance'
p67
tp68
a(S'Modelica-MVEM'
p69
S'droberg'
p70
S'droberg/Modelica-MVEM'
p71
tp72
a(S'Chemical'
p73
S'MarekMatejak'
p74
S'MarekMatejak/Chemical'
p75
tp76
a(S'Noise'
p77
S'DLR-SR'
p78
S'DLR-SR/Noise'
p79
tp80
a(S'ScalableTestSuite'
p81
S'casella'
p82
S'casella/ScalableTestSuite'
p83
tp84
a(S'RPI_CASE_ICS_Modelica'
p85
S'RPI-CASE'
p86
S'RPI-CASE/RPI_CASE_ICS_Modelica'
p87
tp88
a(S'Physiolibrary.models'
p89
S'TomasKulhanek'
p90
S'TomasKulhanek/Physiolibrary.models'
p91
tp92
a(S'Modelica_EnergyStorages'
p93
S'modelica'
p94
S'modelica/Modelica_EnergyStorages'
p95
tp96
a(S'Spot'
p97
S'modelica-3rdparty'
p98
S'modelica-3rdparty/Spot'
p99
tp100
a(S'effectivescala'
p101
S'twitter'
p102
S'twitter/effectivescala'
p103
tp104
a(S'Modelica'
p105
S'modelica'
p106
S'modelica/Modelica'
p107
tp108
a(S'modelica-buildings'
p109
S'lbl-srg'
p110
S'lbl-srg/modelica-buildings'
p111
tp112
a(S'AixLib'
p113
S'RWTH-EBC'
p114
S'RWTH-EBC/AixLib'
p115
tp116
a(S'Thermocycle-library'
p117
S'thermocycle'
p118
S'thermocycle/Thermocycle-library'
p119
tp120
a(S'IDEAS'
p121
S'open-ideas'
p122
S'open-ideas/IDEAS'
p123
tp124
a(S'OMCompiler'
p125
S'OpenModelica'
p126
S'OpenModelica/OMCompiler'
p127
tp128
a(S'Physiolibrary'
p129
S'MarekMatejak'
p130
S'MarekMatejak/Physiolibrary'
p131
tp132
a(S'metamorphosys-desktop'
p133
S'metamorph-inc'
p134
S'metamorph-inc/metamorphosys-desktop'
p135
tp136
a(S'modelica-annex60'
p137
S'iea-annex60'
p138
S'iea-annex60/modelica-annex60'
p139
tp140
a(S'PowerSystems'
p141
S'modelica'
p142
S'modelica/PowerSystems'
p143
tp144
a(S'HelmholtzMedia'
p145
S'thorade'
p146
S'thorade/HelmholtzMedia'
p147
tp148
a(S'Integrated-Tool-Suite'
p149
S'jonathanshum'
p150
S'jonathanshum/Integrated-Tool-Suite'
p151
tp152
a(S'OpenHydraulics'
p153
S'cparedis'
p154
S'cparedis/OpenHydraulics'
p155
tp156
a(S'Modelica_DeviceDrivers'
p157
S'modelica'
p158
S'modelica/Modelica_DeviceDrivers'
p159
tp160
a(S'PlanarMechanics'
p161
S'dzimmer'
p162
S'dzimmer/PlanarMechanics'
p163
tp164
a(S'compliance'
p165
S'modelica-compliance'
p166
S'modelica-compliance/compliance'
p167
tp168
a(S'Modelica-MVEM'
p169
S'droberg'
p170
S'droberg/Modelica-MVEM'
p171
tp172
a(S'Chemical'
p173
S'MarekMatejak'
p174
S'MarekMatejak/Chemical'
p175
tp176
a(S'Noise'
p177
S'DLR-SR'
p178
S'DLR-SR/Noise'
p179
tp180
a(S'ScalableTestSuite'
p181
S'casella'
p182
S'casella/ScalableTestSuite'
p183
tp184
a(S'RPI_CASE_ICS_Modelica'
p185
S'RPI-CASE'
p186
S'RPI-CASE/RPI_CASE_ICS_Modelica'
p187
tp188
a(S'Physiolibrary.models'
p189
S'TomasKulhanek'
p190
S'TomasKulhanek/Physiolibrary.models'
p191
tp192
a(S'Modelica_EnergyStorages'
p193
S'modelica'
p194
S'modelica/Modelica_EnergyStorages'
p195
tp196
a(S'Spot'
p197
S'modelica-3rdparty'
p198
S'modelica-3rdparty/Spot'
p199
tp200
a(S'effectivescala'
p201
S'twitter'
p202
S'twitter/effectivescala'
p203
tp204
a(S'Modelica'
p205
S'modelica'
p206
S'modelica/Modelica'
p207
tp208
a(S'modelica-buildings'
p209
S'lbl-srg'
p210
S'lbl-srg/modelica-buildings'
p211
tp212
a(S'AixLib'
p213
S'RWTH-EBC'
p214
S'RWTH-EBC/AixLib'
p215
tp216
a(S'Thermocycle-library'
p217
S'thermocycle'
p218
S'thermocycle/Thermocycle-library'
p219
tp220
a(S'IDEAS'
p221
S'open-ideas'
p222
S'open-ideas/IDEAS'
p223
tp224
a(S'OMCompiler'
p225
S'OpenModelica'
p226
S'OpenModelica/OMCompiler'
p227
tp228
a(S'Physiolibrary'
p229
S'MarekMatejak'
p230
S'MarekMatejak/Physiolibrary'
p231
tp232
a(S'metamorphosys-desktop'
p233
S'metamorph-inc'
p234
S'metamorph-inc/metamorphosys-desktop'
p235
tp236
a(S'modelica-annex60'
p237
S'iea-annex60'
p238
S'iea-annex60/modelica-annex60'
p239
tp240
a(S'PowerSystems'
p241
S'modelica'
p242
S'modelica/PowerSystems'
p243
tp244
a(S'HelmholtzMedia'
p245
S'thorade'
p246
S'thorade/HelmholtzMedia'
p247
tp248
a(S'Integrated-Tool-Suite'
p249
S'jonathanshum'
p250
S'jonathanshum/Integrated-Tool-Suite'
p251
tp252
a(S'OpenHydraulics'
p253
S'cparedis'
p254
S'cparedis/OpenHydraulics'
p255
tp256
a(S'Modelica_DeviceDrivers'
p257
S'modelica'
p258
S'modelica/Modelica_DeviceDrivers'
p259
tp260
a(S'PlanarMechanics'
p261
S'dzimmer'
p262
S'dzimmer/PlanarMechanics'
p263
tp264
a(S'compliance'
p265
S'modelica-compliance'
p266
S'modelica-compliance/compliance'
p267
tp268
a(S'Modelica-MVEM'
p269
S'droberg'
p270
S'droberg/Modelica-MVEM'
p271
tp272
a(S'Chemical'
p273
S'MarekMatejak'
p274
S'MarekMatejak/Chemical'
p275
tp276
a(S'Noise'
p277
S'DLR-SR'
p278
S'DLR-SR/Noise'
p279
tp280
a(S'ScalableTestSuite'
p281
S'casella'
p282
S'casella/ScalableTestSuite'
p283
tp284
a(S'RPI_CASE_ICS_Modelica'
p285
S'RPI-CASE'
p286
S'RPI-CASE/RPI_CASE_ICS_Modelica'
p287
tp288
a(S'Physiolibrary.models'
p289
S'TomasKulhanek'
p290
S'TomasKulhanek/Physiolibrary.models'
p291
tp292
a(S'Modelica_EnergyStorages'
p293
S'modelica'
p294
S'modelica/Modelica_EnergyStorages'
p295
tp296
a(S'Spot'
p297
S'modelica-3rdparty'
p298
S'modelica-3rdparty/Spot'
p299
tp300
a.