(lp0
(S'Escape'
p1
S'Nils-TUD'
p2
S'Nils-TUD/Escape'
p3
tp4
a(S'Escape'
p5
S'jarn0x'
p6
S'jarn0x/Escape'
p7
tp8
a(S'Escape'
p9
S'Nils-TUD'
p10
S'Nils-TUD/Escape'
p11
tp12
a(S'Escape'
p13
S'jarn0x'
p14
S'jarn0x/Escape'
p15
tp16
a(S'Escape'
p17
S'Nils-TUD'
p18
S'Nils-TUD/Escape'
p19
tp20
a(S'Escape'
p21
S'jarn0x'
p22
S'jarn0x/Escape'
p23
tp24
a.