(lp0
(S'ProjectOberon2013'
p1
S'Spirit-of-Oberon'
p2
S'Spirit-of-Oberon/ProjectOberon2013'
p3
tp4
a(S'AyaCompiler'
p5
S'congdm'
p6
S'congdm/AyaCompiler'
p7
tp8
a(S'voc'
p9
S'norayr'
p10
S'norayr/voc'
p11
tp12
a(S'ofront'
p13
S'jtempl'
p14
S'jtempl/ofront'
p15
tp16
a(S'OfrontPlus'
p17
S'Oleg-N-Cher'
p18
S'Oleg-N-Cher/OfrontPlus'
p19
tp20
a(S'vpicl'
p21
S'norayr'
p22
S'norayr/vpicl'
p23
tp24
a(S'foc'
p25
S'norayr'
p26
S'norayr/foc'
p27
tp28
a(S'Oberon-with-continuous-fractional-line-scroll'
p29
S'andreaspirklbauer'
p30
S'andreaspirklbauer/Oberon-with-continuous-fractional-line-scroll'
p31
tp32
a(S'ProjectOberon2013'
p33
S'8l'
p34
S'8l/ProjectOberon2013'
p35
tp36
a(S'ProjectOberon2013'
p37
S'qfhuang'
p38
S'qfhuang/ProjectOberon2013'
p39
tp40
a(S'voc'
p41
S'8l'
p42
S'8l/voc'
p43
tp44
a(S'ofront'
p45
S'Google-Code-Backup'
p46
S'Google-Code-Backup/ofront'
p47
tp48
a(S'fm2g'
p49
S'BackupTheBerlios'
p50
S'BackupTheBerlios/fm2g'
p51
tp52
a(S'ProjectOberon'
p53
S'ericscharff'
p54
S'ericscharff/ProjectOberon'
p55
tp56
a(S'hyaline'
p57
S'norayr'
p58
S'norayr/hyaline'
p59
tp60
a(S'RA8875_Oberon'
p61
S'billbuzzell'
p62
S'billbuzzell/RA8875_Oberon'
p63
tp64
a(S'rrro'
p65
S'norayr'
p66
S'norayr/rrro'
p67
tp68
a(S'opencloberon'
p69
S'fnec'
p70
S'fnec/opencloberon'
p71
tp72
a(S'voc'
p73
S'armenbadal'
p74
S'armenbadal/voc'
p75
tp76
a(S'APP-CALCULATOR-KeyCalc'
p77
S'OS2World'
p78
S'OS2World/APP-CALCULATOR-KeyCalc'
p79
tp80
a(S'UTIL-CONFIGEDITORS-INIServe'
p81
S'OS2World'
p82
S'OS2World/UTIL-CONFIGEDITORS-INIServe'
p83
tp84
a(S'ofront'
p85
S'norayr'
p86
S'norayr/ofront'
p87
tp88
a(S'ProjectOberon2013'
p89
S'Spirit-of-Oberon'
p90
S'Spirit-of-Oberon/ProjectOberon2013'
p91
tp92
a(S'AyaCompiler'
p93
S'congdm'
p94
S'congdm/AyaCompiler'
p95
tp96
a(S'voc'
p97
S'norayr'
p98
S'norayr/voc'
p99
tp100
a(S'ofront'
p101
S'jtempl'
p102
S'jtempl/ofront'
p103
tp104
a(S'OfrontPlus'
p105
S'Oleg-N-Cher'
p106
S'Oleg-N-Cher/OfrontPlus'
p107
tp108
a(S'vpicl'
p109
S'norayr'
p110
S'norayr/vpicl'
p111
tp112
a(S'foc'
p113
S'norayr'
p114
S'norayr/foc'
p115
tp116
a(S'Oberon-with-continuous-fractional-line-scroll'
p117
S'andreaspirklbauer'
p118
S'andreaspirklbauer/Oberon-with-continuous-fractional-line-scroll'
p119
tp120
a(S'ProjectOberon2013'
p121
S'8l'
p122
S'8l/ProjectOberon2013'
p123
tp124
a(S'ProjectOberon2013'
p125
S'qfhuang'
p126
S'qfhuang/ProjectOberon2013'
p127
tp128
a(S'voc'
p129
S'8l'
p130
S'8l/voc'
p131
tp132
a(S'ofront'
p133
S'Google-Code-Backup'
p134
S'Google-Code-Backup/ofront'
p135
tp136
a(S'fm2g'
p137
S'BackupTheBerlios'
p138
S'BackupTheBerlios/fm2g'
p139
tp140
a(S'ProjectOberon'
p141
S'ericscharff'
p142
S'ericscharff/ProjectOberon'
p143
tp144
a(S'hyaline'
p145
S'norayr'
p146
S'norayr/hyaline'
p147
tp148
a(S'RA8875_Oberon'
p149
S'billbuzzell'
p150
S'billbuzzell/RA8875_Oberon'
p151
tp152
a(S'rrro'
p153
S'norayr'
p154
S'norayr/rrro'
p155
tp156
a(S'opencloberon'
p157
S'fnec'
p158
S'fnec/opencloberon'
p159
tp160
a(S'voc'
p161
S'armenbadal'
p162
S'armenbadal/voc'
p163
tp164
a(S'APP-CALCULATOR-KeyCalc'
p165
S'OS2World'
p166
S'OS2World/APP-CALCULATOR-KeyCalc'
p167
tp168
a(S'UTIL-CONFIGEDITORS-INIServe'
p169
S'OS2World'
p170
S'OS2World/UTIL-CONFIGEDITORS-INIServe'
p171
tp172
a(S'ofront'
p173
S'norayr'
p174
S'norayr/ofront'
p175
tp176
a(S'ProjectOberon2013'
p177
S'Spirit-of-Oberon'
p178
S'Spirit-of-Oberon/ProjectOberon2013'
p179
tp180
a(S'AyaCompiler'
p181
S'congdm'
p182
S'congdm/AyaCompiler'
p183
tp184
a(S'voc'
p185
S'norayr'
p186
S'norayr/voc'
p187
tp188
a(S'ofront'
p189
S'jtempl'
p190
S'jtempl/ofront'
p191
tp192
a(S'OfrontPlus'
p193
S'Oleg-N-Cher'
p194
S'Oleg-N-Cher/OfrontPlus'
p195
tp196
a(S'vpicl'
p197
S'norayr'
p198
S'norayr/vpicl'
p199
tp200
a(S'foc'
p201
S'norayr'
p202
S'norayr/foc'
p203
tp204
a(S'Oberon-with-continuous-fractional-line-scroll'
p205
S'andreaspirklbauer'
p206
S'andreaspirklbauer/Oberon-with-continuous-fractional-line-scroll'
p207
tp208
a(S'ProjectOberon2013'
p209
S'8l'
p210
S'8l/ProjectOberon2013'
p211
tp212
a(S'ProjectOberon2013'
p213
S'qfhuang'
p214
S'qfhuang/ProjectOberon2013'
p215
tp216
a(S'voc'
p217
S'8l'
p218
S'8l/voc'
p219
tp220
a(S'ofront'
p221
S'Google-Code-Backup'
p222
S'Google-Code-Backup/ofront'
p223
tp224
a(S'fm2g'
p225
S'BackupTheBerlios'
p226
S'BackupTheBerlios/fm2g'
p227
tp228
a(S'ProjectOberon'
p229
S'ericscharff'
p230
S'ericscharff/ProjectOberon'
p231
tp232
a(S'hyaline'
p233
S'norayr'
p234
S'norayr/hyaline'
p235
tp236
a(S'RA8875_Oberon'
p237
S'billbuzzell'
p238
S'billbuzzell/RA8875_Oberon'
p239
tp240
a(S'rrro'
p241
S'norayr'
p242
S'norayr/rrro'
p243
tp244
a(S'opencloberon'
p245
S'fnec'
p246
S'fnec/opencloberon'
p247
tp248
a(S'voc'
p249
S'armenbadal'
p250
S'armenbadal/voc'
p251
tp252
a(S'APP-CALCULATOR-KeyCalc'
p253
S'OS2World'
p254
S'OS2World/APP-CALCULATOR-KeyCalc'
p255
tp256
a(S'UTIL-CONFIGEDITORS-INIServe'
p257
S'OS2World'
p258
S'OS2World/UTIL-CONFIGEDITORS-INIServe'
p259
tp260
a(S'ofront'
p261
S'norayr'
p262
S'norayr/ofront'
p263
tp264
a.