(lp0
(S'flixel-monkey'
p1
S'devolonter'
p2
S'devolonter/flixel-monkey'
p3
tp4
a(S'minib3d-monkey'
p5
S'adamredwoods'
p6
S'adamredwoods/minib3d-monkey'
p7
tp8
a(S'bono'
p9
S'michaelcontento'
p10
S'michaelcontento/bono'
p11
tp12
a(S'monkeyspine'
p13
S'skn3'
p14
S'skn3/monkeyspine'
p15
tp16
a(S'xml'
p17
S'skn3'
p18
S'skn3/xml'
p19
tp20
a(S'sat-monkey'
p21
S'damnbrain'
p22
S'damnbrain/sat-monkey'
p23
tp24
a(S'SimpleUI'
p25
S'nobuyukinyuu'
p26
S'nobuyukinyuu/SimpleUI'
p27
tp28
a(S'monkey-utf8'
p29
S'nobuyukinyuu'
p30
S'nobuyukinyuu/monkey-utf8'
p31
tp32
a(S'monkey.tmbundle'
p33
S'gingerbeardman'
p34
S'gingerbeardman/monkey.tmbundle'
p35
tp36
a(S'fantomEngine'
p37
S'MikeHart66'
p38
S'MikeHart66/fantomEngine'
p39
tp40
a(S'chartboost'
p41
S'skn3'
p42
S'skn3/chartboost'
p43
tp44
a(S'nDrawExts2'
p45
S'nobuyukinyuu'
p46
S'nobuyukinyuu/nDrawExts2'
p47
tp48
a(S'flixel-monkey-bananas'
p49
S'devolonter'
p50
S'devolonter/flixel-monkey-bananas'
p51
tp52
a(S'angelfont-tryouts'
p53
S'nobuyukinyuu'
p54
S'nobuyukinyuu/angelfont-tryouts'
p55
tp56
a(S'monkey-webp'
p57
S'playttle'
p58
S'playttle/monkey-webp'
p59
tp60
a(S'Analytics.Monkey'
p61
S'earok'
p62
S'earok/Analytics.Monkey'
p63
tp64
a(S'Monkey-SVG'
p65
S'CopperCircle'
p66
S'CopperCircle/Monkey-SVG'
p67
tp68
a(S'ld28'
p69
S'JochenHeizmann'
p70
S'JochenHeizmann/ld28'
p71
tp72
a(S'Seahorse'
p73
S'AlexBaklanov'
p74
S'AlexBaklanov/Seahorse'
p75
tp76
a(S'argyne'
p77
S'nobuyukinyuu'
p78
S'nobuyukinyuu/argyne'
p79
tp80
a(S'arraysorter'
p81
S'skn3'
p82
S'skn3/arraysorter'
p83
tp84
a(S'pxl'
p85
S'Gianmichele'
p86
S'Gianmichele/pxl'
p87
tp88
a(S'aes'
p89
S'skn3'
p90
S'skn3/aes'
p91
tp92
a(S'junglegui'
p93
S'ziggybcn'
p94
S'ziggybcn/junglegui'
p95
tp96
a(S'miniSQL'
p97
S'llugato'
p98
S'llugato/miniSQL'
p99
tp100
a(S'flixel-monkey'
p101
S'devolonter'
p102
S'devolonter/flixel-monkey'
p103
tp104
a(S'minib3d-monkey'
p105
S'adamredwoods'
p106
S'adamredwoods/minib3d-monkey'
p107
tp108
a(S'bono'
p109
S'michaelcontento'
p110
S'michaelcontento/bono'
p111
tp112
a(S'monkeyspine'
p113
S'skn3'
p114
S'skn3/monkeyspine'
p115
tp116
a(S'xml'
p117
S'skn3'
p118
S'skn3/xml'
p119
tp120
a(S'sat-monkey'
p121
S'damnbrain'
p122
S'damnbrain/sat-monkey'
p123
tp124
a(S'SimpleUI'
p125
S'nobuyukinyuu'
p126
S'nobuyukinyuu/SimpleUI'
p127
tp128
a(S'monkey-utf8'
p129
S'nobuyukinyuu'
p130
S'nobuyukinyuu/monkey-utf8'
p131
tp132
a(S'monkey.tmbundle'
p133
S'gingerbeardman'
p134
S'gingerbeardman/monkey.tmbundle'
p135
tp136
a(S'fantomEngine'
p137
S'MikeHart66'
p138
S'MikeHart66/fantomEngine'
p139
tp140
a(S'chartboost'
p141
S'skn3'
p142
S'skn3/chartboost'
p143
tp144
a(S'nDrawExts2'
p145
S'nobuyukinyuu'
p146
S'nobuyukinyuu/nDrawExts2'
p147
tp148
a(S'flixel-monkey-bananas'
p149
S'devolonter'
p150
S'devolonter/flixel-monkey-bananas'
p151
tp152
a(S'angelfont-tryouts'
p153
S'nobuyukinyuu'
p154
S'nobuyukinyuu/angelfont-tryouts'
p155
tp156
a(S'monkey-webp'
p157
S'playttle'
p158
S'playttle/monkey-webp'
p159
tp160
a(S'Analytics.Monkey'
p161
S'earok'
p162
S'earok/Analytics.Monkey'
p163
tp164
a(S'Monkey-SVG'
p165
S'CopperCircle'
p166
S'CopperCircle/Monkey-SVG'
p167
tp168
a(S'ld28'
p169
S'JochenHeizmann'
p170
S'JochenHeizmann/ld28'
p171
tp172
a(S'Seahorse'
p173
S'AlexBaklanov'
p174
S'AlexBaklanov/Seahorse'
p175
tp176
a(S'argyne'
p177
S'nobuyukinyuu'
p178
S'nobuyukinyuu/argyne'
p179
tp180
a(S'arraysorter'
p181
S'skn3'
p182
S'skn3/arraysorter'
p183
tp184
a(S'pxl'
p185
S'Gianmichele'
p186
S'Gianmichele/pxl'
p187
tp188
a(S'aes'
p189
S'skn3'
p190
S'skn3/aes'
p191
tp192
a(S'junglegui'
p193
S'ziggybcn'
p194
S'ziggybcn/junglegui'
p195
tp196
a(S'miniSQL'
p197
S'llugato'
p198
S'llugato/miniSQL'
p199
tp200
a.