(lp0
(S'Legacy-of-Xmas'
p1
S'Rejcx'
p2
S'Rejcx/Legacy-of-Xmas'
p3
tp4
a(S'moocode'
p5
S'robmyers'
p6
S'robmyers/moocode'
p7
tp8
a(S'Legacy-of-Xmas'
p9
S'jamiepg1'
p10
S'jamiepg1/Legacy-of-Xmas'
p11
tp12
a(S'Legacy-of-Xmas'
p13
S'Rejcx'
p14
S'Rejcx/Legacy-of-Xmas'
p15
tp16
a(S'moocode'
p17
S'robmyers'
p18
S'robmyers/moocode'
p19
tp20
a(S'Legacy-of-Xmas'
p21
S'jamiepg1'
p22
S'jamiepg1/Legacy-of-Xmas'
p23
tp24
a(S'Legacy-of-Xmas'
p25
S'Rejcx'
p26
S'Rejcx/Legacy-of-Xmas'
p27
tp28
a(S'moocode'
p29
S'robmyers'
p30
S'robmyers/moocode'
p31
tp32
a(S'Legacy-of-Xmas'
p33
S'jamiepg1'
p34
S'jamiepg1/Legacy-of-Xmas'
p35
tp36
a.