(lp0
(S'lapis'
p1
S'leafo'
p2
S'leafo/lapis'
p3
tp4
a(S'magick'
p5
S'leafo'
p6
S'leafo/magick'
p7
tp8
a(S'yae'
p9
S'nondev'
p10
S'nondev/yae'
p11
tp12
a(S'lovekit'
p13
S'leafo'
p14
S'leafo/lovekit'
p15
tp16
a(S'streak.club'
p17
S'leafo'
p18
S'leafo/streak.club'
p19
tp20
a(S'luarocks-site'
p21
S'leafo'
p22
S'leafo/luarocks-site'
p23
tp24
a(S'pgmoon'
p25
S'leafo'
p26
S'leafo/pgmoon'
p27
tp28
a(S'DeepQLearning'
p29
S'blakeMilner'
p30
S'blakeMilner/DeepQLearning'
p31
tp32
a(S'Aegisub-Motion'
p33
S'TypesettingTools'
p34
S'TypesettingTools/Aegisub-Motion'
p35
tp36
a(S'gimlet'
p37
S'losinggeneration'
p38
S'losinggeneration/gimlet'
p39
tp40
a(S'web_sanitize'
p41
S'leafo'
p42
S'leafo/web_sanitize'
p43
tp44
a(S'lapis-community'
p45
S'leafo'
p46
S'leafo/lapis-community'
p47
tp48
a(S'loadkit'
p49
S'leafo'
p50
S'leafo/loadkit'
p51
tp52
a(S'ijitsuki'
p53
S'tophf'
p54
S'tophf/ijitsuki'
p55
tp56
a(S'mpv-progressbar'
p57
S'torque'
p58
S'torque/mpv-progressbar'
p59
tp60
a(S'lua-uinput'
p61
S'leafo'
p62
S'leafo/lua-uinput'
p63
tp64
a(S'ludum-dare-27'
p65
S'leafo'
p66
S'leafo/ludum-dare-27'
p67
tp68
a(S'moonraker'
p69
S'szensk'
p70
S'szensk/moonraker'
p71
tp72
a(S'ludum-dare-25'
p73
S'leafo'
p74
S'leafo/ludum-dare-25'
p75
tp76
a(S'wallyadv'
p77
S'Hamcha'
p78
S'Hamcha/wallyadv'
p79
tp80
a(S'DeepQLearning'
p81
S'fangzai'
p82
S'fangzai/DeepQLearning'
p83
tp84
a(S'love-axel'
p85
S'arkeus'
p86
S'arkeus/love-axel'
p87
tp88
a(S'lapiswiki'
p89
S'torhve'
p90
S'torhve/lapiswiki'
p91
tp92
a(S'async.lua'
p93
S'yi'
p94
S'yi/async.lua'
p95
tp96
a(S'moon-grahams'
p97
S'zach-binary'
p98
S'zach-binary/moon-grahams'
p99
tp100
a.