(lp0
(S'mt-theme-eiger'
p1
S'movabletype'
p2
S'movabletype/mt-theme-eiger'
p3
tp4
a(S'mt-theme-rainier'
p5
S'movabletype'
p6
S'movabletype/mt-theme-rainier'
p7
tp8
a(S'bootstrap_for_mt6'
p9
S'atstyle'
p10
S'atstyle/bootstrap_for_mt6'
p11
tp12
a(S'demo02'
p13
S'mtdotnet'
p14
S'mtdotnet/demo02'
p15
tp16
a(S'demo03'
p17
S'mtdotnet'
p18
S'mtdotnet/demo03'
p19
tp20
a(S'demo04'
p21
S'mtdotnet'
p22
S'mtdotnet/demo04'
p23
tp24
a(S'demo05'
p25
S'mtdotnet'
p26
S'mtdotnet/demo05'
p27
tp28
a(S'demo06'
p29
S'mtdotnet'
p30
S'mtdotnet/demo06'
p31
tp32
a(S'demo07'
p33
S'mtdotnet'
p34
S'mtdotnet/demo07'
p35
tp36
a(S'demo08'
p37
S'mtdotnet'
p38
S'mtdotnet/demo08'
p39
tp40
a(S'demo09'
p41
S'mtdotnet'
p42
S'mtdotnet/demo09'
p43
tp44
a(S'demo10'
p45
S'mtdotnet'
p46
S'mtdotnet/demo10'
p47
tp48
a(S'demo11'
p49
S'mtdotnet'
p50
S'mtdotnet/demo11'
p51
tp52
a(S'demo01'
p53
S'mtdotnet'
p54
S'mtdotnet/demo01'
p55
tp56
a(S'mtnet_demo'
p57
S'hajimef'
p58
S'hajimef/mtnet_demo'
p59
tp60
a(S'demo27'
p61
S'aoyan0510'
p62
S'aoyan0510/demo27'
p63
tp64
a(S'teston'
p65
S'ntohi'
p66
S'ntohi/teston'
p67
tp68
a(S'mt-theme-cleanblog'
p69
S'Nick-smallworld'
p70
S'Nick-smallworld/mt-theme-cleanblog'
p71
tp72
a(S'mtnet-theme-cleanblog'
p73
S'Nick-smallworld'
p74
S'Nick-smallworld/mtnet-theme-cleanblog'
p75
tp76
a(S'rainiertest'
p77
S'masakah'
p78
S'masakah/rainiertest'
p79
tp80
a(S'mt-niigata'
p81
S'zansin'
p82
S'zansin/mt-niigata'
p83
tp84
a(S'dotnet'
p85
S'potaufeu'
p86
S'potaufeu/dotnet'
p87
tp88
a(S'themes'
p89
S'hirata'
p90
S'hirata/themes'
p91
tp92
a(S'tonancyo'
p93
S'masuP9'
p94
S'masuP9/tonancyo'
p95
tp96
a(S'mtnet_test'
p97
S'hajimef'
p98
S'hajimef/mtnet_test'
p99
tp100
a(S'mt-theme-eiger'
p101
S'movabletype'
p102
S'movabletype/mt-theme-eiger'
p103
tp104
a(S'mt-theme-rainier'
p105
S'movabletype'
p106
S'movabletype/mt-theme-rainier'
p107
tp108
a(S'bootstrap_for_mt6'
p109
S'atstyle'
p110
S'atstyle/bootstrap_for_mt6'
p111
tp112
a(S'demo02'
p113
S'mtdotnet'
p114
S'mtdotnet/demo02'
p115
tp116
a(S'demo03'
p117
S'mtdotnet'
p118
S'mtdotnet/demo03'
p119
tp120
a(S'demo04'
p121
S'mtdotnet'
p122
S'mtdotnet/demo04'
p123
tp124
a(S'demo05'
p125
S'mtdotnet'
p126
S'mtdotnet/demo05'
p127
tp128
a(S'demo06'
p129
S'mtdotnet'
p130
S'mtdotnet/demo06'
p131
tp132
a(S'demo07'
p133
S'mtdotnet'
p134
S'mtdotnet/demo07'
p135
tp136
a(S'demo08'
p137
S'mtdotnet'
p138
S'mtdotnet/demo08'
p139
tp140
a(S'demo09'
p141
S'mtdotnet'
p142
S'mtdotnet/demo09'
p143
tp144
a(S'demo10'
p145
S'mtdotnet'
p146
S'mtdotnet/demo10'
p147
tp148
a(S'demo11'
p149
S'mtdotnet'
p150
S'mtdotnet/demo11'
p151
tp152
a(S'demo01'
p153
S'mtdotnet'
p154
S'mtdotnet/demo01'
p155
tp156
a(S'mtnet_demo'
p157
S'hajimef'
p158
S'hajimef/mtnet_demo'
p159
tp160
a(S'demo27'
p161
S'aoyan0510'
p162
S'aoyan0510/demo27'
p163
tp164
a(S'teston'
p165
S'ntohi'
p166
S'ntohi/teston'
p167
tp168
a(S'mt-theme-cleanblog'
p169
S'Nick-smallworld'
p170
S'Nick-smallworld/mt-theme-cleanblog'
p171
tp172
a(S'mtnet-theme-cleanblog'
p173
S'Nick-smallworld'
p174
S'Nick-smallworld/mtnet-theme-cleanblog'
p175
tp176
a(S'rainiertest'
p177
S'masakah'
p178
S'masakah/rainiertest'
p179
tp180
a(S'mt-niigata'
p181
S'zansin'
p182
S'zansin/mt-niigata'
p183
tp184
a(S'dotnet'
p185
S'potaufeu'
p186
S'potaufeu/dotnet'
p187
tp188
a(S'themes'
p189
S'hirata'
p190
S'hirata/themes'
p191
tp192
a(S'tonancyo'
p193
S'masuP9'
p194
S'masuP9/tonancyo'
p195
tp196
a(S'mtnet_test'
p197
S'hajimef'
p198
S'hajimef/mtnet_test'
p199
tp200
a.