(lp0
(S'foundations-2015-06-04'
p1
S'githubteacher'
p2
S'githubteacher/foundations-2015-06-04'
p3
tp4
a(S'Olasiliksal-evrim-kurami-Probabilistic-Evolution-Theory-'
p5
S'cosargozukirmizi'
p6
S'cosargozukirmizi/Olasiliksal-evrim-kurami-Probabilistic-Evolution-Theory-'
p7
tp8
a(S'pyqlam'
p9
S'marnout'
p10
S'marnout/pyqlam'
p11
tp12
a(S'mu'
p13
S'matklad'
p14
S'matklad/mu'
p15
tp16
a(S'rv-integration-package'
p17
S'derrickmeyer'
p18
S'derrickmeyer/rv-integration-package'
p19
tp20
a(S'foundations-2015-06-04'
p21
S'ksairamesh'
p22
S'ksairamesh/foundations-2015-06-04'
p23
tp24
a(S'foundations-2015-06-04'
p25
S'githubteacher'
p26
S'githubteacher/foundations-2015-06-04'
p27
tp28
a(S'Olasiliksal-evrim-kurami-Probabilistic-Evolution-Theory-'
p29
S'cosargozukirmizi'
p30
S'cosargozukirmizi/Olasiliksal-evrim-kurami-Probabilistic-Evolution-Theory-'
p31
tp32
a(S'pyqlam'
p33
S'marnout'
p34
S'marnout/pyqlam'
p35
tp36
a(S'mu'
p37
S'matklad'
p38
S'matklad/mu'
p39
tp40
a(S'rv-integration-package'
p41
S'derrickmeyer'
p42
S'derrickmeyer/rv-integration-package'
p43
tp44
a(S'foundations-2015-06-04'
p45
S'ksairamesh'
p46
S'ksairamesh/foundations-2015-06-04'
p47
tp48
a.