(lp0
(S'kmlncl'
p1
S'rpavlick'
p2
S'rpavlick/kmlncl'
p3
tp4
a(S'NCL_scripts'
p5
S'lvargo13'
p6
S'lvargo13/NCL_scripts'
p7
tp8
a(S'dissertation'
p9
S'heylsitan'
p10
S'heylsitan/dissertation'
p11
tp12
a(S'myscripts'
p13
S'fanqi203'
p14
S'fanqi203/myscripts'
p15
tp16
a(S'pegHome'
p17
S'ginochen'
p18
S'ginochen/pegHome'
p19
tp20
a(S'project'
p21
S'Novarizark'
p22
S'Novarizark/project'
p23
tp24
a(S'ysScratch'
p25
S'ginochen'
p26
S'ginochen/ysScratch'
p27
tp28
a(S'htest'
p29
S'hindcast'
p30
S'hindcast/htest'
p31
tp32
a(S'1D_POP_output_ICTP'
p33
S'mnlevy1981'
p34
S'mnlevy1981/1D_POP_output_ICTP'
p35
tp36
a(S'scmscdiag'
p37
S'jasonxie'
p38
S'jasonxie/scmscdiag'
p39
tp40
a(S'scripts'
p41
S'ouyuyuan'
p42
S'ouyuyuan/scripts'
p43
tp44
a(S'sample_insitu'
p45
S'kaizhangpnl'
p46
S'kaizhangpnl/sample_insitu'
p47
tp48
a(S'ncl_plots'
p49
S'blcc'
p50
S'blcc/ncl_plots'
p51
tp52
a(S'qingdao'
p53
S'fanqi203'
p54
S'fanqi203/qingdao'
p55
tp56
a(S'Meteoclima-Seasonal-Forecast'
p57
S'ellak-monades-aristeias'
p58
S'ellak-monades-aristeias/Meteoclima-Seasonal-Forecast'
p59
tp60
a(S'Meteoclima-Seasonal-Forecast'
p61
S'atrianta'
p62
S'atrianta/Meteoclima-Seasonal-Forecast'
p63
tp64
a(S'ncl_lib'
p65
S'brianpm'
p66
S'brianpm/ncl_lib'
p67
tp68
a(S'WRF_Code'
p69
S'JingchaoZhang'
p70
S'JingchaoZhang/WRF_Code'
p71
tp72
a(S'ROMS_TOOLS'
p73
S'uturuncoglu'
p74
S'uturuncoglu/ROMS_TOOLS'
p75
tp76
a(S'Buffered_Plume_Model'
p77
S'whannah1'
p78
S'whannah1/Buffered_Plume_Model'
p79
tp80
a(S'remap-ncl'
p81
S'mt5555'
p82
S'mt5555/remap-ncl'
p83
tp84
a(S'GPF'
p85
S'jihyunoh'
p86
S'jihyunoh/GPF'
p87
tp88
a(S'helloworld'
p89
S'MeteoBoy4'
p90
S'MeteoBoy4/helloworld'
p91
tp92
a(S'Hydro'
p93
S'bikegeek'
p94
S'bikegeek/Hydro'
p95
tp96
a(S'wrf_hydro_forcing'
p97
S'NCAR'
p98
S'NCAR/wrf_hydro_forcing'
p99
tp100
a(S'kmlncl'
p101
S'rpavlick'
p102
S'rpavlick/kmlncl'
p103
tp104
a(S'NCL_scripts'
p105
S'lvargo13'
p106
S'lvargo13/NCL_scripts'
p107
tp108
a(S'dissertation'
p109
S'heylsitan'
p110
S'heylsitan/dissertation'
p111
tp112
a(S'myscripts'
p113
S'fanqi203'
p114
S'fanqi203/myscripts'
p115
tp116
a(S'pegHome'
p117
S'ginochen'
p118
S'ginochen/pegHome'
p119
tp120
a(S'project'
p121
S'Novarizark'
p122
S'Novarizark/project'
p123
tp124
a(S'ysScratch'
p125
S'ginochen'
p126
S'ginochen/ysScratch'
p127
tp128
a(S'htest'
p129
S'hindcast'
p130
S'hindcast/htest'
p131
tp132
a(S'1D_POP_output_ICTP'
p133
S'mnlevy1981'
p134
S'mnlevy1981/1D_POP_output_ICTP'
p135
tp136
a(S'scmscdiag'
p137
S'jasonxie'
p138
S'jasonxie/scmscdiag'
p139
tp140
a(S'scripts'
p141
S'ouyuyuan'
p142
S'ouyuyuan/scripts'
p143
tp144
a(S'sample_insitu'
p145
S'kaizhangpnl'
p146
S'kaizhangpnl/sample_insitu'
p147
tp148
a(S'ncl_plots'
p149
S'blcc'
p150
S'blcc/ncl_plots'
p151
tp152
a(S'qingdao'
p153
S'fanqi203'
p154
S'fanqi203/qingdao'
p155
tp156
a(S'Meteoclima-Seasonal-Forecast'
p157
S'ellak-monades-aristeias'
p158
S'ellak-monades-aristeias/Meteoclima-Seasonal-Forecast'
p159
tp160
a(S'Meteoclima-Seasonal-Forecast'
p161
S'atrianta'
p162
S'atrianta/Meteoclima-Seasonal-Forecast'
p163
tp164
a(S'ncl_lib'
p165
S'brianpm'
p166
S'brianpm/ncl_lib'
p167
tp168
a(S'WRF_Code'
p169
S'JingchaoZhang'
p170
S'JingchaoZhang/WRF_Code'
p171
tp172
a(S'ROMS_TOOLS'
p173
S'uturuncoglu'
p174
S'uturuncoglu/ROMS_TOOLS'
p175
tp176
a(S'Buffered_Plume_Model'
p177
S'whannah1'
p178
S'whannah1/Buffered_Plume_Model'
p179
tp180
a(S'remap-ncl'
p181
S'mt5555'
p182
S'mt5555/remap-ncl'
p183
tp184
a(S'GPF'
p185
S'jihyunoh'
p186
S'jihyunoh/GPF'
p187
tp188
a(S'helloworld'
p189
S'MeteoBoy4'
p190
S'MeteoBoy4/helloworld'
p191
tp192
a(S'Hydro'
p193
S'bikegeek'
p194
S'bikegeek/Hydro'
p195
tp196
a(S'wrf_hydro_forcing'
p197
S'NCAR'
p198
S'NCAR/wrf_hydro_forcing'
p199
tp200
a.