(lp0
(S'Nitra'
p1
S'JetBrains'
p2
S'JetBrains/Nitra'
p3
tp4
a(S'nemerle'
p5
S'rsdn'
p6
S'rsdn/nemerle'
p7
tp8
a(S'manpages-zh'
p9
S'lidaobing'
p10
S'lidaobing/manpages-zh'
p11
tp12
a(S'Tao'
p13
S'philiplaureano'
p14
S'philiplaureano/Tao'
p15
tp16
a(S'hx-unity3d'
p17
S'AxGord'
p18
S'AxGord/hx-unity3d'
p19
tp20
a(S'lime-tools'
p21
S'openfl'
p22
S'openfl/lime-tools'
p23
tp24
a(S'ParserGenerator'
p25
S'rampelstinskin'
p26
S'rampelstinskin/ParserGenerator'
p27
tp28
a(S'repack'
p29
S'aaulia'
p30
S'aaulia/repack'
p31
tp32
a(S'ExAM'
p33
S'Knowledge-Players'
p34
S'Knowledge-Players/ExAM'
p35
tp36
a(S'as3tohxfromcaffeine-hx'
p37
S'as3boyan'
p38
S'as3boyan/as3tohxfromcaffeine-hx'
p39
tp40
a(S'robothaxe-utilities-StateMachine'
p41
S'Vj3k0'
p42
S'Vj3k0/robothaxe-utilities-StateMachine'
p43
tp44
a(S'Nemerle.Statechart'
p45
S'CodingUnit'
p46
S'CodingUnit/Nemerle.Statechart'
p47
tp48
a(S'AS3ToHaxe'
p49
S'CloudKidStudio'
p50
S'CloudKidStudio/AS3ToHaxe'
p51
tp52
a(S'nor'
p53
S'Ziaw'
p54
S'Ziaw/nor'
p55
tp56
a(S'Nemerle-Articles'
p57
S'VladD2'
p58
S'VladD2/Nemerle-Articles'
p59
tp60
a(S'hscript'
p61
S'TomBebbington'
p62
S'TomBebbington/hscript'
p63
tp64
a(S'CodeDisk'
p65
S'laomoi'
p66
S'laomoi/CodeDisk'
p67
tp68
a(S'ParserGenerator'
p69
S'rsdn'
p70
S'rsdn/ParserGenerator'
p71
tp72
a(S'haxeflixel-yahui-integration'
p73
S'bradparks'
p74
S'bradparks/haxeflixel-yahui-integration'
p75
tp76
a(S'haxin'
p77
S'TomBebbington'
p78
S'TomBebbington/haxin'
p79
tp80
a(S'hxmario'
p81
S'jroudin'
p82
S'jroudin/hxmario'
p83
tp84
a(S'Nemerle.Pinvoke'
p85
S'Stitchous'
p86
S'Stitchous/Nemerle.Pinvoke'
p87
tp88
a(S'Livet.Nemerle'
p89
S'azyobuzin'
p90
S'azyobuzin/Livet.Nemerle'
p91
tp92
a(S'as3hx'
p93
S'bendmorris'
p94
S'bendmorris/as3hx'
p95
tp96
a(S'fireball'
p97
S'antagonist112358'
p98
S'antagonist112358/fireball'
p99
tp100
a(S'Nitra'
p101
S'JetBrains'
p102
S'JetBrains/Nitra'
p103
tp104
a(S'nemerle'
p105
S'rsdn'
p106
S'rsdn/nemerle'
p107
tp108
a(S'manpages-zh'
p109
S'lidaobing'
p110
S'lidaobing/manpages-zh'
p111
tp112
a(S'Tao'
p113
S'philiplaureano'
p114
S'philiplaureano/Tao'
p115
tp116
a(S'hx-unity3d'
p117
S'AxGord'
p118
S'AxGord/hx-unity3d'
p119
tp120
a(S'lime-tools'
p121
S'openfl'
p122
S'openfl/lime-tools'
p123
tp124
a(S'ParserGenerator'
p125
S'rampelstinskin'
p126
S'rampelstinskin/ParserGenerator'
p127
tp128
a(S'repack'
p129
S'aaulia'
p130
S'aaulia/repack'
p131
tp132
a(S'ExAM'
p133
S'Knowledge-Players'
p134
S'Knowledge-Players/ExAM'
p135
tp136
a(S'as3tohxfromcaffeine-hx'
p137
S'as3boyan'
p138
S'as3boyan/as3tohxfromcaffeine-hx'
p139
tp140
a(S'robothaxe-utilities-StateMachine'
p141
S'Vj3k0'
p142
S'Vj3k0/robothaxe-utilities-StateMachine'
p143
tp144
a(S'Nemerle.Statechart'
p145
S'CodingUnit'
p146
S'CodingUnit/Nemerle.Statechart'
p147
tp148
a(S'AS3ToHaxe'
p149
S'CloudKidStudio'
p150
S'CloudKidStudio/AS3ToHaxe'
p151
tp152
a(S'nor'
p153
S'Ziaw'
p154
S'Ziaw/nor'
p155
tp156
a(S'Nemerle-Articles'
p157
S'VladD2'
p158
S'VladD2/Nemerle-Articles'
p159
tp160
a(S'hscript'
p161
S'TomBebbington'
p162
S'TomBebbington/hscript'
p163
tp164
a(S'CodeDisk'
p165
S'laomoi'
p166
S'laomoi/CodeDisk'
p167
tp168
a(S'ParserGenerator'
p169
S'rsdn'
p170
S'rsdn/ParserGenerator'
p171
tp172
a(S'haxeflixel-yahui-integration'
p173
S'bradparks'
p174
S'bradparks/haxeflixel-yahui-integration'
p175
tp176
a(S'haxin'
p177
S'TomBebbington'
p178
S'TomBebbington/haxin'
p179
tp180
a(S'hxmario'
p181
S'jroudin'
p182
S'jroudin/hxmario'
p183
tp184
a(S'Nemerle.Pinvoke'
p185
S'Stitchous'
p186
S'Stitchous/Nemerle.Pinvoke'
p187
tp188
a(S'Livet.Nemerle'
p189
S'azyobuzin'
p190
S'azyobuzin/Livet.Nemerle'
p191
tp192
a(S'as3hx'
p193
S'bendmorris'
p194
S'bendmorris/as3hx'
p195
tp196
a(S'fireball'
p197
S'antagonist112358'
p198
S'antagonist112358/fireball'
p199
tp200
a.