(lp0
(S'tinyos-main'
p1
S'tinyos'
p2
S'tinyos/tinyos-main'
p3
tp4
a(S'Universal-G-Code-Sender'
p5
S'winder'
p6
S'winder/Universal-G-Code-Sender'
p7
tp8
a(S'NIWA_Python_seminars'
p9
S'nicolasfauchereau'
p10
S'nicolasfauchereau/NIWA_Python_seminars'
p11
tp12
a(S'nendo'
p13
S'kiyoka'
p14
S'kiyoka/nendo'
p15
tp16
a(S'rnnlib'
p17
S'jpuigcerver'
p18
S'jpuigcerver/rnnlib'
p19
tp20
a(S'grblgui'
p21
S'cody82'
p22
S'cody82/grblgui'
p23
tp24
a(S'coi-services'
p25
S'ooici'
p26
S'ooici/coi-services'
p27
tp28
a(S'prod'
p29
S'tp-freeforall'
p30
S'tp-freeforall/prod'
p31
tp32
a(S'gxa'
p33
S'gxa'
p34
S'gxa/gxa'
p35
tp36
a(S'A405'
p37
S'phaustin'
p38
S'phaustin/A405'
p39
tp40
a(S'DIY-Pick-and-Place-Hardware'
p41
S'briandorey'
p42
S'briandorey/DIY-Pick-and-Place-Hardware'
p43
tp44
a(S'gdmux'
p45
S'LHSRobotics'
p46
S'LHSRobotics/gdmux'
p47
tp48
a(S'visko'
p49
S'nicholasdelrio'
p50
S'nicholasdelrio/visko'
p51
tp52
a(S'goliath-quadcopter'
p53
S'mccloudaero'
p54
S'mccloudaero/goliath-quadcopter'
p55
tp56
a(S'ccbee'
p57
S'andresv'
p58
S'andresv/ccbee'
p59
tp60
a(S'tinyos-shimmer'
p61
S'ShimmerResearch'
p62
S'ShimmerResearch/tinyos-shimmer'
p63
tp64
a(S'XLCD'
p65
S'xpix'
p66
S'xpix/XLCD'
p67
tp68
a(S'Universal-G-Code-Sender'
p69
S'johnlauer'
p70
S'johnlauer/Universal-G-Code-Sender'
p71
tp72
a(S'swe_solvers'
p73
S'TUM-I5'
p74
S'TUM-I5/swe_solvers'
p75
tp76
a(S'QGIS-Meshing'
p77
S'adamcandy'
p78
S'adamcandy/QGIS-Meshing'
p79
tp80
a(S'Primo'
p81
S'ivanseidel'
p82
S'ivanseidel/Primo'
p83
tp84
a(S'q-gcm'
p85
S'GFDANU'
p86
S'GFDANU/q-gcm'
p87
tp88
a(S'eagle-circuit-designs'
p89
S'mattvenn'
p90
S'mattvenn/eagle-circuit-designs'
p91
tp92
a(S'panobus'
p93
S'mdl29'
p94
S'mdl29/panobus'
p95
tp96
a(S'rsa'
p97
S'VPAC'
p98
S'VPAC/rsa'
p99
tp100
a(S'tinyos-main'
p101
S'tinyos'
p102
S'tinyos/tinyos-main'
p103
tp104
a(S'Universal-G-Code-Sender'
p105
S'winder'
p106
S'winder/Universal-G-Code-Sender'
p107
tp108
a(S'NIWA_Python_seminars'
p109
S'nicolasfauchereau'
p110
S'nicolasfauchereau/NIWA_Python_seminars'
p111
tp112
a(S'nendo'
p113
S'kiyoka'
p114
S'kiyoka/nendo'
p115
tp116
a(S'rnnlib'
p117
S'jpuigcerver'
p118
S'jpuigcerver/rnnlib'
p119
tp120
a(S'grblgui'
p121
S'cody82'
p122
S'cody82/grblgui'
p123
tp124
a(S'coi-services'
p125
S'ooici'
p126
S'ooici/coi-services'
p127
tp128
a(S'prod'
p129
S'tp-freeforall'
p130
S'tp-freeforall/prod'
p131
tp132
a(S'gxa'
p133
S'gxa'
p134
S'gxa/gxa'
p135
tp136
a(S'A405'
p137
S'phaustin'
p138
S'phaustin/A405'
p139
tp140
a(S'DIY-Pick-and-Place-Hardware'
p141
S'briandorey'
p142
S'briandorey/DIY-Pick-and-Place-Hardware'
p143
tp144
a(S'gdmux'
p145
S'LHSRobotics'
p146
S'LHSRobotics/gdmux'
p147
tp148
a(S'visko'
p149
S'nicholasdelrio'
p150
S'nicholasdelrio/visko'
p151
tp152
a(S'goliath-quadcopter'
p153
S'mccloudaero'
p154
S'mccloudaero/goliath-quadcopter'
p155
tp156
a(S'ccbee'
p157
S'andresv'
p158
S'andresv/ccbee'
p159
tp160
a(S'tinyos-shimmer'
p161
S'ShimmerResearch'
p162
S'ShimmerResearch/tinyos-shimmer'
p163
tp164
a(S'XLCD'
p165
S'xpix'
p166
S'xpix/XLCD'
p167
tp168
a(S'Universal-G-Code-Sender'
p169
S'johnlauer'
p170
S'johnlauer/Universal-G-Code-Sender'
p171
tp172
a(S'swe_solvers'
p173
S'TUM-I5'
p174
S'TUM-I5/swe_solvers'
p175
tp176
a(S'QGIS-Meshing'
p177
S'adamcandy'
p178
S'adamcandy/QGIS-Meshing'
p179
tp180
a(S'Primo'
p181
S'ivanseidel'
p182
S'ivanseidel/Primo'
p183
tp184
a(S'q-gcm'
p185
S'GFDANU'
p186
S'GFDANU/q-gcm'
p187
tp188
a(S'eagle-circuit-designs'
p189
S'mattvenn'
p190
S'mattvenn/eagle-circuit-designs'
p191
tp192
a(S'panobus'
p193
S'mdl29'
p194
S'mdl29/panobus'
p195
tp196
a(S'rsa'
p197
S'VPAC'
p198
S'VPAC/rsa'
p199
tp200
a(S'Universal-G-Code-Sender'
p201
S'winder'
p202
S'winder/Universal-G-Code-Sender'
p203
tp204
a(S'tinyos-main'
p205
S'tinyos'
p206
S'tinyos/tinyos-main'
p207
tp208
a(S'NIWA_Python_seminars'
p209
S'nicolasfauchereau'
p210
S'nicolasfauchereau/NIWA_Python_seminars'
p211
tp212
a(S'nendo'
p213
S'kiyoka'
p214
S'kiyoka/nendo'
p215
tp216
a(S'rnnlib'
p217
S'jpuigcerver'
p218
S'jpuigcerver/rnnlib'
p219
tp220
a(S'grblgui'
p221
S'cody82'
p222
S'cody82/grblgui'
p223
tp224
a(S'coi-services'
p225
S'ooici'
p226
S'ooici/coi-services'
p227
tp228
a(S'prod'
p229
S'tp-freeforall'
p230
S'tp-freeforall/prod'
p231
tp232
a(S'gxa'
p233
S'gxa'
p234
S'gxa/gxa'
p235
tp236
a(S'A405'
p237
S'phaustin'
p238
S'phaustin/A405'
p239
tp240
a(S'DIY-Pick-and-Place-Hardware'
p241
S'briandorey'
p242
S'briandorey/DIY-Pick-and-Place-Hardware'
p243
tp244
a(S'visko'
p245
S'nicholasdelrio'
p246
S'nicholasdelrio/visko'
p247
tp248
a(S'gdmux'
p249
S'LHSRobotics'
p250
S'LHSRobotics/gdmux'
p251
tp252
a(S'goliath-quadcopter'
p253
S'mccloudaero'
p254
S'mccloudaero/goliath-quadcopter'
p255
tp256
a(S'tinyos-shimmer'
p257
S'ShimmerResearch'
p258
S'ShimmerResearch/tinyos-shimmer'
p259
tp260
a(S'ccbee'
p261
S'andresv'
p262
S'andresv/ccbee'
p263
tp264
a(S'XLCD'
p265
S'xpix'
p266
S'xpix/XLCD'
p267
tp268
a(S'Universal-G-Code-Sender'
p269
S'johnlauer'
p270
S'johnlauer/Universal-G-Code-Sender'
p271
tp272
a(S'Primo'
p273
S'ivanseidel'
p274
S'ivanseidel/Primo'
p275
tp276
a(S'QGIS-Meshing'
p277
S'adamcandy'
p278
S'adamcandy/QGIS-Meshing'
p279
tp280
a(S'swe_solvers'
p281
S'TUM-I5'
p282
S'TUM-I5/swe_solvers'
p283
tp284
a(S'eagle-circuit-designs'
p285
S'mattvenn'
p286
S'mattvenn/eagle-circuit-designs'
p287
tp288
a(S'rsa'
p289
S'VPAC'
p290
S'VPAC/rsa'
p291
tp292
a(S'panobus'
p293
S'mdl29'
p294
S'mdl29/panobus'
p295
tp296
a(S'tinyos'
p297
S'pillforge'
p298
S'pillforge/tinyos'
p299
tp300
a.