(lp0
(S'sublime-netlinx'
p1
S'amclain'
p2
S'amclain/sublime-netlinx'
p3
tp4
a(S'jsmn'
p5
S'ciasia'
p6
S'ciasia/jsmn'
p7
tp8
a(S'http'
p9
S'ciasia'
p10
S'ciasia/http'
p11
tp12
a(S'TinyHTTPLib'
p13
S'Alaa-Kanj'
p14
S'Alaa-Kanj/TinyHTTPLib'
p15
tp16
a(S'AMX-Practical'
p17
S'qobe'
p18
S'qobe/AMX-Practical'
p19
tp20
a(S'amx-lib-redis'
p21
S'amclain'
p22
S'amclain/amx-lib-redis'
p23
tp24
a(S'Netlinx-Learning'
p25
S'joshaxey'
p26
S'joshaxey/Netlinx-Learning'
p27
tp28
a(S'commandfusion'
p29
S'wilfriedp'
p30
S'wilfriedp/commandfusion'
p31
tp32
a(S'Integrate-2015-Boardroom'
p33
S'AMXAUNZ'
p34
S'AMXAUNZ/Integrate-2015-Boardroom'
p35
tp36
a(S'Integrate-2015-Collaborative-Learning-Space'
p37
S'AMXAUNZ'
p38
S'AMXAUNZ/Integrate-2015-Collaborative-Learning-Space'
p39
tp40
a(S'integrate-2015-Cafe'
p41
S'AMXAUNZ'
p42
S'AMXAUNZ/integrate-2015-Cafe'
p43
tp44
a(S'TinyHTTPLib'
p45
S'joshaxey'
p46
S'joshaxey/TinyHTTPLib'
p47
tp48
a(S'netlinx-csv'
p49
S'laduke'
p50
S'laduke/netlinx-csv'
p51
tp52
a(S'Student-Center-AMX'
p53
S'csshepard'
p54
S'csshepard/Student-Center-AMX'
p55
tp56
a(S'Salem-College'
p57
S'chrisferris'
p58
S'chrisferris/Salem-College'
p59
tp60
a(S'amx-dvx-library'
p61
S'AMXAUNZ'
p62
S'AMXAUNZ/amx-dvx-library'
p63
tp64
a(S'amx-modero-library'
p65
S'AMXAUNZ'
p66
S'AMXAUNZ/amx-modero-library'
p67
tp68
a(S'amx-device-library'
p69
S'AMXAUNZ'
p70
S'AMXAUNZ/amx-device-library'
p71
tp72
a(S'amx-enzo-library'
p73
S'AMXAUNZ'
p74
S'AMXAUNZ/amx-enzo-library'
p75
tp76
a(S'amx-encoder-library'
p77
S'AMXAUNZ'
p78
S'AMXAUNZ/amx-encoder-library'
p79
tp80
a(S'amx-au-mel-boardroom'
p81
S'AMXAUNZ'
p82
S'AMXAUNZ/amx-au-mel-boardroom'
p83
tp84
a(S'Generic-Modules'
p85
S'antoniovr'
p86
S'antoniovr/Generic-Modules'
p87
tp88
a(S'NetLinx-Project-Template'
p89
S'antoniovr'
p90
S'antoniovr/NetLinx-Project-Template'
p91
tp92
a(S'RMS-ENT-Custom-Scheduling'
p93
S'antoniovr'
p94
S'antoniovr/RMS-ENT-Custom-Scheduling'
p95
tp96
a(S'Teach-Cliste-Home-Control'
p97
S'toniajuliejackson'
p98
S'toniajuliejackson/Teach-Cliste-Home-Control'
p99
tp100
a(S'sublime-netlinx'
p101
S'amclain'
p102
S'amclain/sublime-netlinx'
p103
tp104
a(S'jsmn'
p105
S'ciasia'
p106
S'ciasia/jsmn'
p107
tp108
a(S'http'
p109
S'ciasia'
p110
S'ciasia/http'
p111
tp112
a(S'TinyHTTPLib'
p113
S'Alaa-Kanj'
p114
S'Alaa-Kanj/TinyHTTPLib'
p115
tp116
a(S'AMX-Practical'
p117
S'qobe'
p118
S'qobe/AMX-Practical'
p119
tp120
a(S'amx-lib-redis'
p121
S'amclain'
p122
S'amclain/amx-lib-redis'
p123
tp124
a(S'Netlinx-Learning'
p125
S'joshaxey'
p126
S'joshaxey/Netlinx-Learning'
p127
tp128
a(S'commandfusion'
p129
S'wilfriedp'
p130
S'wilfriedp/commandfusion'
p131
tp132
a(S'Integrate-2015-Boardroom'
p133
S'AMXAUNZ'
p134
S'AMXAUNZ/Integrate-2015-Boardroom'
p135
tp136
a(S'Integrate-2015-Collaborative-Learning-Space'
p137
S'AMXAUNZ'
p138
S'AMXAUNZ/Integrate-2015-Collaborative-Learning-Space'
p139
tp140
a(S'integrate-2015-Cafe'
p141
S'AMXAUNZ'
p142
S'AMXAUNZ/integrate-2015-Cafe'
p143
tp144
a(S'TinyHTTPLib'
p145
S'joshaxey'
p146
S'joshaxey/TinyHTTPLib'
p147
tp148
a(S'netlinx-csv'
p149
S'laduke'
p150
S'laduke/netlinx-csv'
p151
tp152
a(S'Student-Center-AMX'
p153
S'csshepard'
p154
S'csshepard/Student-Center-AMX'
p155
tp156
a(S'Salem-College'
p157
S'chrisferris'
p158
S'chrisferris/Salem-College'
p159
tp160
a(S'amx-dvx-library'
p161
S'AMXAUNZ'
p162
S'AMXAUNZ/amx-dvx-library'
p163
tp164
a(S'amx-modero-library'
p165
S'AMXAUNZ'
p166
S'AMXAUNZ/amx-modero-library'
p167
tp168
a(S'amx-device-library'
p169
S'AMXAUNZ'
p170
S'AMXAUNZ/amx-device-library'
p171
tp172
a(S'amx-enzo-library'
p173
S'AMXAUNZ'
p174
S'AMXAUNZ/amx-enzo-library'
p175
tp176
a(S'amx-encoder-library'
p177
S'AMXAUNZ'
p178
S'AMXAUNZ/amx-encoder-library'
p179
tp180
a(S'amx-au-mel-boardroom'
p181
S'AMXAUNZ'
p182
S'AMXAUNZ/amx-au-mel-boardroom'
p183
tp184
a(S'Generic-Modules'
p185
S'antoniovr'
p186
S'antoniovr/Generic-Modules'
p187
tp188
a(S'NetLinx-Project-Template'
p189
S'antoniovr'
p190
S'antoniovr/NetLinx-Project-Template'
p191
tp192
a(S'RMS-ENT-Custom-Scheduling'
p193
S'antoniovr'
p194
S'antoniovr/RMS-ENT-Custom-Scheduling'
p195
tp196
a(S'Teach-Cliste-Home-Control'
p197
S'toniajuliejackson'
p198
S'toniajuliejackson/Teach-Cliste-Home-Control'
p199
tp200
a(S'sublime-netlinx'
p201
S'amclain'
p202
S'amclain/sublime-netlinx'
p203
tp204
a(S'jsmn'
p205
S'ciasia'
p206
S'ciasia/jsmn'
p207
tp208
a(S'http'
p209
S'ciasia'
p210
S'ciasia/http'
p211
tp212
a(S'TinyHTTPLib'
p213
S'Alaa-Kanj'
p214
S'Alaa-Kanj/TinyHTTPLib'
p215
tp216
a(S'AMX-Practical'
p217
S'qobe'
p218
S'qobe/AMX-Practical'
p219
tp220
a(S'amx-lib-redis'
p221
S'amclain'
p222
S'amclain/amx-lib-redis'
p223
tp224
a(S'Netlinx-Learning'
p225
S'joshaxey'
p226
S'joshaxey/Netlinx-Learning'
p227
tp228
a(S'commandfusion'
p229
S'wilfriedp'
p230
S'wilfriedp/commandfusion'
p231
tp232
a(S'Integrate-2015-Boardroom'
p233
S'AMXAUNZ'
p234
S'AMXAUNZ/Integrate-2015-Boardroom'
p235
tp236
a(S'Integrate-2015-Collaborative-Learning-Space'
p237
S'AMXAUNZ'
p238
S'AMXAUNZ/Integrate-2015-Collaborative-Learning-Space'
p239
tp240
a(S'integrate-2015-Cafe'
p241
S'AMXAUNZ'
p242
S'AMXAUNZ/integrate-2015-Cafe'
p243
tp244
a(S'TinyHTTPLib'
p245
S'joshaxey'
p246
S'joshaxey/TinyHTTPLib'
p247
tp248
a(S'netlinx-csv'
p249
S'laduke'
p250
S'laduke/netlinx-csv'
p251
tp252
a(S'Student-Center-AMX'
p253
S'csshepard'
p254
S'csshepard/Student-Center-AMX'
p255
tp256
a(S'Salem-College'
p257
S'chrisferris'
p258
S'chrisferris/Salem-College'
p259
tp260
a(S'amx-dvx-library'
p261
S'AMXAUNZ'
p262
S'AMXAUNZ/amx-dvx-library'
p263
tp264
a(S'amx-modero-library'
p265
S'AMXAUNZ'
p266
S'AMXAUNZ/amx-modero-library'
p267
tp268
a(S'amx-device-library'
p269
S'AMXAUNZ'
p270
S'AMXAUNZ/amx-device-library'
p271
tp272
a(S'amx-enzo-library'
p273
S'AMXAUNZ'
p274
S'AMXAUNZ/amx-enzo-library'
p275
tp276
a(S'amx-encoder-library'
p277
S'AMXAUNZ'
p278
S'AMXAUNZ/amx-encoder-library'
p279
tp280
a(S'amx-au-mel-boardroom'
p281
S'AMXAUNZ'
p282
S'AMXAUNZ/amx-au-mel-boardroom'
p283
tp284
a(S'Generic-Modules'
p285
S'antoniovr'
p286
S'antoniovr/Generic-Modules'
p287
tp288
a(S'NetLinx-Project-Template'
p289
S'antoniovr'
p290
S'antoniovr/NetLinx-Project-Template'
p291
tp292
a(S'RMS-ENT-Custom-Scheduling'
p293
S'antoniovr'
p294
S'antoniovr/RMS-ENT-Custom-Scheduling'
p295
tp296
a(S'Teach-Cliste-Home-Control'
p297
S'toniajuliejackson'
p298
S'toniajuliejackson/Teach-Cliste-Home-Control'
p299
tp300
a.