(lp0
(S'NW-Extension'
p1
S'NetLogo'
p2
S'NetLogo/NW-Extension'
p3
tp4
a(S'Galapagos'
p5
S'NetLogo'
p6
S'NetLogo/Galapagos'
p7
tp8
a(S'lens-examples'
p9
S'SethTisue'
p10
S'SethTisue/lens-examples'
p11
tp12
a(S'models'
p13
S'NetLogo'
p14
S'NetLogo/models'
p15
tp16
a(S'netlogo-cluster'
p17
S'jurnix'
p18
S'jurnix/netlogo-cluster'
p19
tp20
a(S'time'
p21
S'colinsheppard'
p22
S'colinsheppard/time'
p23
tp24
a(S'openmole-market'
p25
S'openmole'
p26
S'openmole/openmole-market'
p27
tp28
a(S'Cours'
p29
S'EPFL-AgentBased-2014'
p30
S'EPFL-AgentBased-2014/Cours'
p31
tp32
a(S'Goo-Extension'
p33
S'NetLogo'
p34
S'NetLogo/Goo-Extension'
p35
tp36
a(S'LevelSpace'
p37
S'NetLogo'
p38
S'NetLogo/LevelSpace'
p39
tp40
a(S'skin'
p41
S'InnovationNetworks'
p42
S'InnovationNetworks/skin'
p43
tp44
a(S'popco'
p45
S'mars0i'
p46
S'mars0i/popco'
p47
tp48
a(S'dirm'
p49
S'jackiekazil'
p50
S'jackiekazil/dirm'
p51
tp52
a(S'chrest-tileworld-netlogo-model'
p53
S'mlk5060'
p54
S'mlk5060/chrest-tileworld-netlogo-model'
p55
tp56
a(S'teachingAngers'
p57
S'ThorbenJensen'
p58
S'ThorbenJensen/teachingAngers'
p59
tp60
a(S'INTA_4742'
p61
S'RussellRollins'
p62
S'RussellRollins/INTA_4742'
p63
tp64
a(S'Celegans'
p65
S'gtaowei'
p66
S'gtaowei/Celegans'
p67
tp68
a(S'netlogo-pea'
p69
S'lrq3000'
p70
S'lrq3000/netlogo-pea'
p71
tp72
a(S'iv109'
p73
S'equiet'
p74
S'equiet/iv109'
p75
tp76
a(S'Juvenile-delinquency-model'
p77
S'windweller'
p78
S'windweller/Juvenile-delinquency-model'
p79
tp80
a(S'ZITrading'
p81
S'memcbride'
p82
S'memcbride/ZITrading'
p83
tp84
a(S'NetlogoSims'
p85
S'eeue56'
p86
S'eeue56/NetlogoSims'
p87
tp88
a(S'Netlogo-Models'
p89
S'ThorbenJensen'
p90
S'ThorbenJensen/Netlogo-Models'
p91
tp92
a(S'Groupe8'
p93
S'EPFL-AgentBased-2014'
p94
S'EPFL-AgentBased-2014/Groupe8'
p95
tp96
a(S'SmoothLife'
p97
S'qiemem'
p98
S'qiemem/SmoothLife'
p99
tp100
a(S'NW-Extension'
p101
S'NetLogo'
p102
S'NetLogo/NW-Extension'
p103
tp104
a(S'Galapagos'
p105
S'NetLogo'
p106
S'NetLogo/Galapagos'
p107
tp108
a(S'lens-examples'
p109
S'SethTisue'
p110
S'SethTisue/lens-examples'
p111
tp112
a(S'models'
p113
S'NetLogo'
p114
S'NetLogo/models'
p115
tp116
a(S'netlogo-cluster'
p117
S'jurnix'
p118
S'jurnix/netlogo-cluster'
p119
tp120
a(S'time'
p121
S'colinsheppard'
p122
S'colinsheppard/time'
p123
tp124
a(S'openmole-market'
p125
S'openmole'
p126
S'openmole/openmole-market'
p127
tp128
a(S'Cours'
p129
S'EPFL-AgentBased-2014'
p130
S'EPFL-AgentBased-2014/Cours'
p131
tp132
a(S'Goo-Extension'
p133
S'NetLogo'
p134
S'NetLogo/Goo-Extension'
p135
tp136
a(S'LevelSpace'
p137
S'NetLogo'
p138
S'NetLogo/LevelSpace'
p139
tp140
a(S'skin'
p141
S'InnovationNetworks'
p142
S'InnovationNetworks/skin'
p143
tp144
a(S'popco'
p145
S'mars0i'
p146
S'mars0i/popco'
p147
tp148
a(S'dirm'
p149
S'jackiekazil'
p150
S'jackiekazil/dirm'
p151
tp152
a(S'chrest-tileworld-netlogo-model'
p153
S'mlk5060'
p154
S'mlk5060/chrest-tileworld-netlogo-model'
p155
tp156
a(S'teachingAngers'
p157
S'ThorbenJensen'
p158
S'ThorbenJensen/teachingAngers'
p159
tp160
a(S'INTA_4742'
p161
S'RussellRollins'
p162
S'RussellRollins/INTA_4742'
p163
tp164
a(S'Celegans'
p165
S'gtaowei'
p166
S'gtaowei/Celegans'
p167
tp168
a(S'netlogo-pea'
p169
S'lrq3000'
p170
S'lrq3000/netlogo-pea'
p171
tp172
a(S'iv109'
p173
S'equiet'
p174
S'equiet/iv109'
p175
tp176
a(S'Juvenile-delinquency-model'
p177
S'windweller'
p178
S'windweller/Juvenile-delinquency-model'
p179
tp180
a(S'ZITrading'
p181
S'memcbride'
p182
S'memcbride/ZITrading'
p183
tp184
a(S'NetlogoSims'
p185
S'eeue56'
p186
S'eeue56/NetlogoSims'
p187
tp188
a(S'Netlogo-Models'
p189
S'ThorbenJensen'
p190
S'ThorbenJensen/Netlogo-Models'
p191
tp192
a(S'Groupe8'
p193
S'EPFL-AgentBased-2014'
p194
S'EPFL-AgentBased-2014/Groupe8'
p195
tp196
a(S'SmoothLife'
p197
S'qiemem'
p198
S'qiemem/SmoothLife'
p199
tp200
a(S'NW-Extension'
p201
S'NetLogo'
p202
S'NetLogo/NW-Extension'
p203
tp204
a(S'Galapagos'
p205
S'NetLogo'
p206
S'NetLogo/Galapagos'
p207
tp208
a(S'lens-examples'
p209
S'SethTisue'
p210
S'SethTisue/lens-examples'
p211
tp212
a(S'models'
p213
S'NetLogo'
p214
S'NetLogo/models'
p215
tp216
a(S'netlogo-cluster'
p217
S'jurnix'
p218
S'jurnix/netlogo-cluster'
p219
tp220
a(S'time'
p221
S'colinsheppard'
p222
S'colinsheppard/time'
p223
tp224
a(S'openmole-market'
p225
S'openmole'
p226
S'openmole/openmole-market'
p227
tp228
a(S'Cours'
p229
S'EPFL-AgentBased-2014'
p230
S'EPFL-AgentBased-2014/Cours'
p231
tp232
a(S'Goo-Extension'
p233
S'NetLogo'
p234
S'NetLogo/Goo-Extension'
p235
tp236
a(S'LevelSpace'
p237
S'NetLogo'
p238
S'NetLogo/LevelSpace'
p239
tp240
a(S'skin'
p241
S'InnovationNetworks'
p242
S'InnovationNetworks/skin'
p243
tp244
a(S'popco'
p245
S'mars0i'
p246
S'mars0i/popco'
p247
tp248
a(S'dirm'
p249
S'jackiekazil'
p250
S'jackiekazil/dirm'
p251
tp252
a(S'chrest-tileworld-netlogo-model'
p253
S'mlk5060'
p254
S'mlk5060/chrest-tileworld-netlogo-model'
p255
tp256
a(S'teachingAngers'
p257
S'ThorbenJensen'
p258
S'ThorbenJensen/teachingAngers'
p259
tp260
a(S'INTA_4742'
p261
S'RussellRollins'
p262
S'RussellRollins/INTA_4742'
p263
tp264
a(S'Celegans'
p265
S'gtaowei'
p266
S'gtaowei/Celegans'
p267
tp268
a(S'netlogo-pea'
p269
S'lrq3000'
p270
S'lrq3000/netlogo-pea'
p271
tp272
a(S'iv109'
p273
S'equiet'
p274
S'equiet/iv109'
p275
tp276
a(S'Juvenile-delinquency-model'
p277
S'windweller'
p278
S'windweller/Juvenile-delinquency-model'
p279
tp280
a(S'ZITrading'
p281
S'memcbride'
p282
S'memcbride/ZITrading'
p283
tp284
a(S'NetlogoSims'
p285
S'eeue56'
p286
S'eeue56/NetlogoSims'
p287
tp288
a(S'Netlogo-Models'
p289
S'ThorbenJensen'
p290
S'ThorbenJensen/Netlogo-Models'
p291
tp292
a(S'Groupe8'
p293
S'EPFL-AgentBased-2014'
p294
S'EPFL-AgentBased-2014/Groupe8'
p295
tp296
a(S'SmoothLife'
p297
S'qiemem'
p298
S'qiemem/SmoothLife'
p299
tp300
a.