(lp0
(S'nikki'
p1
S'nikki-and-the-robots'
p2
S'nikki-and-the-robots/nikki'
p3
tp4
a(S'EthereumContracts'
p5
S'androlo'
p6
S'androlo/EthereumContracts'
p7
tp8
a(S'newlisp-projects'
p9
S'cormullion'
p10
S'cormullion/newlisp-projects'
p11
tp12
a(S'newLISP-on-Rockets'
p13
S'newlisponrockets'
p14
S'newlisponrockets/newLISP-on-Rockets'
p15
tp16
a(S'radiance'
p17
S'Shirakumo'
p18
S'Shirakumo/radiance'
p19
tp20
a(S'newlisp.snippet'
p21
S'kosh04'
p22
S'kosh04/newlisp.snippet'
p23
tp24
a(S'newlisp-matrix-client'
p25
S'IngoHohmann'
p26
S'IngoHohmann/newlisp-matrix-client'
p27
tp28
a(S'DeepSemLex'
p29
S'wdebeaum'
p30
S'wdebeaum/DeepSemLex'
p31
tp32
a(S'docker-sbcl'
p33
S'bakketun'
p34
S'bakketun/docker-sbcl'
p35
tp36
a(S'leestmeer'
p37
S'Eragon666'
p38
S'Eragon666/leestmeer'
p39
tp40
a(S'SICP-Answers'
p41
S'Byelaney'
p42
S'Byelaney/SICP-Answers'
p43
tp44
a(S'docker-quicksbcl'
p45
S'davazp'
p46
S'davazp/docker-quicksbcl'
p47
tp48
a(S'newlisp-labs'
p49
S'irr'
p50
S'irr/newlisp-labs'
p51
tp52
a(S'SparQ'
p53
S'dwolter'
p54
S'dwolter/SparQ'
p55
tp56
a(S'bdu'
p57
S'dahu'
p58
S'dahu/bdu'
p59
tp60
a(S'nrc'
p61
S'djwalther'
p62
S'djwalther/nrc'
p63
tp64
a(S'MachineTranslation'
p65
S'Crista23'
p66
S'Crista23/MachineTranslation'
p67
tp68
a(S'TrustPipe_Public'
p69
S'TrustPipe'
p70
S'TrustPipe/TrustPipe_Public'
p71
tp72
a(S'newlisp-projects'
p73
S'irr'
p74
S'irr/newlisp-projects'
p75
tp76
a(S'lisp-experiments'
p77
S'theDrake'
p78
S'theDrake/lisp-experiments'
p79
tp80
a(S'newlisp-hin'
p81
S'fernandocanizo'
p82
S'fernandocanizo/newlisp-hin'
p83
tp84
a(S'newlisp-webscraps'
p85
S'fernandocanizo'
p86
S'fernandocanizo/newlisp-webscraps'
p87
tp88
a(S'shtookovina-config'
p89
S'mrkkrp'
p90
S'mrkkrp/shtookovina-config'
p91
tp92
a(S'cl-test-grid-results'
p93
S'cl-test-grid'
p94
S'cl-test-grid/cl-test-grid-results'
p95
tp96
a(S'CL-FreeImage'
p97
S'BradWBeer'
p98
S'BradWBeer/CL-FreeImage'
p99
tp100
a(S'nikki'
p101
S'nikki-and-the-robots'
p102
S'nikki-and-the-robots/nikki'
p103
tp104
a(S'EthereumContracts'
p105
S'androlo'
p106
S'androlo/EthereumContracts'
p107
tp108
a(S'newlisp-projects'
p109
S'cormullion'
p110
S'cormullion/newlisp-projects'
p111
tp112
a(S'newLISP-on-Rockets'
p113
S'newlisponrockets'
p114
S'newlisponrockets/newLISP-on-Rockets'
p115
tp116
a(S'radiance'
p117
S'Shirakumo'
p118
S'Shirakumo/radiance'
p119
tp120
a(S'newlisp.snippet'
p121
S'kosh04'
p122
S'kosh04/newlisp.snippet'
p123
tp124
a(S'newlisp-matrix-client'
p125
S'IngoHohmann'
p126
S'IngoHohmann/newlisp-matrix-client'
p127
tp128
a(S'DeepSemLex'
p129
S'wdebeaum'
p130
S'wdebeaum/DeepSemLex'
p131
tp132
a(S'docker-sbcl'
p133
S'bakketun'
p134
S'bakketun/docker-sbcl'
p135
tp136
a(S'leestmeer'
p137
S'Eragon666'
p138
S'Eragon666/leestmeer'
p139
tp140
a(S'SICP-Answers'
p141
S'Byelaney'
p142
S'Byelaney/SICP-Answers'
p143
tp144
a(S'docker-quicksbcl'
p145
S'davazp'
p146
S'davazp/docker-quicksbcl'
p147
tp148
a(S'newlisp-labs'
p149
S'irr'
p150
S'irr/newlisp-labs'
p151
tp152
a(S'SparQ'
p153
S'dwolter'
p154
S'dwolter/SparQ'
p155
tp156
a(S'bdu'
p157
S'dahu'
p158
S'dahu/bdu'
p159
tp160
a(S'nrc'
p161
S'djwalther'
p162
S'djwalther/nrc'
p163
tp164
a(S'MachineTranslation'
p165
S'Crista23'
p166
S'Crista23/MachineTranslation'
p167
tp168
a(S'TrustPipe_Public'
p169
S'TrustPipe'
p170
S'TrustPipe/TrustPipe_Public'
p171
tp172
a(S'newlisp-projects'
p173
S'irr'
p174
S'irr/newlisp-projects'
p175
tp176
a(S'lisp-experiments'
p177
S'theDrake'
p178
S'theDrake/lisp-experiments'
p179
tp180
a(S'newlisp-hin'
p181
S'fernandocanizo'
p182
S'fernandocanizo/newlisp-hin'
p183
tp184
a(S'newlisp-webscraps'
p185
S'fernandocanizo'
p186
S'fernandocanizo/newlisp-webscraps'
p187
tp188
a(S'shtookovina-config'
p189
S'mrkkrp'
p190
S'mrkkrp/shtookovina-config'
p191
tp192
a(S'cl-test-grid-results'
p193
S'cl-test-grid'
p194
S'cl-test-grid/cl-test-grid-results'
p195
tp196
a(S'CL-FreeImage'
p197
S'BradWBeer'
p198
S'BradWBeer/CL-FreeImage'
p199
tp200
a(S'nikki'
p201
S'nikki-and-the-robots'
p202
S'nikki-and-the-robots/nikki'
p203
tp204
a(S'EthereumContracts'
p205
S'androlo'
p206
S'androlo/EthereumContracts'
p207
tp208
a(S'newlisp-projects'
p209
S'cormullion'
p210
S'cormullion/newlisp-projects'
p211
tp212
a(S'newLISP-on-Rockets'
p213
S'newlisponrockets'
p214
S'newlisponrockets/newLISP-on-Rockets'
p215
tp216
a(S'radiance'
p217
S'Shirakumo'
p218
S'Shirakumo/radiance'
p219
tp220
a(S'newlisp.snippet'
p221
S'kosh04'
p222
S'kosh04/newlisp.snippet'
p223
tp224
a(S'newlisp-matrix-client'
p225
S'IngoHohmann'
p226
S'IngoHohmann/newlisp-matrix-client'
p227
tp228
a(S'DeepSemLex'
p229
S'wdebeaum'
p230
S'wdebeaum/DeepSemLex'
p231
tp232
a(S'docker-sbcl'
p233
S'bakketun'
p234
S'bakketun/docker-sbcl'
p235
tp236
a(S'leestmeer'
p237
S'Eragon666'
p238
S'Eragon666/leestmeer'
p239
tp240
a(S'SICP-Answers'
p241
S'Byelaney'
p242
S'Byelaney/SICP-Answers'
p243
tp244
a(S'docker-quicksbcl'
p245
S'davazp'
p246
S'davazp/docker-quicksbcl'
p247
tp248
a(S'newlisp-labs'
p249
S'irr'
p250
S'irr/newlisp-labs'
p251
tp252
a(S'SparQ'
p253
S'dwolter'
p254
S'dwolter/SparQ'
p255
tp256
a(S'bdu'
p257
S'dahu'
p258
S'dahu/bdu'
p259
tp260
a(S'nrc'
p261
S'djwalther'
p262
S'djwalther/nrc'
p263
tp264
a(S'MachineTranslation'
p265
S'Crista23'
p266
S'Crista23/MachineTranslation'
p267
tp268
a(S'TrustPipe_Public'
p269
S'TrustPipe'
p270
S'TrustPipe/TrustPipe_Public'
p271
tp272
a(S'newlisp-projects'
p273
S'irr'
p274
S'irr/newlisp-projects'
p275
tp276
a(S'lisp-experiments'
p277
S'theDrake'
p278
S'theDrake/lisp-experiments'
p279
tp280
a(S'newlisp-hin'
p281
S'fernandocanizo'
p282
S'fernandocanizo/newlisp-hin'
p283
tp284
a(S'newlisp-webscraps'
p285
S'fernandocanizo'
p286
S'fernandocanizo/newlisp-webscraps'
p287
tp288
a(S'shtookovina-config'
p289
S'mrkkrp'
p290
S'mrkkrp/shtookovina-config'
p291
tp292
a(S'cl-test-grid-results'
p293
S'cl-test-grid'
p294
S'cl-test-grid/cl-test-grid-results'
p295
tp296
a(S'CL-FreeImage'
p297
S'BradWBeer'
p298
S'BradWBeer/CL-FreeImage'
p299
tp300
a.