(lp0
(S'nginx-config'
p1
S'magenx'
p2
S'magenx/nginx-config'
p3
tp4
a(S'server-configs-nginx'
p5
S'h5bp'
p6
S'h5bp/server-configs-nginx'
p7
tp8
a(S'drupal-with-nginx'
p9
S'perusio'
p10
S'perusio/drupal-with-nginx'
p11
tp12
a(S'php-dockerized'
p13
S'kasperisager'
p14
S'kasperisager/php-dockerized'
p15
tp16
a(S'piwik-nginx'
p17
S'perusio'
p18
S'perusio/piwik-nginx'
p19
tp20
a(S'graphite-fabric'
p21
S'gingerlime'
p22
S'gingerlime/graphite-fabric'
p23
tp24
a(S'docker-symfony'
p25
S'eko'
p26
S'eko/docker-symfony'
p27
tp28
a(S'ansible'
p29
S'heybigname'
p30
S'heybigname/ansible'
p31
tp32
a(S'nodejs.org-archive'
p33
S'nodejs'
p34
S'nodejs/nodejs.org-archive'
p35
tp36
a(S'docker-magento'
p37
S'kojiromike'
p38
S'kojiromike/docker-magento'
p39
tp40
a(S'openresty-docker'
p41
S'torhve'
p42
S'torhve/openresty-docker'
p43
tp44
a(S'yii2-advanced-one-domain-config'
p45
S'mickgeek'
p46
S'mickgeek/yii2-advanced-one-domain-config'
p47
tp48
a(S'webserverinstall.ubuntu12.04'
p49
S'magnetikonline'
p50
S'magnetikonline/webserverinstall.ubuntu12.04'
p51
tp52
a(S'the_setup'
p53
S'ernie'
p54
S'ernie/the_setup'
p55
tp56
a(S'docker-gunicorn-nginx'
p57
S'rehabstudio'
p58
S'rehabstudio/docker-gunicorn-nginx'
p59
tp60
a(S'using-ngxlua-in-upyun'
p61
S'timebug'
p62
S'timebug/using-ngxlua-in-upyun'
p63
tp64
a(S'dwight-conrad'
p65
S'3scale'
p66
S'3scale/dwight-conrad'
p67
tp68
a(S'nginx-opencart'
p69
S'david-rahrer'
p70
S'david-rahrer/nginx-opencart'
p71
tp72
a(S'docker-nginx'
p73
S'KyleAMathews'
p74
S'KyleAMathews/docker-nginx'
p75
tp76
a(S'PlexLoadBalancer'
p77
S'evreichard'
p78
S'evreichard/PlexLoadBalancer'
p79
tp80
a(S'vagrantops'
p81
S'vagrant-ops'
p82
S'vagrant-ops/vagrantops'
p83
tp84
a(S'docker-nginx-php'
p85
S'romeOz'
p86
S'romeOz/docker-nginx-php'
p87
tp88
a(S'nginx-unicorn-sinatra'
p89
S'p8952'
p90
S'p8952/nginx-unicorn-sinatra'
p91
tp92
a(S'shopware-with-nginx'
p93
S'bcremer'
p94
S'bcremer/shopware-with-nginx'
p95
tp96
a(S'nginx-configuration-for-ExpressionEngine'
p97
S'vector'
p98
S'vector/nginx-configuration-for-ExpressionEngine'
p99
tp100
a(S'php-dockerized'
p101
S'kasperisager'
p102
S'kasperisager/php-dockerized'
p103
tp104
a(S'server-configs-nginx'
p105
S'h5bp'
p106
S'h5bp/server-configs-nginx'
p107
tp108
a(S'drupal-with-nginx'
p109
S'perusio'
p110
S'perusio/drupal-with-nginx'
p111
tp112
a(S'piwik-nginx'
p113
S'perusio'
p114
S'perusio/piwik-nginx'
p115
tp116
a(S'graphite-fabric'
p117
S'gingerlime'
p118
S'gingerlime/graphite-fabric'
p119
tp120
a(S'docker-symfony'
p121
S'eko'
p122
S'eko/docker-symfony'
p123
tp124
a(S'nginx-config'
p125
S'magenx'
p126
S'magenx/nginx-config'
p127
tp128
a(S'ansible'
p129
S'heybigname'
p130
S'heybigname/ansible'
p131
tp132
a(S'nodejs.org-archive'
p133
S'nodejs'
p134
S'nodejs/nodejs.org-archive'
p135
tp136
a(S'docker-magento'
p137
S'kojiromike'
p138
S'kojiromike/docker-magento'
p139
tp140
a(S'openresty-docker'
p141
S'torhve'
p142
S'torhve/openresty-docker'
p143
tp144
a(S'yii2-advanced-one-domain-config'
p145
S'mickgeek'
p146
S'mickgeek/yii2-advanced-one-domain-config'
p147
tp148
a(S'webserverinstall.ubuntu12.04'
p149
S'magnetikonline'
p150
S'magnetikonline/webserverinstall.ubuntu12.04'
p151
tp152
a(S'the_setup'
p153
S'ernie'
p154
S'ernie/the_setup'
p155
tp156
a(S'docker-gunicorn-nginx'
p157
S'rehabstudio'
p158
S'rehabstudio/docker-gunicorn-nginx'
p159
tp160
a(S'using-ngxlua-in-upyun'
p161
S'timebug'
p162
S'timebug/using-ngxlua-in-upyun'
p163
tp164
a(S'dwight-conrad'
p165
S'3scale'
p166
S'3scale/dwight-conrad'
p167
tp168
a(S'nginx-opencart'
p169
S'david-rahrer'
p170
S'david-rahrer/nginx-opencart'
p171
tp172
a(S'docker-nginx'
p173
S'KyleAMathews'
p174
S'KyleAMathews/docker-nginx'
p175
tp176
a(S'PlexLoadBalancer'
p177
S'evreichard'
p178
S'evreichard/PlexLoadBalancer'
p179
tp180
a(S'vagrantops'
p181
S'vagrant-ops'
p182
S'vagrant-ops/vagrantops'
p183
tp184
a(S'docker-nginx-php'
p185
S'romeOz'
p186
S'romeOz/docker-nginx-php'
p187
tp188
a(S'shopware-with-nginx'
p189
S'bcremer'
p190
S'bcremer/shopware-with-nginx'
p191
tp192
a(S'nginx-unicorn-sinatra'
p193
S'p8952'
p194
S'p8952/nginx-unicorn-sinatra'
p195
tp196
a(S'nginx-configuration-for-ExpressionEngine'
p197
S'vector'
p198
S'vector/nginx-configuration-for-ExpressionEngine'
p199
tp200
a(S'php-dockerized'
p201
S'kasperisager'
p202
S'kasperisager/php-dockerized'
p203
tp204
a(S'HoneyPress'
p205
S'dustyfresh'
p206
S'dustyfresh/HoneyPress'
p207
tp208
a(S'nginx-config'
p209
S'magenx'
p210
S'magenx/nginx-config'
p211
tp212
a(S'nginx-opencart'
p213
S'david-rahrer'
p214
S'david-rahrer/nginx-opencart'
p215
tp216
a(S'server-configs-nginx'
p217
S'h5bp'
p218
S'h5bp/server-configs-nginx'
p219
tp220
a(S'drupal-with-nginx'
p221
S'perusio'
p222
S'perusio/drupal-with-nginx'
p223
tp224
a(S'piwik-nginx'
p225
S'perusio'
p226
S'perusio/piwik-nginx'
p227
tp228
a(S'graphite-fabric'
p229
S'gingerlime'
p230
S'gingerlime/graphite-fabric'
p231
tp232
a(S'docker-symfony'
p233
S'eko'
p234
S'eko/docker-symfony'
p235
tp236
a(S'ansible'
p237
S'heybigname'
p238
S'heybigname/ansible'
p239
tp240
a(S'nodejs.org-archive'
p241
S'nodejs'
p242
S'nodejs/nodejs.org-archive'
p243
tp244
a(S'docker-magento'
p245
S'kojiromike'
p246
S'kojiromike/docker-magento'
p247
tp248
a(S'openresty-docker'
p249
S'torhve'
p250
S'torhve/openresty-docker'
p251
tp252
a(S'yii2-advanced-one-domain-config'
p253
S'mickgeek'
p254
S'mickgeek/yii2-advanced-one-domain-config'
p255
tp256
a(S'webserverinstall.ubuntu12.04'
p257
S'magnetikonline'
p258
S'magnetikonline/webserverinstall.ubuntu12.04'
p259
tp260
a(S'the_setup'
p261
S'ernie'
p262
S'ernie/the_setup'
p263
tp264
a(S'docker-gunicorn-nginx'
p265
S'rehabstudio'
p266
S'rehabstudio/docker-gunicorn-nginx'
p267
tp268
a(S'using-ngxlua-in-upyun'
p269
S'timebug'
p270
S'timebug/using-ngxlua-in-upyun'
p271
tp272
a(S'dwight-conrad'
p273
S'3scale'
p274
S'3scale/dwight-conrad'
p275
tp276
a(S'docker-nginx'
p277
S'KyleAMathews'
p278
S'KyleAMathews/docker-nginx'
p279
tp280
a(S'PlexLoadBalancer'
p281
S'evreichard'
p282
S'evreichard/PlexLoadBalancer'
p283
tp284
a(S'vagrantops'
p285
S'vagrant-ops'
p286
S'vagrant-ops/vagrantops'
p287
tp288
a(S'docker-nginx-php'
p289
S'romeOz'
p290
S'romeOz/docker-nginx-php'
p291
tp292
a(S'shopware-with-nginx'
p293
S'bcremer'
p294
S'bcremer/shopware-with-nginx'
p295
tp296
a(S'nginx-unicorn-sinatra'
p297
S'p8952'
p298
S'p8952/nginx-unicorn-sinatra'
p299
tp300
a.