(lp0
(S'Nim'
p1
S'nim-lang'
p2
S'nim-lang/Nim'
p3
tp4
a(S'jester'
p5
S'dom96'
p6
S'dom96/jester'
p7
tp8
a(S'nimkernel'
p9
S'dom96'
p10
S'dom96/nimkernel'
p11
tp12
a(S'Aporia'
p13
S'nim-lang'
p14
S'nim-lang/Aporia'
p15
tp16
a(S'nimble'
p17
S'nim-lang'
p18
S'nim-lang/nimble'
p19
tp20
a(S'nimes'
p21
S'def-'
p22
S'def-/nimes'
p23
tp24
a(S'nim-xv6'
p25
S'ckkashyap'
p26
S'ckkashyap/nim-xv6'
p27
tp28
a(S'nawak'
p29
S'idlewan'
p30
S'idlewan/nawak'
p31
tp32
a(S'wiki2text'
p33
S'rspeer'
p34
S'rspeer/wiki2text'
p35
tp36
a(S'ni'
p37
S'gokr'
p38
S'gokr/ni'
p39
tp40
a(S'packages'
p41
S'nim-lang'
p42
S'nim-lang/packages'
p43
tp44
a(S'nimlibs'
p45
S'fowlmouth'
p46
S'fowlmouth/nimlibs'
p47
tp48
a(S'nake'
p49
S'fowlmouth'
p50
S'fowlmouth/nake'
p51
tp52
a(S'c2nim'
p53
S'nim-lang'
p54
S'nim-lang/c2nim'
p55
tp56
a(S'linear-algebra'
p57
S'unicredit'
p58
S'unicredit/linear-algebra'
p59
tp60
a(S'emerald'
p61
S'flyx'
p62
S'flyx/emerald'
p63
tp64
a(S'ipsumgenera'
p65
S'dom96'
p66
S'dom96/ipsumgenera'
p67
tp68
a(S'NimBorg'
p69
S'micklat'
p70
S'micklat/NimBorg'
p71
tp72
a(S'nimx'
p73
S'yglukhov'
p74
S'yglukhov/nimx'
p75
tp76
a(S'nim-unsorted'
p77
S'def-'
p78
S'def-/nim-unsorted'
p79
tp80
a(S'docopt.nim'
p81
S'docopt'
p82
S'docopt/docopt.nim'
p83
tp84
a(S'sdl2'
p85
S'nim-lang'
p86
S'nim-lang/sdl2'
p87
tp88
a(S'golib-nim'
p89
S'stefantalpalaru'
p90
S'stefantalpalaru/golib-nim'
p91
tp92
a(S'commandeer'
p93
S'fenekku'
p94
S'fenekku/commandeer'
p95
tp96
a(S'nim-csfml'
p97
S'BlaXpirit'
p98
S'BlaXpirit/nim-csfml'
p99
tp100
a(S'Nim'
p101
S'nim-lang'
p102
S'nim-lang/Nim'
p103
tp104
a(S'jester'
p105
S'dom96'
p106
S'dom96/jester'
p107
tp108
a(S'nimkernel'
p109
S'dom96'
p110
S'dom96/nimkernel'
p111
tp112
a(S'Aporia'
p113
S'nim-lang'
p114
S'nim-lang/Aporia'
p115
tp116
a(S'nimble'
p117
S'nim-lang'
p118
S'nim-lang/nimble'
p119
tp120
a(S'nimes'
p121
S'def-'
p122
S'def-/nimes'
p123
tp124
a(S'nim-xv6'
p125
S'ckkashyap'
p126
S'ckkashyap/nim-xv6'
p127
tp128
a(S'nawak'
p129
S'idlewan'
p130
S'idlewan/nawak'
p131
tp132
a(S'wiki2text'
p133
S'rspeer'
p134
S'rspeer/wiki2text'
p135
tp136
a(S'ni'
p137
S'gokr'
p138
S'gokr/ni'
p139
tp140
a(S'packages'
p141
S'nim-lang'
p142
S'nim-lang/packages'
p143
tp144
a(S'nimlibs'
p145
S'fowlmouth'
p146
S'fowlmouth/nimlibs'
p147
tp148
a(S'nake'
p149
S'fowlmouth'
p150
S'fowlmouth/nake'
p151
tp152
a(S'c2nim'
p153
S'nim-lang'
p154
S'nim-lang/c2nim'
p155
tp156
a(S'emerald'
p157
S'flyx'
p158
S'flyx/emerald'
p159
tp160
a(S'linear-algebra'
p161
S'unicredit'
p162
S'unicredit/linear-algebra'
p163
tp164
a(S'ipsumgenera'
p165
S'dom96'
p166
S'dom96/ipsumgenera'
p167
tp168
a(S'nimx'
p169
S'yglukhov'
p170
S'yglukhov/nimx'
p171
tp172
a(S'NimBorg'
p173
S'micklat'
p174
S'micklat/NimBorg'
p175
tp176
a(S'docopt.nim'
p177
S'docopt'
p178
S'docopt/docopt.nim'
p179
tp180
a(S'nim-unsorted'
p181
S'def-'
p182
S'def-/nim-unsorted'
p183
tp184
a(S'sdl2'
p185
S'nim-lang'
p186
S'nim-lang/sdl2'
p187
tp188
a(S'golib-nim'
p189
S'stefantalpalaru'
p190
S'stefantalpalaru/golib-nim'
p191
tp192
a(S'commandeer'
p193
S'fenekku'
p194
S'fenekku/commandeer'
p195
tp196
a(S'nim-csfml'
p197
S'BlaXpirit'
p198
S'BlaXpirit/nim-csfml'
p199
tp200
a(S'Nim'
p201
S'nim-lang'
p202
S'nim-lang/Nim'
p203
tp204
a(S'jester'
p205
S'dom96'
p206
S'dom96/jester'
p207
tp208
a(S'Aporia'
p209
S'nim-lang'
p210
S'nim-lang/Aporia'
p211
tp212
a(S'nimkernel'
p213
S'dom96'
p214
S'dom96/nimkernel'
p215
tp216
a(S'nimble'
p217
S'nim-lang'
p218
S'nim-lang/nimble'
p219
tp220
a(S'nimes'
p221
S'def-'
p222
S'def-/nimes'
p223
tp224
a(S'nim-xv6'
p225
S'ckkashyap'
p226
S'ckkashyap/nim-xv6'
p227
tp228
a(S'nawak'
p229
S'idlewan'
p230
S'idlewan/nawak'
p231
tp232
a(S'wiki2text'
p233
S'rspeer'
p234
S'rspeer/wiki2text'
p235
tp236
a(S'ni'
p237
S'gokr'
p238
S'gokr/ni'
p239
tp240
a(S'packages'
p241
S'nim-lang'
p242
S'nim-lang/packages'
p243
tp244
a(S'nimlibs'
p245
S'fowlmouth'
p246
S'fowlmouth/nimlibs'
p247
tp248
a(S'nake'
p249
S'fowlmouth'
p250
S'fowlmouth/nake'
p251
tp252
a(S'c2nim'
p253
S'nim-lang'
p254
S'nim-lang/c2nim'
p255
tp256
a(S'linear-algebra'
p257
S'unicredit'
p258
S'unicredit/linear-algebra'
p259
tp260
a(S'emerald'
p261
S'flyx'
p262
S'flyx/emerald'
p263
tp264
a(S'ipsumgenera'
p265
S'dom96'
p266
S'dom96/ipsumgenera'
p267
tp268
a(S'nimx'
p269
S'yglukhov'
p270
S'yglukhov/nimx'
p271
tp272
a(S'NimBorg'
p273
S'micklat'
p274
S'micklat/NimBorg'
p275
tp276
a(S'docopt.nim'
p277
S'docopt'
p278
S'docopt/docopt.nim'
p279
tp280
a(S'nim-unsorted'
p281
S'def-'
p282
S'def-/nim-unsorted'
p283
tp284
a(S'sdl2'
p285
S'nim-lang'
p286
S'nim-lang/sdl2'
p287
tp288
a(S'golib-nim'
p289
S'stefantalpalaru'
p290
S'stefantalpalaru/golib-nim'
p291
tp292
a(S'commandeer'
p293
S'fenekku'
p294
S'fenekku/commandeer'
p295
tp296
a(S'nim-csfml'
p297
S'BlaXpirit'
p298
S'BlaXpirit/nim-csfml'
p299
tp300
a.