(lp0
(S'brewnit'
p1
S'R4PaSs'
p2
S'R4PaSs/brewnit'
p3
tp4
a(S'nitcorn'
p5
S'xymus'
p6
S'xymus/nitcorn'
p7
tp8
a(S'nitfind'
p9
S'PuerkitoBio'
p10
S'PuerkitoBio/nitfind'
p11
tp12
a(S'pqnit'
p13
S'michauds'
p14
S'michauds/pqnit'
p15
tp16
a(S'Framework_Graph_Nit'
p17
S'Falindir'
p18
S'Falindir/Framework_Graph_Nit'
p19
tp20
a(S'nit-labs'
p21
S'irr'
p22
S'irr/nit-labs'
p23
tp24
a(S'nitcorn'
p25
S'jamiepg1'
p26
S'jamiepg1/nitcorn'
p27
tp28
a(S'brewnit'
p29
S'jamiepg1'
p30
S'jamiepg1/brewnit'
p31
tp32
a(S'brewnit'
p33
S'Morriar'
p34
S'Morriar/brewnit'
p35
tp36
a(S'brewnit'
p37
S'privat'
p38
S'privat/brewnit'
p39
tp40
a(S'brewnit'
p41
S'R4PaSs'
p42
S'R4PaSs/brewnit'
p43
tp44
a(S'nitcorn'
p45
S'xymus'
p46
S'xymus/nitcorn'
p47
tp48
a(S'nitfind'
p49
S'PuerkitoBio'
p50
S'PuerkitoBio/nitfind'
p51
tp52
a(S'pqnit'
p53
S'michauds'
p54
S'michauds/pqnit'
p55
tp56
a(S'Framework_Graph_Nit'
p57
S'Falindir'
p58
S'Falindir/Framework_Graph_Nit'
p59
tp60
a(S'nit-labs'
p61
S'irr'
p62
S'irr/nit-labs'
p63
tp64
a(S'nitcorn'
p65
S'jamiepg1'
p66
S'jamiepg1/nitcorn'
p67
tp68
a(S'brewnit'
p69
S'jamiepg1'
p70
S'jamiepg1/brewnit'
p71
tp72
a(S'brewnit'
p73
S'Morriar'
p74
S'Morriar/brewnit'
p75
tp76
a(S'brewnit'
p77
S'privat'
p78
S'privat/brewnit'
p79
tp80
a(S'brewnit'
p81
S'R4PaSs'
p82
S'R4PaSs/brewnit'
p83
tp84
a(S'nitcorn'
p85
S'xymus'
p86
S'xymus/nitcorn'
p87
tp88
a(S'nitfind'
p89
S'PuerkitoBio'
p90
S'PuerkitoBio/nitfind'
p91
tp92
a(S'pqnit'
p93
S'michauds'
p94
S'michauds/pqnit'
p95
tp96
a(S'Framework_Graph_Nit'
p97
S'Falindir'
p98
S'Falindir/Framework_Graph_Nit'
p99
tp100
a(S'nit-labs'
p101
S'irr'
p102
S'irr/nit-labs'
p103
tp104
a(S'nitcorn'
p105
S'jamiepg1'
p106
S'jamiepg1/nitcorn'
p107
tp108
a(S'brewnit'
p109
S'jamiepg1'
p110
S'jamiepg1/brewnit'
p111
tp112
a(S'brewnit'
p113
S'Morriar'
p114
S'Morriar/brewnit'
p115
tp116
a(S'brewnit'
p117
S'privat'
p118
S'privat/brewnit'
p119
tp120
a.