(lp0
(S'nixpkgs'
p1
S'NixOS'
p2
S'NixOS/nixpkgs'
p3
tp4
a(S'nix-docker'
p5
S'zefhemel'
p6
S'zefhemel/nix-docker'
p7
tp8
a(S'try-reflex'
p9
S'ryantrinkle'
p10
S'ryantrinkle/try-reflex'
p11
tp12
a(S'upcast'
p13
S'zalora'
p14
S'zalora/upcast'
p15
tp16
a(S'hnix'
p17
S'jwiegley'
p18
S'jwiegley/hnix'
p19
tp20
a(S'nix-build-ghc-android'
p21
S'wavewave'
p22
S'wavewave/nix-build-ghc-android'
p23
tp24
a(S'nixos-configurations'
p25
S'chaoflow'
p26
S'chaoflow/nixos-configurations'
p27
tp28
a(S'microgram'
p29
S'zalora'
p30
S'zalora/microgram'
p31
tp32
a(S'nix-rehash'
p33
S'kiberpipa'
p34
S'kiberpipa/nix-rehash'
p35
tp36
a(S'nix-files'
p37
S'puffnfresh'
p38
S'puffnfresh/nix-files'
p39
tp40
a(S'nix-config'
p41
S'jwiegley'
p42
S'jwiegley/nix-config'
p43
tp44
a(S'idrispkgs'
p45
S'idris-hackers'
p46
S'idris-hackers/idrispkgs'
p47
tp48
a(S'airnix'
p49
S'ajhager'
p50
S'ajhager/airnix'
p51
tp52
a(S'nix-project-defaults'
p53
S'Fuuzetsu'
p54
S'Fuuzetsu/nix-project-defaults'
p55
tp56
a(S'nixos'
p57
S'oxdi'
p58
S'oxdi/nixos'
p59
tp60
a(S'auron'
p61
S'haskell-infra'
p62
S'haskell-infra/auron'
p63
tp64
a(S'deployment'
p65
S'headcounter'
p66
S'headcounter/deployment'
p67
tp68
a(S'nix-rice'
p69
S'MagneticDuck'
p70
S'MagneticDuck/nix-rice'
p71
tp72
a(S'musnix'
p73
S'musnix'
p74
S'musnix/musnix'
p75
tp76
a(S'nixcfg'
p77
S'bodil'
p78
S'bodil/nixcfg'
p79
tp80
a(S'nix_configs'
p81
S'coreyoconnor'
p82
S'coreyoconnor/nix_configs'
p83
tp84
a(S'nixrc'
p85
S'auntieNeo'
p86
S'auntieNeo/nixrc'
p87
tp88
a(S'vuizvui'
p89
S'openlab-aux'
p90
S'openlab-aux/vuizvui'
p91
tp92
a(S'defnix'
p93
S'zalora'
p94
S'zalora/defnix'
p95
tp96
a(S'nix-config'
p97
S'daviwil'
p98
S'daviwil/nix-config'
p99
tp100
a(S'nixpkgs'
p101
S'NixOS'
p102
S'NixOS/nixpkgs'
p103
tp104
a(S'nix-docker'
p105
S'zefhemel'
p106
S'zefhemel/nix-docker'
p107
tp108
a(S'try-reflex'
p109
S'ryantrinkle'
p110
S'ryantrinkle/try-reflex'
p111
tp112
a(S'upcast'
p113
S'zalora'
p114
S'zalora/upcast'
p115
tp116
a(S'hnix'
p117
S'jwiegley'
p118
S'jwiegley/hnix'
p119
tp120
a(S'nix-build-ghc-android'
p121
S'wavewave'
p122
S'wavewave/nix-build-ghc-android'
p123
tp124
a(S'nixos-configurations'
p125
S'chaoflow'
p126
S'chaoflow/nixos-configurations'
p127
tp128
a(S'microgram'
p129
S'zalora'
p130
S'zalora/microgram'
p131
tp132
a(S'nix-rehash'
p133
S'kiberpipa'
p134
S'kiberpipa/nix-rehash'
p135
tp136
a(S'nix-files'
p137
S'puffnfresh'
p138
S'puffnfresh/nix-files'
p139
tp140
a(S'nix-config'
p141
S'jwiegley'
p142
S'jwiegley/nix-config'
p143
tp144
a(S'idrispkgs'
p145
S'idris-hackers'
p146
S'idris-hackers/idrispkgs'
p147
tp148
a(S'airnix'
p149
S'ajhager'
p150
S'ajhager/airnix'
p151
tp152
a(S'nixos'
p153
S'oxdi'
p154
S'oxdi/nixos'
p155
tp156
a(S'auron'
p157
S'haskell-infra'
p158
S'haskell-infra/auron'
p159
tp160
a(S'nix-project-defaults'
p161
S'Fuuzetsu'
p162
S'Fuuzetsu/nix-project-defaults'
p163
tp164
a(S'deployment'
p165
S'headcounter'
p166
S'headcounter/deployment'
p167
tp168
a(S'nix-rice'
p169
S'MagneticDuck'
p170
S'MagneticDuck/nix-rice'
p171
tp172
a(S'musnix'
p173
S'musnix'
p174
S'musnix/musnix'
p175
tp176
a(S'nixcfg'
p177
S'bodil'
p178
S'bodil/nixcfg'
p179
tp180
a(S'nix_configs'
p181
S'coreyoconnor'
p182
S'coreyoconnor/nix_configs'
p183
tp184
a(S'nixrc'
p185
S'auntieNeo'
p186
S'auntieNeo/nixrc'
p187
tp188
a(S'vuizvui'
p189
S'openlab-aux'
p190
S'openlab-aux/vuizvui'
p191
tp192
a(S'nix-config'
p193
S'daviwil'
p194
S'daviwil/nix-config'
p195
tp196
a(S'nixos-org-configurations'
p197
S'NixOS'
p198
S'NixOS/nixos-org-configurations'
p199
tp200
a(S'nixpkgs'
p201
S'NixOS'
p202
S'NixOS/nixpkgs'
p203
tp204
a(S'try-reflex'
p205
S'ryantrinkle'
p206
S'ryantrinkle/try-reflex'
p207
tp208
a(S'upcast'
p209
S'zalora'
p210
S'zalora/upcast'
p211
tp212
a(S'nix-docker'
p213
S'zefhemel'
p214
S'zefhemel/nix-docker'
p215
tp216
a(S'hnix'
p217
S'jwiegley'
p218
S'jwiegley/hnix'
p219
tp220
a(S'nix-build-ghc-android'
p221
S'wavewave'
p222
S'wavewave/nix-build-ghc-android'
p223
tp224
a(S'nixos-configurations'
p225
S'chaoflow'
p226
S'chaoflow/nixos-configurations'
p227
tp228
a(S'microgram'
p229
S'zalora'
p230
S'zalora/microgram'
p231
tp232
a(S'nix-rehash'
p233
S'kiberpipa'
p234
S'kiberpipa/nix-rehash'
p235
tp236
a(S'nix-files'
p237
S'puffnfresh'
p238
S'puffnfresh/nix-files'
p239
tp240
a(S'nix-config'
p241
S'jwiegley'
p242
S'jwiegley/nix-config'
p243
tp244
a(S'airnix'
p245
S'ajhager'
p246
S'ajhager/airnix'
p247
tp248
a(S'idrispkgs'
p249
S'idris-hackers'
p250
S'idris-hackers/idrispkgs'
p251
tp252
a(S'nix-project-defaults'
p253
S'Fuuzetsu'
p254
S'Fuuzetsu/nix-project-defaults'
p255
tp256
a(S'nixos'
p257
S'oxdi'
p258
S'oxdi/nixos'
p259
tp260
a(S'auron'
p261
S'haskell-infra'
p262
S'haskell-infra/auron'
p263
tp264
a(S'nix-rice'
p265
S'MagneticDuck'
p266
S'MagneticDuck/nix-rice'
p267
tp268
a(S'deployment'
p269
S'headcounter'
p270
S'headcounter/deployment'
p271
tp272
a(S'nixcfg'
p273
S'bodil'
p274
S'bodil/nixcfg'
p275
tp276
a(S'musnix'
p277
S'musnix'
p278
S'musnix/musnix'
p279
tp280
a(S'nix_configs'
p281
S'coreyoconnor'
p282
S'coreyoconnor/nix_configs'
p283
tp284
a(S'vuizvui'
p285
S'openlab-aux'
p286
S'openlab-aux/vuizvui'
p287
tp288
a(S'nixrc'
p289
S'auntieNeo'
p290
S'auntieNeo/nixrc'
p291
tp292
a(S'nixos-cookbook'
p293
S'aaronlevin'
p294
S'aaronlevin/nixos-cookbook'
p295
tp296
a(S'defnix'
p297
S'zalora'
p298
S'zalora/defnix'
p299
tp300
a.