(lp0
(S'gow'
p1
S'bmatzelle'
p2
S'bmatzelle/gow'
p3
tp4
a(S'ipscan'
p5
S'angryziber'
p6
S'angryziber/ipscan'
p7
tp8
a(S'elm-platform'
p9
S'elm-lang'
p10
S'elm-lang/elm-platform'
p11
tp12
a(S'ocaml-installer'
p13
S'protz'
p14
S'protz/ocaml-installer'
p15
tp16
a(S'cjdns-installer'
p17
S'interfect'
p18
S'interfect/cjdns-installer'
p19
tp20
a(S'GTK-for-Windows-Runtime-Environment-Installer'
p21
S'tschoonj'
p22
S'tschoonj/GTK-for-Windows-Runtime-Environment-Installer'
p23
tp24
a(S'unsis'
p25
S'jimpark'
p26
S'jimpark/unsis'
p27
tp28
a(S'basex-dist'
p29
S'BaseXdb'
p30
S'BaseXdb/basex-dist'
p31
tp32
a(S'OpenBazaar-Installer'
p33
S'OpenBazaar'
p34
S'OpenBazaar/OpenBazaar-Installer'
p35
tp36
a(S'WtWSMS'
p37
S'loup99'
p38
S'loup99/WtWSMS'
p39
tp40
a(S'installer'
p41
S'Red5'
p42
S'Red5/installer'
p43
tp44
a(S'tws'
p45
S'dbanet'
p46
S'dbanet/tws'
p47
tp48
a(S'fzk-mde-garmin'
p49
S'freizeitkarte'
p50
S'freizeitkarte/fzk-mde-garmin'
p51
tp52
a(S'prettylight'
p53
S'NikSudan'
p54
S'NikSudan/prettylight'
p55
tp56
a(S'KiCad-Winbuilder'
p57
S'nickoe'
p58
S'nickoe/KiCad-Winbuilder'
p59
tp60
a(S'gamemaker-tutorials'
p61
S'robmuh'
p62
S'robmuh/gamemaker-tutorials'
p63
tp64
a(S'BoKCG'
p65
S'iampixelized'
p66
S'iampixelized/BoKCG'
p67
tp68
a(S'rhoinstaller'
p69
S'rhomobile'
p70
S'rhomobile/rhoinstaller'
p71
tp72
a(S'player-native'
p73
S'Rise-Vision'
p74
S'Rise-Vision/player-native'
p75
tp76
a(S'ParticleToolchainInstaller'
p77
S'mumblepins'
p78
S'mumblepins/ParticleToolchainInstaller'
p79
tp80
a(S'osmphgps'
p81
S'schadow1'
p82
S'schadow1/osmphgps'
p83
tp84
a(S'haskell-platform-windows'
p85
S'23Skidoo'
p86
S'23Skidoo/haskell-platform-windows'
p87
tp88
a(S'audacious-installer'
p89
S'skeeto'
p90
S'skeeto/audacious-installer'
p91
tp92
a(S'Game-that-does-not-have-a-name-yet'
p93
S'joshuaw-game-alpha-testers'
p94
S'joshuaw-game-alpha-testers/Game-that-does-not-have-a-name-yet'
p95
tp96
a(S'pinguino-installers'
p97
S'PinguinoIDE'
p98
S'PinguinoIDE/pinguino-installers'
p99
tp100
a(S'gow'
p101
S'bmatzelle'
p102
S'bmatzelle/gow'
p103
tp104
a(S'ipscan'
p105
S'angryziber'
p106
S'angryziber/ipscan'
p107
tp108
a(S'elm-platform'
p109
S'elm-lang'
p110
S'elm-lang/elm-platform'
p111
tp112
a(S'ocaml-installer'
p113
S'protz'
p114
S'protz/ocaml-installer'
p115
tp116
a(S'cjdns-installer'
p117
S'interfect'
p118
S'interfect/cjdns-installer'
p119
tp120
a(S'GTK-for-Windows-Runtime-Environment-Installer'
p121
S'tschoonj'
p122
S'tschoonj/GTK-for-Windows-Runtime-Environment-Installer'
p123
tp124
a(S'unsis'
p125
S'jimpark'
p126
S'jimpark/unsis'
p127
tp128
a(S'basex-dist'
p129
S'BaseXdb'
p130
S'BaseXdb/basex-dist'
p131
tp132
a(S'OpenBazaar-Installer'
p133
S'OpenBazaar'
p134
S'OpenBazaar/OpenBazaar-Installer'
p135
tp136
a(S'WtWSMS'
p137
S'loup99'
p138
S'loup99/WtWSMS'
p139
tp140
a(S'installer'
p141
S'Red5'
p142
S'Red5/installer'
p143
tp144
a(S'tws'
p145
S'dbanet'
p146
S'dbanet/tws'
p147
tp148
a(S'fzk-mde-garmin'
p149
S'freizeitkarte'
p150
S'freizeitkarte/fzk-mde-garmin'
p151
tp152
a(S'prettylight'
p153
S'NikSudan'
p154
S'NikSudan/prettylight'
p155
tp156
a(S'KiCad-Winbuilder'
p157
S'nickoe'
p158
S'nickoe/KiCad-Winbuilder'
p159
tp160
a(S'gamemaker-tutorials'
p161
S'robmuh'
p162
S'robmuh/gamemaker-tutorials'
p163
tp164
a(S'BoKCG'
p165
S'iampixelized'
p166
S'iampixelized/BoKCG'
p167
tp168
a(S'rhoinstaller'
p169
S'rhomobile'
p170
S'rhomobile/rhoinstaller'
p171
tp172
a(S'player-native'
p173
S'Rise-Vision'
p174
S'Rise-Vision/player-native'
p175
tp176
a(S'ParticleToolchainInstaller'
p177
S'mumblepins'
p178
S'mumblepins/ParticleToolchainInstaller'
p179
tp180
a(S'osmphgps'
p181
S'schadow1'
p182
S'schadow1/osmphgps'
p183
tp184
a(S'haskell-platform-windows'
p185
S'23Skidoo'
p186
S'23Skidoo/haskell-platform-windows'
p187
tp188
a(S'audacious-installer'
p189
S'skeeto'
p190
S'skeeto/audacious-installer'
p191
tp192
a(S'Game-that-does-not-have-a-name-yet'
p193
S'joshuaw-game-alpha-testers'
p194
S'joshuaw-game-alpha-testers/Game-that-does-not-have-a-name-yet'
p195
tp196
a(S'pinguino-installers'
p197
S'PinguinoIDE'
p198
S'PinguinoIDE/pinguino-installers'
p199
tp200
a(S'elm-platform'
p201
S'elm-lang'
p202
S'elm-lang/elm-platform'
p203
tp204
a(S'gow'
p205
S'bmatzelle'
p206
S'bmatzelle/gow'
p207
tp208
a(S'ipscan'
p209
S'angryziber'
p210
S'angryziber/ipscan'
p211
tp212
a(S'ocaml-installer'
p213
S'protz'
p214
S'protz/ocaml-installer'
p215
tp216
a(S'cjdns-installer'
p217
S'interfect'
p218
S'interfect/cjdns-installer'
p219
tp220
a(S'GTK-for-Windows-Runtime-Environment-Installer'
p221
S'tschoonj'
p222
S'tschoonj/GTK-for-Windows-Runtime-Environment-Installer'
p223
tp224
a(S'unsis'
p225
S'jimpark'
p226
S'jimpark/unsis'
p227
tp228
a(S'basex-dist'
p229
S'BaseXdb'
p230
S'BaseXdb/basex-dist'
p231
tp232
a(S'OpenBazaar-Installer'
p233
S'OpenBazaar'
p234
S'OpenBazaar/OpenBazaar-Installer'
p235
tp236
a(S'WtWSMS'
p237
S'loup99'
p238
S'loup99/WtWSMS'
p239
tp240
a(S'installer'
p241
S'Red5'
p242
S'Red5/installer'
p243
tp244
a(S'fzk-mde-garmin'
p245
S'freizeitkarte'
p246
S'freizeitkarte/fzk-mde-garmin'
p247
tp248
a(S'tws'
p249
S'dbanet'
p250
S'dbanet/tws'
p251
tp252
a(S'prettylight'
p253
S'NikSudan'
p254
S'NikSudan/prettylight'
p255
tp256
a(S'KiCad-Winbuilder'
p257
S'nickoe'
p258
S'nickoe/KiCad-Winbuilder'
p259
tp260
a(S'gamemaker-tutorials'
p261
S'robmuh'
p262
S'robmuh/gamemaker-tutorials'
p263
tp264
a(S'player-native'
p265
S'Rise-Vision'
p266
S'Rise-Vision/player-native'
p267
tp268
a(S'rhoinstaller'
p269
S'rhomobile'
p270
S'rhomobile/rhoinstaller'
p271
tp272
a(S'BoKCG'
p273
S'iampixelized'
p274
S'iampixelized/BoKCG'
p275
tp276
a(S'ParticleToolchainInstaller'
p277
S'mumblepins'
p278
S'mumblepins/ParticleToolchainInstaller'
p279
tp280
a(S'osmphgps'
p281
S'schadow1'
p282
S'schadow1/osmphgps'
p283
tp284
a(S'audacious-installer'
p285
S'skeeto'
p286
S'skeeto/audacious-installer'
p287
tp288
a(S'nirsoft_installer'
p289
S'rasa'
p290
S'rasa/nirsoft_installer'
p291
tp292
a(S'Game-that-does-not-have-a-name-yet'
p293
S'joshuaw-game-alpha-testers'
p294
S'joshuaw-game-alpha-testers/Game-that-does-not-have-a-name-yet'
p295
tp296
a(S'pinguino-installers'
p297
S'PinguinoIDE'
p298
S'PinguinoIDE/pinguino-installers'
p299
tp300
a.