(lp0
(S'cocoa-programming-with-nu'
p1
S'timburks'
p2
S'timburks/cocoa-programming-with-nu'
p3
tp4
a(S'programmingnu'
p5
S'timburks'
p6
S'timburks/programmingnu'
p7
tp8
a(S'nuki'
p9
S'patrickt'
p10
S'patrickt/nuki'
p11
tp12
a(S'20121026-CocoaConf'
p13
S'timburks'
p14
S'timburks/20121026-CocoaConf'
p15
tp16
a(S'numarkdown'
p17
S'timburks'
p18
S'timburks/numarkdown'
p19
tp20
a(S'nuopenglcubedemo'
p21
S'itfrombit'
p22
S'itfrombit/nuopenglcubedemo'
p23
tp24
a(S'MetaPathways'
p25
S'hallamlab'
p26
S'hallamlab/MetaPathways'
p27
tp28
a(S'nug'
p29
S'Grayson'
p30
S'Grayson/nug'
p31
tp32
a(S'vico-fill-in-the-blanks.tmbundle'
p33
S'Shadowfiend'
p34
S'Shadowfiend/vico-fill-in-the-blanks.tmbundle'
p35
tp36
a(S'nom'
p37
S'patrickt'
p38
S'patrickt/nom'
p39
tp40
a(S'thenupill'
p41
S'timburks'
p42
S'timburks/thenupill'
p43
tp44
a(S'nutils'
p45
S'itfrombit'
p46
S'itfrombit/nutils'
p47
tp48
a(S'nupagepacker'
p49
S'timburks'
p50
S'timburks/nupagepacker'
p51
tp52
a(S'Vico'
p53
S'pthrasher'
p54
S'pthrasher/Vico'
p55
tp56
a(S'NuPostgreSQL'
p57
S'timburks'
p58
S'timburks/NuPostgreSQL'
p59
tp60
a(S'doxycleanapp'
p61
S'Grayson'
p62
S'Grayson/doxycleanapp'
p63
tp64
a(S'downloadgooglebooks'
p65
S'Grayson'
p66
S'Grayson/downloadgooglebooks'
p67
tp68
a(S'nu_let_over_lambda'
p69
S'itfrombit'
p70
S'itfrombit/nu_let_over_lambda'
p71
tp72
a(S'pointy-haired-boss.tmbundle'
p73
S'Shadowfiend'
p74
S'Shadowfiend/pointy-haired-boss.tmbundle'
p75
tp76
a(S'nugit'
p77
S'patrickt'
p78
S'patrickt/nugit'
p79
tp80
a(S'nusmartypants'
p81
S'Grayson'
p82
S'Grayson/nusmartypants'
p83
tp84
a(S'supramap-rails3'
p85
S'supramap'
p86
S'supramap/supramap-rails3'
p87
tp88
a(S'nudatadetector'
p89
S'Grayson'
p90
S'Grayson/nudatadetector'
p91
tp92
a(S'NuMarkup'
p93
S'timburks'
p94
S'timburks/NuMarkup'
p95
tp96
a(S'nutitlecase'
p97
S'Grayson'
p98
S'Grayson/nutitlecase'
p99
tp100
a(S'cocoa-programming-with-nu'
p101
S'timburks'
p102
S'timburks/cocoa-programming-with-nu'
p103
tp104
a(S'programmingnu'
p105
S'timburks'
p106
S'timburks/programmingnu'
p107
tp108
a(S'nuki'
p109
S'patrickt'
p110
S'patrickt/nuki'
p111
tp112
a(S'20121026-CocoaConf'
p113
S'timburks'
p114
S'timburks/20121026-CocoaConf'
p115
tp116
a(S'numarkdown'
p117
S'timburks'
p118
S'timburks/numarkdown'
p119
tp120
a(S'nuopenglcubedemo'
p121
S'itfrombit'
p122
S'itfrombit/nuopenglcubedemo'
p123
tp124
a(S'MetaPathways'
p125
S'hallamlab'
p126
S'hallamlab/MetaPathways'
p127
tp128
a(S'nug'
p129
S'Grayson'
p130
S'Grayson/nug'
p131
tp132
a(S'vico-fill-in-the-blanks.tmbundle'
p133
S'Shadowfiend'
p134
S'Shadowfiend/vico-fill-in-the-blanks.tmbundle'
p135
tp136
a(S'nom'
p137
S'patrickt'
p138
S'patrickt/nom'
p139
tp140
a(S'thenupill'
p141
S'timburks'
p142
S'timburks/thenupill'
p143
tp144
a(S'nutils'
p145
S'itfrombit'
p146
S'itfrombit/nutils'
p147
tp148
a(S'nupagepacker'
p149
S'timburks'
p150
S'timburks/nupagepacker'
p151
tp152
a(S'Vico'
p153
S'pthrasher'
p154
S'pthrasher/Vico'
p155
tp156
a(S'NuPostgreSQL'
p157
S'timburks'
p158
S'timburks/NuPostgreSQL'
p159
tp160
a(S'doxycleanapp'
p161
S'Grayson'
p162
S'Grayson/doxycleanapp'
p163
tp164
a(S'downloadgooglebooks'
p165
S'Grayson'
p166
S'Grayson/downloadgooglebooks'
p167
tp168
a(S'nu_let_over_lambda'
p169
S'itfrombit'
p170
S'itfrombit/nu_let_over_lambda'
p171
tp172
a(S'pointy-haired-boss.tmbundle'
p173
S'Shadowfiend'
p174
S'Shadowfiend/pointy-haired-boss.tmbundle'
p175
tp176
a(S'nugit'
p177
S'patrickt'
p178
S'patrickt/nugit'
p179
tp180
a(S'nusmartypants'
p181
S'Grayson'
p182
S'Grayson/nusmartypants'
p183
tp184
a(S'supramap-rails3'
p185
S'supramap'
p186
S'supramap/supramap-rails3'
p187
tp188
a(S'nudatadetector'
p189
S'Grayson'
p190
S'Grayson/nudatadetector'
p191
tp192
a(S'NuMarkup'
p193
S'timburks'
p194
S'timburks/NuMarkup'
p195
tp196
a(S'nutitlecase'
p197
S'Grayson'
p198
S'Grayson/nutitlecase'
p199
tp200
a(S'cocoa-programming-with-nu'
p201
S'timburks'
p202
S'timburks/cocoa-programming-with-nu'
p203
tp204
a(S'programmingnu'
p205
S'timburks'
p206
S'timburks/programmingnu'
p207
tp208
a(S'nuki'
p209
S'patrickt'
p210
S'patrickt/nuki'
p211
tp212
a(S'20121026-CocoaConf'
p213
S'timburks'
p214
S'timburks/20121026-CocoaConf'
p215
tp216
a(S'numarkdown'
p217
S'timburks'
p218
S'timburks/numarkdown'
p219
tp220
a(S'nuopenglcubedemo'
p221
S'itfrombit'
p222
S'itfrombit/nuopenglcubedemo'
p223
tp224
a(S'MetaPathways'
p225
S'hallamlab'
p226
S'hallamlab/MetaPathways'
p227
tp228
a(S'nug'
p229
S'Grayson'
p230
S'Grayson/nug'
p231
tp232
a(S'vico-fill-in-the-blanks.tmbundle'
p233
S'Shadowfiend'
p234
S'Shadowfiend/vico-fill-in-the-blanks.tmbundle'
p235
tp236
a(S'nom'
p237
S'patrickt'
p238
S'patrickt/nom'
p239
tp240
a(S'thenupill'
p241
S'timburks'
p242
S'timburks/thenupill'
p243
tp244
a(S'nutils'
p245
S'itfrombit'
p246
S'itfrombit/nutils'
p247
tp248
a(S'nupagepacker'
p249
S'timburks'
p250
S'timburks/nupagepacker'
p251
tp252
a(S'Vico'
p253
S'pthrasher'
p254
S'pthrasher/Vico'
p255
tp256
a(S'NuPostgreSQL'
p257
S'timburks'
p258
S'timburks/NuPostgreSQL'
p259
tp260
a(S'doxycleanapp'
p261
S'Grayson'
p262
S'Grayson/doxycleanapp'
p263
tp264
a(S'downloadgooglebooks'
p265
S'Grayson'
p266
S'Grayson/downloadgooglebooks'
p267
tp268
a(S'nu_let_over_lambda'
p269
S'itfrombit'
p270
S'itfrombit/nu_let_over_lambda'
p271
tp272
a(S'pointy-haired-boss.tmbundle'
p273
S'Shadowfiend'
p274
S'Shadowfiend/pointy-haired-boss.tmbundle'
p275
tp276
a(S'nugit'
p277
S'patrickt'
p278
S'patrickt/nugit'
p279
tp280
a(S'nusmartypants'
p281
S'Grayson'
p282
S'Grayson/nusmartypants'
p283
tp284
a(S'supramap-rails3'
p285
S'supramap'
p286
S'supramap/supramap-rails3'
p287
tp288
a(S'nudatadetector'
p289
S'Grayson'
p290
S'Grayson/nudatadetector'
p291
tp292
a(S'NuMarkup'
p293
S'timburks'
p294
S'timburks/NuMarkup'
p295
tp296
a(S'nutitlecase'
p297
S'Grayson'
p298
S'Grayson/nutitlecase'
p299
tp300
a.