(lp0
(S'Helium'
p1
S'JadenGeller'
p2
S'JadenGeller/Helium'
p3
tp4
a(S'HorizonSDK-iOS'
p5
S'HorizonCamera'
p6
S'HorizonCamera/HorizonSDK-iOS'
p7
tp8
a(S'DWCustomTabBarDemo'
p9
S'Damonvvong'
p10
S'Damonvvong/DWCustomTabBarDemo'
p11
tp12
a(S'AFNetworking'
p13
S'AFNetworking'
p14
S'AFNetworking/AFNetworking'
p15
tp16
a(S'MWPhotoBrowser'
p17
S'mwaterfall'
p18
S'mwaterfall/MWPhotoBrowser'
p19
tp20
a(S'ReactiveCocoa'
p21
S'ReactiveCocoa'
p22
S'ReactiveCocoa/ReactiveCocoa'
p23
tp24
a(S'SDWebImage'
p25
S'rs'
p26
S'rs/SDWebImage'
p27
tp28
a(S'Masonry'
p29
S'SnapKit'
p30
S'SnapKit/Masonry'
p31
tp32
a(S'Alcatraz'
p33
S'supermarin'
p34
S'supermarin/Alcatraz'
p35
tp36
a(S'BMLine'
p37
S'AirSars'
p38
S'AirSars/BMLine'
p39
tp40
a(S'Chameleon'
p41
S'ViccAlexander'
p42
S'ViccAlexander/Chameleon'
p43
tp44
a(S'openshare'
p45
S'100apps'
p46
S'100apps/openshare'
p47
tp48
a(S'MJRefresh'
p49
S'CoderMJLee'
p50
S'CoderMJLee/MJRefresh'
p51
tp52
a(S'Multiplex'
p53
S'kolinkrewinkel'
p54
S'kolinkrewinkel/Multiplex'
p55
tp56
a(S'BEMCheckBox'
p57
S'Boris-Em'
p58
S'Boris-Em/BEMCheckBox'
p59
tp60
a(S'DOPDropDownMenu-Enhanced'
p61
S'12207480'
p62
S'12207480/DOPDropDownMenu-Enhanced'
p63
tp64
a(S'react-native-code-push'
p65
S'Microsoft'
p66
S'Microsoft/react-native-code-push'
p67
tp68
a(S'bilibili-mac-client'
p69
S'typcn'
p70
S'typcn/bilibili-mac-client'
p71
tp72
a(S'UITableView-FDTemplateLayoutCell'
p73
S'forkingdog'
p74
S'forkingdog/UITableView-FDTemplateLayoutCell'
p75
tp76
a(S'BabyBluetooth'
p77
S'coolnameismy'
p78
S'coolnameismy/BabyBluetooth'
p79
tp80
a(S'SDCycleScrollView'
p81
S'gsdios'
p82
S'gsdios/SDCycleScrollView'
p83
tp84
a(S'MBProgressHUD'
p85
S'jdg'
p86
S'jdg/MBProgressHUD'
p87
tp88
a(S'CSSketch'
p89
S'JohnCoates'
p90
S'JohnCoates/CSSketch'
p91
tp92
a(S'FDStackView'
p93
S'forkingdog'
p94
S'forkingdog/FDStackView'
p95
tp96
a(S'MJExtension'
p97
S'CoderMJLee'
p98
S'CoderMJLee/MJExtension'
p99
tp100
a(S'CSSketch'
p101
S'JohnCoates'
p102
S'JohnCoates/CSSketch'
p103
tp104
a(S'AFNetworking'
p105
S'AFNetworking'
p106
S'AFNetworking/AFNetworking'
p107
tp108
a(S'openshare'
p109
S'100apps'
p110
S'100apps/openshare'
p111
tp112
a(S'CotEditor'
p113
S'coteditor'
p114
S'coteditor/CotEditor'
p115
tp116
a(S'JSPatch'
p117
S'bang590'
p118
S'bang590/JSPatch'
p119
tp120
a(S'apple-tv'
p121
S'Auntie-Player'
p122
S'Auntie-Player/apple-tv'
p123
tp124
a(S'BEMCheckBox'
p125
S'Boris-Em'
p126
S'Boris-Em/BEMCheckBox'
p127
tp128
a(S'Cakebrew'
p129
S'brunophilipe'
p130
S'brunophilipe/Cakebrew'
p131
tp132
a(S'Masonry'
p133
S'SnapKit'
p134
S'SnapKit/Masonry'
p135
tp136
a(S'SDWebImage'
p137
S'rs'
p138
S'rs/SDWebImage'
p139
tp140
a(S'Multiplex'
p141
S'kolinkrewinkel'
p142
S'kolinkrewinkel/Multiplex'
p143
tp144
a(S'ReactiveCocoa'
p145
S'ReactiveCocoa'
p146
S'ReactiveCocoa/ReactiveCocoa'
p147
tp148
a(S'MJRefresh'
p149
S'CoderMJLee'
p150
S'CoderMJLee/MJRefresh'
p151
tp152
a(S'SDAutoLayout'
p153
S'gsdios'
p154
S'gsdios/SDAutoLayout'
p155
tp156
a(S'LLRiseTabBar-iOS'
p157
S'NoCodeNoWife'
p158
S'NoCodeNoWife/LLRiseTabBar-iOS'
p159
tp160
a(S'DateTools'
p161
S'MatthewYork'
p162
S'MatthewYork/DateTools'
p163
tp164
a(S'Chameleon'
p165
S'ViccAlexander'
p166
S'ViccAlexander/Chameleon'
p167
tp168
a(S'UITableView-FDTemplateLayoutCell'
p169
S'forkingdog'
p170
S'forkingdog/UITableView-FDTemplateLayoutCell'
p171
tp172
a(S'FDStackView'
p173
S'forkingdog'
p174
S'forkingdog/FDStackView'
p175
tp176
a(S'Bolts-iOS'
p177
S'BoltsFramework'
p178
S'BoltsFramework/Bolts-iOS'
p179
tp180
a(S'iOSInterviewQuestions'
p181
S'ChenYilong'
p182
S'ChenYilong/iOSInterviewQuestions'
p183
tp184
a(S'iOS9AdaptationTips'
p185
S'ChenYilong'
p186
S'ChenYilong/iOS9AdaptationTips'
p187
tp188
a(S'MJExtension'
p189
S'CoderMJLee'
p190
S'CoderMJLee/MJExtension'
p191
tp192
a(S'wax'
p193
S'alibaba'
p194
S'alibaba/wax'
p195
tp196
a(S'Alcatraz'
p197
S'supermarin'
p198
S'supermarin/Alcatraz'
p199
tp200
a(S'Chameleon'
p201
S'ViccAlexander'
p202
S'ViccAlexander/Chameleon'
p203
tp204
a(S'FDStackView'
p205
S'forkingdog'
p206
S'forkingdog/FDStackView'
p207
tp208
a(S'iOS9AdaptationTips'
p209
S'ChenYilong'
p210
S'ChenYilong/iOS9AdaptationTips'
p211
tp212
a(S'CSSketch'
p213
S'JohnCoates'
p214
S'JohnCoates/CSSketch'
p215
tp216
a(S'AFNetworking'
p217
S'AFNetworking'
p218
S'AFNetworking/AFNetworking'
p219
tp220
a(S'Masonry'
p221
S'SnapKit'
p222
S'SnapKit/Masonry'
p223
tp224
a(S'SDWebImage'
p225
S'rs'
p226
S'rs/SDWebImage'
p227
tp228
a(S'ReactiveCocoa'
p229
S'ReactiveCocoa'
p230
S'ReactiveCocoa/ReactiveCocoa'
p231
tp232
a(S'BEMCheckBox'
p233
S'Boris-Em'
p234
S'Boris-Em/BEMCheckBox'
p235
tp236
a(S'MJRefresh'
p237
S'CoderMJLee'
p238
S'CoderMJLee/MJRefresh'
p239
tp240
a(S'Coding-iOS'
p241
S'Coding'
p242
S'Coding/Coding-iOS'
p243
tp244
a(S'UITableView-FDTemplateLayoutCell'
p245
S'forkingdog'
p246
S'forkingdog/UITableView-FDTemplateLayoutCell'
p247
tp248
a(S'A-GUIDE-TO-iOS-ANIMATION'
p249
S'KittenYang'
p250
S'KittenYang/A-GUIDE-TO-iOS-ANIMATION'
p251
tp252
a(S'STPopup'
p253
S'kevin0571'
p254
S'kevin0571/STPopup'
p255
tp256
a(S'MrCode'
p257
S'haolloyin'
p258
S'haolloyin/MrCode'
p259
tp260
a(S'bilibili-mac-client'
p261
S'typcn'
p262
S'typcn/bilibili-mac-client'
p263
tp264
a(S'JSPatch'
p265
S'bang590'
p266
S'bang590/JSPatch'
p267
tp268
a(S'iOSInterviewQuestions'
p269
S'ChenYilong'
p270
S'ChenYilong/iOSInterviewQuestions'
p271
tp272
a(S'Bolts-iOS'
p273
S'BoltsFramework'
p274
S'BoltsFramework/Bolts-iOS'
p275
tp276
a(S'FLEX'
p277
S'Flipboard'
p278
S'Flipboard/FLEX'
p279
tp280
a(S'MBProgressHUD'
p281
S'jdg'
p282
S'jdg/MBProgressHUD'
p283
tp284
a(S'TeamTalk'
p285
S'mogujie'
p286
S'mogujie/TeamTalk'
p287
tp288
a(S'MJExtension'
p289
S'CoderMJLee'
p290
S'CoderMJLee/MJExtension'
p291
tp292
a(S'openshare'
p293
S'100apps'
p294
S'100apps/openshare'
p295
tp296
a(S'Alcatraz'
p297
S'supermarin'
p298
S'supermarin/Alcatraz'
p299
tp300
a.