(lp0
(S'cappuccino'
p1
S'cappuccino'
p2
S'cappuccino/cappuccino'
p3
tp4
a(S'source-han-sans'
p5
S'adobe-fonts'
p6
S'adobe-fonts/source-han-sans'
p7
tp8
a(S'Archipel'
p9
S'ArchipelProject'
p10
S'ArchipelProject/Archipel'
p11
tp12
a(S'language'
p13
S'tolmasky'
p14
S'tolmasky/language'
p15
tp16
a(S'LPKit'
p17
S'luddep'
p18
S'luddep/LPKit'
p19
tp20
a(S'issues'
p21
S'cappuccino'
p22
S'cappuccino/issues'
p23
tp24
a(S'CappuccinoResource'
p25
S'jerodsanto'
p26
S'jerodsanto/CappuccinoResource'
p27
tp28
a(S'DrawTogether'
p29
S'saikat'
p30
S'saikat/DrawTogether'
p31
tp32
a(S'viewcumber'
p33
S'versapay'
p34
S'versapay/viewcumber'
p35
tp36
a(S'Cappuccino-Extensions'
p37
S'nickjs'
p38
S'nickjs/Cappuccino-Extensions'
p39
tp40
a(S'Raphuccino'
p41
S'jfahrenkrug'
p42
S'jfahrenkrug/Raphuccino'
p43
tp44
a(S'cappuccino-demos'
p45
S'cappuccino'
p46
S'cappuccino/cappuccino-demos'
p47
tp48
a(S'Cappuccino.tmbundle'
p49
S'malkomalko'
p50
S'malkomalko/Cappuccino.tmbundle'
p51
tp52
a(S'cappuccino-couchdb'
p53
S'topfunky'
p54
S'topfunky/cappuccino-couchdb'
p55
tp56
a(S'deepDropUpload'
p57
S'davidcann'
p58
S'davidcann/deepDropUpload'
p59
tp60
a(S'Frappuccino'
p61
S'austinsarner'
p62
S'austinsarner/Frappuccino'
p63
tp64
a(S'SCAuth'
p65
S'saikat'
p66
S'saikat/SCAuth'
p67
tp68
a(S'Cappuccino-X-Tornado'
p69
S'eliaskg'
p70
S'eliaskg/Cappuccino-X-Tornado'
p71
tp72
a(S'WKTextView'
p73
S'wireload'
p74
S'wireload/WKTextView'
p75
tp76
a(S'CoreData-Cappuccino'
p77
S'rbartolome'
p78
S'rbartolome/CoreData-Cappuccino'
p79
tp80
a(S'RunKit'
p81
S'austinsarner'
p82
S'austinsarner/RunKit'
p83
tp84
a(S'cappuccino'
p85
S'280north'
p86
S'280north/cappuccino'
p87
tp88
a(S'TNKit'
p89
S'ArchipelProject'
p90
S'ArchipelProject/TNKit'
p91
tp92
a(S'CSRichTextEditor'
p93
S'ryanjafari'
p94
S'ryanjafari/CSRichTextEditor'
p95
tp96
a(S'MapKit'
p97
S'jfahrenkrug'
p98
S'jfahrenkrug/MapKit'
p99
tp100
a(S'Archipel'
p101
S'ArchipelProject'
p102
S'ArchipelProject/Archipel'
p103
tp104
a(S'source-han-sans'
p105
S'adobe-fonts'
p106
S'adobe-fonts/source-han-sans'
p107
tp108
a(S'cappuccino'
p109
S'cappuccino'
p110
S'cappuccino/cappuccino'
p111
tp112
a(S'language'
p113
S'tolmasky'
p114
S'tolmasky/language'
p115
tp116
a(S'LPKit'
p117
S'luddep'
p118
S'luddep/LPKit'
p119
tp120
a(S'issues'
p121
S'cappuccino'
p122
S'cappuccino/issues'
p123
tp124
a(S'CappuccinoResource'
p125
S'jerodsanto'
p126
S'jerodsanto/CappuccinoResource'
p127
tp128
a(S'DrawTogether'
p129
S'saikat'
p130
S'saikat/DrawTogether'
p131
tp132
a(S'viewcumber'
p133
S'versapay'
p134
S'versapay/viewcumber'
p135
tp136
a(S'Cappuccino-Extensions'
p137
S'nickjs'
p138
S'nickjs/Cappuccino-Extensions'
p139
tp140
a(S'Raphuccino'
p141
S'jfahrenkrug'
p142
S'jfahrenkrug/Raphuccino'
p143
tp144
a(S'cappuccino-demos'
p145
S'cappuccino'
p146
S'cappuccino/cappuccino-demos'
p147
tp148
a(S'Cappuccino.tmbundle'
p149
S'malkomalko'
p150
S'malkomalko/Cappuccino.tmbundle'
p151
tp152
a(S'cappuccino-couchdb'
p153
S'topfunky'
p154
S'topfunky/cappuccino-couchdb'
p155
tp156
a(S'deepDropUpload'
p157
S'davidcann'
p158
S'davidcann/deepDropUpload'
p159
tp160
a(S'Frappuccino'
p161
S'austinsarner'
p162
S'austinsarner/Frappuccino'
p163
tp164
a(S'SCAuth'
p165
S'saikat'
p166
S'saikat/SCAuth'
p167
tp168
a(S'Cappuccino-X-Tornado'
p169
S'eliaskg'
p170
S'eliaskg/Cappuccino-X-Tornado'
p171
tp172
a(S'WKTextView'
p173
S'wireload'
p174
S'wireload/WKTextView'
p175
tp176
a(S'CoreData-Cappuccino'
p177
S'rbartolome'
p178
S'rbartolome/CoreData-Cappuccino'
p179
tp180
a(S'RunKit'
p181
S'austinsarner'
p182
S'austinsarner/RunKit'
p183
tp184
a(S'cappuccino'
p185
S'280north'
p186
S'280north/cappuccino'
p187
tp188
a(S'TNKit'
p189
S'ArchipelProject'
p190
S'ArchipelProject/TNKit'
p191
tp192
a(S'cappuccinocasts-episodes'
p193
S'tbalthazar'
p194
S'tbalthazar/cappuccinocasts-episodes'
p195
tp196
a(S'CSRichTextEditor'
p197
S'ryanjafari'
p198
S'ryanjafari/CSRichTextEditor'
p199
tp200
a(S'Archipel'
p201
S'ArchipelProject'
p202
S'ArchipelProject/Archipel'
p203
tp204
a(S'cappuccino'
p205
S'cappuccino'
p206
S'cappuccino/cappuccino'
p207
tp208
a(S'source-han-sans'
p209
S'adobe-fonts'
p210
S'adobe-fonts/source-han-sans'
p211
tp212
a(S'language'
p213
S'tolmasky'
p214
S'tolmasky/language'
p215
tp216
a(S'LPKit'
p217
S'luddep'
p218
S'luddep/LPKit'
p219
tp220
a(S'issues'
p221
S'cappuccino'
p222
S'cappuccino/issues'
p223
tp224
a(S'CappuccinoResource'
p225
S'jerodsanto'
p226
S'jerodsanto/CappuccinoResource'
p227
tp228
a(S'DrawTogether'
p229
S'saikat'
p230
S'saikat/DrawTogether'
p231
tp232
a(S'viewcumber'
p233
S'versapay'
p234
S'versapay/viewcumber'
p235
tp236
a(S'Cappuccino-Extensions'
p237
S'nickjs'
p238
S'nickjs/Cappuccino-Extensions'
p239
tp240
a(S'Raphuccino'
p241
S'jfahrenkrug'
p242
S'jfahrenkrug/Raphuccino'
p243
tp244
a(S'cappuccino-demos'
p245
S'cappuccino'
p246
S'cappuccino/cappuccino-demos'
p247
tp248
a(S'Cappuccino.tmbundle'
p249
S'malkomalko'
p250
S'malkomalko/Cappuccino.tmbundle'
p251
tp252
a(S'cappuccino-couchdb'
p253
S'topfunky'
p254
S'topfunky/cappuccino-couchdb'
p255
tp256
a(S'deepDropUpload'
p257
S'davidcann'
p258
S'davidcann/deepDropUpload'
p259
tp260
a(S'Frappuccino'
p261
S'austinsarner'
p262
S'austinsarner/Frappuccino'
p263
tp264
a(S'SCAuth'
p265
S'saikat'
p266
S'saikat/SCAuth'
p267
tp268
a(S'Cappuccino-X-Tornado'
p269
S'eliaskg'
p270
S'eliaskg/Cappuccino-X-Tornado'
p271
tp272
a(S'WKTextView'
p273
S'wireload'
p274
S'wireload/WKTextView'
p275
tp276
a(S'CoreData-Cappuccino'
p277
S'rbartolome'
p278
S'rbartolome/CoreData-Cappuccino'
p279
tp280
a(S'RunKit'
p281
S'austinsarner'
p282
S'austinsarner/RunKit'
p283
tp284
a(S'cappuccino'
p285
S'280north'
p286
S'280north/cappuccino'
p287
tp288
a(S'TNKit'
p289
S'ArchipelProject'
p290
S'ArchipelProject/TNKit'
p291
tp292
a(S'cappuccinocasts-episodes'
p293
S'tbalthazar'
p294
S'tbalthazar/cappuccinocasts-episodes'
p295
tp296
a(S'MapKit'
p297
S'jfahrenkrug'
p298
S'jfahrenkrug/MapKit'
p299
tp300
a.