(lp0
(S'PivotalCoreKit'
p1
S'pivotal'
p2
S'pivotal/PivotalCoreKit'
p3
tp4
a(S'pop'
p5
S'facebook'
p6
S'facebook/pop'
p7
tp8
a(S'componentkit'
p9
S'facebook'
p10
S'facebook/componentkit'
p11
tp12
a(S'fb-mac-messenger'
p13
S'rsms'
p14
S'rsms/fb-mac-messenger'
p15
tp16
a(S'Xtrace'
p17
S'johnno1962'
p18
S'johnno1962/Xtrace'
p19
tp20
a(S'cedar'
p21
S'pivotal'
p22
S'pivotal/cedar'
p23
tp24
a(S'neovim-dot-app'
p25
S'rogual'
p26
S'rogual/neovim-dot-app'
p27
tp28
a(S'WhirlyGlobe'
p29
S'mousebird'
p30
S'mousebird/WhirlyGlobe'
p31
tp32
a(S'plask'
p33
S'deanm'
p34
S'deanm/plask'
p35
tp36
a(S'PopTut'
p37
S'jerols'
p38
S'jerols/PopTut'
p39
tp40
a(S'OCBorghettiView'
p41
S'otaviocc'
p42
S'otaviocc/OCBorghettiView'
p43
tp44
a(S'Tranquil'
p45
S'fjolnir'
p46
S'fjolnir/Tranquil'
p47
tp48
a(S'POPdemo'
p49
S'jxd001'
p50
S'jxd001/POPdemo'
p51
tp52
a(S'RXPromise'
p53
S'couchdeveloper'
p54
S'couchdeveloper/RXPromise'
p55
tp56
a(S'PGMidi'
p57
S'petegoodliffe'
p58
S'petegoodliffe/PGMidi'
p59
tp60
a(S'OpenCVSwiftStitch'
p61
S'foundry'
p62
S'foundry/OpenCVSwiftStitch'
p63
tp64
a(S'UICoreTextView'
p65
S'giladno'
p66
S'giladno/UICoreTextView'
p67
tp68
a(S'objc4'
p69
S'opensource-apple'
p70
S'opensource-apple/objc4'
p71
tp72
a(S'SimulateTouch'
p73
S'iolate'
p74
S'iolate/SimulateTouch'
p75
tp76
a(S'NHCalendarActivity'
p77
S'otaviocc'
p78
S'otaviocc/NHCalendarActivity'
p79
tp80
a(S'nsdate-calendar'
p81
S'belkevich'
p82
S'belkevich/nsdate-calendar'
p83
tp84
a(S'opios'
p85
S'openpeer'
p86
S'openpeer/opios'
p87
tp88
a(S'iOS_VPNPlugIn'
p89
S'Smartype'
p90
S'Smartype/iOS_VPNPlugIn'
p91
tp92
a(S'swift2js'
p93
S'swift2js'
p94
S'swift2js/swift2js'
p95
tp96
a(S'titanium_box2d'
p97
S'jhaynie'
p98
S'jhaynie/titanium_box2d'
p99
tp100
a(S'componentkit'
p101
S'facebook'
p102
S'facebook/componentkit'
p103
tp104
a(S'fb-mac-messenger'
p105
S'rsms'
p106
S'rsms/fb-mac-messenger'
p107
tp108
a(S'rnplay-native'
p109
S'rnplay'
p110
S'rnplay/rnplay-native'
p111
tp112
a(S'OpenCVSwiftStitch'
p113
S'foundry'
p114
S'foundry/OpenCVSwiftStitch'
p115
tp116
a(S'pop'
p117
S'facebook'
p118
S'facebook/pop'
p119
tp120
a(S'Xtrace'
p121
S'johnno1962'
p122
S'johnno1962/Xtrace'
p123
tp124
a(S'cedar'
p125
S'pivotal'
p126
S'pivotal/cedar'
p127
tp128
a(S'neovim-dot-app'
p129
S'rogual'
p130
S'rogual/neovim-dot-app'
p131
tp132
a(S'WhirlyGlobe'
p133
S'mousebird'
p134
S'mousebird/WhirlyGlobe'
p135
tp136
a(S'plask'
p137
S'deanm'
p138
S'deanm/plask'
p139
tp140
a(S'PopTut'
p141
S'jerols'
p142
S'jerols/PopTut'
p143
tp144
a(S'OCBorghettiView'
p145
S'otaviocc'
p146
S'otaviocc/OCBorghettiView'
p147
tp148
a(S'Tranquil'
p149
S'fjolnir'
p150
S'fjolnir/Tranquil'
p151
tp152
a(S'POPdemo'
p153
S'jxd001'
p154
S'jxd001/POPdemo'
p155
tp156
a(S'RXPromise'
p157
S'couchdeveloper'
p158
S'couchdeveloper/RXPromise'
p159
tp160
a(S'PGMidi'
p161
S'petegoodliffe'
p162
S'petegoodliffe/PGMidi'
p163
tp164
a(S'UICoreTextView'
p165
S'giladno'
p166
S'giladno/UICoreTextView'
p167
tp168
a(S'objc4'
p169
S'opensource-apple'
p170
S'opensource-apple/objc4'
p171
tp172
a(S'SimulateTouch'
p173
S'iolate'
p174
S'iolate/SimulateTouch'
p175
tp176
a(S'NHCalendarActivity'
p177
S'otaviocc'
p178
S'otaviocc/NHCalendarActivity'
p179
tp180
a(S'nsdate-calendar'
p181
S'belkevich'
p182
S'belkevich/nsdate-calendar'
p183
tp184
a(S'opios'
p185
S'openpeer'
p186
S'openpeer/opios'
p187
tp188
a(S'PivotalCoreKit'
p189
S'pivotal'
p190
S'pivotal/PivotalCoreKit'
p191
tp192
a(S'iOS_VPNPlugIn'
p193
S'Smartype'
p194
S'Smartype/iOS_VPNPlugIn'
p195
tp196
a(S'swift2js'
p197
S'swift2js'
p198
S'swift2js/swift2js'
p199
tp200
a(S'componentkit'
p201
S'facebook'
p202
S'facebook/componentkit'
p203
tp204
a(S'fb-mac-messenger'
p205
S'rsms'
p206
S'rsms/fb-mac-messenger'
p207
tp208
a(S'rnplay-native'
p209
S'rnplay'
p210
S'rnplay/rnplay-native'
p211
tp212
a(S'OpenCVSwiftStitch'
p213
S'foundry'
p214
S'foundry/OpenCVSwiftStitch'
p215
tp216
a(S'PivotalCoreKit'
p217
S'pivotal'
p218
S'pivotal/PivotalCoreKit'
p219
tp220
a(S'WhirlyGlobe'
p221
S'mousebird'
p222
S'mousebird/WhirlyGlobe'
p223
tp224
a(S'pop'
p225
S'facebook'
p226
S'facebook/pop'
p227
tp228
a(S'Xtrace'
p229
S'johnno1962'
p230
S'johnno1962/Xtrace'
p231
tp232
a(S'cedar'
p233
S'pivotal'
p234
S'pivotal/cedar'
p235
tp236
a(S'neovim-dot-app'
p237
S'rogual'
p238
S'rogual/neovim-dot-app'
p239
tp240
a(S'plask'
p241
S'deanm'
p242
S'deanm/plask'
p243
tp244
a(S'PopTut'
p245
S'jerols'
p246
S'jerols/PopTut'
p247
tp248
a(S'OCBorghettiView'
p249
S'otaviocc'
p250
S'otaviocc/OCBorghettiView'
p251
tp252
a(S'Tranquil'
p253
S'fjolnir'
p254
S'fjolnir/Tranquil'
p255
tp256
a(S'POPdemo'
p257
S'jxd001'
p258
S'jxd001/POPdemo'
p259
tp260
a(S'RXPromise'
p261
S'couchdeveloper'
p262
S'couchdeveloper/RXPromise'
p263
tp264
a(S'PGMidi'
p265
S'petegoodliffe'
p266
S'petegoodliffe/PGMidi'
p267
tp268
a(S'UICoreTextView'
p269
S'giladno'
p270
S'giladno/UICoreTextView'
p271
tp272
a(S'objc4'
p273
S'opensource-apple'
p274
S'opensource-apple/objc4'
p275
tp276
a(S'SimulateTouch'
p277
S'iolate'
p278
S'iolate/SimulateTouch'
p279
tp280
a(S'NHCalendarActivity'
p281
S'otaviocc'
p282
S'otaviocc/NHCalendarActivity'
p283
tp284
a(S'nsdate-calendar'
p285
S'belkevich'
p286
S'belkevich/nsdate-calendar'
p287
tp288
a(S'opios'
p289
S'openpeer'
p290
S'openpeer/opios'
p291
tp292
a(S'iOS_VPNPlugIn'
p293
S'Smartype'
p294
S'Smartype/iOS_VPNPlugIn'
p295
tp296
a(S'swift2js'
p297
S'swift2js'
p298
S'swift2js/swift2js'
p299
tp300
a.