(lp0
(S'flow'
p1
S'facebook'
p2
S'facebook/flow'
p3
tp4
a(S'oasis'
p5
S'ocaml'
p6
S'ocaml/oasis'
p7
tp8
a(S'infer'
p9
S'facebook'
p10
S'facebook/infer'
p11
tp12
a(S'Batsh'
p13
S'BYVoid'
p14
S'BYVoid/Batsh'
p15
tp16
a(S'pfff'
p17
S'facebook'
p18
S'facebook/pfff'
p19
tp20
a(S'opalang'
p21
S'MLstate'
p22
S'MLstate/opalang'
p23
tp24
a(S'google-drive-ocamlfuse'
p25
S'astrada'
p26
S'astrada/google-drive-ocamlfuse'
p27
tp28
a(S'type-systems'
p29
S'tomprimozic'
p30
S'tomprimozic/type-systems'
p31
tp32
a(S'rhine-ml'
p33
S'artagnon'
p34
S'artagnon/rhine-ml'
p35
tp36
a(S'mirage'
p37
S'mirage'
p38
S'mirage/mirage'
p39
tp40
a(S'ocaml'
p41
S'ocaml'
p42
S'ocaml/ocaml'
p43
tp44
a(S'FStar'
p45
S'FStarLang'
p46
S'FStarLang/FStar'
p47
tp48
a(S'opam'
p49
S'ocaml'
p50
S'ocaml/opam'
p51
tp52
a(S'irmin'
p53
S'mirage'
p54
S'mirage/irmin'
p55
tp56
a(S'coq'
p57
S'coq'
p58
S'coq/coq'
p59
tp60
a(S'core'
p61
S'janestreet'
p62
S'janestreet/core'
p63
tp64
a(S'merlin'
p65
S'the-lambda-church'
p66
S'the-lambda-church/merlin'
p67
tp68
a(S'batteries-included'
p69
S'ocaml-batteries-team'
p70
S'ocaml-batteries-team/batteries-included'
p71
tp72
a(S'LinearML'
p73
S'pikatchu'
p74
S'pikatchu/LinearML'
p75
tp76
a(S'utop'
p77
S'diml'
p78
S'diml/utop'
p79
tp80
a(S'xen-api'
p81
S'xapi-project'
p82
S'xapi-project/xen-api'
p83
tp84
a(S'eff'
p85
S'matijapretnar'
p86
S'matijapretnar/eff'
p87
tp88
a(S'felix'
p89
S'felix-lang'
p90
S'felix-lang/felix'
p91
tp92
a(S'js_of_ocaml'
p93
S'ocsigen'
p94
S'ocsigen/js_of_ocaml'
p95
tp96
a(S'liquidsoap'
p97
S'savonet'
p98
S'savonet/liquidsoap'
p99
tp100
a(S'flow'
p101
S'facebook'
p102
S'facebook/flow'
p103
tp104
a(S'infer'
p105
S'facebook'
p106
S'facebook/infer'
p107
tp108
a(S'word2phrase'
p109
S'travisbrady'
p110
S'travisbrady/word2phrase'
p111
tp112
a(S'spec'
p113
S'WebAssembly'
p114
S'WebAssembly/spec'
p115
tp116
a(S'merlin'
p117
S'the-lambda-church'
p118
S'the-lambda-church/merlin'
p119
tp120
a(S'oml'
p121
S'hammerlab'
p122
S'hammerlab/oml'
p123
tp124
a(S'FStar'
p125
S'FStarLang'
p126
S'FStarLang/FStar'
p127
tp128
a(S'mirage-skeleton'
p129
S'mirage'
p130
S'mirage/mirage-skeleton'
p131
tp132
a(S'ocaml-cstruct'
p133
S'mirage'
p134
S'mirage/ocaml-cstruct'
p135
tp136
a(S'xen-api'
p137
S'xapi-project'
p138
S'xapi-project/xen-api'
p139
tp140
a(S'Batsh'
p141
S'BYVoid'
p142
S'BYVoid/Batsh'
p143
tp144
a(S'pfff'
p145
S'facebook'
p146
S'facebook/pfff'
p147
tp148
a(S'opalang'
p149
S'MLstate'
p150
S'MLstate/opalang'
p151
tp152
a(S'google-drive-ocamlfuse'
p153
S'astrada'
p154
S'astrada/google-drive-ocamlfuse'
p155
tp156
a(S'type-systems'
p157
S'tomprimozic'
p158
S'tomprimozic/type-systems'
p159
tp160
a(S'rhine-ml'
p161
S'artagnon'
p162
S'artagnon/rhine-ml'
p163
tp164
a(S'mirage'
p165
S'mirage'
p166
S'mirage/mirage'
p167
tp168
a(S'ocaml'
p169
S'ocaml'
p170
S'ocaml/ocaml'
p171
tp172
a(S'opam'
p173
S'ocaml'
p174
S'ocaml/opam'
p175
tp176
a(S'irmin'
p177
S'mirage'
p178
S'mirage/irmin'
p179
tp180
a(S'coq'
p181
S'coq'
p182
S'coq/coq'
p183
tp184
a(S'core'
p185
S'janestreet'
p186
S'janestreet/core'
p187
tp188
a(S'batteries-included'
p189
S'ocaml-batteries-team'
p190
S'ocaml-batteries-team/batteries-included'
p191
tp192
a(S'LinearML'
p193
S'pikatchu'
p194
S'pikatchu/LinearML'
p195
tp196
a(S'utop'
p197
S'diml'
p198
S'diml/utop'
p199
tp200
a(S'flow'
p201
S'facebook'
p202
S'facebook/flow'
p203
tp204
a(S'infer'
p205
S'facebook'
p206
S'facebook/infer'
p207
tp208
a(S'spec'
p209
S'WebAssembly'
p210
S'WebAssembly/spec'
p211
tp212
a(S'ocaml'
p213
S'ocaml'
p214
S'ocaml/ocaml'
p215
tp216
a(S'mirage'
p217
S'mirage'
p218
S'mirage/mirage'
p219
tp220
a(S'merlin'
p221
S'the-lambda-church'
p222
S'the-lambda-church/merlin'
p223
tp224
a(S'FStar'
p225
S'FStarLang'
p226
S'FStarLang/FStar'
p227
tp228
a(S'jitsu'
p229
S'mirage'
p230
S'mirage/jitsu'
p231
tp232
a(S'ocaml-d3'
p233
S'seliopou'
p234
S'seliopou/ocaml-d3'
p235
tp236
a(S'irmin'
p237
S'mirage'
p238
S'mirage/irmin'
p239
tp240
a(S'coq'
p241
S'coq'
p242
S'coq/coq'
p243
tp244
a(S'word2phrase'
p245
S'travisbrady'
p246
S'travisbrady/word2phrase'
p247
tp248
a(S'felix'
p249
S'felix-lang'
p250
S'felix-lang/felix'
p251
tp252
a(S'js_of_ocaml'
p253
S'ocsigen'
p254
S'ocsigen/js_of_ocaml'
p255
tp256
a(S'opam-repository'
p257
S'ocaml'
p258
S'ocaml/opam-repository'
p259
tp260
a(S'oml'
p261
S'hammerlab'
p262
S'hammerlab/oml'
p263
tp264
a(S'bap'
p265
S'BinaryAnalysisPlatform'
p266
S'BinaryAnalysisPlatform/bap'
p267
tp268
a(S'xen-api'
p269
S'xapi-project'
p270
S'xapi-project/xen-api'
p271
tp272
a(S'ocaml-webmachine'
p273
S'inhabitedtype'
p274
S'inhabitedtype/ocaml-webmachine'
p275
tp276
a(S'redexer'
p277
S'plum-umd'
p278
S'plum-umd/redexer'
p279
tp280
a(S'jackline'
p281
S'hannesm'
p282
S'hannesm/jackline'
p283
tp284
a(S'mirage-tcpip'
p285
S'mirage'
p286
S'mirage/mirage-tcpip'
p287
tp288
a(S'ocaml-dns'
p289
S'mirage'
p290
S'mirage/ocaml-dns'
p291
tp292
a(S'Batsh'
p293
S'BYVoid'
p294
S'BYVoid/Batsh'
p295
tp296
a(S'pfff'
p297
S'facebook'
p298
S'facebook/pfff'
p299
tp300
a.