(lp0
(S'omgroflol'
p1
S'hermanschaaf'
p2
S'hermanschaaf/omgroflol'
p3
tp4
a(S'omgrofl-examples'
p5
S'mneudert'
p6
S'mneudert/omgrofl-examples'
p7
tp8
a(S'boredom'
p9
S'jamiepg1'
p10
S'jamiepg1/boredom'
p11
tp12
a(S'Programming-Language-Design'
p13
S'CharlieMartell'
p14
S'CharlieMartell/Programming-Language-Design'
p15
tp16
a(S'omgrofl-examples'
p17
S'jamiepg1'
p18
S'jamiepg1/omgrofl-examples'
p19
tp20
a(S'omgroflol'
p21
S'jamiepg1'
p22
S'jamiepg1/omgroflol'
p23
tp24
a(S'omgroflol'
p25
S'hermanschaaf'
p26
S'hermanschaaf/omgroflol'
p27
tp28
a(S'omgrofl-examples'
p29
S'mneudert'
p30
S'mneudert/omgrofl-examples'
p31
tp32
a(S'boredom'
p33
S'jamiepg1'
p34
S'jamiepg1/boredom'
p35
tp36
a(S'Programming-Language-Design'
p37
S'CharlieMartell'
p38
S'CharlieMartell/Programming-Language-Design'
p39
tp40
a(S'omgrofl-examples'
p41
S'jamiepg1'
p42
S'jamiepg1/omgrofl-examples'
p43
tp44
a(S'omgroflol'
p45
S'jamiepg1'
p46
S'jamiepg1/omgroflol'
p47
tp48
a(S'omgroflol'
p49
S'hermanschaaf'
p50
S'hermanschaaf/omgroflol'
p51
tp52
a(S'omgrofl-examples'
p53
S'mneudert'
p54
S'mneudert/omgrofl-examples'
p55
tp56
a(S'boredom'
p57
S'jamiepg1'
p58
S'jamiepg1/boredom'
p59
tp60
a(S'Programming-Language-Design'
p61
S'CharlieMartell'
p62
S'CharlieMartell/Programming-Language-Design'
p63
tp64
a(S'omgrofl-examples'
p65
S'jamiepg1'
p66
S'jamiepg1/omgrofl-examples'
p67
tp68
a(S'omgroflol'
p69
S'jamiepg1'
p70
S'jamiepg1/omgroflol'
p71
tp72
a.