(lp0
(S'rock'
p1
S'fasterthanlime'
p2
S'fasterthanlime/rock'
p3
tp4
a(S'oos'
p5
S'tsion'
p6
S'tsion/oos'
p7
tp8
a(S'oc'
p9
S'nddrylliog'
p10
S'nddrylliog/oc'
p11
tp12
a(S'nagaqueen'
p13
S'fasterthanlime'
p14
S'fasterthanlime/nagaqueen'
p15
tp16
a(S'isaac-paper'
p17
S'fasterthanlime'
p18
S'fasterthanlime/isaac-paper'
p19
tp20
a(S'mustang'
p21
S'joshthecoder'
p22
S'joshthecoder/mustang'
p23
tp24
a(S'ooc-gtk'
p25
S'nddrylliog'
p26
S'nddrylliog/ooc-gtk'
p27
tp28
a(S'inception-engine'
p29
S'nddrylliog'
p30
S'nddrylliog/inception-engine'
p31
tp32
a(S'llamacore'
p33
S'ooc'
p34
S'ooc/llamacore'
p35
tp36
a(S'ooc-web'
p37
S'joshthecoder'
p38
S'joshthecoder/ooc-web'
p39
tp40
a(S'yajit'
p41
S'nddrylliog'
p42
S'nddrylliog/yajit'
p43
tp44
a(S'ooc-glew'
p45
S'OneSadCookie'
p46
S'OneSadCookie/ooc-glew'
p47
tp48
a(S'ooc-yajl'
p49
S'fredreichbier'
p50
S'fredreichbier/ooc-yajl'
p51
tp52
a(S'fallacious'
p53
S'nddrylliog'
p54
S'nddrylliog/fallacious'
p55
tp56
a(S'ooc-cairo'
p57
S'danopia'
p58
S'danopia/ooc-cairo'
p59
tp60
a(S'optparse'
p61
S'fredreichbier'
p62
S'fredreichbier/optparse'
p63
tp64
a(S'sam'
p65
S'fasterthanlime'
p66
S'fasterthanlime/sam'
p67
tp68
a(S'Stirling3d'
p69
S'eagle2com'
p70
S'eagle2com/Stirling3d'
p71
tp72
a(S'ooc-zeromq'
p73
S'fasterthanlime'
p74
S'fasterthanlime/ooc-zeromq'
p75
tp76
a(S'decadence'
p77
S'nddrylliog'
p78
S'nddrylliog/decadence'
p79
tp80
a(S'reincarnate'
p81
S'fredreichbier'
p82
S'fredreichbier/reincarnate'
p83
tp84
a(S'woot'
p85
S'showstopper'
p86
S'showstopper/woot'
p87
tp88
a(S'bootcamp'
p89
S'nddrylliog'
p90
S'nddrylliog/bootcamp'
p91
tp92
a(S'ooc-llvm'
p93
S'tsion'
p94
S'tsion/ooc-llvm'
p95
tp96
a(S'ooc-lua'
p97
S'fredreichbier'
p98
S'fredreichbier/ooc-lua'
p99
tp100
a(S'rock'
p101
S'fasterthanlime'
p102
S'fasterthanlime/rock'
p103
tp104
a(S'oos'
p105
S'tsion'
p106
S'tsion/oos'
p107
tp108
a(S'oc'
p109
S'nddrylliog'
p110
S'nddrylliog/oc'
p111
tp112
a(S'nagaqueen'
p113
S'fasterthanlime'
p114
S'fasterthanlime/nagaqueen'
p115
tp116
a(S'isaac-paper'
p117
S'fasterthanlime'
p118
S'fasterthanlime/isaac-paper'
p119
tp120
a(S'mustang'
p121
S'joshthecoder'
p122
S'joshthecoder/mustang'
p123
tp124
a(S'ooc-gtk'
p125
S'nddrylliog'
p126
S'nddrylliog/ooc-gtk'
p127
tp128
a(S'inception-engine'
p129
S'nddrylliog'
p130
S'nddrylliog/inception-engine'
p131
tp132
a(S'llamacore'
p133
S'ooc'
p134
S'ooc/llamacore'
p135
tp136
a(S'ooc-web'
p137
S'joshthecoder'
p138
S'joshthecoder/ooc-web'
p139
tp140
a(S'yajit'
p141
S'nddrylliog'
p142
S'nddrylliog/yajit'
p143
tp144
a(S'ooc-glew'
p145
S'OneSadCookie'
p146
S'OneSadCookie/ooc-glew'
p147
tp148
a(S'ooc-yajl'
p149
S'fredreichbier'
p150
S'fredreichbier/ooc-yajl'
p151
tp152
a(S'fallacious'
p153
S'nddrylliog'
p154
S'nddrylliog/fallacious'
p155
tp156
a(S'ooc-cairo'
p157
S'danopia'
p158
S'danopia/ooc-cairo'
p159
tp160
a(S'optparse'
p161
S'fredreichbier'
p162
S'fredreichbier/optparse'
p163
tp164
a(S'sam'
p165
S'fasterthanlime'
p166
S'fasterthanlime/sam'
p167
tp168
a(S'Stirling3d'
p169
S'eagle2com'
p170
S'eagle2com/Stirling3d'
p171
tp172
a(S'ooc-zeromq'
p173
S'fasterthanlime'
p174
S'fasterthanlime/ooc-zeromq'
p175
tp176
a(S'decadence'
p177
S'nddrylliog'
p178
S'nddrylliog/decadence'
p179
tp180
a(S'reincarnate'
p181
S'fredreichbier'
p182
S'fredreichbier/reincarnate'
p183
tp184
a(S'woot'
p185
S'showstopper'
p186
S'showstopper/woot'
p187
tp188
a(S'bootcamp'
p189
S'nddrylliog'
p190
S'nddrylliog/bootcamp'
p191
tp192
a(S'ooc-llvm'
p193
S'tsion'
p194
S'tsion/ooc-llvm'
p195
tp196
a(S'ooc-lua'
p197
S'fredreichbier'
p198
S'fredreichbier/ooc-lua'
p199
tp200
a(S'rock'
p201
S'fasterthanlime'
p202
S'fasterthanlime/rock'
p203
tp204
a(S'oos'
p205
S'tsion'
p206
S'tsion/oos'
p207
tp208
a(S'oc'
p209
S'nddrylliog'
p210
S'nddrylliog/oc'
p211
tp212
a(S'nagaqueen'
p213
S'fasterthanlime'
p214
S'fasterthanlime/nagaqueen'
p215
tp216
a(S'isaac-paper'
p217
S'fasterthanlime'
p218
S'fasterthanlime/isaac-paper'
p219
tp220
a(S'ooc-gtk'
p221
S'nddrylliog'
p222
S'nddrylliog/ooc-gtk'
p223
tp224
a(S'mustang'
p225
S'joshthecoder'
p226
S'joshthecoder/mustang'
p227
tp228
a(S'inception-engine'
p229
S'nddrylliog'
p230
S'nddrylliog/inception-engine'
p231
tp232
a(S'ooc-web'
p233
S'joshthecoder'
p234
S'joshthecoder/ooc-web'
p235
tp236
a(S'llamacore'
p237
S'ooc'
p238
S'ooc/llamacore'
p239
tp240
a(S'ooc-glew'
p241
S'OneSadCookie'
p242
S'OneSadCookie/ooc-glew'
p243
tp244
a(S'yajit'
p245
S'nddrylliog'
p246
S'nddrylliog/yajit'
p247
tp248
a(S'ooc-yajl'
p249
S'fredreichbier'
p250
S'fredreichbier/ooc-yajl'
p251
tp252
a(S'fallacious'
p253
S'nddrylliog'
p254
S'nddrylliog/fallacious'
p255
tp256
a(S'ooc-cairo'
p257
S'danopia'
p258
S'danopia/ooc-cairo'
p259
tp260
a(S'decadence'
p261
S'nddrylliog'
p262
S'nddrylliog/decadence'
p263
tp264
a(S'woot'
p265
S'showstopper'
p266
S'showstopper/woot'
p267
tp268
a(S'bootcamp'
p269
S'nddrylliog'
p270
S'nddrylliog/bootcamp'
p271
tp272
a(S'Stirling3d'
p273
S'eagle2com'
p274
S'eagle2com/Stirling3d'
p275
tp276
a(S'ooc-llvm'
p277
S'tsion'
p278
S'tsion/ooc-llvm'
p279
tp280
a(S'ooc-lua'
p281
S'fredreichbier'
p282
S'fredreichbier/ooc-lua'
p283
tp284
a(S'sam'
p285
S'fasterthanlime'
p286
S'fasterthanlime/sam'
p287
tp288
a(S'optparse'
p289
S'fredreichbier'
p290
S'fredreichbier/optparse'
p291
tp292
a(S'ooc-zeromq'
p293
S'fasterthanlime'
p294
S'fasterthanlime/ooc-zeromq'
p295
tp296
a(S'reincarnate'
p297
S'fredreichbier'
p298
S'fredreichbier/reincarnate'
p299
tp300
a.