(lp0
(S'birdy'
p1
S'MLstate'
p2
S'MLstate/birdy'
p3
tp4
a(S'webshell'
p5
S'hbbio'
p6
S'hbbio/webshell'
p7
tp8
a(S'riskybird'
p9
S'alokmenghrajani'
p10
S'alokmenghrajani/riskybird'
p11
tp12
a(S'OpaDo'
p13
S'tsloughter'
p14
S'tsloughter/OpaDo'
p15
tp16
a(S'server-monitor'
p17
S'cedricss'
p18
S'cedricss/server-monitor'
p19
tp20
a(S'boxopa'
p21
S'jvimal'
p22
S'jvimal/boxopa'
p23
tp24
a(S'OpaChat'
p25
S'Aqua-Ye'
p26
S'Aqua-Ye/OpaChat'
p27
tp28
a(S'mahjong'
p29
S'winbomb'
p30
S'winbomb/mahjong'
p31
tp32
a(S'PEPS-source'
p33
S'MLstate'
p34
S'MLstate/PEPS-source'
p35
tp36
a(S'hello-opa'
p37
S'MLstate'
p38
S'MLstate/hello-opa'
p39
tp40
a(S'pixlpaste'
p41
S'alokmenghrajani'
p42
S'alokmenghrajani/pixlpaste'
p43
tp44
a(S'webgldemo'
p45
S'MLstate'
p46
S'MLstate/webgldemo'
p47
tp48
a(S'OpaHOWTOs'
p49
S'akoprow'
p50
S'akoprow/OpaHOWTOs'
p51
tp52
a(S'TableBuilder'
p53
S'trecouvr'
p54
S'trecouvr/TableBuilder'
p55
tp56
a(S'hands-on-opa'
p57
S'akoprow'
p58
S'akoprow/hands-on-opa'
p59
tp60
a(S'Opa-jquery-ui'
p61
S'akoprow'
p62
S'akoprow/Opa-jquery-ui'
p63
tp64
a(S'OPAcman'
p65
S'MLstate'
p66
S'MLstate/OPAcman'
p67
tp68
a(S'OpaStart'
p69
S'Aqua-Ye'
p70
S'Aqua-Ye/OpaStart'
p71
tp72
a(S'opa-watch'
p73
S'OpaOnWindowsNow'
p74
S'OpaOnWindowsNow/opa-watch'
p75
tp76
a(S'MindChat'
p77
S'MLstate'
p78
S'MLstate/MindChat'
p79
tp80
a(S'webchat'
p81
S'hbbio'
p82
S'hbbio/webchat'
p83
tp84
a(S'OpaDo'
p85
S'cedricss'
p86
S'cedricss/OpaDo'
p87
tp88
a(S'hello_chat'
p89
S'MLstate'
p90
S'MLstate/hello_chat'
p91
tp92
a(S'hello_wiki'
p93
S'MLstate'
p94
S'MLstate/hello_wiki'
p95
tp96
a(S'opa-devcamp-facebook'
p97
S'akoprow'
p98
S'akoprow/opa-devcamp-facebook'
p99
tp100
a(S'birdy'
p101
S'MLstate'
p102
S'MLstate/birdy'
p103
tp104
a(S'webshell'
p105
S'hbbio'
p106
S'hbbio/webshell'
p107
tp108
a(S'riskybird'
p109
S'alokmenghrajani'
p110
S'alokmenghrajani/riskybird'
p111
tp112
a(S'OpaDo'
p113
S'tsloughter'
p114
S'tsloughter/OpaDo'
p115
tp116
a(S'server-monitor'
p117
S'cedricss'
p118
S'cedricss/server-monitor'
p119
tp120
a(S'boxopa'
p121
S'jvimal'
p122
S'jvimal/boxopa'
p123
tp124
a(S'OpaChat'
p125
S'Aqua-Ye'
p126
S'Aqua-Ye/OpaChat'
p127
tp128
a(S'mahjong'
p129
S'winbomb'
p130
S'winbomb/mahjong'
p131
tp132
a(S'PEPS-source'
p133
S'MLstate'
p134
S'MLstate/PEPS-source'
p135
tp136
a(S'hello-opa'
p137
S'MLstate'
p138
S'MLstate/hello-opa'
p139
tp140
a(S'pixlpaste'
p141
S'alokmenghrajani'
p142
S'alokmenghrajani/pixlpaste'
p143
tp144
a(S'webgldemo'
p145
S'MLstate'
p146
S'MLstate/webgldemo'
p147
tp148
a(S'OpaHOWTOs'
p149
S'akoprow'
p150
S'akoprow/OpaHOWTOs'
p151
tp152
a(S'TableBuilder'
p153
S'trecouvr'
p154
S'trecouvr/TableBuilder'
p155
tp156
a(S'hands-on-opa'
p157
S'akoprow'
p158
S'akoprow/hands-on-opa'
p159
tp160
a(S'Opa-jquery-ui'
p161
S'akoprow'
p162
S'akoprow/Opa-jquery-ui'
p163
tp164
a(S'OPAcman'
p165
S'MLstate'
p166
S'MLstate/OPAcman'
p167
tp168
a(S'OpaStart'
p169
S'Aqua-Ye'
p170
S'Aqua-Ye/OpaStart'
p171
tp172
a(S'opa-watch'
p173
S'OpaOnWindowsNow'
p174
S'OpaOnWindowsNow/opa-watch'
p175
tp176
a(S'MindChat'
p177
S'MLstate'
p178
S'MLstate/MindChat'
p179
tp180
a(S'webchat'
p181
S'hbbio'
p182
S'hbbio/webchat'
p183
tp184
a(S'OpaDo'
p185
S'cedricss'
p186
S'cedricss/OpaDo'
p187
tp188
a(S'hello_chat'
p189
S'MLstate'
p190
S'MLstate/hello_chat'
p191
tp192
a(S'hello_wiki'
p193
S'MLstate'
p194
S'MLstate/hello_wiki'
p195
tp196
a(S'opa-devcamp-facebook'
p197
S'akoprow'
p198
S'akoprow/opa-devcamp-facebook'
p199
tp200
a(S'birdy'
p201
S'MLstate'
p202
S'MLstate/birdy'
p203
tp204
a(S'webshell'
p205
S'hbbio'
p206
S'hbbio/webshell'
p207
tp208
a(S'riskybird'
p209
S'alokmenghrajani'
p210
S'alokmenghrajani/riskybird'
p211
tp212
a(S'OpaDo'
p213
S'tsloughter'
p214
S'tsloughter/OpaDo'
p215
tp216
a(S'server-monitor'
p217
S'cedricss'
p218
S'cedricss/server-monitor'
p219
tp220
a(S'boxopa'
p221
S'jvimal'
p222
S'jvimal/boxopa'
p223
tp224
a(S'OpaChat'
p225
S'Aqua-Ye'
p226
S'Aqua-Ye/OpaChat'
p227
tp228
a(S'mahjong'
p229
S'winbomb'
p230
S'winbomb/mahjong'
p231
tp232
a(S'PEPS-source'
p233
S'MLstate'
p234
S'MLstate/PEPS-source'
p235
tp236
a(S'hello-opa'
p237
S'MLstate'
p238
S'MLstate/hello-opa'
p239
tp240
a(S'pixlpaste'
p241
S'alokmenghrajani'
p242
S'alokmenghrajani/pixlpaste'
p243
tp244
a(S'webgldemo'
p245
S'MLstate'
p246
S'MLstate/webgldemo'
p247
tp248
a(S'OpaHOWTOs'
p249
S'akoprow'
p250
S'akoprow/OpaHOWTOs'
p251
tp252
a(S'TableBuilder'
p253
S'trecouvr'
p254
S'trecouvr/TableBuilder'
p255
tp256
a(S'hands-on-opa'
p257
S'akoprow'
p258
S'akoprow/hands-on-opa'
p259
tp260
a(S'Opa-jquery-ui'
p261
S'akoprow'
p262
S'akoprow/Opa-jquery-ui'
p263
tp264
a(S'OPAcman'
p265
S'MLstate'
p266
S'MLstate/OPAcman'
p267
tp268
a(S'OpaStart'
p269
S'Aqua-Ye'
p270
S'Aqua-Ye/OpaStart'
p271
tp272
a(S'opa-watch'
p273
S'OpaOnWindowsNow'
p274
S'OpaOnWindowsNow/opa-watch'
p275
tp276
a(S'MindChat'
p277
S'MLstate'
p278
S'MLstate/MindChat'
p279
tp280
a(S'webchat'
p281
S'hbbio'
p282
S'hbbio/webchat'
p283
tp284
a(S'OpaDo'
p285
S'cedricss'
p286
S'cedricss/OpaDo'
p287
tp288
a(S'hello_chat'
p289
S'MLstate'
p290
S'MLstate/hello_chat'
p291
tp292
a(S'hello_wiki'
p293
S'MLstate'
p294
S'MLstate/hello_wiki'
p295
tp296
a(S'opa-devcamp-facebook'
p297
S'akoprow'
p298
S'akoprow/opa-devcamp-facebook'
p299
tp300
a.