(lp0
(S'DeepakChopra_Opal'
p1
S'StoneCypher'
p2
S'StoneCypher/DeepakChopra_Opal'
p3
tp4
a(S'K9'
p5
S'DanielNyberg'
p6
S'DanielNyberg/K9'
p7
tp8
a(S'DeepakChopra_Opal'
p9
S'StoneCypher'
p10
S'StoneCypher/DeepakChopra_Opal'
p11
tp12
a(S'K9'
p13
S'DanielNyberg'
p14
S'DanielNyberg/K9'
p15
tp16
a(S'DeepakChopra_Opal'
p17
S'StoneCypher'
p18
S'StoneCypher/DeepakChopra_Opal'
p19
tp20
a(S'K9'
p21
S'DanielNyberg'
p22
S'DanielNyberg/K9'
p23
tp24
a.