(lp0
(S'Prusa3'
p1
S'josefprusa'
p2
S'josefprusa/Prusa3'
p3
tp4
a(S'kossel'
p5
S'jcrocholl'
p6
S'jcrocholl/kossel'
p7
tp8
a(S'tapsterbot'
p9
S'hugs'
p10
S'hugs/tapsterbot'
p11
tp12
a(S'Mendel90'
p13
S'nophead'
p14
S'nophead/Mendel90'
p15
tp16
a(S'sumobot-jr'
p17
S'makenai'
p18
S'makenai/sumobot-jr'
p19
tp20
a(S'Prusa3-vanilla'
p21
S'josefprusa'
p22
S'josefprusa/Prusa3-vanilla'
p23
tp24
a(S'dactyl-cave'
p25
S'adereth'
p26
S'adereth/dactyl-cave'
p27
tp28
a(S'wilson'
p29
S'mjrice'
p30
S'mjrice/wilson'
p31
tp32
a(S'MCAD'
p33
S'openscad'
p34
S'openscad/MCAD'
p35
tp36
a(S'snappy-reprap'
p37
S'revarbat'
p38
S'revarbat/snappy-reprap'
p39
tp40
a(S'prusa-i3-hephestos'
p41
S'bq'
p42
S'bq/prusa-i3-hephestos'
p43
tp44
a(S'fosscad-repo'
p45
S'maduce'
p46
S'maduce/fosscad-repo'
p47
tp48
a(S'toybrick'
p49
S'joewalnes'
p50
S'joewalnes/toybrick'
p51
tp52
a(S'cad'
p53
S'mattvenn'
p54
S'mattvenn/cad'
p55
tp56
a(S'Clone-wars'
p57
S'Obijuan'
p58
S'Obijuan/Clone-wars'
p59
tp60
a(S'OpenForge'
p61
S'devonjones'
p62
S'devonjones/OpenForge'
p63
tp64
a(S'OpenSCAD-Arduino-Mounting-Library'
p65
S'kellyegan'
p66
S'kellyegan/OpenSCAD-Arduino-Mounting-Library'
p67
tp68
a(S'scad-utils'
p69
S'OskarLinde'
p70
S'OskarLinde/scad-utils'
p71
tp72
a(S'RepRap-Industrial'
p73
S'kuehlingkuehling'
p74
S'kuehlingkuehling/RepRap-Industrial'
p75
tp76
a(S'kicad-ESP8266'
p77
S'jdunmire'
p78
S'jdunmire/kicad-ESP8266'
p79
tp80
a(S'nutsnbolts'
p81
S'JohK'
p82
S'JohK/nutsnbolts'
p83
tp84
a(S'keys'
p85
S'ewust'
p86
S'ewust/keys'
p87
tp88
a(S'openscad'
p89
S'KitWallace'
p90
S'KitWallace/openscad'
p91
tp92
a(S'Wilson2'
p93
S'mjrice'
p94
S'mjrice/Wilson2'
p95
tp96
a(S'text_on_OpenSCAD'
p97
S'brodykenrick'
p98
S'brodykenrick/text_on_OpenSCAD'
p99
tp100
a(S'Prusa3'
p101
S'josefprusa'
p102
S'josefprusa/Prusa3'
p103
tp104
a(S'kossel'
p105
S'jcrocholl'
p106
S'jcrocholl/kossel'
p107
tp108
a(S'tapsterbot'
p109
S'hugs'
p110
S'hugs/tapsterbot'
p111
tp112
a(S'Mendel90'
p113
S'nophead'
p114
S'nophead/Mendel90'
p115
tp116
a(S'sumobot-jr'
p117
S'makenai'
p118
S'makenai/sumobot-jr'
p119
tp120
a(S'Prusa3-vanilla'
p121
S'josefprusa'
p122
S'josefprusa/Prusa3-vanilla'
p123
tp124
a(S'dactyl-cave'
p125
S'adereth'
p126
S'adereth/dactyl-cave'
p127
tp128
a(S'wilson'
p129
S'mjrice'
p130
S'mjrice/wilson'
p131
tp132
a(S'MCAD'
p133
S'openscad'
p134
S'openscad/MCAD'
p135
tp136
a(S'snappy-reprap'
p137
S'revarbat'
p138
S'revarbat/snappy-reprap'
p139
tp140
a(S'prusa-i3-hephestos'
p141
S'bq'
p142
S'bq/prusa-i3-hephestos'
p143
tp144
a(S'fosscad-repo'
p145
S'maduce'
p146
S'maduce/fosscad-repo'
p147
tp148
a(S'toybrick'
p149
S'joewalnes'
p150
S'joewalnes/toybrick'
p151
tp152
a(S'cad'
p153
S'mattvenn'
p154
S'mattvenn/cad'
p155
tp156
a(S'Clone-wars'
p157
S'Obijuan'
p158
S'Obijuan/Clone-wars'
p159
tp160
a(S'OpenForge'
p161
S'devonjones'
p162
S'devonjones/OpenForge'
p163
tp164
a(S'OpenSCAD-Arduino-Mounting-Library'
p165
S'kellyegan'
p166
S'kellyegan/OpenSCAD-Arduino-Mounting-Library'
p167
tp168
a(S'scad-utils'
p169
S'OskarLinde'
p170
S'OskarLinde/scad-utils'
p171
tp172
a(S'RepRap-Industrial'
p173
S'kuehlingkuehling'
p174
S'kuehlingkuehling/RepRap-Industrial'
p175
tp176
a(S'kicad-ESP8266'
p177
S'jdunmire'
p178
S'jdunmire/kicad-ESP8266'
p179
tp180
a(S'nutsnbolts'
p181
S'JohK'
p182
S'JohK/nutsnbolts'
p183
tp184
a(S'keys'
p185
S'ewust'
p186
S'ewust/keys'
p187
tp188
a(S'openscad'
p189
S'KitWallace'
p190
S'KitWallace/openscad'
p191
tp192
a(S'Wilson2'
p193
S'mjrice'
p194
S'mjrice/Wilson2'
p195
tp196
a(S'text_on_OpenSCAD'
p197
S'brodykenrick'
p198
S'brodykenrick/text_on_OpenSCAD'
p199
tp200
a(S'snappy-reprap'
p201
S'revarbat'
p202
S'revarbat/snappy-reprap'
p203
tp204
a(S'Prusa3'
p205
S'josefprusa'
p206
S'josefprusa/Prusa3'
p207
tp208
a(S'kossel'
p209
S'jcrocholl'
p210
S'jcrocholl/kossel'
p211
tp212
a(S'tapsterbot'
p213
S'hugs'
p214
S'hugs/tapsterbot'
p215
tp216
a(S'Mendel90'
p217
S'nophead'
p218
S'nophead/Mendel90'
p219
tp220
a(S'sumobot-jr'
p221
S'makenai'
p222
S'makenai/sumobot-jr'
p223
tp224
a(S'Prusa3-vanilla'
p225
S'josefprusa'
p226
S'josefprusa/Prusa3-vanilla'
p227
tp228
a(S'dactyl-cave'
p229
S'adereth'
p230
S'adereth/dactyl-cave'
p231
tp232
a(S'wilson'
p233
S'mjrice'
p234
S'mjrice/wilson'
p235
tp236
a(S'MCAD'
p237
S'openscad'
p238
S'openscad/MCAD'
p239
tp240
a(S'prusa-i3-hephestos'
p241
S'bq'
p242
S'bq/prusa-i3-hephestos'
p243
tp244
a(S'fosscad-repo'
p245
S'maduce'
p246
S'maduce/fosscad-repo'
p247
tp248
a(S'toybrick'
p249
S'joewalnes'
p250
S'joewalnes/toybrick'
p251
tp252
a(S'cad'
p253
S'mattvenn'
p254
S'mattvenn/cad'
p255
tp256
a(S'Clone-wars'
p257
S'Obijuan'
p258
S'Obijuan/Clone-wars'
p259
tp260
a(S'OpenForge'
p261
S'devonjones'
p262
S'devonjones/OpenForge'
p263
tp264
a(S'scad-utils'
p265
S'OskarLinde'
p266
S'OskarLinde/scad-utils'
p267
tp268
a(S'OpenSCAD-Arduino-Mounting-Library'
p269
S'kellyegan'
p270
S'kellyegan/OpenSCAD-Arduino-Mounting-Library'
p271
tp272
a(S'RepRap-Industrial'
p273
S'kuehlingkuehling'
p274
S'kuehlingkuehling/RepRap-Industrial'
p275
tp276
a(S'kicad-ESP8266'
p277
S'jdunmire'
p278
S'jdunmire/kicad-ESP8266'
p279
tp280
a(S'nutsnbolts'
p281
S'JohK'
p282
S'JohK/nutsnbolts'
p283
tp284
a(S'keys'
p285
S'ewust'
p286
S'ewust/keys'
p287
tp288
a(S'openscad'
p289
S'KitWallace'
p290
S'KitWallace/openscad'
p291
tp292
a(S'Wilson2'
p293
S'mjrice'
p294
S'mjrice/Wilson2'
p295
tp296
a(S'text_on_OpenSCAD'
p297
S'brodykenrick'
p298
S'brodykenrick/text_on_OpenSCAD'
p299
tp300
a.