(lp0
(S'Android-L-Mako'
p1
S'Android-L-Porting-Team'
p2
S'Android-L-Porting-Team/Android-L-Mako'
p3
tp4
a(S'musicmood'
p5
S'rasbt'
p6
S'rasbt/musicmood'
p7
tp8
a(S'nodebox-opengl'
p9
S'nodebox'
p10
S'nodebox/nodebox-opengl'
p11
tp12
a(S'ease'
p13
S'edx'
p14
S'edx/ease'
p15
tp16
a(S'Neural-Tensor-Network'
p17
S'siddharth-agrawal'
p18
S'siddharth-agrawal/Neural-Tensor-Network'
p19
tp20
a(S'sentiment_classifier'
p21
S'kevincobain2000'
p22
S'kevincobain2000/sentiment_classifier'
p23
tp24
a(S'politeness'
p25
S'sudhof'
p26
S'sudhof/politeness'
p27
tp28
a(S'bioinf-python'
p29
S'tiagoantao'
p30
S'tiagoantao/bioinf-python'
p31
tp32
a(S'jProcessing'
p33
S'kevincobain2000'
p34
S'kevincobain2000/jProcessing'
p35
tp36
a(S'corpkit'
p37
S'interrogator'
p38
S'interrogator/corpkit'
p39
tp40
a(S'OsmAnd-resources'
p41
S'osmandapp'
p42
S'osmandapp/OsmAnd-resources'
p43
tp44
a(S'rp'
p45
S'smanenfr'
p46
S'smanenfr/rp'
p47
tp48
a(S'lessons'
p49
S'resbaz'
p50
S'resbaz/lessons'
p51
tp52
a(S'Sarcasm_detector'
p53
S'MathieuCliche'
p54
S'MathieuCliche/Sarcasm_detector'
p55
tp56
a(S'vistvfinales'
p57
S'OrganicIrradiation'
p58
S'OrganicIrradiation/vistvfinales'
p59
tp60
a(S'SewKinect'
p61
S'giantspatula'
p62
S'giantspatula/SewKinect'
p63
tp64
a(S'cvpr2013papers'
p65
S'colincsl'
p66
S'colincsl/cvpr2013papers'
p67
tp68
a(S'relevant-search-book'
p69
S'o19s'
p70
S'o19s/relevant-search-book'
p71
tp72
a(S'InsideMacintosh'
p73
S'steventroughtonsmith'
p74
S'steventroughtonsmith/InsideMacintosh'
p75
tp76
a(S'photoshop'
p77
S'amix'
p78
S'amix/photoshop'
p79
tp80
a(S'libgdx-particles'
p81
S'vyorkin'
p82
S'vyorkin/libgdx-particles'
p83
tp84
a(S'OEUnit'
p85
S'CameronWills'
p86
S'CameronWills/OEUnit'
p87
tp88
a(S'pySSTV'
p89
S'dnet'
p90
S'dnet/pySSTV'
p91
tp92
a(S'titanic-families'
p93
S'matthagy'
p94
S'matthagy/titanic-families'
p95
tp96
a(S'douban_scrapy'
p97
S'Vespa314'
p98
S'Vespa314/douban_scrapy'
p99
tp100
a(S'Android-L-Mako'
p101
S'Android-L-Porting-Team'
p102
S'Android-L-Porting-Team/Android-L-Mako'
p103
tp104
a(S'musicmood'
p105
S'rasbt'
p106
S'rasbt/musicmood'
p107
tp108
a(S'nodebox-opengl'
p109
S'nodebox'
p110
S'nodebox/nodebox-opengl'
p111
tp112
a(S'ease'
p113
S'edx'
p114
S'edx/ease'
p115
tp116
a(S'Neural-Tensor-Network'
p117
S'siddharth-agrawal'
p118
S'siddharth-agrawal/Neural-Tensor-Network'
p119
tp120
a(S'sentiment_classifier'
p121
S'kevincobain2000'
p122
S'kevincobain2000/sentiment_classifier'
p123
tp124
a(S'politeness'
p125
S'sudhof'
p126
S'sudhof/politeness'
p127
tp128
a(S'bioinf-python'
p129
S'tiagoantao'
p130
S'tiagoantao/bioinf-python'
p131
tp132
a(S'jProcessing'
p133
S'kevincobain2000'
p134
S'kevincobain2000/jProcessing'
p135
tp136
a(S'corpkit'
p137
S'interrogator'
p138
S'interrogator/corpkit'
p139
tp140
a(S'OsmAnd-resources'
p141
S'osmandapp'
p142
S'osmandapp/OsmAnd-resources'
p143
tp144
a(S'rp'
p145
S'smanenfr'
p146
S'smanenfr/rp'
p147
tp148
a(S'lessons'
p149
S'resbaz'
p150
S'resbaz/lessons'
p151
tp152
a(S'Sarcasm_detector'
p153
S'MathieuCliche'
p154
S'MathieuCliche/Sarcasm_detector'
p155
tp156
a(S'vistvfinales'
p157
S'OrganicIrradiation'
p158
S'OrganicIrradiation/vistvfinales'
p159
tp160
a(S'SewKinect'
p161
S'giantspatula'
p162
S'giantspatula/SewKinect'
p163
tp164
a(S'cvpr2013papers'
p165
S'colincsl'
p166
S'colincsl/cvpr2013papers'
p167
tp168
a(S'relevant-search-book'
p169
S'o19s'
p170
S'o19s/relevant-search-book'
p171
tp172
a(S'InsideMacintosh'
p173
S'steventroughtonsmith'
p174
S'steventroughtonsmith/InsideMacintosh'
p175
tp176
a(S'photoshop'
p177
S'amix'
p178
S'amix/photoshop'
p179
tp180
a(S'libgdx-particles'
p181
S'vyorkin'
p182
S'vyorkin/libgdx-particles'
p183
tp184
a(S'OEUnit'
p185
S'CameronWills'
p186
S'CameronWills/OEUnit'
p187
tp188
a(S'pySSTV'
p189
S'dnet'
p190
S'dnet/pySSTV'
p191
tp192
a(S'titanic-families'
p193
S'matthagy'
p194
S'matthagy/titanic-families'
p195
tp196
a(S'douban_scrapy'
p197
S'Vespa314'
p198
S'Vespa314/douban_scrapy'
p199
tp200
a(S'corpkit'
p201
S'interrogator'
p202
S'interrogator/corpkit'
p203
tp204
a(S'Android-L-Mako'
p205
S'Android-L-Porting-Team'
p206
S'Android-L-Porting-Team/Android-L-Mako'
p207
tp208
a(S'musicmood'
p209
S'rasbt'
p210
S'rasbt/musicmood'
p211
tp212
a(S'nodebox-opengl'
p213
S'nodebox'
p214
S'nodebox/nodebox-opengl'
p215
tp216
a(S'ease'
p217
S'edx'
p218
S'edx/ease'
p219
tp220
a(S'Neural-Tensor-Network'
p221
S'siddharth-agrawal'
p222
S'siddharth-agrawal/Neural-Tensor-Network'
p223
tp224
a(S'sentiment_classifier'
p225
S'kevincobain2000'
p226
S'kevincobain2000/sentiment_classifier'
p227
tp228
a(S'politeness'
p229
S'sudhof'
p230
S'sudhof/politeness'
p231
tp232
a(S'bioinf-python'
p233
S'tiagoantao'
p234
S'tiagoantao/bioinf-python'
p235
tp236
a(S'jProcessing'
p237
S'kevincobain2000'
p238
S'kevincobain2000/jProcessing'
p239
tp240
a(S'OsmAnd-resources'
p241
S'osmandapp'
p242
S'osmandapp/OsmAnd-resources'
p243
tp244
a(S'rp'
p245
S'smanenfr'
p246
S'smanenfr/rp'
p247
tp248
a(S'vistvfinales'
p249
S'OrganicIrradiation'
p250
S'OrganicIrradiation/vistvfinales'
p251
tp252
a(S'lessons'
p253
S'resbaz'
p254
S'resbaz/lessons'
p255
tp256
a(S'Sarcasm_detector'
p257
S'MathieuCliche'
p258
S'MathieuCliche/Sarcasm_detector'
p259
tp260
a(S'SewKinect'
p261
S'giantspatula'
p262
S'giantspatula/SewKinect'
p263
tp264
a(S'cvpr2013papers'
p265
S'colincsl'
p266
S'colincsl/cvpr2013papers'
p267
tp268
a(S'relevant-search-book'
p269
S'o19s'
p270
S'o19s/relevant-search-book'
p271
tp272
a(S'InsideMacintosh'
p273
S'steventroughtonsmith'
p274
S'steventroughtonsmith/InsideMacintosh'
p275
tp276
a(S'photoshop'
p277
S'amix'
p278
S'amix/photoshop'
p279
tp280
a(S'libgdx-particles'
p281
S'vyorkin'
p282
S'vyorkin/libgdx-particles'
p283
tp284
a(S'OEUnit'
p285
S'CameronWills'
p286
S'CameronWills/OEUnit'
p287
tp288
a(S'pySSTV'
p289
S'dnet'
p290
S'dnet/pySSTV'
p291
tp292
a(S'titanic-families'
p293
S'matthagy'
p294
S'matthagy/titanic-families'
p295
tp296
a(S'spindle-code'
p297
S'ox-it'
p298
S'ox-it/spindle-code'
p299
tp300
a.