(lp0
(S'niqlow'
p1
S'ferrall'
p2
S'ferrall/niqlow'
p3
tp4
a(S'niqlow'
p5
S'cpritcha'
p6
S'cpritcha/niqlow'
p7
tp8
a(S'Replication'
p9
S'ferrall'
p10
S'ferrall/Replication'
p11
tp12
a(S'Case_Study'
p13
S'tamerdilaver'
p14
S'tamerdilaver/Case_Study'
p15
tp16
a(S'Simulation_T-GAS'
p17
S'tamerdilaver'
p18
S'tamerdilaver/Simulation_T-GAS'
p19
tp20
a(S'Simulation_N-GAS'
p21
S'tamerdilaver'
p22
S'tamerdilaver/Simulation_N-GAS'
p23
tp24
a(S'Simulation_AT-GAS'
p25
S'tamerdilaver'
p26
S'tamerdilaver/Simulation_AT-GAS'
p27
tp28
a(S'Simulation_AL-GAS'
p29
S'tamerdilaver'
p30
S'tamerdilaver/Simulation_AL-GAS'
p31
tp32
a(S'Simulation'
p33
S'tamerdilaver'
p34
S'tamerdilaver/Simulation'
p35
tp36
a(S'Empirical_Research'
p37
S'tamerdilaver'
p38
S'tamerdilaver/Empirical_Research'
p39
tp40
a(S'CKMV'
p41
S'jholtka'
p42
S'jholtka/CKMV'
p43
tp44
a(S'ReplicationV2-'
p45
S'elgauchito'
p46
S'elgauchito/ReplicationV2-'
p47
tp48
a(S'prod_tools'
p49
S'bbruemmer'
p50
S'bbruemmer/prod_tools'
p51
tp52
a(S'sfamb'
p53
S'bbruemmer'
p54
S'bbruemmer/sfamb'
p55
tp56
a(S'Replication'
p57
S'elgauchito'
p58
S'elgauchito/Replication'
p59
tp60
a(S'Indirect-InferenceARMAest'
p61
S'hnm1987'
p62
S'hnm1987/Indirect-InferenceARMAest'
p63
tp64
a(S'agg'
p65
S'ferrall'
p66
S'ferrall/agg'
p67
tp68
a(S'Empirical_Research'
p69
S'KenFontijn'
p70
S'KenFontijn/Empirical_Research'
p71
tp72
a(S'niqlow'
p73
S'ferrall'
p74
S'ferrall/niqlow'
p75
tp76
a(S'niqlow'
p77
S'cpritcha'
p78
S'cpritcha/niqlow'
p79
tp80
a(S'Replication'
p81
S'ferrall'
p82
S'ferrall/Replication'
p83
tp84
a(S'Case_Study'
p85
S'tamerdilaver'
p86
S'tamerdilaver/Case_Study'
p87
tp88
a(S'Simulation_T-GAS'
p89
S'tamerdilaver'
p90
S'tamerdilaver/Simulation_T-GAS'
p91
tp92
a(S'Simulation_N-GAS'
p93
S'tamerdilaver'
p94
S'tamerdilaver/Simulation_N-GAS'
p95
tp96
a(S'Simulation_AT-GAS'
p97
S'tamerdilaver'
p98
S'tamerdilaver/Simulation_AT-GAS'
p99
tp100
a(S'Simulation_AL-GAS'
p101
S'tamerdilaver'
p102
S'tamerdilaver/Simulation_AL-GAS'
p103
tp104
a(S'Simulation'
p105
S'tamerdilaver'
p106
S'tamerdilaver/Simulation'
p107
tp108
a(S'Empirical_Research'
p109
S'tamerdilaver'
p110
S'tamerdilaver/Empirical_Research'
p111
tp112
a(S'CKMV'
p113
S'jholtka'
p114
S'jholtka/CKMV'
p115
tp116
a(S'ReplicationV2-'
p117
S'elgauchito'
p118
S'elgauchito/ReplicationV2-'
p119
tp120
a(S'prod_tools'
p121
S'bbruemmer'
p122
S'bbruemmer/prod_tools'
p123
tp124
a(S'sfamb'
p125
S'bbruemmer'
p126
S'bbruemmer/sfamb'
p127
tp128
a(S'Replication'
p129
S'elgauchito'
p130
S'elgauchito/Replication'
p131
tp132
a(S'Indirect-InferenceARMAest'
p133
S'hnm1987'
p134
S'hnm1987/Indirect-InferenceARMAest'
p135
tp136
a(S'agg'
p137
S'ferrall'
p138
S'ferrall/agg'
p139
tp140
a(S'Empirical_Research'
p141
S'KenFontijn'
p142
S'KenFontijn/Empirical_Research'
p143
tp144
a(S'niqlow'
p145
S'ferrall'
p146
S'ferrall/niqlow'
p147
tp148
a(S'niqlow'
p149
S'cpritcha'
p150
S'cpritcha/niqlow'
p151
tp152
a(S'Replication'
p153
S'ferrall'
p154
S'ferrall/Replication'
p155
tp156
a(S'Case_Study'
p157
S'tamerdilaver'
p158
S'tamerdilaver/Case_Study'
p159
tp160
a(S'Simulation_T-GAS'
p161
S'tamerdilaver'
p162
S'tamerdilaver/Simulation_T-GAS'
p163
tp164
a(S'Simulation_N-GAS'
p165
S'tamerdilaver'
p166
S'tamerdilaver/Simulation_N-GAS'
p167
tp168
a(S'Simulation_AT-GAS'
p169
S'tamerdilaver'
p170
S'tamerdilaver/Simulation_AT-GAS'
p171
tp172
a(S'Simulation_AL-GAS'
p173
S'tamerdilaver'
p174
S'tamerdilaver/Simulation_AL-GAS'
p175
tp176
a(S'Simulation'
p177
S'tamerdilaver'
p178
S'tamerdilaver/Simulation'
p179
tp180
a(S'Empirical_Research'
p181
S'tamerdilaver'
p182
S'tamerdilaver/Empirical_Research'
p183
tp184
a(S'CKMV'
p185
S'jholtka'
p186
S'jholtka/CKMV'
p187
tp188
a(S'ReplicationV2-'
p189
S'elgauchito'
p190
S'elgauchito/ReplicationV2-'
p191
tp192
a(S'prod_tools'
p193
S'bbruemmer'
p194
S'bbruemmer/prod_tools'
p195
tp196
a(S'sfamb'
p197
S'bbruemmer'
p198
S'bbruemmer/sfamb'
p199
tp200
a(S'Replication'
p201
S'elgauchito'
p202
S'elgauchito/Replication'
p203
tp204
a(S'Indirect-InferenceARMAest'
p205
S'hnm1987'
p206
S'hnm1987/Indirect-InferenceARMAest'
p207
tp208
a(S'agg'
p209
S'ferrall'
p210
S'ferrall/agg'
p211
tp212
a(S'Empirical_Research'
p213
S'KenFontijn'
p214
S'KenFontijn/Empirical_Research'
p215
tp216
a.