(lp0
(S'ppruby'
p1
S'shikhalev'
p2
S'shikhalev/ppruby'
p3
tp4
a(S'Delphi-OmniThreadLibrary'
p5
S'ghquant'
p6
S'ghquant/Delphi-OmniThreadLibrary'
p7
tp8
a(S'hjLunarCalendarGenerator'
p9
S'hjfactory'
p10
S'hjfactory/hjLunarCalendarGenerator'
p11
tp12
a(S'POOA13'
p13
S'plafrance'
p14
S'plafrance/POOA13'
p15
tp16
a(S'calendar'
p17
S'remobjects'
p18
S'remobjects/calendar'
p19
tp20
a(S'TCBox'
p21
S'peleccom'
p22
S'peleccom/TCBox'
p23
tp24
a(S'SCRABBLE'
p25
S'KUMOprogram'
p26
S'KUMOprogram/SCRABBLE'
p27
tp28
a(S'mqtt-free-pascal'
p29
S'ZiCog'
p30
S'ZiCog/mqtt-free-pascal'
p31
tp32
a(S'PascalCompiler'
p33
S'ZRazor'
p34
S'ZRazor/PascalCompiler'
p35
tp36
a(S'SynchroVideo'
p37
S'kibook'
p38
S'kibook/SynchroVideo'
p39
tp40
a(S'SUDOKU'
p41
S'KUMOprogram'
p42
S'KUMOprogram/SUDOKU'
p43
tp44
a(S'vap'
p45
S'viktand'
p46
S'viktand/vap'
p47
tp48
a(S'TRILIZA-game'
p49
S'KUMOprogram'
p50
S'KUMOprogram/TRILIZA-game'
p51
tp52
a(S'parsegen'
p53
S'dilshan'
p54
S'dilshan/parsegen'
p55
tp56
a(S'issrc'
p57
S'matthewFanlife'
p58
S'matthewFanlife/issrc'
p59
tp60
a(S'LaySwitcher'
p61
S'gaid78'
p62
S'gaid78/LaySwitcher'
p63
tp64
a(S'issrc'
p65
S'EliBing'
p66
S'EliBing/issrc'
p67
tp68
a(S'oxygene-aspects'
p69
S'remobjects'
p70
S'remobjects/oxygene-aspects'
p71
tp72
a(S'runonce_postit'
p73
S'fredvs'
p74
S'fredvs/runonce_postit'
p75
tp76
a(S'pascal'
p77
S'tangentstorm'
p78
S'tangentstorm/pascal'
p79
tp80
a(S'delphiprojectcleanup'
p81
S'ronaldhoek'
p82
S'ronaldhoek/delphiprojectcleanup'
p83
tp84
a(S'jcl'
p85
S'lincesmarques'
p86
S'lincesmarques/jcl'
p87
tp88
a(S'calendar'
p89
S'jamiepg1'
p90
S'jamiepg1/calendar'
p91
tp92
a(S'pascalscript'
p93
S'chuacw'
p94
S'chuacw/pascalscript'
p95
tp96
a(S'JAL'
p97
S'atxaloisio'
p98
S'atxaloisio/JAL'
p99
tp100
a(S'ppruby'
p101
S'shikhalev'
p102
S'shikhalev/ppruby'
p103
tp104
a(S'Delphi-OmniThreadLibrary'
p105
S'ghquant'
p106
S'ghquant/Delphi-OmniThreadLibrary'
p107
tp108
a(S'hjLunarCalendarGenerator'
p109
S'hjfactory'
p110
S'hjfactory/hjLunarCalendarGenerator'
p111
tp112
a(S'POOA13'
p113
S'plafrance'
p114
S'plafrance/POOA13'
p115
tp116
a(S'calendar'
p117
S'remobjects'
p118
S'remobjects/calendar'
p119
tp120
a(S'TCBox'
p121
S'peleccom'
p122
S'peleccom/TCBox'
p123
tp124
a(S'SCRABBLE'
p125
S'KUMOprogram'
p126
S'KUMOprogram/SCRABBLE'
p127
tp128
a(S'mqtt-free-pascal'
p129
S'ZiCog'
p130
S'ZiCog/mqtt-free-pascal'
p131
tp132
a(S'PascalCompiler'
p133
S'ZRazor'
p134
S'ZRazor/PascalCompiler'
p135
tp136
a(S'SynchroVideo'
p137
S'kibook'
p138
S'kibook/SynchroVideo'
p139
tp140
a(S'SUDOKU'
p141
S'KUMOprogram'
p142
S'KUMOprogram/SUDOKU'
p143
tp144
a(S'vap'
p145
S'viktand'
p146
S'viktand/vap'
p147
tp148
a(S'TRILIZA-game'
p149
S'KUMOprogram'
p150
S'KUMOprogram/TRILIZA-game'
p151
tp152
a(S'parsegen'
p153
S'dilshan'
p154
S'dilshan/parsegen'
p155
tp156
a(S'issrc'
p157
S'matthewFanlife'
p158
S'matthewFanlife/issrc'
p159
tp160
a(S'LaySwitcher'
p161
S'gaid78'
p162
S'gaid78/LaySwitcher'
p163
tp164
a(S'issrc'
p165
S'EliBing'
p166
S'EliBing/issrc'
p167
tp168
a(S'oxygene-aspects'
p169
S'remobjects'
p170
S'remobjects/oxygene-aspects'
p171
tp172
a(S'runonce_postit'
p173
S'fredvs'
p174
S'fredvs/runonce_postit'
p175
tp176
a(S'pascal'
p177
S'tangentstorm'
p178
S'tangentstorm/pascal'
p179
tp180
a(S'delphiprojectcleanup'
p181
S'ronaldhoek'
p182
S'ronaldhoek/delphiprojectcleanup'
p183
tp184
a(S'jcl'
p185
S'lincesmarques'
p186
S'lincesmarques/jcl'
p187
tp188
a(S'calendar'
p189
S'jamiepg1'
p190
S'jamiepg1/calendar'
p191
tp192
a(S'pascalscript'
p193
S'chuacw'
p194
S'chuacw/pascalscript'
p195
tp196
a(S'JAL'
p197
S'atxaloisio'
p198
S'atxaloisio/JAL'
p199
tp200
a(S'ppruby'
p201
S'shikhalev'
p202
S'shikhalev/ppruby'
p203
tp204
a(S'Delphi-OmniThreadLibrary'
p205
S'ghquant'
p206
S'ghquant/Delphi-OmniThreadLibrary'
p207
tp208
a(S'hjLunarCalendarGenerator'
p209
S'hjfactory'
p210
S'hjfactory/hjLunarCalendarGenerator'
p211
tp212
a(S'POOA13'
p213
S'plafrance'
p214
S'plafrance/POOA13'
p215
tp216
a(S'calendar'
p217
S'remobjects'
p218
S'remobjects/calendar'
p219
tp220
a(S'TCBox'
p221
S'peleccom'
p222
S'peleccom/TCBox'
p223
tp224
a(S'SCRABBLE'
p225
S'KUMOprogram'
p226
S'KUMOprogram/SCRABBLE'
p227
tp228
a(S'mqtt-free-pascal'
p229
S'ZiCog'
p230
S'ZiCog/mqtt-free-pascal'
p231
tp232
a(S'PascalCompiler'
p233
S'ZRazor'
p234
S'ZRazor/PascalCompiler'
p235
tp236
a(S'SynchroVideo'
p237
S'kibook'
p238
S'kibook/SynchroVideo'
p239
tp240
a(S'SUDOKU'
p241
S'KUMOprogram'
p242
S'KUMOprogram/SUDOKU'
p243
tp244
a(S'vap'
p245
S'viktand'
p246
S'viktand/vap'
p247
tp248
a(S'TRILIZA-game'
p249
S'KUMOprogram'
p250
S'KUMOprogram/TRILIZA-game'
p251
tp252
a(S'parsegen'
p253
S'dilshan'
p254
S'dilshan/parsegen'
p255
tp256
a(S'issrc'
p257
S'matthewFanlife'
p258
S'matthewFanlife/issrc'
p259
tp260
a(S'LaySwitcher'
p261
S'gaid78'
p262
S'gaid78/LaySwitcher'
p263
tp264
a(S'issrc'
p265
S'EliBing'
p266
S'EliBing/issrc'
p267
tp268
a(S'oxygene-aspects'
p269
S'remobjects'
p270
S'remobjects/oxygene-aspects'
p271
tp272
a(S'runonce_postit'
p273
S'fredvs'
p274
S'fredvs/runonce_postit'
p275
tp276
a(S'pascal'
p277
S'tangentstorm'
p278
S'tangentstorm/pascal'
p279
tp280
a(S'delphiprojectcleanup'
p281
S'ronaldhoek'
p282
S'ronaldhoek/delphiprojectcleanup'
p283
tp284
a(S'jcl'
p285
S'lincesmarques'
p286
S'lincesmarques/jcl'
p287
tp288
a(S'calendar'
p289
S'jamiepg1'
p290
S'jamiepg1/calendar'
p291
tp292
a(S'pascalscript'
p293
S'chuacw'
p294
S'chuacw/pascalscript'
p295
tp296
a(S'JAL'
p297
S'atxaloisio'
p298
S'atxaloisio/JAL'
p299
tp300
a.