(lp0
(S'mozart2'
p1
S'mozart'
p2
S'mozart/mozart2'
p3
tp4
a(S'mozart2'
p5
S'yjaradin'
p6
S'yjaradin/mozart2'
p7
tp8
a(S'fractalide-oz'
p9
S'fractalide'
p10
S'fractalide/fractalide-oz'
p11
tp12
a(S'mozart2'
p13
S'mcanthony'
p14
S'mcanthony/mozart2'
p15
tp16
a(S'oz-project-fsa12'
p17
S'anpar'
p18
S'anpar/oz-project-fsa12'
p19
tp20
a(S'ctmcp'
p21
S'memerelics'
p22
S'memerelics/ctmcp'
p23
tp24
a(S'Projet_LFSAB1402'
p25
S'EdwardNicol'
p26
S'EdwardNicol/Projet_LFSAB1402'
p27
tp28
a(S'LINGI1131-Sol'
p29
S'blegat'
p30
S'blegat/LINGI1131-Sol'
p31
tp32
a(S'POPL'
p33
S'avikalpg'
p34
S'avikalpg/POPL'
p35
tp36
a(S'ctmcp-practice'
p37
S'shoya140'
p38
S'shoya140/ctmcp-practice'
p39
tp40
a(S'FSAB1402-INGInious'
p41
S'layus'
p42
S'layus/FSAB1402-INGInious'
p43
tp44
a(S'ctmcp'
p45
S'takeshinoda'
p46
S'takeshinoda/ctmcp'
p47
tp48
a(S'LINGI-1131'
p49
S'obronchain'
p50
S'obronchain/LINGI-1131'
p51
tp52
a(S'the-wizardry'
p53
S'teodorlu'
p54
S'teodorlu/the-wizardry'
p55
tp56
a(S'amouly-codes'
p57
S'amouly'
p58
S'amouly/amouly-codes'
p59
tp60
a(S'Louv1.1x-PoCP-F_Oz'
p61
S'AlexMckey'
p62
S'AlexMckey/Louv1.1x-PoCP-F_Oz'
p63
tp64
a(S'Dj-Oz'
p65
S'NGillain'
p66
S'NGillain/Dj-Oz'
p67
tp68
a(S'ozProject'
p69
S'GregoryVds'
p70
S'GregoryVds/ozProject'
p71
tp72
a(S'ProjetInfo'
p73
S'valdroc1404'
p74
S'valdroc1404/ProjetInfo'
p75
tp76
a(S'dj-oz-projet'
p77
S'jdewasseige'
p78
S'jdewasseige/dj-oz-projet'
p79
tp80
a(S'FSAB1402-Project'
p81
S'xlambein'
p82
S'xlambein/FSAB1402-Project'
p83
tp84
a(S'DjOz'
p85
S'GregoryVds'
p86
S'GregoryVds/DjOz'
p87
tp88
a(S'FSAB1402---Informatique-2---Projet'
p89
S'DamienDeprez'
p90
S'DamienDeprez/FSAB1402---Informatique-2---Projet'
p91
tp92
a(S'Programming-Languages'
p93
S'dfcf93'
p94
S'dfcf93/Programming-Languages'
p95
tp96
a(S'my-ctmcp'
p97
S'ojima-h'
p98
S'ojima-h/my-ctmcp'
p99
tp100
a(S'mozart2'
p101
S'mozart'
p102
S'mozart/mozart2'
p103
tp104
a(S'mozart2'
p105
S'yjaradin'
p106
S'yjaradin/mozart2'
p107
tp108
a(S'fractalide-oz'
p109
S'fractalide'
p110
S'fractalide/fractalide-oz'
p111
tp112
a(S'mozart2'
p113
S'mcanthony'
p114
S'mcanthony/mozart2'
p115
tp116
a(S'oz-project-fsa12'
p117
S'anpar'
p118
S'anpar/oz-project-fsa12'
p119
tp120
a(S'ctmcp'
p121
S'memerelics'
p122
S'memerelics/ctmcp'
p123
tp124
a(S'Projet_LFSAB1402'
p125
S'EdwardNicol'
p126
S'EdwardNicol/Projet_LFSAB1402'
p127
tp128
a(S'LINGI1131-Sol'
p129
S'blegat'
p130
S'blegat/LINGI1131-Sol'
p131
tp132
a(S'POPL'
p133
S'avikalpg'
p134
S'avikalpg/POPL'
p135
tp136
a(S'ctmcp-practice'
p137
S'shoya140'
p138
S'shoya140/ctmcp-practice'
p139
tp140
a(S'FSAB1402-INGInious'
p141
S'layus'
p142
S'layus/FSAB1402-INGInious'
p143
tp144
a(S'ctmcp'
p145
S'takeshinoda'
p146
S'takeshinoda/ctmcp'
p147
tp148
a(S'LINGI-1131'
p149
S'obronchain'
p150
S'obronchain/LINGI-1131'
p151
tp152
a(S'the-wizardry'
p153
S'teodorlu'
p154
S'teodorlu/the-wizardry'
p155
tp156
a(S'amouly-codes'
p157
S'amouly'
p158
S'amouly/amouly-codes'
p159
tp160
a(S'Louv1.1x-PoCP-F_Oz'
p161
S'AlexMckey'
p162
S'AlexMckey/Louv1.1x-PoCP-F_Oz'
p163
tp164
a(S'Dj-Oz'
p165
S'NGillain'
p166
S'NGillain/Dj-Oz'
p167
tp168
a(S'ozProject'
p169
S'GregoryVds'
p170
S'GregoryVds/ozProject'
p171
tp172
a(S'ProjetInfo'
p173
S'valdroc1404'
p174
S'valdroc1404/ProjetInfo'
p175
tp176
a(S'dj-oz-projet'
p177
S'jdewasseige'
p178
S'jdewasseige/dj-oz-projet'
p179
tp180
a(S'FSAB1402-Project'
p181
S'xlambein'
p182
S'xlambein/FSAB1402-Project'
p183
tp184
a(S'DjOz'
p185
S'GregoryVds'
p186
S'GregoryVds/DjOz'
p187
tp188
a(S'FSAB1402---Informatique-2---Projet'
p189
S'DamienDeprez'
p190
S'DamienDeprez/FSAB1402---Informatique-2---Projet'
p191
tp192
a(S'Programming-Languages'
p193
S'dfcf93'
p194
S'dfcf93/Programming-Languages'
p195
tp196
a(S'my-ctmcp'
p197
S'ojima-h'
p198
S'ojima-h/my-ctmcp'
p199
tp200
a(S'mozart2'
p201
S'mozart'
p202
S'mozart/mozart2'
p203
tp204
a(S'mozart2'
p205
S'yjaradin'
p206
S'yjaradin/mozart2'
p207
tp208
a(S'fractalide-oz'
p209
S'fractalide'
p210
S'fractalide/fractalide-oz'
p211
tp212
a(S'mozart2'
p213
S'mcanthony'
p214
S'mcanthony/mozart2'
p215
tp216
a(S'oz-project-fsa12'
p217
S'anpar'
p218
S'anpar/oz-project-fsa12'
p219
tp220
a(S'ctmcp'
p221
S'memerelics'
p222
S'memerelics/ctmcp'
p223
tp224
a(S'Projet_LFSAB1402'
p225
S'EdwardNicol'
p226
S'EdwardNicol/Projet_LFSAB1402'
p227
tp228
a(S'LINGI1131-Sol'
p229
S'blegat'
p230
S'blegat/LINGI1131-Sol'
p231
tp232
a(S'POPL'
p233
S'avikalpg'
p234
S'avikalpg/POPL'
p235
tp236
a(S'ctmcp-practice'
p237
S'shoya140'
p238
S'shoya140/ctmcp-practice'
p239
tp240
a(S'FSAB1402-INGInious'
p241
S'layus'
p242
S'layus/FSAB1402-INGInious'
p243
tp244
a(S'ctmcp'
p245
S'takeshinoda'
p246
S'takeshinoda/ctmcp'
p247
tp248
a(S'LINGI-1131'
p249
S'obronchain'
p250
S'obronchain/LINGI-1131'
p251
tp252
a(S'the-wizardry'
p253
S'teodorlu'
p254
S'teodorlu/the-wizardry'
p255
tp256
a(S'amouly-codes'
p257
S'amouly'
p258
S'amouly/amouly-codes'
p259
tp260
a(S'Louv1.1x-PoCP-F_Oz'
p261
S'AlexMckey'
p262
S'AlexMckey/Louv1.1x-PoCP-F_Oz'
p263
tp264
a(S'Dj-Oz'
p265
S'NGillain'
p266
S'NGillain/Dj-Oz'
p267
tp268
a(S'ozProject'
p269
S'GregoryVds'
p270
S'GregoryVds/ozProject'
p271
tp272
a(S'ProjetInfo'
p273
S'valdroc1404'
p274
S'valdroc1404/ProjetInfo'
p275
tp276
a(S'dj-oz-projet'
p277
S'jdewasseige'
p278
S'jdewasseige/dj-oz-projet'
p279
tp280
a(S'FSAB1402-Project'
p281
S'xlambein'
p282
S'xlambein/FSAB1402-Project'
p283
tp284
a(S'DjOz'
p285
S'GregoryVds'
p286
S'GregoryVds/DjOz'
p287
tp288
a(S'FSAB1402---Informatique-2---Projet'
p289
S'DamienDeprez'
p290
S'DamienDeprez/FSAB1402---Informatique-2---Projet'
p291
tp292
a(S'Programming-Languages'
p293
S'dfcf93'
p294
S'dfcf93/Programming-Languages'
p295
tp296
a(S'my-ctmcp'
p297
S'ojima-h'
p298
S'ojima-h/my-ctmcp'
p299
tp300
a.