(lp0
(S'template-library-grid'
p1
S'quattor'
p2
S'quattor/template-library-grid'
p3
tp4
a(S'template-library-stratuslab'
p5
S'quattor'
p6
S'quattor/template-library-stratuslab'
p7
tp8
a(S'template-library-core'
p9
S'quattor'
p10
S'quattor/template-library-core'
p11
tp12
a(S'config-templates'
p13
S'stdweird'
p14
S'stdweird/config-templates'
p15
tp16
a(S'template-library-grid'
p17
S'almumontiel'
p18
S'almumontiel/template-library-grid'
p19
tp20
a(S'template-library-examples'
p21
S'jouvin'
p22
S'jouvin/template-library-examples'
p23
tp24
a(S'template-library-os'
p25
S'jouvin'
p26
S'jouvin/template-library-os'
p27
tp28
a(S'template-library-core'
p29
S'dzila'
p30
S'dzila/template-library-core'
p31
tp32
a(S'template-library-core'
p33
S'stdweird'
p34
S'stdweird/template-library-core'
p35
tp36
a(S'template-library-core'
p37
S'alvarosimon'
p38
S'alvarosimon/template-library-core'
p39
tp40
a(S'template-library-core'
p41
S'jamiepg1'
p42
S'jamiepg1/template-library-core'
p43
tp44
a(S'template-library-stratuslab'
p45
S'guillaume-philippon'
p46
S'guillaume-philippon/template-library-stratuslab'
p47
tp48
a(S'template-library-grid'
p49
S'guillaume-philippon'
p50
S'guillaume-philippon/template-library-grid'
p51
tp52
a(S'template-library-openstack'
p53
S'quattor'
p54
S'quattor/template-library-openstack'
p55
tp56
a(S'template-library-grid'
p57
S'jouvin'
p58
S'jouvin/template-library-grid'
p59
tp60
a(S'fried_eggs'
p61
S'ilia-maslakov'
p62
S'ilia-maslakov/fried_eggs'
p63
tp64
a(S'template-library-monitoring'
p65
S'quattor'
p66
S'quattor/template-library-monitoring'
p67
tp68
a(S'template-library-examples'
p69
S'quattor'
p70
S'quattor/template-library-examples'
p71
tp72
a(S'template-library-os'
p73
S'quattor'
p74
S'quattor/template-library-os'
p75
tp76
a(S'template-library-standard'
p77
S'quattor'
p78
S'quattor/template-library-standard'
p79
tp80
a(S'template-library-stratuslab'
p81
S'jamiepg1'
p82
S'jamiepg1/template-library-stratuslab'
p83
tp84
a(S'template-library-core'
p85
S'jouvin'
p86
S'jouvin/template-library-core'
p87
tp88
a(S'template-library-core'
p89
S'jrha'
p90
S'jrha/template-library-core'
p91
tp92
a(S'config-templates'
p93
S'brunocanning'
p94
S'brunocanning/config-templates'
p95
tp96
a(S'template-library-openstack'
p97
S'wdpypere'
p98
S'wdpypere/template-library-openstack'
p99
tp100
a(S'template-library-grid'
p101
S'quattor'
p102
S'quattor/template-library-grid'
p103
tp104
a(S'template-library-stratuslab'
p105
S'quattor'
p106
S'quattor/template-library-stratuslab'
p107
tp108
a(S'template-library-core'
p109
S'quattor'
p110
S'quattor/template-library-core'
p111
tp112
a(S'config-templates'
p113
S'stdweird'
p114
S'stdweird/config-templates'
p115
tp116
a(S'template-library-grid'
p117
S'almumontiel'
p118
S'almumontiel/template-library-grid'
p119
tp120
a(S'template-library-examples'
p121
S'jouvin'
p122
S'jouvin/template-library-examples'
p123
tp124
a(S'template-library-os'
p125
S'jouvin'
p126
S'jouvin/template-library-os'
p127
tp128
a(S'template-library-core'
p129
S'dzila'
p130
S'dzila/template-library-core'
p131
tp132
a(S'template-library-core'
p133
S'stdweird'
p134
S'stdweird/template-library-core'
p135
tp136
a(S'template-library-core'
p137
S'alvarosimon'
p138
S'alvarosimon/template-library-core'
p139
tp140
a(S'template-library-core'
p141
S'jamiepg1'
p142
S'jamiepg1/template-library-core'
p143
tp144
a(S'template-library-stratuslab'
p145
S'guillaume-philippon'
p146
S'guillaume-philippon/template-library-stratuslab'
p147
tp148
a(S'template-library-grid'
p149
S'guillaume-philippon'
p150
S'guillaume-philippon/template-library-grid'
p151
tp152
a(S'template-library-openstack'
p153
S'quattor'
p154
S'quattor/template-library-openstack'
p155
tp156
a(S'template-library-grid'
p157
S'jouvin'
p158
S'jouvin/template-library-grid'
p159
tp160
a(S'fried_eggs'
p161
S'ilia-maslakov'
p162
S'ilia-maslakov/fried_eggs'
p163
tp164
a(S'template-library-monitoring'
p165
S'quattor'
p166
S'quattor/template-library-monitoring'
p167
tp168
a(S'template-library-examples'
p169
S'quattor'
p170
S'quattor/template-library-examples'
p171
tp172
a(S'template-library-os'
p173
S'quattor'
p174
S'quattor/template-library-os'
p175
tp176
a(S'template-library-standard'
p177
S'quattor'
p178
S'quattor/template-library-standard'
p179
tp180
a(S'template-library-stratuslab'
p181
S'jamiepg1'
p182
S'jamiepg1/template-library-stratuslab'
p183
tp184
a(S'template-library-core'
p185
S'jouvin'
p186
S'jouvin/template-library-core'
p187
tp188
a(S'template-library-core'
p189
S'jrha'
p190
S'jrha/template-library-core'
p191
tp192
a(S'config-templates'
p193
S'brunocanning'
p194
S'brunocanning/config-templates'
p195
tp196
a(S'template-library-openstack'
p197
S'wdpypere'
p198
S'wdpypere/template-library-openstack'
p199
tp200
a(S'template-library-grid'
p201
S'quattor'
p202
S'quattor/template-library-grid'
p203
tp204
a(S'template-library-stratuslab'
p205
S'quattor'
p206
S'quattor/template-library-stratuslab'
p207
tp208
a(S'template-library-core'
p209
S'quattor'
p210
S'quattor/template-library-core'
p211
tp212
a(S'config-templates'
p213
S'stdweird'
p214
S'stdweird/config-templates'
p215
tp216
a(S'template-library-grid'
p217
S'almumontiel'
p218
S'almumontiel/template-library-grid'
p219
tp220
a(S'template-library-examples'
p221
S'jouvin'
p222
S'jouvin/template-library-examples'
p223
tp224
a(S'template-library-os'
p225
S'jouvin'
p226
S'jouvin/template-library-os'
p227
tp228
a(S'template-library-core'
p229
S'dzila'
p230
S'dzila/template-library-core'
p231
tp232
a(S'template-library-core'
p233
S'stdweird'
p234
S'stdweird/template-library-core'
p235
tp236
a(S'template-library-core'
p237
S'alvarosimon'
p238
S'alvarosimon/template-library-core'
p239
tp240
a(S'template-library-core'
p241
S'jamiepg1'
p242
S'jamiepg1/template-library-core'
p243
tp244
a(S'template-library-stratuslab'
p245
S'guillaume-philippon'
p246
S'guillaume-philippon/template-library-stratuslab'
p247
tp248
a(S'template-library-grid'
p249
S'guillaume-philippon'
p250
S'guillaume-philippon/template-library-grid'
p251
tp252
a(S'template-library-openstack'
p253
S'quattor'
p254
S'quattor/template-library-openstack'
p255
tp256
a(S'template-library-grid'
p257
S'jouvin'
p258
S'jouvin/template-library-grid'
p259
tp260
a(S'fried_eggs'
p261
S'ilia-maslakov'
p262
S'ilia-maslakov/fried_eggs'
p263
tp264
a(S'template-library-monitoring'
p265
S'quattor'
p266
S'quattor/template-library-monitoring'
p267
tp268
a(S'template-library-examples'
p269
S'quattor'
p270
S'quattor/template-library-examples'
p271
tp272
a(S'template-library-os'
p273
S'quattor'
p274
S'quattor/template-library-os'
p275
tp276
a(S'template-library-standard'
p277
S'quattor'
p278
S'quattor/template-library-standard'
p279
tp280
a(S'template-library-stratuslab'
p281
S'jamiepg1'
p282
S'jamiepg1/template-library-stratuslab'
p283
tp284
a(S'template-library-core'
p285
S'jouvin'
p286
S'jouvin/template-library-core'
p287
tp288
a(S'template-library-core'
p289
S'jrha'
p290
S'jrha/template-library-core'
p291
tp292
a(S'config-templates'
p293
S'brunocanning'
p294
S'brunocanning/config-templates'
p295
tp296
a(S'template-library-openstack'
p297
S'wdpypere'
p298
S'wdpypere/template-library-openstack'
p299
tp300
a.