(lp0
(S'Campfire'
p1
S'chesko256'
p2
S'chesko256/Campfire'
p3
tp4
a(S'FamiliarFaces'
p5
S'Verteiron'
p6
S'Verteiron/FamiliarFaces'
p7
tp8
a(S'DDa'
p9
S'DeviousDevices'
p10
S'DeviousDevices/DDa'
p11
tp12
a(S'Arissa'
p13
S'chesko256'
p14
S'chesko256/Arissa'
p15
tp16
a(S'DDi'
p17
S'DeviousDevices'
p18
S'DeviousDevices/DDi'
p19
tp20
a(S'SDPlus'
p21
S'SkyrimLL'
p22
S'SkyrimLL/SDPlus'
p23
tp24
a(S'DDx'
p25
S'DeviousDevices'
p26
S'DeviousDevices/DDx'
p27
tp28
a(S'ProjectSC'
p29
S'Joschbosch'
p30
S'Joschbosch/ProjectSC'
p31
tp32
a(S'Extensible-Follower-Framework'
p33
S'expired6978'
p34
S'expired6978/Extensible-Follower-Framework'
p35
tp36
a(S'Real-Shelter-Frostfall'
p37
S'ThreeTen22'
p38
S'ThreeTen22/Real-Shelter-Frostfall'
p39
tp40
a(S'Programming-of-Supercomputers'
p41
S'slgao'
p42
S'slgao/Programming-of-Supercomputers'
p43
tp44
a(S'SerialStrip'
p45
S'GAntono'
p46
S'GAntono/SerialStrip'
p47
tp48
a(S'APPS---Framework'
p49
S'heromaster'
p50
S'heromaster/APPS---Framework'
p51
tp52
a(S'SDPlus'
p53
S'Elenora307'
p54
S'Elenora307/SDPlus'
p55
tp56
a(S'mod-face2face'
p57
S'towawot'
p58
S'towawot/mod-face2face'
p59
tp60
a(S'Algoritmos'
p61
S'Woomber'
p62
S'Woomber/Algoritmos'
p63
tp64
a(S'mod-BlockstealRedux'
p65
S'towawot'
p66
S'towawot/mod-BlockstealRedux'
p67
tp68
a(S'dodgemod'
p69
S'Dioxylin'
p70
S'Dioxylin/dodgemod'
p71
tp72
a(S'Bathing-in-Skyrim'
p73
S'mzinchaleft'
p74
S'mzinchaleft/Bathing-in-Skyrim'
p75
tp76
a(S'fj-praat-scripts'
p77
S'fjohan'
p78
S'fjohan/fj-praat-scripts'
p79
tp80
a(S'mod-AutoHarvest2'
p81
S'towawot'
p82
S'towawot/mod-AutoHarvest2'
p83
tp84
a(S'factura'
p85
S'johanetox'
p86
S'johanetox/factura'
p87
tp88
a(S'Tangible-Gold'
p89
S'Kapiainen'
p90
S'Kapiainen/Tangible-Gold'
p91
tp92
a(S'All-Geared-Up'
p93
S'Kapiainen'
p94
S'Kapiainen/All-Geared-Up'
p95
tp96
a(S'APPS'
p97
S'heromaster'
p98
S'heromaster/APPS'
p99
tp100
a(S'Campfire'
p101
S'chesko256'
p102
S'chesko256/Campfire'
p103
tp104
a(S'FamiliarFaces'
p105
S'Verteiron'
p106
S'Verteiron/FamiliarFaces'
p107
tp108
a(S'DDa'
p109
S'DeviousDevices'
p110
S'DeviousDevices/DDa'
p111
tp112
a(S'Arissa'
p113
S'chesko256'
p114
S'chesko256/Arissa'
p115
tp116
a(S'DDi'
p117
S'DeviousDevices'
p118
S'DeviousDevices/DDi'
p119
tp120
a(S'SDPlus'
p121
S'SkyrimLL'
p122
S'SkyrimLL/SDPlus'
p123
tp124
a(S'DDx'
p125
S'DeviousDevices'
p126
S'DeviousDevices/DDx'
p127
tp128
a(S'ProjectSC'
p129
S'Joschbosch'
p130
S'Joschbosch/ProjectSC'
p131
tp132
a(S'Extensible-Follower-Framework'
p133
S'expired6978'
p134
S'expired6978/Extensible-Follower-Framework'
p135
tp136
a(S'Real-Shelter-Frostfall'
p137
S'ThreeTen22'
p138
S'ThreeTen22/Real-Shelter-Frostfall'
p139
tp140
a(S'Programming-of-Supercomputers'
p141
S'slgao'
p142
S'slgao/Programming-of-Supercomputers'
p143
tp144
a(S'SerialStrip'
p145
S'GAntono'
p146
S'GAntono/SerialStrip'
p147
tp148
a(S'APPS---Framework'
p149
S'heromaster'
p150
S'heromaster/APPS---Framework'
p151
tp152
a(S'SDPlus'
p153
S'Elenora307'
p154
S'Elenora307/SDPlus'
p155
tp156
a(S'mod-face2face'
p157
S'towawot'
p158
S'towawot/mod-face2face'
p159
tp160
a(S'Algoritmos'
p161
S'Woomber'
p162
S'Woomber/Algoritmos'
p163
tp164
a(S'mod-BlockstealRedux'
p165
S'towawot'
p166
S'towawot/mod-BlockstealRedux'
p167
tp168
a(S'dodgemod'
p169
S'Dioxylin'
p170
S'Dioxylin/dodgemod'
p171
tp172
a(S'Bathing-in-Skyrim'
p173
S'mzinchaleft'
p174
S'mzinchaleft/Bathing-in-Skyrim'
p175
tp176
a(S'fj-praat-scripts'
p177
S'fjohan'
p178
S'fjohan/fj-praat-scripts'
p179
tp180
a(S'mod-AutoHarvest2'
p181
S'towawot'
p182
S'towawot/mod-AutoHarvest2'
p183
tp184
a(S'factura'
p185
S'johanetox'
p186
S'johanetox/factura'
p187
tp188
a(S'Tangible-Gold'
p189
S'Kapiainen'
p190
S'Kapiainen/Tangible-Gold'
p191
tp192
a(S'All-Geared-Up'
p193
S'Kapiainen'
p194
S'Kapiainen/All-Geared-Up'
p195
tp196
a(S'APPS'
p197
S'heromaster'
p198
S'heromaster/APPS'
p199
tp200
a(S'Campfire'
p201
S'chesko256'
p202
S'chesko256/Campfire'
p203
tp204
a(S'FamiliarFaces'
p205
S'Verteiron'
p206
S'Verteiron/FamiliarFaces'
p207
tp208
a(S'DDa'
p209
S'DeviousDevices'
p210
S'DeviousDevices/DDa'
p211
tp212
a(S'Arissa'
p213
S'chesko256'
p214
S'chesko256/Arissa'
p215
tp216
a(S'DDi'
p217
S'DeviousDevices'
p218
S'DeviousDevices/DDi'
p219
tp220
a(S'SDPlus'
p221
S'SkyrimLL'
p222
S'SkyrimLL/SDPlus'
p223
tp224
a(S'DDx'
p225
S'DeviousDevices'
p226
S'DeviousDevices/DDx'
p227
tp228
a(S'ProjectSC'
p229
S'Joschbosch'
p230
S'Joschbosch/ProjectSC'
p231
tp232
a(S'Extensible-Follower-Framework'
p233
S'expired6978'
p234
S'expired6978/Extensible-Follower-Framework'
p235
tp236
a(S'Real-Shelter-Frostfall'
p237
S'ThreeTen22'
p238
S'ThreeTen22/Real-Shelter-Frostfall'
p239
tp240
a(S'Programming-of-Supercomputers'
p241
S'slgao'
p242
S'slgao/Programming-of-Supercomputers'
p243
tp244
a(S'SerialStrip'
p245
S'GAntono'
p246
S'GAntono/SerialStrip'
p247
tp248
a(S'APPS---Framework'
p249
S'heromaster'
p250
S'heromaster/APPS---Framework'
p251
tp252
a(S'SDPlus'
p253
S'Elenora307'
p254
S'Elenora307/SDPlus'
p255
tp256
a(S'mod-face2face'
p257
S'towawot'
p258
S'towawot/mod-face2face'
p259
tp260
a(S'Algoritmos'
p261
S'Woomber'
p262
S'Woomber/Algoritmos'
p263
tp264
a(S'mod-BlockstealRedux'
p265
S'towawot'
p266
S'towawot/mod-BlockstealRedux'
p267
tp268
a(S'dodgemod'
p269
S'Dioxylin'
p270
S'Dioxylin/dodgemod'
p271
tp272
a(S'Bathing-in-Skyrim'
p273
S'mzinchaleft'
p274
S'mzinchaleft/Bathing-in-Skyrim'
p275
tp276
a(S'fj-praat-scripts'
p277
S'fjohan'
p278
S'fjohan/fj-praat-scripts'
p279
tp280
a(S'mod-AutoHarvest2'
p281
S'towawot'
p282
S'towawot/mod-AutoHarvest2'
p283
tp284
a(S'factura'
p285
S'johanetox'
p286
S'johanetox/factura'
p287
tp288
a(S'Tangible-Gold'
p289
S'Kapiainen'
p290
S'Kapiainen/Tangible-Gold'
p291
tp292
a(S'All-Geared-Up'
p293
S'Kapiainen'
p294
S'Kapiainen/All-Geared-Up'
p295
tp296
a(S'APPS'
p297
S'heromaster'
p298
S'heromaster/APPS'
p299
tp300
a.