(lp0
(S'nqp'
p1
S'perl6'
p2
S'perl6/nqp'
p3
tp4
a(S'cardinal'
p5
S'parrot'
p6
S'parrot/cardinal'
p7
tp8
a(S'lua'
p9
S'fperrad'
p10
S'fperrad/lua'
p11
tp12
a(S'nqp-rx'
p13
S'perl6'
p14
S'perl6/nqp-rx'
p15
tp16
a(S'pipp'
p17
S'bschmalhofer'
p18
S'bschmalhofer/pipp'
p19
tp20
a(S'winxed'
p21
S'NotFound'
p22
S'NotFound/winxed'
p23
tp24
a(S'partcl'
p25
S'partcl'
p26
S'partcl/partcl'
p27
tp28
a(S'kea'
p29
S'leto'
p30
S'leto/kea'
p31
tp32
a(S'gamebase'
p33
S'quietfanatic'
p34
S'quietfanatic/gamebase'
p35
tp36
a(S'fun'
p37
S'TiMBuS'
p38
S'TiMBuS/fun'
p39
tp40
a(S'primitivearc'
p41
S'stefano'
p42
S'stefano/primitivearc'
p43
tp44
a(S'parrot-libgit2'
p45
S'letolabs'
p46
S'letolabs/parrot-libgit2'
p47
tp48
a(S'lisp'
p49
S'parrot'
p50
S'parrot/lisp'
p51
tp52
a(S'forth'
p53
S'parrot'
p54
S'parrot/forth'
p55
tp56
a(S'matrixy'
p57
S'Whiteknight'
p58
S'Whiteknight/matrixy'
p59
tp60
a(S'ohm-eta-wink-kzd'
p61
S'plobsing'
p62
S'plobsing/ohm-eta-wink-kzd'
p63
tp64
a(S'nqptap'
p65
S'leto'
p66
S'leto/nqptap'
p67
tp68
a(S'lua-batteries'
p69
S'fperrad'
p70
S'fperrad/lua-batteries'
p71
tp72
a(S'parrot-babysteps'
p73
S'brianwisti'
p74
S'brianwisti/parrot-babysteps'
p75
tp76
a(S'parrot-gmp'
p77
S'bubaflub'
p78
S'bubaflub/parrot-gmp'
p79
tp80
a(S'gil'
p81
S'tene'
p82
S'tene/gil'
p83
tp84
a(S'app-parrot-create'
p85
S'letolabs'
p86
S'letolabs/app-parrot-create'
p87
tp88
a(S'parrot-data-structures'
p89
S'Whiteknight'
p90
S'Whiteknight/parrot-data-structures'
p91
tp92
a(S'm4'
p93
S'bschmalhofer'
p94
S'bschmalhofer/m4'
p95
tp96
a(S'parrot-libjit-fb'
p97
S'plobsing'
p98
S'plobsing/parrot-libjit-fb'
p99
tp100
a(S'nqp'
p101
S'perl6'
p102
S'perl6/nqp'
p103
tp104
a(S'cardinal'
p105
S'parrot'
p106
S'parrot/cardinal'
p107
tp108
a(S'lua'
p109
S'fperrad'
p110
S'fperrad/lua'
p111
tp112
a(S'nqp-rx'
p113
S'perl6'
p114
S'perl6/nqp-rx'
p115
tp116
a(S'winxed'
p117
S'NotFound'
p118
S'NotFound/winxed'
p119
tp120
a(S'pipp'
p121
S'bschmalhofer'
p122
S'bschmalhofer/pipp'
p123
tp124
a(S'partcl'
p125
S'partcl'
p126
S'partcl/partcl'
p127
tp128
a(S'kea'
p129
S'leto'
p130
S'leto/kea'
p131
tp132
a(S'gamebase'
p133
S'quietfanatic'
p134
S'quietfanatic/gamebase'
p135
tp136
a(S'fun'
p137
S'TiMBuS'
p138
S'TiMBuS/fun'
p139
tp140
a(S'primitivearc'
p141
S'stefano'
p142
S'stefano/primitivearc'
p143
tp144
a(S'parrot-libgit2'
p145
S'letolabs'
p146
S'letolabs/parrot-libgit2'
p147
tp148
a(S'forth'
p149
S'parrot'
p150
S'parrot/forth'
p151
tp152
a(S'lisp'
p153
S'parrot'
p154
S'parrot/lisp'
p155
tp156
a(S'matrixy'
p157
S'Whiteknight'
p158
S'Whiteknight/matrixy'
p159
tp160
a(S'parrot-babysteps'
p161
S'brianwisti'
p162
S'brianwisti/parrot-babysteps'
p163
tp164
a(S'ohm-eta-wink-kzd'
p165
S'plobsing'
p166
S'plobsing/ohm-eta-wink-kzd'
p167
tp168
a(S'nqptap'
p169
S'leto'
p170
S'leto/nqptap'
p171
tp172
a(S'lua-batteries'
p173
S'fperrad'
p174
S'fperrad/lua-batteries'
p175
tp176
a(S'gil'
p177
S'tene'
p178
S'tene/gil'
p179
tp180
a(S'app-parrot-create'
p181
S'letolabs'
p182
S'letolabs/app-parrot-create'
p183
tp184
a(S'parrot-gmp'
p185
S'bubaflub'
p186
S'bubaflub/parrot-gmp'
p187
tp188
a(S'parrot-data-structures'
p189
S'Whiteknight'
p190
S'Whiteknight/parrot-data-structures'
p191
tp192
a(S'm4'
p193
S'bschmalhofer'
p194
S'bschmalhofer/m4'
p195
tp196
a(S'parrot-libjit-fb'
p197
S'plobsing'
p198
S'plobsing/parrot-libjit-fb'
p199
tp200
a(S'nqp'
p201
S'perl6'
p202
S'perl6/nqp'
p203
tp204
a(S'cardinal'
p205
S'parrot'
p206
S'parrot/cardinal'
p207
tp208
a(S'lua'
p209
S'fperrad'
p210
S'fperrad/lua'
p211
tp212
a(S'nqp-rx'
p213
S'perl6'
p214
S'perl6/nqp-rx'
p215
tp216
a(S'pipp'
p217
S'bschmalhofer'
p218
S'bschmalhofer/pipp'
p219
tp220
a(S'winxed'
p221
S'NotFound'
p222
S'NotFound/winxed'
p223
tp224
a(S'partcl'
p225
S'partcl'
p226
S'partcl/partcl'
p227
tp228
a(S'kea'
p229
S'leto'
p230
S'leto/kea'
p231
tp232
a(S'gamebase'
p233
S'quietfanatic'
p234
S'quietfanatic/gamebase'
p235
tp236
a(S'fun'
p237
S'TiMBuS'
p238
S'TiMBuS/fun'
p239
tp240
a(S'primitivearc'
p241
S'stefano'
p242
S'stefano/primitivearc'
p243
tp244
a(S'parrot-libgit2'
p245
S'letolabs'
p246
S'letolabs/parrot-libgit2'
p247
tp248
a(S'lisp'
p249
S'parrot'
p250
S'parrot/lisp'
p251
tp252
a(S'forth'
p253
S'parrot'
p254
S'parrot/forth'
p255
tp256
a(S'matrixy'
p257
S'Whiteknight'
p258
S'Whiteknight/matrixy'
p259
tp260
a(S'ohm-eta-wink-kzd'
p261
S'plobsing'
p262
S'plobsing/ohm-eta-wink-kzd'
p263
tp264
a(S'nqptap'
p265
S'leto'
p266
S'leto/nqptap'
p267
tp268
a(S'lua-batteries'
p269
S'fperrad'
p270
S'fperrad/lua-batteries'
p271
tp272
a(S'parrot-babysteps'
p273
S'brianwisti'
p274
S'brianwisti/parrot-babysteps'
p275
tp276
a(S'parrot-gmp'
p277
S'bubaflub'
p278
S'bubaflub/parrot-gmp'
p279
tp280
a(S'gil'
p281
S'tene'
p282
S'tene/gil'
p283
tp284
a(S'app-parrot-create'
p285
S'letolabs'
p286
S'letolabs/app-parrot-create'
p287
tp288
a(S'parrot-data-structures'
p289
S'Whiteknight'
p290
S'Whiteknight/parrot-data-structures'
p291
tp292
a(S'm4'
p293
S'bschmalhofer'
p294
S'bschmalhofer/m4'
p295
tp296
a(S'parrot-libjit-fb'
p297
S'plobsing'
p298
S'plobsing/parrot-libjit-fb'
p299
tp300
a.