(lp0
(S'TorChat'
p1
S'prof7bit'
p2
S'prof7bit/TorChat'
p3
tp4
a(S'issrc'
p5
S'jrsoftware'
p6
S'jrsoftware/issrc'
p7
tp8
a(S'rdpwrap'
p9
S'binarymaster'
p10
S'binarymaster/rdpwrap'
p11
tp12
a(S'LibreCrypt'
p13
S't-d-k'
p14
S't-d-k/LibreCrypt'
p15
tp16
a(S'nodemcu-flasher'
p17
S'nodemcu'
p18
S'nodemcu/nodemcu-flasher'
p19
tp20
a(S'jcl'
p21
S'project-jedi'
p22
S'project-jedi/jcl'
p23
tp24
a(S'cheat-engine'
p25
S'cheat-engine'
p26
S'cheat-engine/cheat-engine'
p27
tp28
a(S'jvcl'
p29
S'project-jedi'
p30
S'project-jedi/jvcl'
p31
tp32
a(S'freepascal'
p33
S'graemeg'
p34
S'graemeg/freepascal'
p35
tp36
a(S'pascalscript'
p37
S'remobjects'
p38
S'remobjects/pascalscript'
p39
tp40
a(S'DUnitX'
p41
S'VSoftTechnologies'
p42
S'VSoftTechnologies/DUnitX'
p43
tp44
a(S'delphi-rest-client-api'
p45
S'fabriciocolombo'
p46
S'fabriciocolombo/delphi-rest-client-api'
p47
tp48
a(S'lazarus'
p49
S'graemeg'
p50
S'graemeg/lazarus'
p51
tp52
a(S'Delphi-Mocks'
p53
S'VSoftTechnologies'
p54
S'VSoftTechnologies/Delphi-Mocks'
p55
tp56
a(S'Delphi-OpenCV'
p57
S'Laex'
p58
S'Laex/Delphi-OpenCV'
p59
tp60
a(S'brookframework'
p61
S'silvioprog'
p62
S'silvioprog/brookframework'
p63
tp64
a(S'googleapi'
p65
S'googleapi'
p66
S'googleapi/googleapi'
p67
tp68
a(S'mORMot'
p69
S'synopse'
p70
S'synopse/mORMot'
p71
tp72
a(S'vagrant-installers'
p73
S'mitchellh'
p74
S'mitchellh/vagrant-installers'
p75
tp76
a(S'Simba'
p77
S'MerlijnWajer'
p78
S'MerlijnWajer/Simba'
p79
tp80
a(S'MySQL-Front'
p81
S'NilsHoyer'
p82
S'NilsHoyer/MySQL-Front'
p83
tp84
a(S'Virtual-TreeView'
p85
S'Virtual-TreeView'
p86
S'Virtual-TreeView/Virtual-TreeView'
p87
tp88
a(S'HtmlViewer'
p89
S'BerndGabriel'
p90
S'BerndGabriel/HtmlViewer'
p91
tp92
a(S'cnwizards'
p93
S'cnpack'
p94
S'cnpack/cnwizards'
p95
tp96
a(S'JsonDataObjects'
p97
S'ahausladen'
p98
S'ahausladen/JsonDataObjects'
p99
tp100
a(S'cheat-engine'
p101
S'cheat-engine'
p102
S'cheat-engine/cheat-engine'
p103
tp104
a(S'AllaKore_Remote'
p105
S'senjaxus'
p106
S'senjaxus/AllaKore_Remote'
p107
tp108
a(S'cnwizards'
p109
S'cnpack'
p110
S'cnpack/cnwizards'
p111
tp112
a(S'MySQL-Front'
p113
S'NilsHoyer'
p114
S'NilsHoyer/MySQL-Front'
p115
tp116
a(S'Simba'
p117
S'MerlijnWajer'
p118
S'MerlijnWajer/Simba'
p119
tp120
a(S'TorChat'
p121
S'prof7bit'
p122
S'prof7bit/TorChat'
p123
tp124
a(S'issrc'
p125
S'jrsoftware'
p126
S'jrsoftware/issrc'
p127
tp128
a(S'rdpwrap'
p129
S'binarymaster'
p130
S'binarymaster/rdpwrap'
p131
tp132
a(S'LibreCrypt'
p133
S't-d-k'
p134
S't-d-k/LibreCrypt'
p135
tp136
a(S'nodemcu-flasher'
p137
S'nodemcu'
p138
S'nodemcu/nodemcu-flasher'
p139
tp140
a(S'jcl'
p141
S'project-jedi'
p142
S'project-jedi/jcl'
p143
tp144
a(S'jvcl'
p145
S'project-jedi'
p146
S'project-jedi/jvcl'
p147
tp148
a(S'freepascal'
p149
S'graemeg'
p150
S'graemeg/freepascal'
p151
tp152
a(S'pascalscript'
p153
S'remobjects'
p154
S'remobjects/pascalscript'
p155
tp156
a(S'DUnitX'
p157
S'VSoftTechnologies'
p158
S'VSoftTechnologies/DUnitX'
p159
tp160
a(S'delphi-rest-client-api'
p161
S'fabriciocolombo'
p162
S'fabriciocolombo/delphi-rest-client-api'
p163
tp164
a(S'lazarus'
p165
S'graemeg'
p166
S'graemeg/lazarus'
p167
tp168
a(S'Delphi-Mocks'
p169
S'VSoftTechnologies'
p170
S'VSoftTechnologies/Delphi-Mocks'
p171
tp172
a(S'Delphi-OpenCV'
p173
S'Laex'
p174
S'Laex/Delphi-OpenCV'
p175
tp176
a(S'brookframework'
p177
S'silvioprog'
p178
S'silvioprog/brookframework'
p179
tp180
a(S'googleapi'
p181
S'googleapi'
p182
S'googleapi/googleapi'
p183
tp184
a(S'mORMot'
p185
S'synopse'
p186
S'synopse/mORMot'
p187
tp188
a(S'vagrant-installers'
p189
S'mitchellh'
p190
S'mitchellh/vagrant-installers'
p191
tp192
a(S'Virtual-TreeView'
p193
S'Virtual-TreeView'
p194
S'Virtual-TreeView/Virtual-TreeView'
p195
tp196
a(S'HtmlViewer'
p197
S'BerndGabriel'
p198
S'BerndGabriel/HtmlViewer'
p199
tp200
a(S'AllaKore_Remote'
p201
S'senjaxus'
p202
S'senjaxus/AllaKore_Remote'
p203
tp204
a(S'cheat-engine'
p205
S'cheat-engine'
p206
S'cheat-engine/cheat-engine'
p207
tp208
a(S'issrc'
p209
S'jrsoftware'
p210
S'jrsoftware/issrc'
p211
tp212
a(S'LibreCrypt'
p213
S't-d-k'
p214
S't-d-k/LibreCrypt'
p215
tp216
a(S'mORMot'
p217
S'synopse'
p218
S'synopse/mORMot'
p219
tp220
a(S'Delphinus'
p221
S'Memnarch'
p222
S'Memnarch/Delphinus'
p223
tp224
a(S'Virtual-TreeView'
p225
S'Virtual-TreeView'
p226
S'Virtual-TreeView/Virtual-TreeView'
p227
tp228
a(S'eagle-to-kicad'
p229
S'lachlanA'
p230
S'lachlanA/eagle-to-kicad'
p231
tp232
a(S'HtmlViewer'
p233
S'BerndGabriel'
p234
S'BerndGabriel/HtmlViewer'
p235
tp236
a(S'pascalscript'
p237
S'remobjects'
p238
S'remobjects/pascalscript'
p239
tp240
a(S'delphi-detours-library'
p241
S'MahdiSafsafi'
p242
S'MahdiSafsafi/delphi-detours-library'
p243
tp244
a(S'lazarus'
p245
S'alrieckert'
p246
S'alrieckert/lazarus'
p247
tp248
a(S'Simba'
p249
S'MerlijnWajer'
p250
S'MerlijnWajer/Simba'
p251
tp252
a(S'TorChat'
p253
S'prof7bit'
p254
S'prof7bit/TorChat'
p255
tp256
a(S'rdpwrap'
p257
S'binarymaster'
p258
S'binarymaster/rdpwrap'
p259
tp260
a(S'nodemcu-flasher'
p261
S'nodemcu'
p262
S'nodemcu/nodemcu-flasher'
p263
tp264
a(S'jcl'
p265
S'project-jedi'
p266
S'project-jedi/jcl'
p267
tp268
a(S'jvcl'
p269
S'project-jedi'
p270
S'project-jedi/jvcl'
p271
tp272
a(S'freepascal'
p273
S'graemeg'
p274
S'graemeg/freepascal'
p275
tp276
a(S'DUnitX'
p277
S'VSoftTechnologies'
p278
S'VSoftTechnologies/DUnitX'
p279
tp280
a(S'delphi-rest-client-api'
p281
S'fabriciocolombo'
p282
S'fabriciocolombo/delphi-rest-client-api'
p283
tp284
a(S'lazarus'
p285
S'graemeg'
p286
S'graemeg/lazarus'
p287
tp288
a(S'Delphi-Mocks'
p289
S'VSoftTechnologies'
p290
S'VSoftTechnologies/Delphi-Mocks'
p291
tp292
a(S'Delphi-OpenCV'
p293
S'Laex'
p294
S'Laex/Delphi-OpenCV'
p295
tp296
a(S'brookframework'
p297
S'silvioprog'
p298
S'silvioprog/brookframework'
p299
tp300
a.