(lp0
(S'ScavengeSurvive'
p1
S'Southclaw'
p2
S'Southclaw/ScavengeSurvive'
p3
tp4
a(S'Texture-Studio'
p5
S'Pottus'
p6
S'Pottus/Texture-Studio'
p7
tp8
a(S'SIF'
p9
S'Southclaw'
p10
S'Southclaw/SIF'
p11
tp12
a(S'Open-GTO'
p13
S'ziggi'
p14
S'ziggi/Open-GTO'
p15
tp16
a(S'Object-Physics'
p17
S'uPeppe'
p18
S'uPeppe/Object-Physics'
p19
tp20
a(S'amx_assembly'
p21
S'Zeex'
p22
S'Zeex/amx_assembly'
p23
tp24
a(S'GWRP-0.3'
p25
S'MacMailler'
p26
S'MacMailler/GWRP-0.3'
p27
tp28
a(S'samp-Hellfire'
p29
S'Southclaw'
p30
S'Southclaw/samp-Hellfire'
p31
tp32
a(S'New-SA-MP-callbacks'
p33
S'emmet-jones'
p34
S'emmet-jones/New-SA-MP-callbacks'
p35
tp36
a(S'FullServer-XyzzyDM'
p37
S'lpiob'
p38
S'lpiob/FullServer-XyzzyDM'
p39
tp40
a(S'samp-gamemode-nfsw'
p41
S'SDraw'
p42
S'SDraw/samp-gamemode-nfsw'
p43
tp44
a(S'Map-Editor'
p45
S'fusez'
p46
S'fusez/Map-Editor'
p47
tp48
a(S'SwizzIncludes'
p49
S'Patrik356b'
p50
S'Patrik356b/SwizzIncludes'
p51
tp52
a(S'Zipline'
p53
S'Southclaw'
p54
S'Southclaw/Zipline'
p55
tp56
a(S'modio'
p57
S'Southclaw'
p58
S'Southclaw/modio'
p59
tp60
a(S'SA-MP-Polygons'
p61
S'Seregamil'
p62
S'Seregamil/SA-MP-Polygons'
p63
tp64
a(S'YSI-4.0'
p65
S'Southclaw'
p66
S'Southclaw/YSI-4.0'
p67
tp68
a(S'GameTextFix'
p69
S'ifarbod'
p70
S'ifarbod/GameTextFix'
p71
tp72
a(S'sampac_server_api'
p73
S'Whitetigerswt'
p74
S'Whitetigerswt/sampac_server_api'
p75
tp76
a(S'MonolithRoleplay'
p77
S'NGGTheory'
p78
S'NGGTheory/MonolithRoleplay'
p79
tp80
a(S'vending'
p81
S'Larceny-'
p82
S'Larceny-/vending'
p83
tp84
a(S'ICMD-8.0'
p85
S'WLSF'
p86
S'WLSF/ICMD-8.0'
p87
tp88
a(S'sa-mp-fixes'
p89
S'ziggi'
p90
S'ziggi/sa-mp-fixes'
p91
tp92
a(S'Nyan-RP'
p93
S'Jujuv'
p94
S'Jujuv/Nyan-RP'
p95
tp96
a(S'pawn'
p97
S'Shiska'
p98
S'Shiska/pawn'
p99
tp100
a(S'ScavengeSurvive'
p101
S'Southclaw'
p102
S'Southclaw/ScavengeSurvive'
p103
tp104
a(S'Texture-Studio'
p105
S'Pottus'
p106
S'Pottus/Texture-Studio'
p107
tp108
a(S'SIF'
p109
S'Southclaw'
p110
S'Southclaw/SIF'
p111
tp112
a(S'Open-GTO'
p113
S'ziggi'
p114
S'ziggi/Open-GTO'
p115
tp116
a(S'Object-Physics'
p117
S'uPeppe'
p118
S'uPeppe/Object-Physics'
p119
tp120
a(S'amx_assembly'
p121
S'Zeex'
p122
S'Zeex/amx_assembly'
p123
tp124
a(S'GWRP-0.3'
p125
S'MacMailler'
p126
S'MacMailler/GWRP-0.3'
p127
tp128
a(S'samp-Hellfire'
p129
S'Southclaw'
p130
S'Southclaw/samp-Hellfire'
p131
tp132
a(S'New-SA-MP-callbacks'
p133
S'emmet-jones'
p134
S'emmet-jones/New-SA-MP-callbacks'
p135
tp136
a(S'FullServer-XyzzyDM'
p137
S'lpiob'
p138
S'lpiob/FullServer-XyzzyDM'
p139
tp140
a(S'samp-gamemode-nfsw'
p141
S'SDraw'
p142
S'SDraw/samp-gamemode-nfsw'
p143
tp144
a(S'Map-Editor'
p145
S'fusez'
p146
S'fusez/Map-Editor'
p147
tp148
a(S'SwizzIncludes'
p149
S'Patrik356b'
p150
S'Patrik356b/SwizzIncludes'
p151
tp152
a(S'Zipline'
p153
S'Southclaw'
p154
S'Southclaw/Zipline'
p155
tp156
a(S'modio'
p157
S'Southclaw'
p158
S'Southclaw/modio'
p159
tp160
a(S'SA-MP-Polygons'
p161
S'Seregamil'
p162
S'Seregamil/SA-MP-Polygons'
p163
tp164
a(S'YSI-4.0'
p165
S'Southclaw'
p166
S'Southclaw/YSI-4.0'
p167
tp168
a(S'GameTextFix'
p169
S'ifarbod'
p170
S'ifarbod/GameTextFix'
p171
tp172
a(S'sampac_server_api'
p173
S'Whitetigerswt'
p174
S'Whitetigerswt/sampac_server_api'
p175
tp176
a(S'MonolithRoleplay'
p177
S'NGGTheory'
p178
S'NGGTheory/MonolithRoleplay'
p179
tp180
a(S'vending'
p181
S'Larceny-'
p182
S'Larceny-/vending'
p183
tp184
a(S'ICMD-8.0'
p185
S'WLSF'
p186
S'WLSF/ICMD-8.0'
p187
tp188
a(S'sa-mp-fixes'
p189
S'ziggi'
p190
S'ziggi/sa-mp-fixes'
p191
tp192
a(S'Nyan-RP'
p193
S'Jujuv'
p194
S'Jujuv/Nyan-RP'
p195
tp196
a(S'pawn'
p197
S'Shiska'
p198
S'Shiska/pawn'
p199
tp200
a(S'ScavengeSurvive'
p201
S'Southclaw'
p202
S'Southclaw/ScavengeSurvive'
p203
tp204
a(S'Texture-Studio'
p205
S'Pottus'
p206
S'Pottus/Texture-Studio'
p207
tp208
a(S'SIF'
p209
S'Southclaw'
p210
S'Southclaw/SIF'
p211
tp212
a(S'Open-GTO'
p213
S'ziggi'
p214
S'ziggi/Open-GTO'
p215
tp216
a(S'Object-Physics'
p217
S'uPeppe'
p218
S'uPeppe/Object-Physics'
p219
tp220
a(S'amx_assembly'
p221
S'Zeex'
p222
S'Zeex/amx_assembly'
p223
tp224
a(S'GWRP-0.3'
p225
S'MacMailler'
p226
S'MacMailler/GWRP-0.3'
p227
tp228
a(S'samp-Hellfire'
p229
S'Southclaw'
p230
S'Southclaw/samp-Hellfire'
p231
tp232
a(S'New-SA-MP-callbacks'
p233
S'emmet-jones'
p234
S'emmet-jones/New-SA-MP-callbacks'
p235
tp236
a(S'FullServer-XyzzyDM'
p237
S'lpiob'
p238
S'lpiob/FullServer-XyzzyDM'
p239
tp240
a(S'samp-gamemode-nfsw'
p241
S'SDraw'
p242
S'SDraw/samp-gamemode-nfsw'
p243
tp244
a(S'Map-Editor'
p245
S'fusez'
p246
S'fusez/Map-Editor'
p247
tp248
a(S'SwizzIncludes'
p249
S'Patrik356b'
p250
S'Patrik356b/SwizzIncludes'
p251
tp252
a(S'Zipline'
p253
S'Southclaw'
p254
S'Southclaw/Zipline'
p255
tp256
a(S'modio'
p257
S'Southclaw'
p258
S'Southclaw/modio'
p259
tp260
a(S'SA-MP-Polygons'
p261
S'Seregamil'
p262
S'Seregamil/SA-MP-Polygons'
p263
tp264
a(S'YSI-4.0'
p265
S'Southclaw'
p266
S'Southclaw/YSI-4.0'
p267
tp268
a(S'GameTextFix'
p269
S'ifarbod'
p270
S'ifarbod/GameTextFix'
p271
tp272
a(S'sampac_server_api'
p273
S'Whitetigerswt'
p274
S'Whitetigerswt/sampac_server_api'
p275
tp276
a(S'MonolithRoleplay'
p277
S'NGGTheory'
p278
S'NGGTheory/MonolithRoleplay'
p279
tp280
a(S'vending'
p281
S'Larceny-'
p282
S'Larceny-/vending'
p283
tp284
a(S'ICMD-8.0'
p285
S'WLSF'
p286
S'WLSF/ICMD-8.0'
p287
tp288
a(S'sa-mp-fixes'
p289
S'ziggi'
p290
S'ziggi/sa-mp-fixes'
p291
tp292
a(S'Nyan-RP'
p293
S'Jujuv'
p294
S'Jujuv/Nyan-RP'
p295
tp296
a(S'pawn'
p297
S'Shiska'
p298
S'Shiska/pawn'
p299
tp300
a.