(lp0
(S'Expose'
p1
S'Jack000'
p2
S'Jack000/Expose'
p3
tp4
a(S'naxsi'
p5
S'nbs-system'
p6
S'nbs-system/naxsi'
p7
tp8
a(S'modern_perl_book'
p9
S'chromatic'
p10
S'chromatic/modern_perl_book'
p11
tp12
a(S'headers-more-nginx-module'
p13
S'openresty'
p14
S'openresty/headers-more-nginx-module'
p15
tp16
a(S'chart-clicker'
p17
S'gphat'
p18
S'gphat/chart-clicker'
p19
tp20
a(S'lua-resty-http'
p21
S'pintsized'
p22
S'pintsized/lua-resty-http'
p23
tp24
a(S'dotfiles'
p25
S'jfrazelle'
p26
S'jfrazelle/dotfiles'
p27
tp28
a(S'lg'
p29
S'Cougar'
p30
S'Cougar/lg'
p31
tp32
a(S'zeroclickinfo-goodies'
p33
S'duckduckgo'
p34
S'duckduckgo/zeroclickinfo-goodies'
p35
tp36
a(S'hexchat-addons'
p37
S'hexchat'
p38
S'hexchat/hexchat-addons'
p39
tp40
a(S'gitolite'
p41
S'sitaramc'
p42
S'sitaramc/gitolite'
p43
tp44
a(S'MySQLTuner-perl'
p45
S'major'
p46
S'major/MySQLTuner-perl'
p47
tp48
a(S'lua-nginx-module'
p49
S'openresty'
p50
S'openresty/lua-nginx-module'
p51
tp52
a(S'sicp-pdf'
p53
S'sarabander'
p54
S'sarabander/sicp-pdf'
p55
tp56
a(S'mojo'
p57
S'kraih'
p58
S'kraih/mojo'
p59
tp60
a(S'ngx_openresty'
p61
S'openresty'
p62
S'openresty/ngx_openresty'
p63
tp64
a(S'nginx-tutorials'
p65
S'openresty'
p66
S'openresty/nginx-tutorials'
p67
tp68
a(S'rcm'
p69
S'thoughtbot'
p70
S'thoughtbot/rcm'
p71
tp72
a(S'ack2'
p73
S'petdance'
p74
S'petdance/ack2'
p75
tp76
a(S'rainbarf'
p77
S'creaktive'
p78
S'creaktive/rainbarf'
p79
tp80
a(S'ack'
p81
S'petdance'
p82
S'petdance/ack'
p83
tp84
a(S'prey-bash-client'
p85
S'prey'
p86
S'prey/prey-bash-client'
p87
tp88
a(S'git-cal'
p89
S'k4rthik'
p90
S'k4rthik/git-cal'
p91
tp92
a(S'AirChat'
p93
S'lulzlabs'
p94
S'lulzlabs/AirChat'
p95
tp96
a(S'contrib'
p97
S'munin-monitoring'
p98
S'munin-monitoring/contrib'
p99
tp100
a(S'Expose'
p101
S'Jack000'
p102
S'Jack000/Expose'
p103
tp104
a(S'nipe'
p105
S'HeitorG'
p106
S'HeitorG/nipe'
p107
tp108
a(S'djdt-flamegraph'
p109
S'23andMe'
p110
S'23andMe/djdt-flamegraph'
p111
tp112
a(S'cloc'
p113
S'AlDanial'
p114
S'AlDanial/cloc'
p115
tp116
a(S'naxsi'
p117
S'nbs-system'
p118
S'nbs-system/naxsi'
p119
tp120
a(S'lua-nginx-module'
p121
S'openresty'
p122
S'openresty/lua-nginx-module'
p123
tp124
a(S'pgFormatter'
p125
S'darold'
p126
S'darold/pgFormatter'
p127
tp128
a(S'sqitch'
p129
S'theory'
p130
S'theory/sqitch'
p131
tp132
a(S'nikto'
p133
S'sullo'
p134
S'sullo/nikto'
p135
tp136
a(S'imapsync'
p137
S'imapsync'
p138
S'imapsync/imapsync'
p139
tp140
a(S'pgbadger'
p141
S'dalibo'
p142
S'dalibo/pgbadger'
p143
tp144
a(S'theos'
p145
S'rpetrich'
p146
S'rpetrich/theos'
p147
tp148
a(S'nagios-plugins'
p149
S'harisekhon'
p150
S'harisekhon/nagios-plugins'
p151
tp152
a(S'ora2pg'
p153
S'darold'
p154
S'darold/ora2pg'
p155
tp156
a(S'theos'
p157
S'kirb'
p158
S'kirb/theos'
p159
tp160
a(S'myrepos'
p161
S'joeyh'
p162
S'joeyh/myrepos'
p163
tp164
a(S'asterisk-googletts'
p165
S'zaf'
p166
S'zaf/asterisk-googletts'
p167
tp168
a(S'ddclient'
p169
S'wimpunk'
p170
S'wimpunk/ddclient'
p171
tp172
a(S'packetfence'
p173
S'inverse-inc'
p174
S'inverse-inc/packetfence'
p175
tp176
a(S'traffic_control'
p177
S'Comcast'
p178
S'Comcast/traffic_control'
p179
tp180
a(S'O-Saft'
p181
S'OWASP'
p182
S'OWASP/O-Saft'
p183
tp184
a(S'MDWamp'
p185
S'mogui'
p186
S'mogui/MDWamp'
p187
tp188
a(S'specs'
p189
S'perl6'
p190
S'perl6/specs'
p191
tp192
a(S'xkcd-Bucket'
p193
S'zigdon'
p194
S'zigdon/xkcd-Bucket'
p195
tp196
a(S'webc'
p197
S'Webconverger'
p198
S'Webconverger/webc'
p199
tp200
a(S'Expose'
p201
S'Jack000'
p202
S'Jack000/Expose'
p203
tp204
a(S'cloc'
p205
S'AlDanial'
p206
S'AlDanial/cloc'
p207
tp208
a(S'nipe'
p209
S'HeitorG'
p210
S'HeitorG/nipe'
p211
tp212
a(S'lua-nginx-module'
p213
S'openresty'
p214
S'openresty/lua-nginx-module'
p215
tp216
a(S'djdt-flamegraph'
p217
S'23andMe'
p218
S'23andMe/djdt-flamegraph'
p219
tp220
a(S'zeroclickinfo-goodies'
p221
S'duckduckgo'
p222
S'duckduckgo/zeroclickinfo-goodies'
p223
tp224
a(S'naxsi'
p225
S'nbs-system'
p226
S'nbs-system/naxsi'
p227
tp228
a(S'pgbadger'
p229
S'dalibo'
p230
S'dalibo/pgbadger'
p231
tp232
a(S'nikto'
p233
S'sullo'
p234
S'sullo/nikto'
p235
tp236
a(S'fluffy-barnacle'
p237
S'conorpp'
p238
S'conorpp/fluffy-barnacle'
p239
tp240
a(S'git-it-electron'
p241
S'jlord'
p242
S'jlord/git-it-electron'
p243
tp244
a(S'nagios-plugins'
p245
S'harisekhon'
p246
S'harisekhon/nagios-plugins'
p247
tp248
a(S'sqitch'
p249
S'theory'
p250
S'theory/sqitch'
p251
tp252
a(S'dotfiles'
p253
S'jfrazelle'
p254
S'jfrazelle/dotfiles'
p255
tp256
a(S'mojo'
p257
S'kraih'
p258
S'kraih/mojo'
p259
tp260
a(S'imapsync'
p261
S'imapsync'
p262
S'imapsync/imapsync'
p263
tp264
a(S'myrepos'
p265
S'joeyh'
p266
S'joeyh/myrepos'
p267
tp268
a(S'pgFormatter'
p269
S'darold'
p270
S'darold/pgFormatter'
p271
tp272
a(S'otrs'
p273
S'OTRS'
p274
S'OTRS/otrs'
p275
tp276
a(S'dotfiles'
p277
S'electro7'
p278
S'electro7/dotfiles'
p279
tp280
a(S'webmin'
p281
S'webmin'
p282
S'webmin/webmin'
p283
tp284
a(S'SJTUThesis'
p285
S'weijianwen'
p286
S'weijianwen/SJTUThesis'
p287
tp288
a(S'lua-resty-http'
p289
S'pintsized'
p290
S'pintsized/lua-resty-http'
p291
tp292
a(S'theos'
p293
S'kirb'
p294
S'kirb/theos'
p295
tp296
a(S'Dancer2'
p297
S'PerlDancer'
p298
S'PerlDancer/Dancer2'
p299
tp300
a.