(lp0
(S'rakudo'
p1
S'rakudo'
p2
S'rakudo/rakudo'
p3
tp4
a(S'zguide-cn'
p5
S'anjuke'
p6
S'anjuke/zguide-cn'
p7
tp8
a(S'perl6-examples'
p9
S'perl6'
p10
S'perl6/perl6-examples'
p11
tp12
a(S'007'
p13
S'masak'
p14
S'masak/007'
p15
tp16
a(S'panda'
p17
S'tadzik'
p18
S'tadzik/panda'
p19
tp20
a(S'roast'
p21
S'perl6'
p22
S'perl6/roast'
p23
tp24
a(S'doc'
p25
S'perl6'
p26
S'perl6/doc'
p27
tp28
a(S'std'
p29
S'perl6'
p30
S'perl6/std'
p31
tp32
a(S'november'
p33
S'viklund'
p34
S'viklund/november'
p35
tp36
a(S'maybe-hugs'
p37
S'zkat'
p38
S'zkat/maybe-hugs'
p39
tp40
a(S'zavolaj'
p41
S'jnthn'
p42
S'jnthn/zavolaj'
p43
tp44
a(S'SQL-Maker'
p45
S'tokuhirom'
p46
S'tokuhirom/SQL-Maker'
p47
tp48
a(S'vbscan'
p49
S'rezasp'
p50
S'rezasp/vbscan'
p51
tp52
a(S'yapsi'
p53
S'masak'
p54
S'masak/yapsi'
p55
tp56
a(S'Bailador'
p57
S'tadzik'
p58
S'tadzik/Bailador'
p59
tp60
a(S'bioperl6'
p61
S'cjfields'
p62
S'cjfields/bioperl6'
p63
tp64
a(S'rakudo-and-nqp-internals-course'
p65
S'edumentab'
p66
S'edumentab/rakudo-and-nqp-internals-course'
p67
tp68
a(S'Perl6-One-Liners'
p69
S'dnmfarrell'
p70
S'dnmfarrell/Perl6-One-Liners'
p71
tp72
a(S'json'
p73
S'moritz'
p74
S'moritz/json'
p75
tp76
a(S'ufo'
p77
S'masak'
p78
S'masak/ufo'
p79
tp80
a(S'Inline-Perl5'
p81
S'niner'
p82
S'niner/Inline-Perl5'
p83
tp84
a(S'p6-Crust'
p85
S'tokuhirom'
p86
S'tokuhirom/p6-Crust'
p87
tp88
a(S'MiniDBI'
p89
S'mberends'
p90
S'mberends/MiniDBI'
p91
tp92
a(S'jkernelmachines'
p93
S'davidpicard'
p94
S'davidpicard/jkernelmachines'
p95
tp96
a(S'perl6-lwp-simple'
p97
S'cosimo'
p98
S'cosimo/perl6-lwp-simple'
p99
tp100
a(S'maybe-hugs'
p101
S'zkat'
p102
S'zkat/maybe-hugs'
p103
tp104
a(S'p6-Crust'
p105
S'tokuhirom'
p106
S'tokuhirom/p6-Crust'
p107
tp108
a(S'rakudo'
p109
S'rakudo'
p110
S'rakudo/rakudo'
p111
tp112
a(S'zguide-cn'
p113
S'anjuke'
p114
S'anjuke/zguide-cn'
p115
tp116
a(S'perl6-examples'
p117
S'perl6'
p118
S'perl6/perl6-examples'
p119
tp120
a(S'007'
p121
S'masak'
p122
S'masak/007'
p123
tp124
a(S'panda'
p125
S'tadzik'
p126
S'tadzik/panda'
p127
tp128
a(S'roast'
p129
S'perl6'
p130
S'perl6/roast'
p131
tp132
a(S'doc'
p133
S'perl6'
p134
S'perl6/doc'
p135
tp136
a(S'std'
p137
S'perl6'
p138
S'perl6/std'
p139
tp140
a(S'november'
p141
S'viklund'
p142
S'viklund/november'
p143
tp144
a(S'zavolaj'
p145
S'jnthn'
p146
S'jnthn/zavolaj'
p147
tp148
a(S'SQL-Maker'
p149
S'tokuhirom'
p150
S'tokuhirom/SQL-Maker'
p151
tp152
a(S'vbscan'
p153
S'rezasp'
p154
S'rezasp/vbscan'
p155
tp156
a(S'yapsi'
p157
S'masak'
p158
S'masak/yapsi'
p159
tp160
a(S'Bailador'
p161
S'tadzik'
p162
S'tadzik/Bailador'
p163
tp164
a(S'bioperl6'
p165
S'cjfields'
p166
S'cjfields/bioperl6'
p167
tp168
a(S'rakudo-and-nqp-internals-course'
p169
S'edumentab'
p170
S'edumentab/rakudo-and-nqp-internals-course'
p171
tp172
a(S'Perl6-One-Liners'
p173
S'dnmfarrell'
p174
S'dnmfarrell/Perl6-One-Liners'
p175
tp176
a(S'json'
p177
S'moritz'
p178
S'moritz/json'
p179
tp180
a(S'Inline-Perl5'
p181
S'niner'
p182
S'niner/Inline-Perl5'
p183
tp184
a(S'ufo'
p185
S'masak'
p186
S'masak/ufo'
p187
tp188
a(S'MiniDBI'
p189
S'mberends'
p190
S'mberends/MiniDBI'
p191
tp192
a(S'jkernelmachines'
p193
S'davidpicard'
p194
S'davidpicard/jkernelmachines'
p195
tp196
a(S'perl6-lwp-simple'
p197
S'cosimo'
p198
S'cosimo/perl6-lwp-simple'
p199
tp200
a(S'007'
p201
S'masak'
p202
S'masak/007'
p203
tp204
a(S'rakudo'
p205
S'rakudo'
p206
S'rakudo/rakudo'
p207
tp208
a(S'p6-Crust'
p209
S'tokuhirom'
p210
S'tokuhirom/p6-Crust'
p211
tp212
a(S'maybe-hugs'
p213
S'zkat'
p214
S'zkat/maybe-hugs'
p215
tp216
a(S'perl6-examples'
p217
S'perl6'
p218
S'perl6/perl6-examples'
p219
tp220
a(S'panda'
p221
S'tadzik'
p222
S'tadzik/panda'
p223
tp224
a(S'doc'
p225
S'perl6'
p226
S'perl6/doc'
p227
tp228
a(S'roast'
p229
S'perl6'
p230
S'perl6/roast'
p231
tp232
a(S'zguide-cn'
p233
S'anjuke'
p234
S'anjuke/zguide-cn'
p235
tp236
a(S'std'
p237
S'perl6'
p238
S'perl6/std'
p239
tp240
a(S'november'
p241
S'viklund'
p242
S'viklund/november'
p243
tp244
a(S'zavolaj'
p245
S'jnthn'
p246
S'jnthn/zavolaj'
p247
tp248
a(S'vbscan'
p249
S'rezasp'
p250
S'rezasp/vbscan'
p251
tp252
a(S'SQL-Maker'
p253
S'tokuhirom'
p254
S'tokuhirom/SQL-Maker'
p255
tp256
a(S'yapsi'
p257
S'masak'
p258
S'masak/yapsi'
p259
tp260
a(S'Bailador'
p261
S'tadzik'
p262
S'tadzik/Bailador'
p263
tp264
a(S'bioperl6'
p265
S'cjfields'
p266
S'cjfields/bioperl6'
p267
tp268
a(S'rakudo-and-nqp-internals-course'
p269
S'edumentab'
p270
S'edumentab/rakudo-and-nqp-internals-course'
p271
tp272
a(S'Perl6-One-Liners'
p273
S'dnmfarrell'
p274
S'dnmfarrell/Perl6-One-Liners'
p275
tp276
a(S'json'
p277
S'moritz'
p278
S'moritz/json'
p279
tp280
a(S'ufo'
p281
S'masak'
p282
S'masak/ufo'
p283
tp284
a(S'Inline-Perl5'
p285
S'niner'
p286
S'niner/Inline-Perl5'
p287
tp288
a(S'MiniDBI'
p289
S'mberends'
p290
S'mberends/MiniDBI'
p291
tp292
a(S'jkernelmachines'
p293
S'davidpicard'
p294
S'davidpicard/jkernelmachines'
p295
tp296
a(S'perl6-lwp-simple'
p297
S'cosimo'
p298
S'cosimo/perl6-lwp-simple'
p299
tp300
a.