(lp0
(S'server'
p1
S'ipfspics'
p2
S'ipfspics/server'
p3
tp4
a(S'xvwa'
p5
S's4n7h0'
p6
S's4n7h0/xvwa'
p7
tp8
a(S'laravel'
p9
S'laravel'
p10
S'laravel/laravel'
p11
tp12
a(S'DiDOM'
p13
S'Imangazaliev'
p14
S'Imangazaliev/DiDOM'
p15
tp16
a(S'php-humanizer'
p17
S'coduo'
p18
S'coduo/php-humanizer'
p19
tp20
a(S'PHPMailer'
p21
S'PHPMailer'
p22
S'PHPMailer/PHPMailer'
p23
tp24
a(S'blink'
p25
S'bixuehujin'
p26
S'bixuehujin/blink'
p27
tp28
a(S'piwik'
p29
S'piwik'
p30
S'piwik/piwik'
p31
tp32
a(S'polyfill'
p33
S'symfony'
p34
S'symfony/polyfill'
p35
tp36
a(S'october'
p37
S'octobercms'
p38
S'octobercms/october'
p39
tp40
a(S'google-api-php-client'
p41
S'google'
p42
S'google/google-api-php-client'
p43
tp44
a(S'aerys'
p45
S'amphp'
p46
S'amphp/aerys'
p47
tp48
a(S'DesignPatternsPHP'
p49
S'domnikl'
p50
S'domnikl/DesignPatternsPHP'
p51
tp52
a(S'tesseract-ocr-for-php'
p53
S'thiagoalessio'
p54
S'thiagoalessio/tesseract-ocr-for-php'
p55
tp56
a(S'php7dev'
p57
S'rlerdorf'
p58
S'rlerdorf/php7dev'
p59
tp60
a(S'PHPExcel'
p61
S'PHPOffice'
p62
S'PHPOffice/PHPExcel'
p63
tp64
a(S'laravel-5-boilerplate'
p65
S'rappasoft'
p66
S'rappasoft/laravel-5-boilerplate'
p67
tp68
a(S'Pico'
p69
S'picocms'
p70
S'picocms/Pico'
p71
tp72
a(S'laravel-debugbar'
p73
S'barryvdh'
p74
S'barryvdh/laravel-debugbar'
p75
tp76
a(S'Slim'
p77
S'slimphp'
p78
S'slimphp/Slim'
p79
tp80
a(S'PHPWord'
p81
S'PHPOffice'
p82
S'PHPOffice/PHPWord'
p83
tp84
a(S'jwt-auth'
p85
S'tymondesigns'
p86
S'tymondesigns/jwt-auth'
p87
tp88
a(S'YetiForceCRM'
p89
S'YetiForceCompany'
p90
S'YetiForceCompany/YetiForceCRM'
p91
tp92
a(S'zguide'
p93
S'imatix'
p94
S'imatix/zguide'
p95
tp96
a(S'anspress'
p97
S'anspress'
p98
S'anspress/anspress'
p99
tp100
a(S'xvwa'
p101
S's4n7h0'
p102
S's4n7h0/xvwa'
p103
tp104
a(S'server'
p105
S'ipfspics'
p106
S'ipfspics/server'
p107
tp108
a(S'aerys'
p109
S'amphp'
p110
S'amphp/aerys'
p111
tp112
a(S'composer-changelogs'
p113
S'pyrech'
p114
S'pyrech/composer-changelogs'
p115
tp116
a(S'blink'
p117
S'bixuehujin'
p118
S'bixuehujin/blink'
p119
tp120
a(S'laravel'
p121
S'laravel'
p122
S'laravel/laravel'
p123
tp124
a(S'DesignPatternsPHP'
p125
S'domnikl'
p126
S'domnikl/DesignPatternsPHP'
p127
tp128
a(S'deprecation-detector'
p129
S'sensiolabs-de'
p130
S'sensiolabs-de/deprecation-detector'
p131
tp132
a(S'essence'
p133
S'essence'
p134
S'essence/essence'
p135
tp136
a(S'8-cms'
p137
S'volter9'
p138
S'volter9/8-cms'
p139
tp140
a(S'PHPMailer'
p141
S'PHPMailer'
p142
S'PHPMailer/PHPMailer'
p143
tp144
a(S'CodeIgniter'
p145
S'bcit-ci'
p146
S'bcit-ci/CodeIgniter'
p147
tp148
a(S'symfony'
p149
S'symfony'
p150
S'symfony/symfony'
p151
tp152
a(S'agent'
p153
S'jenssegers'
p154
S'jenssegers/agent'
p155
tp156
a(S'yii2'
p157
S'yiisoft'
p158
S'yiisoft/yii2'
p159
tp160
a(S'october'
p161
S'octobercms'
p162
S'octobercms/october'
p163
tp164
a(S'PHPExcel'
p165
S'PHPOffice'
p166
S'PHPOffice/PHPExcel'
p167
tp168
a(S'api'
p169
S'dingo'
p170
S'dingo/api'
p171
tp172
a(S'fatalsafe'
p173
S'hasinhayder'
p174
S'hasinhayder/fatalsafe'
p175
tp176
a(S'Chat-API'
p177
S'WHAnonymous'
p178
S'WHAnonymous/Chat-API'
p179
tp180
a(S'piwik'
p181
S'piwik'
p182
S'piwik/piwik'
p183
tp184
a(S'Torch'
p185
S'mattstauffer'
p186
S'mattstauffer/Torch'
p187
tp188
a(S'config'
p189
S'hassankhan'
p190
S'hassankhan/config'
p191
tp192
a(S'composer'
p193
S'composer'
p194
S'composer/composer'
p195
tp196
a(S'framework'
p197
S'laravel'
p198
S'laravel/framework'
p199
tp200
a(S'laravel'
p201
S'laravel'
p202
S'laravel/laravel'
p203
tp204
a(S'xvwa'
p205
S's4n7h0'
p206
S's4n7h0/xvwa'
p207
tp208
a(S'server'
p209
S'ipfspics'
p210
S'ipfspics/server'
p211
tp212
a(S'DesignPatternsPHP'
p213
S'domnikl'
p214
S'domnikl/DesignPatternsPHP'
p215
tp216
a(S'CodeIgniter'
p217
S'bcit-ci'
p218
S'bcit-ci/CodeIgniter'
p219
tp220
a(S'Faker'
p221
S'fzaninotto'
p222
S'fzaninotto/Faker'
p223
tp224
a(S'yii2'
p225
S'yiisoft'
p226
S'yiisoft/yii2'
p227
tp228
a(S'symfony'
p229
S'symfony'
p230
S'symfony/symfony'
p231
tp232
a(S'october'
p233
S'octobercms'
p234
S'octobercms/october'
p235
tp236
a(S'PHPMailer'
p237
S'PHPMailer'
p238
S'PHPMailer/PHPMailer'
p239
tp240
a(S'Arrayzy'
p241
S'bocharsky-bw'
p242
S'bocharsky-bw/Arrayzy'
p243
tp244
a(S'PHPExcel'
p245
S'PHPOffice'
p246
S'PHPOffice/PHPExcel'
p247
tp248
a(S'blink'
p249
S'bixuehujin'
p250
S'bixuehujin/blink'
p251
tp252
a(S'aerys'
p253
S'amphp'
p254
S'amphp/aerys'
p255
tp256
a(S'Cachet'
p257
S'cachethq'
p258
S'cachethq/Cachet'
p259
tp260
a(S'WordPress'
p261
S'WordPress'
p262
S'WordPress/WordPress'
p263
tp264
a(S'framework'
p265
S'laravel'
p266
S'laravel/framework'
p267
tp268
a(S'api'
p269
S'dingo'
p270
S'dingo/api'
p271
tp272
a(S'composer-changelogs'
p273
S'pyrech'
p274
S'pyrech/composer-changelogs'
p275
tp276
a(S'composer'
p277
S'composer'
p278
S'composer/composer'
p279
tp280
a(S'kanboard'
p281
S'fguillot'
p282
S'fguillot/kanboard'
p283
tp284
a(S'spark'
p285
S'laravel'
p286
S'laravel/spark'
p287
tp288
a(S'sage'
p289
S'roots'
p290
S'roots/sage'
p291
tp292
a(S'piwik'
p293
S'piwik'
p294
S'piwik/piwik'
p295
tp296
a(S'Chat-API'
p297
S'WHAnonymous'
p298
S'WHAnonymous/Chat-API'
p299
tp300
a.