(lp0
(S'microalg'
p1
S'Microalg'
p2
S'Microalg/microalg'
p3
tp4
a(S'picolisp-https'
p5
S'aw'
p6
S'aw/picolisp-https'
p7
tp8
a(S'picolisp-nanomsg'
p9
S'aw'
p10
S'aw/picolisp-nanomsg'
p11
tp12
a(S'jsk_demos'
p13
S'jsk-ros-pkg'
p14
S'jsk-ros-pkg/jsk_demos'
p15
tp16
a(S'picolisp-unit'
p17
S'aw'
p18
S'aw/picolisp-unit'
p19
tp20
a(S'pits'
p21
S'motersen'
p22
S'motersen/pits'
p23
tp24
a(S'insanity'
p25
S'erdg'
p26
S'erdg/insanity'
p27
tp28
a(S'picolisp-bcrypt'
p29
S'aw'
p30
S'aw/picolisp-bcrypt'
p31
tp32
a(S'jsk_demos'
p33
S'mizmizo'
p34
S'mizmizo/jsk_demos'
p35
tp36
a(S'jsk_demos'
p37
S'h-kamada'
p38
S'h-kamada/jsk_demos'
p39
tp40
a(S'jsk_demos'
p41
S'furushchev'
p42
S'furushchev/jsk_demos'
p43
tp44
a(S'jsk_demos'
p45
S'rkoyama1623'
p46
S'rkoyama1623/jsk_demos'
p47
tp48
a(S'picolisp'
p49
S'fuxoft'
p50
S'fuxoft/picolisp'
p51
tp52
a(S'picolisp.addons'
p53
S'rsdoiel'
p54
S'rsdoiel/picolisp.addons'
p55
tp56
a(S'picolisp'
p57
S'rsdoiel'
p58
S'rsdoiel/picolisp'
p59
tp60
a(S'picolisp-lily'
p61
S'erdg'
p62
S'erdg/picolisp-lily'
p63
tp64
a(S'jidoteki-admin-api'
p65
S'unscramble'
p66
S'unscramble/jidoteki-admin-api'
p67
tp68
a(S'jidoteki-admin-api'
p69
S'ryneo'
p70
S'ryneo/jidoteki-admin-api'
p71
tp72
a(S'microalg'
p73
S'Microalg'
p74
S'Microalg/microalg'
p75
tp76
a(S'picolisp-https'
p77
S'aw'
p78
S'aw/picolisp-https'
p79
tp80
a(S'picolisp-nanomsg'
p81
S'aw'
p82
S'aw/picolisp-nanomsg'
p83
tp84
a(S'jsk_demos'
p85
S'jsk-ros-pkg'
p86
S'jsk-ros-pkg/jsk_demos'
p87
tp88
a(S'picolisp-unit'
p89
S'aw'
p90
S'aw/picolisp-unit'
p91
tp92
a(S'pits'
p93
S'motersen'
p94
S'motersen/pits'
p95
tp96
a(S'insanity'
p97
S'erdg'
p98
S'erdg/insanity'
p99
tp100
a(S'picolisp-bcrypt'
p101
S'aw'
p102
S'aw/picolisp-bcrypt'
p103
tp104
a(S'jsk_demos'
p105
S'mizmizo'
p106
S'mizmizo/jsk_demos'
p107
tp108
a(S'jsk_demos'
p109
S'h-kamada'
p110
S'h-kamada/jsk_demos'
p111
tp112
a(S'jsk_demos'
p113
S'furushchev'
p114
S'furushchev/jsk_demos'
p115
tp116
a(S'jsk_demos'
p117
S'rkoyama1623'
p118
S'rkoyama1623/jsk_demos'
p119
tp120
a(S'picolisp'
p121
S'fuxoft'
p122
S'fuxoft/picolisp'
p123
tp124
a(S'picolisp.addons'
p125
S'rsdoiel'
p126
S'rsdoiel/picolisp.addons'
p127
tp128
a(S'picolisp'
p129
S'rsdoiel'
p130
S'rsdoiel/picolisp'
p131
tp132
a(S'picolisp-lily'
p133
S'erdg'
p134
S'erdg/picolisp-lily'
p135
tp136
a(S'jidoteki-admin-api'
p137
S'unscramble'
p138
S'unscramble/jidoteki-admin-api'
p139
tp140
a(S'jidoteki-admin-api'
p141
S'ryneo'
p142
S'ryneo/jidoteki-admin-api'
p143
tp144
a(S'microalg'
p145
S'Microalg'
p146
S'Microalg/microalg'
p147
tp148
a(S'picolisp-https'
p149
S'aw'
p150
S'aw/picolisp-https'
p151
tp152
a(S'picolisp-nanomsg'
p153
S'aw'
p154
S'aw/picolisp-nanomsg'
p155
tp156
a(S'jsk_demos'
p157
S'jsk-ros-pkg'
p158
S'jsk-ros-pkg/jsk_demos'
p159
tp160
a(S'picolisp-unit'
p161
S'aw'
p162
S'aw/picolisp-unit'
p163
tp164
a(S'pits'
p165
S'motersen'
p166
S'motersen/pits'
p167
tp168
a(S'insanity'
p169
S'erdg'
p170
S'erdg/insanity'
p171
tp172
a(S'picolisp-bcrypt'
p173
S'aw'
p174
S'aw/picolisp-bcrypt'
p175
tp176
a(S'jsk_demos'
p177
S'mizmizo'
p178
S'mizmizo/jsk_demos'
p179
tp180
a(S'jsk_demos'
p181
S'h-kamada'
p182
S'h-kamada/jsk_demos'
p183
tp184
a(S'jsk_demos'
p185
S'furushchev'
p186
S'furushchev/jsk_demos'
p187
tp188
a(S'jsk_demos'
p189
S'rkoyama1623'
p190
S'rkoyama1623/jsk_demos'
p191
tp192
a(S'picolisp'
p193
S'fuxoft'
p194
S'fuxoft/picolisp'
p195
tp196
a(S'picolisp.addons'
p197
S'rsdoiel'
p198
S'rsdoiel/picolisp.addons'
p199
tp200
a(S'picolisp'
p201
S'rsdoiel'
p202
S'rsdoiel/picolisp'
p203
tp204
a(S'picolisp-lily'
p205
S'erdg'
p206
S'erdg/picolisp-lily'
p207
tp208
a(S'jidoteki-admin-api'
p209
S'unscramble'
p210
S'unscramble/jidoteki-admin-api'
p211
tp212
a(S'jidoteki-admin-api'
p213
S'ryneo'
p214
S'ryneo/jidoteki-admin-api'
p215
tp216
a.