(lp0
(S'mortar-recsys'
p1
S'mortardata'
p2
S'mortardata/mortar-recsys'
p3
tp4
a(S'mortar-examples'
p5
S'mortardata'
p6
S'mortardata/mortar-examples'
p7
tp8
a(S'archive-analysis'
p9
S'vinaygoel'
p10
S'vinaygoel/archive-analysis'
p11
tp12
a(S'ars-workshop'
p13
S'vinaygoel'
p14
S'vinaygoel/ars-workshop'
p15
tp16
a(S'pig-workshop'
p17
S'elephantscale'
p18
S'elephantscale/pig-workshop'
p19
tp20
a(S'data-mining'
p21
S'yaojingguo'
p22
S'yaojingguo/data-mining'
p23
tp24
a(S'bigdata'
p25
S'ryandata'
p26
S'ryandata/bigdata'
p27
tp28
a(S'HivePig'
p29
S'bharath-rajakumar'
p30
S'bharath-rajakumar/HivePig'
p31
tp32
a(S'DevPH_Rev4'
p33
S'HortonworksUniversity'
p34
S'HortonworksUniversity/DevPH_Rev4'
p35
tp36
a(S'GeohashDemo'
p37
S'brandonswilson'
p38
S'brandonswilson/GeohashDemo'
p39
tp40
a(S'Pig'
p41
S'hroy'
p42
S'hroy/Pig'
p43
tp44
a(S'Image-Matching-And-Localization'
p45
S'Sapphirine'
p46
S'Sapphirine/Image-Matching-And-Localization'
p47
tp48
a(S'mortar-mongo-examples'
p49
S'mortardata'
p50
S'mortardata/mortar-mongo-examples'
p51
tp52
a(S'ATLAS-Hadoop'
p53
S'ATLAS-Analytics'
p54
S'ATLAS-Analytics/ATLAS-Hadoop'
p55
tp56
a(S'Pig_Example'
p57
S'dhosakeri'
p58
S'dhosakeri/Pig_Example'
p59
tp60
a(S'adatlabor-bigdata'
p61
S'zoltanctoth'
p62
S'zoltanctoth/adatlabor-bigdata'
p63
tp64
a(S'big_data_for_chimps-code'
p65
S'bd4c'
p66
S'bd4c/big_data_for_chimps-code'
p67
tp68
a(S'Queries_Pig'
p69
S'foxandy'
p70
S'foxandy/Queries_Pig'
p71
tp72
a(S'logging'
p73
S'obulpathi'
p74
S'obulpathi/logging'
p75
tp76
a(S'mortar-recsys'
p77
S'abimannans'
p78
S'abimannans/mortar-recsys'
p79
tp80
a(S'hadoop_learning'
p81
S'rakeshv191987'
p82
S'rakeshv191987/hadoop_learning'
p83
tp84
a(S'spring-hadoop-xd-example'
p85
S'mimacom'
p86
S'mimacom/spring-hadoop-xd-example'
p87
tp88
a(S'big_data_for_chimps-code'
p89
S'mrflip'
p90
S'mrflip/big_data_for_chimps-code'
p91
tp92
a(S'yandex'
p93
S'mdodsworth'
p94
S'mdodsworth/yandex'
p95
tp96
a(S'LargeScaleCloudProcessing'
p97
S'partp'
p98
S'partp/LargeScaleCloudProcessing'
p99
tp100
a(S'mortar-recsys'
p101
S'mortardata'
p102
S'mortardata/mortar-recsys'
p103
tp104
a(S'mortar-examples'
p105
S'mortardata'
p106
S'mortardata/mortar-examples'
p107
tp108
a(S'archive-analysis'
p109
S'vinaygoel'
p110
S'vinaygoel/archive-analysis'
p111
tp112
a(S'ars-workshop'
p113
S'vinaygoel'
p114
S'vinaygoel/ars-workshop'
p115
tp116
a(S'pig-workshop'
p117
S'elephantscale'
p118
S'elephantscale/pig-workshop'
p119
tp120
a(S'data-mining'
p121
S'yaojingguo'
p122
S'yaojingguo/data-mining'
p123
tp124
a(S'bigdata'
p125
S'ryandata'
p126
S'ryandata/bigdata'
p127
tp128
a(S'HivePig'
p129
S'bharath-rajakumar'
p130
S'bharath-rajakumar/HivePig'
p131
tp132
a(S'DevPH_Rev4'
p133
S'HortonworksUniversity'
p134
S'HortonworksUniversity/DevPH_Rev4'
p135
tp136
a(S'GeohashDemo'
p137
S'brandonswilson'
p138
S'brandonswilson/GeohashDemo'
p139
tp140
a(S'Pig'
p141
S'hroy'
p142
S'hroy/Pig'
p143
tp144
a(S'Image-Matching-And-Localization'
p145
S'Sapphirine'
p146
S'Sapphirine/Image-Matching-And-Localization'
p147
tp148
a(S'mortar-mongo-examples'
p149
S'mortardata'
p150
S'mortardata/mortar-mongo-examples'
p151
tp152
a(S'ATLAS-Hadoop'
p153
S'ATLAS-Analytics'
p154
S'ATLAS-Analytics/ATLAS-Hadoop'
p155
tp156
a(S'Pig_Example'
p157
S'dhosakeri'
p158
S'dhosakeri/Pig_Example'
p159
tp160
a(S'adatlabor-bigdata'
p161
S'zoltanctoth'
p162
S'zoltanctoth/adatlabor-bigdata'
p163
tp164
a(S'big_data_for_chimps-code'
p165
S'bd4c'
p166
S'bd4c/big_data_for_chimps-code'
p167
tp168
a(S'Queries_Pig'
p169
S'foxandy'
p170
S'foxandy/Queries_Pig'
p171
tp172
a(S'logging'
p173
S'obulpathi'
p174
S'obulpathi/logging'
p175
tp176
a(S'mortar-recsys'
p177
S'abimannans'
p178
S'abimannans/mortar-recsys'
p179
tp180
a(S'hadoop_learning'
p181
S'rakeshv191987'
p182
S'rakeshv191987/hadoop_learning'
p183
tp184
a(S'spring-hadoop-xd-example'
p185
S'mimacom'
p186
S'mimacom/spring-hadoop-xd-example'
p187
tp188
a(S'big_data_for_chimps-code'
p189
S'mrflip'
p190
S'mrflip/big_data_for_chimps-code'
p191
tp192
a(S'yandex'
p193
S'mdodsworth'
p194
S'mdodsworth/yandex'
p195
tp196
a(S'LargeScaleCloudProcessing'
p197
S'partp'
p198
S'partp/LargeScaleCloudProcessing'
p199
tp200
a(S'mortar-recsys'
p201
S'mortardata'
p202
S'mortardata/mortar-recsys'
p203
tp204
a(S'mortar-examples'
p205
S'mortardata'
p206
S'mortardata/mortar-examples'
p207
tp208
a(S'archive-analysis'
p209
S'vinaygoel'
p210
S'vinaygoel/archive-analysis'
p211
tp212
a(S'ars-workshop'
p213
S'vinaygoel'
p214
S'vinaygoel/ars-workshop'
p215
tp216
a(S'pig-workshop'
p217
S'elephantscale'
p218
S'elephantscale/pig-workshop'
p219
tp220
a(S'data-mining'
p221
S'yaojingguo'
p222
S'yaojingguo/data-mining'
p223
tp224
a(S'bigdata'
p225
S'ryandata'
p226
S'ryandata/bigdata'
p227
tp228
a(S'HivePig'
p229
S'bharath-rajakumar'
p230
S'bharath-rajakumar/HivePig'
p231
tp232
a(S'DevPH_Rev4'
p233
S'HortonworksUniversity'
p234
S'HortonworksUniversity/DevPH_Rev4'
p235
tp236
a(S'GeohashDemo'
p237
S'brandonswilson'
p238
S'brandonswilson/GeohashDemo'
p239
tp240
a(S'Pig'
p241
S'hroy'
p242
S'hroy/Pig'
p243
tp244
a(S'Image-Matching-And-Localization'
p245
S'Sapphirine'
p246
S'Sapphirine/Image-Matching-And-Localization'
p247
tp248
a(S'mortar-mongo-examples'
p249
S'mortardata'
p250
S'mortardata/mortar-mongo-examples'
p251
tp252
a(S'ATLAS-Hadoop'
p253
S'ATLAS-Analytics'
p254
S'ATLAS-Analytics/ATLAS-Hadoop'
p255
tp256
a(S'Pig_Example'
p257
S'dhosakeri'
p258
S'dhosakeri/Pig_Example'
p259
tp260
a(S'adatlabor-bigdata'
p261
S'zoltanctoth'
p262
S'zoltanctoth/adatlabor-bigdata'
p263
tp264
a(S'big_data_for_chimps-code'
p265
S'bd4c'
p266
S'bd4c/big_data_for_chimps-code'
p267
tp268
a(S'Queries_Pig'
p269
S'foxandy'
p270
S'foxandy/Queries_Pig'
p271
tp272
a(S'logging'
p273
S'obulpathi'
p274
S'obulpathi/logging'
p275
tp276
a(S'mortar-recsys'
p277
S'abimannans'
p278
S'abimannans/mortar-recsys'
p279
tp280
a(S'hadoop_learning'
p281
S'rakeshv191987'
p282
S'rakeshv191987/hadoop_learning'
p283
tp284
a(S'spring-hadoop-xd-example'
p285
S'mimacom'
p286
S'mimacom/spring-hadoop-xd-example'
p287
tp288
a(S'big_data_for_chimps-code'
p289
S'mrflip'
p290
S'mrflip/big_data_for_chimps-code'
p291
tp292
a(S'yandex'
p293
S'mdodsworth'
p294
S'mdodsworth/yandex'
p295
tp296
a(S'LargeScaleCloudProcessing'
p297
S'partp'
p298
S'partp/LargeScaleCloudProcessing'
p299
tp300
a.