(lp0
(S'Pike-Modules'
p1
S'poppa'
p2
S'poppa/Pike-Modules'
p3
tp4
a(S'Gypsum'
p5
S'Rosuav'
p6
S'Rosuav/Gypsum'
p7
tp8
a(S'Roxen'
p9
S'pikelang'
p10
S'pikelang/Roxen'
p11
tp12
a(S'pike-for-sublime'
p13
S'poppa'
p14
S'poppa/pike-for-sublime'
p15
tp16
a(S'Roxen-Modules'
p17
S'poppa'
p18
S'poppa/Roxen-Modules'
p19
tp20
a(S'SyncDB'
p21
S'arneg'
p22
S'arneg/SyncDB'
p23
tp24
a(S'pike_modules-samplemodule'
p25
S'hww3'
p26
S'hww3/pike_modules-samplemodule'
p27
tp28
a(S'tunesd'
p29
S'hww3'
p30
S'hww3/tunesd'
p31
tp32
a(S'pike_modules-public_protocols_stomp'
p33
S'hww3'
p34
S'hww3/pike_modules-public_protocols_stomp'
p35
tp36
a(S'pike_modules-ejdb'
p37
S'hww3'
p38
S'hww3/pike_modules-ejdb'
p39
tp40
a(S'pike_modules-public_parser_xml2'
p41
S'hww3'
p42
S'hww3/pike_modules-public_parser_xml2'
p43
tp44
a(S'pike_modules-public_parser_json'
p45
S'hww3'
p46
S'hww3/pike_modules-public_parser_json'
p47
tp48
a(S'pike_modules-public_network_pcap'
p49
S'hww3'
p50
S'hww3/pike_modules-public_network_pcap'
p51
tp52
a(S'pike_modules-public_image_smugmug'
p53
S'hww3'
p54
S'hww3/pike_modules-public_image_smugmug'
p55
tp56
a(S'pike_modules-public_adt_statemachine'
p57
S'hww3'
p58
S'hww3/pike_modules-public_adt_statemachine'
p59
tp60
a(S'Pike-Deep-Zoom-Tools'
p61
S'hungerf3'
p62
S'hungerf3/Pike-Deep-Zoom-Tools'
p63
tp64
a(S'public_system_fsevents'
p65
S'hww3'
p66
S'hww3/public_system_fsevents'
p67
tp68
a(S'finscribe'
p69
S'hww3'
p70
S'hww3/finscribe'
p71
tp72
a(S'finsaddins'
p73
S'hww3'
p74
S'hww3/finsaddins'
p75
tp76
a(S'pike_redis_client'
p77
S'christiank'
p78
S'christiank/pike_redis_client'
p79
tp80
a(S'pike_modules-system_pam'
p81
S'hww3'
p82
S'hww3/pike_modules-system_pam'
p83
tp84
a(S'public_database_mongodb'
p85
S'hww3'
p86
S'hww3/public_database_mongodb'
p87
tp88
a(S'public_syndication'
p89
S'hww3'
p90
S'hww3/public_syndication'
p91
tp92
a(S'PikeVM'
p93
S'rritoch'
p94
S'rritoch/PikeVM'
p95
tp96
a(S'shed'
p97
S'Rosuav'
p98
S'Rosuav/shed'
p99
tp100
a(S'Pike-Modules'
p101
S'poppa'
p102
S'poppa/Pike-Modules'
p103
tp104
a(S'Gypsum'
p105
S'Rosuav'
p106
S'Rosuav/Gypsum'
p107
tp108
a(S'Roxen'
p109
S'pikelang'
p110
S'pikelang/Roxen'
p111
tp112
a(S'pike-for-sublime'
p113
S'poppa'
p114
S'poppa/pike-for-sublime'
p115
tp116
a(S'Roxen-Modules'
p117
S'poppa'
p118
S'poppa/Roxen-Modules'
p119
tp120
a(S'SyncDB'
p121
S'arneg'
p122
S'arneg/SyncDB'
p123
tp124
a(S'pike_modules-samplemodule'
p125
S'hww3'
p126
S'hww3/pike_modules-samplemodule'
p127
tp128
a(S'tunesd'
p129
S'hww3'
p130
S'hww3/tunesd'
p131
tp132
a(S'pike_modules-public_protocols_stomp'
p133
S'hww3'
p134
S'hww3/pike_modules-public_protocols_stomp'
p135
tp136
a(S'pike_modules-ejdb'
p137
S'hww3'
p138
S'hww3/pike_modules-ejdb'
p139
tp140
a(S'pike_modules-public_parser_xml2'
p141
S'hww3'
p142
S'hww3/pike_modules-public_parser_xml2'
p143
tp144
a(S'pike_modules-public_parser_json'
p145
S'hww3'
p146
S'hww3/pike_modules-public_parser_json'
p147
tp148
a(S'pike_modules-public_network_pcap'
p149
S'hww3'
p150
S'hww3/pike_modules-public_network_pcap'
p151
tp152
a(S'pike_modules-public_image_smugmug'
p153
S'hww3'
p154
S'hww3/pike_modules-public_image_smugmug'
p155
tp156
a(S'pike_modules-public_adt_statemachine'
p157
S'hww3'
p158
S'hww3/pike_modules-public_adt_statemachine'
p159
tp160
a(S'Pike-Deep-Zoom-Tools'
p161
S'hungerf3'
p162
S'hungerf3/Pike-Deep-Zoom-Tools'
p163
tp164
a(S'public_system_fsevents'
p165
S'hww3'
p166
S'hww3/public_system_fsevents'
p167
tp168
a(S'finscribe'
p169
S'hww3'
p170
S'hww3/finscribe'
p171
tp172
a(S'finsaddins'
p173
S'hww3'
p174
S'hww3/finsaddins'
p175
tp176
a(S'pike_redis_client'
p177
S'christiank'
p178
S'christiank/pike_redis_client'
p179
tp180
a(S'pike_modules-system_pam'
p181
S'hww3'
p182
S'hww3/pike_modules-system_pam'
p183
tp184
a(S'public_database_mongodb'
p185
S'hww3'
p186
S'hww3/public_database_mongodb'
p187
tp188
a(S'public_syndication'
p189
S'hww3'
p190
S'hww3/public_syndication'
p191
tp192
a(S'PikeVM'
p193
S'rritoch'
p194
S'rritoch/PikeVM'
p195
tp196
a(S'shed'
p197
S'Rosuav'
p198
S'Rosuav/shed'
p199
tp200
a(S'Pike-Modules'
p201
S'poppa'
p202
S'poppa/Pike-Modules'
p203
tp204
a(S'Gypsum'
p205
S'Rosuav'
p206
S'Rosuav/Gypsum'
p207
tp208
a(S'Roxen'
p209
S'pikelang'
p210
S'pikelang/Roxen'
p211
tp212
a(S'pike-for-sublime'
p213
S'poppa'
p214
S'poppa/pike-for-sublime'
p215
tp216
a(S'Roxen-Modules'
p217
S'poppa'
p218
S'poppa/Roxen-Modules'
p219
tp220
a(S'SyncDB'
p221
S'arneg'
p222
S'arneg/SyncDB'
p223
tp224
a(S'pike_modules-samplemodule'
p225
S'hww3'
p226
S'hww3/pike_modules-samplemodule'
p227
tp228
a(S'tunesd'
p229
S'hww3'
p230
S'hww3/tunesd'
p231
tp232
a(S'pike_modules-public_protocols_stomp'
p233
S'hww3'
p234
S'hww3/pike_modules-public_protocols_stomp'
p235
tp236
a(S'pike_modules-ejdb'
p237
S'hww3'
p238
S'hww3/pike_modules-ejdb'
p239
tp240
a(S'pike_modules-public_parser_xml2'
p241
S'hww3'
p242
S'hww3/pike_modules-public_parser_xml2'
p243
tp244
a(S'pike_modules-public_parser_json'
p245
S'hww3'
p246
S'hww3/pike_modules-public_parser_json'
p247
tp248
a(S'pike_modules-public_network_pcap'
p249
S'hww3'
p250
S'hww3/pike_modules-public_network_pcap'
p251
tp252
a(S'pike_modules-public_image_smugmug'
p253
S'hww3'
p254
S'hww3/pike_modules-public_image_smugmug'
p255
tp256
a(S'pike_modules-public_adt_statemachine'
p257
S'hww3'
p258
S'hww3/pike_modules-public_adt_statemachine'
p259
tp260
a(S'Pike-Deep-Zoom-Tools'
p261
S'hungerf3'
p262
S'hungerf3/Pike-Deep-Zoom-Tools'
p263
tp264
a(S'public_system_fsevents'
p265
S'hww3'
p266
S'hww3/public_system_fsevents'
p267
tp268
a(S'finscribe'
p269
S'hww3'
p270
S'hww3/finscribe'
p271
tp272
a(S'finsaddins'
p273
S'hww3'
p274
S'hww3/finsaddins'
p275
tp276
a(S'pike_redis_client'
p277
S'christiank'
p278
S'christiank/pike_redis_client'
p279
tp280
a(S'pike_modules-system_pam'
p281
S'hww3'
p282
S'hww3/pike_modules-system_pam'
p283
tp284
a(S'public_database_mongodb'
p285
S'hww3'
p286
S'hww3/public_database_mongodb'
p287
tp288
a(S'public_syndication'
p289
S'hww3'
p290
S'hww3/public_syndication'
p291
tp292
a(S'PikeVM'
p293
S'rritoch'
p294
S'rritoch/PikeVM'
p295
tp296
a(S'shed'
p297
S'Rosuav'
p298
S'Rosuav/shed'
p299
tp300
a.