(lp0
(S'node-sqlite3'
p1
S'mapbox'
p2
S'mapbox/node-sqlite3'
p3
tp4
a(S'GraphpostgresQL'
p5
S'solidsnack'
p6
S'solidsnack/GraphpostgresQL'
p7
tp8
a(S'Nominatim'
p9
S'twain47'
p10
S'twain47/Nominatim'
p11
tp12
a(S'idaref'
p13
S'nologic'
p14
S'nologic/idaref'
p15
tp16
a(S'mysql-sys'
p17
S'MarkLeith'
p18
S'MarkLeith/mysql-sys'
p19
tp20
a(S'pg_partman'
p21
S'keithf4'
p22
S'keithf4/pg_partman'
p23
tp24
a(S'pgtap'
p25
S'theory'
p26
S'theory/pgtap'
p27
tp28
a(S'vector-datasource'
p29
S'mapzen'
p30
S'mapzen/vector-datasource'
p31
tp32
a(S'groupdate.sql'
p33
S'ankane'
p34
S'ankane/groupdate.sql'
p35
tp36
a(S'counterparty-lib'
p37
S'CounterpartyXCP'
p38
S'CounterpartyXCP/counterparty-lib'
p39
tp40
a(S'altsql-shell'
p41
S'ewaters'
p42
S'ewaters/altsql-shell'
p43
tp44
a(S'cgasm'
p45
S'bnagy'
p46
S'bnagy/cgasm'
p47
tp48
a(S'audit-trigger'
p49
S'2ndQuadrant'
p50
S'2ndQuadrant/audit-trigger'
p51
tp52
a(S'chicago-atlas'
p53
S'smartchicago'
p54
S'smartchicago/chicago-atlas'
p55
tp56
a(S'xtuple'
p57
S'xtuple'
p58
S'xtuple/xtuple'
p59
tp60
a(S'pointcloud'
p61
S'pgpointcloud'
p62
S'pgpointcloud/pointcloud'
p63
tp64
a(S'mushroom'
p65
S'wuweiit'
p66
S'wuweiit/mushroom'
p67
tp68
a(S'pg_jobmon'
p69
S'omniti-labs'
p70
S'omniti-labs/pg_jobmon'
p71
tp72
a(S'fhirbase'
p73
S'fhirbase'
p74
S'fhirbase/fhirbase'
p75
tp76
a(S'par_psql'
p77
S'gbb'
p78
S'gbb/par_psql'
p79
tp80
a(S'mimeo'
p81
S'omniti-labs'
p82
S'omniti-labs/mimeo'
p83
tp84
a(S'Evergreen'
p85
S'evergreen-library-system'
p86
S'evergreen-library-system/Evergreen'
p87
tp88
a(S'postgis-vt-util'
p89
S'mapbox'
p90
S'mapbox/postgis-vt-util'
p91
tp92
a(S'htpc-ansible'
p93
S'GR360RY'
p94
S'GR360RY/htpc-ansible'
p95
tp96
a(S'pg-auth'
p97
S'robconery'
p98
S'robconery/pg-auth'
p99
tp100
a(S'mysql-sys'
p101
S'MarkLeith'
p102
S'MarkLeith/mysql-sys'
p103
tp104
a(S'node-sqlite3'
p105
S'mapbox'
p106
S'mapbox/node-sqlite3'
p107
tp108
a(S'GraphpostgresQL'
p109
S'solidsnack'
p110
S'solidsnack/GraphpostgresQL'
p111
tp112
a(S'Nominatim'
p113
S'twain47'
p114
S'twain47/Nominatim'
p115
tp116
a(S'idaref'
p117
S'nologic'
p118
S'nologic/idaref'
p119
tp120
a(S'pg_partman'
p121
S'keithf4'
p122
S'keithf4/pg_partman'
p123
tp124
a(S'pgtap'
p125
S'theory'
p126
S'theory/pgtap'
p127
tp128
a(S'vector-datasource'
p129
S'mapzen'
p130
S'mapzen/vector-datasource'
p131
tp132
a(S'groupdate.sql'
p133
S'ankane'
p134
S'ankane/groupdate.sql'
p135
tp136
a(S'counterparty-lib'
p137
S'CounterpartyXCP'
p138
S'CounterpartyXCP/counterparty-lib'
p139
tp140
a(S'altsql-shell'
p141
S'ewaters'
p142
S'ewaters/altsql-shell'
p143
tp144
a(S'cgasm'
p145
S'bnagy'
p146
S'bnagy/cgasm'
p147
tp148
a(S'audit-trigger'
p149
S'2ndQuadrant'
p150
S'2ndQuadrant/audit-trigger'
p151
tp152
a(S'chicago-atlas'
p153
S'smartchicago'
p154
S'smartchicago/chicago-atlas'
p155
tp156
a(S'xtuple'
p157
S'xtuple'
p158
S'xtuple/xtuple'
p159
tp160
a(S'pointcloud'
p161
S'pgpointcloud'
p162
S'pgpointcloud/pointcloud'
p163
tp164
a(S'mushroom'
p165
S'wuweiit'
p166
S'wuweiit/mushroom'
p167
tp168
a(S'pg_jobmon'
p169
S'omniti-labs'
p170
S'omniti-labs/pg_jobmon'
p171
tp172
a(S'fhirbase'
p173
S'fhirbase'
p174
S'fhirbase/fhirbase'
p175
tp176
a(S'par_psql'
p177
S'gbb'
p178
S'gbb/par_psql'
p179
tp180
a(S'mimeo'
p181
S'omniti-labs'
p182
S'omniti-labs/mimeo'
p183
tp184
a(S'Evergreen'
p185
S'evergreen-library-system'
p186
S'evergreen-library-system/Evergreen'
p187
tp188
a(S'htpc-ansible'
p189
S'GR360RY'
p190
S'GR360RY/htpc-ansible'
p191
tp192
a(S'postgis-vt-util'
p193
S'mapbox'
p194
S'mapbox/postgis-vt-util'
p195
tp196
a(S'pg-auth'
p197
S'robconery'
p198
S'robconery/pg-auth'
p199
tp200
a(S'pg_partman'
p201
S'keithf4'
p202
S'keithf4/pg_partman'
p203
tp204
a(S'mysql-sys'
p205
S'MarkLeith'
p206
S'MarkLeith/mysql-sys'
p207
tp208
a(S'vector-datasource'
p209
S'mapzen'
p210
S'mapzen/vector-datasource'
p211
tp212
a(S'chicago-atlas'
p213
S'smartchicago'
p214
S'smartchicago/chicago-atlas'
p215
tp216
a(S'mapasculturais'
p217
S'hacklabr'
p218
S'hacklabr/mapasculturais'
p219
tp220
a(S'node-sqlite3'
p221
S'mapbox'
p222
S'mapbox/node-sqlite3'
p223
tp224
a(S'GraphpostgresQL'
p225
S'solidsnack'
p226
S'solidsnack/GraphpostgresQL'
p227
tp228
a(S'Nominatim'
p229
S'twain47'
p230
S'twain47/Nominatim'
p231
tp232
a(S'idaref'
p233
S'nologic'
p234
S'nologic/idaref'
p235
tp236
a(S'pgtap'
p237
S'theory'
p238
S'theory/pgtap'
p239
tp240
a(S'groupdate.sql'
p241
S'ankane'
p242
S'ankane/groupdate.sql'
p243
tp244
a(S'counterparty-lib'
p245
S'CounterpartyXCP'
p246
S'CounterpartyXCP/counterparty-lib'
p247
tp248
a(S'altsql-shell'
p249
S'ewaters'
p250
S'ewaters/altsql-shell'
p251
tp252
a(S'cgasm'
p253
S'bnagy'
p254
S'bnagy/cgasm'
p255
tp256
a(S'audit-trigger'
p257
S'2ndQuadrant'
p258
S'2ndQuadrant/audit-trigger'
p259
tp260
a(S'xtuple'
p261
S'xtuple'
p262
S'xtuple/xtuple'
p263
tp264
a(S'pointcloud'
p265
S'pgpointcloud'
p266
S'pgpointcloud/pointcloud'
p267
tp268
a(S'mushroom'
p269
S'wuweiit'
p270
S'wuweiit/mushroom'
p271
tp272
a(S'pg_jobmon'
p273
S'omniti-labs'
p274
S'omniti-labs/pg_jobmon'
p275
tp276
a(S'fhirbase'
p277
S'fhirbase'
p278
S'fhirbase/fhirbase'
p279
tp280
a(S'par_psql'
p281
S'gbb'
p282
S'gbb/par_psql'
p283
tp284
a(S'mimeo'
p285
S'omniti-labs'
p286
S'omniti-labs/mimeo'
p287
tp288
a(S'Evergreen'
p289
S'evergreen-library-system'
p290
S'evergreen-library-system/Evergreen'
p291
tp292
a(S'postgis-vt-util'
p293
S'mapbox'
p294
S'mapbox/postgis-vt-util'
p295
tp296
a(S'htpc-ansible'
p297
S'GR360RY'
p298
S'GR360RY/htpc-ansible'
p299
tp300
a.