(lp0
(S'manong'
p1
S'nemoTyrant'
p2
S'nemoTyrant/manong'
p3
tp4
a(S'PretendYoureXyzzy'
p5
S'ajanata'
p6
S'ajanata/PretendYoureXyzzy'
p7
tp8
a(S'alexandria-plsql-utils'
p9
S'mortenbra'
p10
S'mortenbra/alexandria-plsql-utils'
p11
tp12
a(S'php-site'
p13
S'phalcon'
p14
S'phalcon/php-site'
p15
tp16
a(S'pljson'
p17
S'pljson'
p18
S'pljson/pljson'
p19
tp20
a(S'aquameta'
p21
S'aquametalabs'
p22
S'aquametalabs/aquameta'
p23
tp24
a(S'Logger'
p25
S'OraOpenSource'
p26
S'OraOpenSource/Logger'
p27
tp28
a(S'plpgunit'
p29
S'mixerp'
p30
S'mixerp/plpgunit'
p31
tp32
a(S'railsbot'
p33
S'radar'
p34
S'radar/railsbot'
p35
tp36
a(S'MariaDB4j'
p37
S'vorburger'
p38
S'vorburger/MariaDB4j'
p39
tp40
a(S'vertica-kit'
p41
S'NorbertKrupa'
p42
S'NorbertKrupa/vertica-kit'
p43
tp44
a(S'analytical-sql-examples'
p45
S'oracle'
p46
S'oracle/analytical-sql-examples'
p47
tp48
a(S'postgresql-anyarray'
p49
S'JDBurnZ'
p50
S'JDBurnZ/postgresql-anyarray'
p51
tp52
a(S'census-postgres'
p53
S'censusreporter'
p54
S'censusreporter/census-postgres'
p55
tp56
a(S'material-apex'
p57
S'vincentmorneau'
p58
S'vincentmorneau/material-apex'
p59
tp60
a(S'ashmasters'
p61
S'khailey'
p62
S'khailey/ashmasters'
p63
tp64
a(S'orasash'
p65
S'pioro'
p66
S'pioro/orasash'
p67
tp68
a(S'cvechecker'
p69
S'sjvermeu'
p70
S'sjvermeu/cvechecker'
p71
tp72
a(S'3dcitydb'
p73
S'3dcitydb'
p74
S'3dcitydb/3dcitydb'
p75
tp76
a(S'kc'
p77
S'kuali'
p78
S'kuali/kc'
p79
tp80
a(S'xt_scripts'
p81
S'xtender'
p82
S'xtender/xt_scripts'
p83
tp84
a(S'sqld360'
p85
S'mauropagano'
p86
S'mauropagano/sqld360'
p87
tp88
a(S'oracle_scriptlets'
p89
S'ReneNyffenegger'
p90
S'ReneNyffenegger/oracle_scriptlets'
p91
tp92
a(S'CommonDataModel'
p93
S'OHDSI'
p94
S'OHDSI/CommonDataModel'
p95
tp96
a(S'CMS-Sandbox'
p97
S'Smart-Core'
p98
S'Smart-Core/CMS-Sandbox'
p99
tp100
a(S'manong'
p101
S'nemoTyrant'
p102
S'nemoTyrant/manong'
p103
tp104
a(S'PretendYoureXyzzy'
p105
S'ajanata'
p106
S'ajanata/PretendYoureXyzzy'
p107
tp108
a(S'alexandria-plsql-utils'
p109
S'mortenbra'
p110
S'mortenbra/alexandria-plsql-utils'
p111
tp112
a(S'php-site'
p113
S'phalcon'
p114
S'phalcon/php-site'
p115
tp116
a(S'pljson'
p117
S'pljson'
p118
S'pljson/pljson'
p119
tp120
a(S'aquameta'
p121
S'aquametalabs'
p122
S'aquametalabs/aquameta'
p123
tp124
a(S'Logger'
p125
S'OraOpenSource'
p126
S'OraOpenSource/Logger'
p127
tp128
a(S'plpgunit'
p129
S'mixerp'
p130
S'mixerp/plpgunit'
p131
tp132
a(S'railsbot'
p133
S'radar'
p134
S'radar/railsbot'
p135
tp136
a(S'MariaDB4j'
p137
S'vorburger'
p138
S'vorburger/MariaDB4j'
p139
tp140
a(S'vertica-kit'
p141
S'NorbertKrupa'
p142
S'NorbertKrupa/vertica-kit'
p143
tp144
a(S'analytical-sql-examples'
p145
S'oracle'
p146
S'oracle/analytical-sql-examples'
p147
tp148
a(S'postgresql-anyarray'
p149
S'JDBurnZ'
p150
S'JDBurnZ/postgresql-anyarray'
p151
tp152
a(S'census-postgres'
p153
S'censusreporter'
p154
S'censusreporter/census-postgres'
p155
tp156
a(S'ashmasters'
p157
S'khailey'
p158
S'khailey/ashmasters'
p159
tp160
a(S'material-apex'
p161
S'vincentmorneau'
p162
S'vincentmorneau/material-apex'
p163
tp164
a(S'orasash'
p165
S'pioro'
p166
S'pioro/orasash'
p167
tp168
a(S'cvechecker'
p169
S'sjvermeu'
p170
S'sjvermeu/cvechecker'
p171
tp172
a(S'3dcitydb'
p173
S'3dcitydb'
p174
S'3dcitydb/3dcitydb'
p175
tp176
a(S'kc'
p177
S'kuali'
p178
S'kuali/kc'
p179
tp180
a(S'xt_scripts'
p181
S'xtender'
p182
S'xtender/xt_scripts'
p183
tp184
a(S'sqld360'
p185
S'mauropagano'
p186
S'mauropagano/sqld360'
p187
tp188
a(S'oracle_scriptlets'
p189
S'ReneNyffenegger'
p190
S'ReneNyffenegger/oracle_scriptlets'
p191
tp192
a(S'CMS-Sandbox'
p193
S'Smart-Core'
p194
S'Smart-Core/CMS-Sandbox'
p195
tp196
a(S'CommonDataModel'
p197
S'OHDSI'
p198
S'OHDSI/CommonDataModel'
p199
tp200
a(S'manong'
p201
S'nemoTyrant'
p202
S'nemoTyrant/manong'
p203
tp204
a(S'PretendYoureXyzzy'
p205
S'ajanata'
p206
S'ajanata/PretendYoureXyzzy'
p207
tp208
a(S'alexandria-plsql-utils'
p209
S'mortenbra'
p210
S'mortenbra/alexandria-plsql-utils'
p211
tp212
a(S'php-site'
p213
S'phalcon'
p214
S'phalcon/php-site'
p215
tp216
a(S'pljson'
p217
S'pljson'
p218
S'pljson/pljson'
p219
tp220
a(S'aquameta'
p221
S'aquametalabs'
p222
S'aquametalabs/aquameta'
p223
tp224
a(S'Logger'
p225
S'OraOpenSource'
p226
S'OraOpenSource/Logger'
p227
tp228
a(S'plpgunit'
p229
S'mixerp'
p230
S'mixerp/plpgunit'
p231
tp232
a(S'railsbot'
p233
S'radar'
p234
S'radar/railsbot'
p235
tp236
a(S'MariaDB4j'
p237
S'vorburger'
p238
S'vorburger/MariaDB4j'
p239
tp240
a(S'vertica-kit'
p241
S'NorbertKrupa'
p242
S'NorbertKrupa/vertica-kit'
p243
tp244
a(S'analytical-sql-examples'
p245
S'oracle'
p246
S'oracle/analytical-sql-examples'
p247
tp248
a(S'postgresql-anyarray'
p249
S'JDBurnZ'
p250
S'JDBurnZ/postgresql-anyarray'
p251
tp252
a(S'census-postgres'
p253
S'censusreporter'
p254
S'censusreporter/census-postgres'
p255
tp256
a(S'ashmasters'
p257
S'khailey'
p258
S'khailey/ashmasters'
p259
tp260
a(S'material-apex'
p261
S'vincentmorneau'
p262
S'vincentmorneau/material-apex'
p263
tp264
a(S'orasash'
p265
S'pioro'
p266
S'pioro/orasash'
p267
tp268
a(S'cvechecker'
p269
S'sjvermeu'
p270
S'sjvermeu/cvechecker'
p271
tp272
a(S'3dcitydb'
p273
S'3dcitydb'
p274
S'3dcitydb/3dcitydb'
p275
tp276
a(S'kc'
p277
S'kuali'
p278
S'kuali/kc'
p279
tp280
a(S'xt_scripts'
p281
S'xtender'
p282
S'xtender/xt_scripts'
p283
tp284
a(S'sqld360'
p285
S'mauropagano'
p286
S'mauropagano/sqld360'
p287
tp288
a(S'oracle_scriptlets'
p289
S'ReneNyffenegger'
p290
S'ReneNyffenegger/oracle_scriptlets'
p291
tp292
a(S'CMS-Sandbox'
p293
S'Smart-Core'
p294
S'Smart-Core/CMS-Sandbox'
p295
tp296
a(S'CommonDataModel'
p297
S'OHDSI'
p298
S'OHDSI/CommonDataModel'
p299
tp300
a.