(lp0
(S'xpath-builder'
p1
S'featurist'
p2
S'featurist/xpath-builder'
p3
tp4
a(S'snowdock'
p5
S'featurist'
p6
S'featurist/snowdock'
p7
tp8
a(S'oauth-reference-page'
p9
S'7digital'
p10
S'7digital/oauth-reference-page'
p11
tp12
a(S'css-to-xpath'
p13
S'featurist'
p14
S'featurist/css-to-xpath'
p15
tp16
a(S'dslify'
p17
S'featurist'
p18
S'featurist/dslify'
p19
tp20
a(S'github-plus-one'
p21
S'artemave'
p22
S'artemave/github-plus-one'
p23
tp24
a(S'fs-tree'
p25
S'featurist'
p26
S'featurist/fs-tree'
p27
tp28
a(S'spawn-cmd'
p29
S'featurist'
p30
S'featurist/spawn-cmd'
p31
tp32
a(S'fireworks'
p33
S'featurist'
p34
S'featurist/fireworks'
p35
tp36
a(S'ringleader'
p37
S'featurist'
p38
S'featurist/ringleader'
p39
tp40
a(S'htmlism'
p41
S'featurist'
p42
S'featurist/htmlism'
p43
tp44
a(S'routism'
p45
S'featurist'
p46
S'featurist/routism'
p47
tp48
a(S'qo'
p49
S'featurist'
p50
S'featurist/qo'
p51
tp52
a(S'catalogue'
p53
S'joshski'
p54
S'joshski/catalogue'
p55
tp56
a(S'invertism'
p57
S'featurist'
p58
S'featurist/invertism'
p59
tp60
a(S'build-status'
p61
S'featurist'
p62
S'featurist/build-status'
p63
tp64
a(S'stitchy'
p65
S'featurist'
p66
S'featurist/stitchy'
p67
tp68
a(S'meddler'
p69
S'featurist'
p70
S'featurist/meddler'
p71
tp72
a(S'pogo-react'
p73
S'featurist'
p74
S'featurist/pogo-react'
p75
tp76
a(S'StarLogs'
p77
S'webdigi'
p78
S'webdigi/StarLogs'
p79
tp80
a(S'peace'
p81
S'dereke'
p82
S'dereke/peace'
p83
tp84
a(S'waitforsocket'
p85
S'featurist'
p86
S'featurist/waitforsocket'
p87
tp88
a(S'thursby'
p89
S'featurist'
p90
S'featurist/thursby'
p91
tp92
a(S'cocos-pogo-template'
p93
S'featurist'
p94
S'featurist/cocos-pogo-template'
p95
tp96
a(S'StarLogs'
p97
S'drawcode'
p98
S'drawcode/StarLogs'
p99
tp100
a(S'xpath-builder'
p101
S'featurist'
p102
S'featurist/xpath-builder'
p103
tp104
a(S'snowdock'
p105
S'featurist'
p106
S'featurist/snowdock'
p107
tp108
a(S'oauth-reference-page'
p109
S'7digital'
p110
S'7digital/oauth-reference-page'
p111
tp112
a(S'css-to-xpath'
p113
S'featurist'
p114
S'featurist/css-to-xpath'
p115
tp116
a(S'dslify'
p117
S'featurist'
p118
S'featurist/dslify'
p119
tp120
a(S'github-plus-one'
p121
S'artemave'
p122
S'artemave/github-plus-one'
p123
tp124
a(S'fs-tree'
p125
S'featurist'
p126
S'featurist/fs-tree'
p127
tp128
a(S'spawn-cmd'
p129
S'featurist'
p130
S'featurist/spawn-cmd'
p131
tp132
a(S'fireworks'
p133
S'featurist'
p134
S'featurist/fireworks'
p135
tp136
a(S'ringleader'
p137
S'featurist'
p138
S'featurist/ringleader'
p139
tp140
a(S'htmlism'
p141
S'featurist'
p142
S'featurist/htmlism'
p143
tp144
a(S'routism'
p145
S'featurist'
p146
S'featurist/routism'
p147
tp148
a(S'qo'
p149
S'featurist'
p150
S'featurist/qo'
p151
tp152
a(S'catalogue'
p153
S'joshski'
p154
S'joshski/catalogue'
p155
tp156
a(S'invertism'
p157
S'featurist'
p158
S'featurist/invertism'
p159
tp160
a(S'build-status'
p161
S'featurist'
p162
S'featurist/build-status'
p163
tp164
a(S'stitchy'
p165
S'featurist'
p166
S'featurist/stitchy'
p167
tp168
a(S'meddler'
p169
S'featurist'
p170
S'featurist/meddler'
p171
tp172
a(S'pogo-react'
p173
S'featurist'
p174
S'featurist/pogo-react'
p175
tp176
a(S'StarLogs'
p177
S'webdigi'
p178
S'webdigi/StarLogs'
p179
tp180
a(S'peace'
p181
S'dereke'
p182
S'dereke/peace'
p183
tp184
a(S'waitforsocket'
p185
S'featurist'
p186
S'featurist/waitforsocket'
p187
tp188
a(S'thursby'
p189
S'featurist'
p190
S'featurist/thursby'
p191
tp192
a(S'cocos-pogo-template'
p193
S'featurist'
p194
S'featurist/cocos-pogo-template'
p195
tp196
a(S'StarLogs'
p197
S'drawcode'
p198
S'drawcode/StarLogs'
p199
tp200
a(S'xpath-builder'
p201
S'featurist'
p202
S'featurist/xpath-builder'
p203
tp204
a(S'snowdock'
p205
S'featurist'
p206
S'featurist/snowdock'
p207
tp208
a(S'oauth-reference-page'
p209
S'7digital'
p210
S'7digital/oauth-reference-page'
p211
tp212
a(S'css-to-xpath'
p213
S'featurist'
p214
S'featurist/css-to-xpath'
p215
tp216
a(S'dslify'
p217
S'featurist'
p218
S'featurist/dslify'
p219
tp220
a(S'github-plus-one'
p221
S'artemave'
p222
S'artemave/github-plus-one'
p223
tp224
a(S'fs-tree'
p225
S'featurist'
p226
S'featurist/fs-tree'
p227
tp228
a(S'spawn-cmd'
p229
S'featurist'
p230
S'featurist/spawn-cmd'
p231
tp232
a(S'fireworks'
p233
S'featurist'
p234
S'featurist/fireworks'
p235
tp236
a(S'ringleader'
p237
S'featurist'
p238
S'featurist/ringleader'
p239
tp240
a(S'htmlism'
p241
S'featurist'
p242
S'featurist/htmlism'
p243
tp244
a(S'routism'
p245
S'featurist'
p246
S'featurist/routism'
p247
tp248
a(S'qo'
p249
S'featurist'
p250
S'featurist/qo'
p251
tp252
a(S'catalogue'
p253
S'joshski'
p254
S'joshski/catalogue'
p255
tp256
a(S'invertism'
p257
S'featurist'
p258
S'featurist/invertism'
p259
tp260
a(S'build-status'
p261
S'featurist'
p262
S'featurist/build-status'
p263
tp264
a(S'stitchy'
p265
S'featurist'
p266
S'featurist/stitchy'
p267
tp268
a(S'meddler'
p269
S'featurist'
p270
S'featurist/meddler'
p271
tp272
a(S'pogo-react'
p273
S'featurist'
p274
S'featurist/pogo-react'
p275
tp276
a(S'StarLogs'
p277
S'webdigi'
p278
S'webdigi/StarLogs'
p279
tp280
a(S'peace'
p281
S'dereke'
p282
S'dereke/peace'
p283
tp284
a(S'waitforsocket'
p285
S'featurist'
p286
S'featurist/waitforsocket'
p287
tp288
a(S'thursby'
p289
S'featurist'
p290
S'featurist/thursby'
p291
tp292
a(S'cocos-pogo-template'
p293
S'featurist'
p294
S'featurist/cocos-pogo-template'
p295
tp296
a(S'StarLogs'
p297
S'drawcode'
p298
S'drawcode/StarLogs'
p299
tp300
a.