(lp0
(S'source-han-code-jp'
p1
S'adobe-fonts'
p2
S'adobe-fonts/source-han-code-jp'
p3
tp4
a(S'logo.js'
p5
S'voodootikigod'
p6
S'voodootikigod/logo.js'
p7
tp8
a(S'Russian-Phd-LaTeX-Dissertation-Template'
p9
S'AndreyAkinshin'
p10
S'AndreyAkinshin/Russian-Phd-LaTeX-Dissertation-Template'
p11
tp12
a(S'nodecopter.com'
p13
S'nodecopter'
p14
S'nodecopter/nodecopter.com'
p15
tp16
a(S'CreateUserPkg'
p17
S'MagerValp'
p18
S'MagerValp/CreateUserPkg'
p19
tp20
a(S'adesivos'
p21
S'cerebrobr'
p22
S'cerebrobr/adesivos'
p23
tp24
a(S'kicad-library'
p25
S'KiCad'
p26
S'KiCad/kicad-library'
p27
tp28
a(S'Euterpea'
p29
S'Euterpea'
p30
S'Euterpea/Euterpea'
p31
tp32
a(S'gesty'
p33
S'mariuszostrowski'
p34
S'mariuszostrowski/gesty'
p35
tp36
a(S'ThinkPython'
p37
S'AllenDowney'
p38
S'AllenDowney/ThinkPython'
p39
tp40
a(S'camgaze.js'
p41
S'wallarelvo'
p42
S'wallarelvo/camgaze.js'
p43
tp44
a(S'duojs.org'
p45
S'duojs'
p46
S'duojs/duojs.org'
p47
tp48
a(S'aosa-ja'
p49
S'm-takagi'
p50
S'm-takagi/aosa-ja'
p51
tp52
a(S'adobe-blank'
p53
S'adobe-fonts'
p54
S'adobe-fonts/adobe-blank'
p55
tp56
a(S'IPSUR'
p57
S'gjkerns'
p58
S'gjkerns/IPSUR'
p59
tp60
a(S'showz'
p61
S'foodfight'
p62
S'foodfight/showz'
p63
tp64
a(S'postscriptbarcode'
p65
S'bwipp'
p66
S'bwipp/postscriptbarcode'
p67
tp68
a(S'axiom'
p69
S'daly'
p70
S'daly/axiom'
p71
tp72
a(S'weka'
p73
S'bnjmn'
p74
S'bnjmn/weka'
p75
tp76
a(S'api'
p77
S'hhru'
p78
S'hhru/api'
p79
tp80
a(S'pgdoc-cn'
p81
S'postgres-cn'
p82
S'postgres-cn/pgdoc-cn'
p83
tp84
a(S'webwork-open-problem-library'
p85
S'openwebwork'
p86
S'openwebwork/webwork-open-problem-library'
p87
tp88
a(S'powerline-extra-symbols'
p89
S'ryanoasis'
p90
S'ryanoasis/powerline-extra-symbols'
p91
tp92
a(S'popgen-notes'
p93
S'cooplab'
p94
S'cooplab/popgen-notes'
p95
tp96
a(S'ocamlgraph'
p97
S'backtracking'
p98
S'backtracking/ocamlgraph'
p99
tp100
a(S'source-han-code-jp'
p101
S'adobe-fonts'
p102
S'adobe-fonts/source-han-code-jp'
p103
tp104
a(S'logo.js'
p105
S'voodootikigod'
p106
S'voodootikigod/logo.js'
p107
tp108
a(S'Russian-Phd-LaTeX-Dissertation-Template'
p109
S'AndreyAkinshin'
p110
S'AndreyAkinshin/Russian-Phd-LaTeX-Dissertation-Template'
p111
tp112
a(S'nodecopter.com'
p113
S'nodecopter'
p114
S'nodecopter/nodecopter.com'
p115
tp116
a(S'CreateUserPkg'
p117
S'MagerValp'
p118
S'MagerValp/CreateUserPkg'
p119
tp120
a(S'adesivos'
p121
S'cerebrobr'
p122
S'cerebrobr/adesivos'
p123
tp124
a(S'kicad-library'
p125
S'KiCad'
p126
S'KiCad/kicad-library'
p127
tp128
a(S'Euterpea'
p129
S'Euterpea'
p130
S'Euterpea/Euterpea'
p131
tp132
a(S'gesty'
p133
S'mariuszostrowski'
p134
S'mariuszostrowski/gesty'
p135
tp136
a(S'ThinkPython'
p137
S'AllenDowney'
p138
S'AllenDowney/ThinkPython'
p139
tp140
a(S'camgaze.js'
p141
S'wallarelvo'
p142
S'wallarelvo/camgaze.js'
p143
tp144
a(S'duojs.org'
p145
S'duojs'
p146
S'duojs/duojs.org'
p147
tp148
a(S'aosa-ja'
p149
S'm-takagi'
p150
S'm-takagi/aosa-ja'
p151
tp152
a(S'adobe-blank'
p153
S'adobe-fonts'
p154
S'adobe-fonts/adobe-blank'
p155
tp156
a(S'IPSUR'
p157
S'gjkerns'
p158
S'gjkerns/IPSUR'
p159
tp160
a(S'showz'
p161
S'foodfight'
p162
S'foodfight/showz'
p163
tp164
a(S'postscriptbarcode'
p165
S'bwipp'
p166
S'bwipp/postscriptbarcode'
p167
tp168
a(S'axiom'
p169
S'daly'
p170
S'daly/axiom'
p171
tp172
a(S'weka'
p173
S'bnjmn'
p174
S'bnjmn/weka'
p175
tp176
a(S'api'
p177
S'hhru'
p178
S'hhru/api'
p179
tp180
a(S'pgdoc-cn'
p181
S'postgres-cn'
p182
S'postgres-cn/pgdoc-cn'
p183
tp184
a(S'webwork-open-problem-library'
p185
S'openwebwork'
p186
S'openwebwork/webwork-open-problem-library'
p187
tp188
a(S'powerline-extra-symbols'
p189
S'ryanoasis'
p190
S'ryanoasis/powerline-extra-symbols'
p191
tp192
a(S'popgen-notes'
p193
S'cooplab'
p194
S'cooplab/popgen-notes'
p195
tp196
a(S'ocamlgraph'
p197
S'backtracking'
p198
S'backtracking/ocamlgraph'
p199
tp200
a(S'kicad-library'
p201
S'KiCad'
p202
S'KiCad/kicad-library'
p203
tp204
a(S'pgdoc-cn'
p205
S'postgres-cn'
p206
S'postgres-cn/pgdoc-cn'
p207
tp208
a(S'adesivos'
p209
S'cerebrobr'
p210
S'cerebrobr/adesivos'
p211
tp212
a(S'api'
p213
S'hhru'
p214
S'hhru/api'
p215
tp216
a(S'source-han-code-jp'
p217
S'adobe-fonts'
p218
S'adobe-fonts/source-han-code-jp'
p219
tp220
a(S'logo.js'
p221
S'voodootikigod'
p222
S'voodootikigod/logo.js'
p223
tp224
a(S'Russian-Phd-LaTeX-Dissertation-Template'
p225
S'AndreyAkinshin'
p226
S'AndreyAkinshin/Russian-Phd-LaTeX-Dissertation-Template'
p227
tp228
a(S'nodecopter.com'
p229
S'nodecopter'
p230
S'nodecopter/nodecopter.com'
p231
tp232
a(S'CreateUserPkg'
p233
S'MagerValp'
p234
S'MagerValp/CreateUserPkg'
p235
tp236
a(S'Euterpea'
p237
S'Euterpea'
p238
S'Euterpea/Euterpea'
p239
tp240
a(S'gesty'
p241
S'mariuszostrowski'
p242
S'mariuszostrowski/gesty'
p243
tp244
a(S'ThinkPython'
p245
S'AllenDowney'
p246
S'AllenDowney/ThinkPython'
p247
tp248
a(S'camgaze.js'
p249
S'wallarelvo'
p250
S'wallarelvo/camgaze.js'
p251
tp252
a(S'duojs.org'
p253
S'duojs'
p254
S'duojs/duojs.org'
p255
tp256
a(S'aosa-ja'
p257
S'm-takagi'
p258
S'm-takagi/aosa-ja'
p259
tp260
a(S'adobe-blank'
p261
S'adobe-fonts'
p262
S'adobe-fonts/adobe-blank'
p263
tp264
a(S'IPSUR'
p265
S'gjkerns'
p266
S'gjkerns/IPSUR'
p267
tp268
a(S'showz'
p269
S'foodfight'
p270
S'foodfight/showz'
p271
tp272
a(S'postscriptbarcode'
p273
S'bwipp'
p274
S'bwipp/postscriptbarcode'
p275
tp276
a(S'axiom'
p277
S'daly'
p278
S'daly/axiom'
p279
tp280
a(S'weka'
p281
S'bnjmn'
p282
S'bnjmn/weka'
p283
tp284
a(S'webwork-open-problem-library'
p285
S'openwebwork'
p286
S'openwebwork/webwork-open-problem-library'
p287
tp288
a(S'popgen-notes'
p289
S'cooplab'
p290
S'cooplab/popgen-notes'
p291
tp292
a(S'powerline-extra-symbols'
p293
S'ryanoasis'
p294
S'ryanoasis/powerline-extra-symbols'
p295
tp296
a(S'ocamlgraph'
p297
S'backtracking'
p298
S'backtracking/ocamlgraph'
p299
tp300
a.