(lp0
(S'cmder'
p1
S'cmderdev'
p2
S'cmderdev/cmder'
p3
tp4
a(S'Home'
p5
S'aspnet'
p6
S'aspnet/Home'
p7
tp8
a(S'Virtualization-Documentation'
p9
S'Microsoft'
p10
S'Microsoft/Virtualization-Documentation'
p11
tp12
a(S'Office-IT-Pro-Deployment-Scripts'
p13
S'OfficeDev'
p14
S'OfficeDev/Office-IT-Pro-Deployment-Scripts'
p15
tp16
a(S'vso-agent-tasks'
p17
S'Microsoft'
p18
S'Microsoft/vso-agent-tasks'
p19
tp20
a(S'chocolatey'
p21
S'chocolatey'
p22
S'chocolatey/chocolatey'
p23
tp24
a(S'posh-git'
p25
S'dahlbyk'
p26
S'dahlbyk/posh-git'
p27
tp28
a(S'scoop'
p29
S'lukesampson'
p30
S'lukesampson/scoop'
p31
tp32
a(S'PowerSploit'
p33
S'mattifestation'
p34
S'mattifestation/PowerSploit'
p35
tp36
a(S'psake'
p37
S'psake'
p38
S'psake/psake'
p39
tp40
a(S'packer-windows'
p41
S'joefitzgerald'
p42
S'joefitzgerald/packer-windows'
p43
tp44
a(S'Pester'
p45
S'pester'
p46
S'pester/Pester'
p47
tp48
a(S'visualstudio-colors-solarized'
p49
S'leddt'
p50
S'leddt/visualstudio-colors-solarized'
p51
tp52
a(S'nishang'
p53
S'samratashok'
p54
S'samratashok/nishang'
p55
tp56
a(S'psget'
p57
S'psget'
p58
S'psget/psget'
p59
tp60
a(S'PowerTools'
p61
S'PowerShellEmpire'
p62
S'PowerShellEmpire/PowerTools'
p63
tp64
a(S'NetRipper'
p65
S'NytroRST'
p66
S'NytroRST/NetRipper'
p67
tp68
a(S'Empire'
p69
S'PowerShellEmpire'
p70
S'PowerShellEmpire/Empire'
p71
tp72
a(S'CrackMapExec'
p73
S'byt3bl33d3r'
p74
S'byt3bl33d3r/CrackMapExec'
p75
tp76
a(S'DSC'
p77
S'PowerShellOrg'
p78
S'PowerShellOrg/DSC'
p79
tp80
a(S'PowerShell'
p81
S'clymb3r'
p82
S'clymb3r/PowerShell'
p83
tp84
a(S'boxstarter'
p85
S'mwrock'
p86
S'mwrock/boxstarter'
p87
tp88
a(S'Kautilya'
p89
S'samratashok'
p90
S'samratashok/Kautilya'
p91
tp92
a(S'vCheck-vSphere'
p93
S'alanrenouf'
p94
S'alanrenouf/vCheck-vSphere'
p95
tp96
a(S'Debloat-Windows-10'
p97
S'W4RH4WK'
p98
S'W4RH4WK/Debloat-Windows-10'
p99
tp100
a(S'cmder'
p101
S'cmderdev'
p102
S'cmderdev/cmder'
p103
tp104
a(S'Home'
p105
S'aspnet'
p106
S'aspnet/Home'
p107
tp108
a(S'packer-windows'
p109
S'joefitzgerald'
p110
S'joefitzgerald/packer-windows'
p111
tp112
a(S'PowerTools'
p113
S'PowerShellEmpire'
p114
S'PowerShellEmpire/PowerTools'
p115
tp116
a(S'Empire'
p117
S'PowerShellEmpire'
p118
S'PowerShellEmpire/Empire'
p119
tp120
a(S'CrackMapExec'
p121
S'byt3bl33d3r'
p122
S'byt3bl33d3r/CrackMapExec'
p123
tp124
a(S'scoop'
p125
S'lukesampson'
p126
S'lukesampson/scoop'
p127
tp128
a(S'Home'
p129
S'NuGet'
p130
S'NuGet/Home'
p131
tp132
a(S'PowerForensics'
p133
S'Invoke-IR'
p134
S'Invoke-IR/PowerForensics'
p135
tp136
a(S'nishang'
p137
S'samratashok'
p138
S'samratashok/nishang'
p139
tp140
a(S'scoop-extras'
p141
S'lukesampson'
p142
S'lukesampson/scoop-extras'
p143
tp144
a(S'chocolatey'
p145
S'chocolatey'
p146
S'chocolatey/chocolatey'
p147
tp148
a(S'posh-git'
p149
S'dahlbyk'
p150
S'dahlbyk/posh-git'
p151
tp152
a(S'PowerSploit'
p153
S'mattifestation'
p154
S'mattifestation/PowerSploit'
p155
tp156
a(S'psake'
p157
S'psake'
p158
S'psake/psake'
p159
tp160
a(S'Pester'
p161
S'pester'
p162
S'pester/Pester'
p163
tp164
a(S'visualstudio-colors-solarized'
p165
S'leddt'
p166
S'leddt/visualstudio-colors-solarized'
p167
tp168
a(S'psget'
p169
S'psget'
p170
S'psget/psget'
p171
tp172
a(S'NetRipper'
p173
S'NytroRST'
p174
S'NytroRST/NetRipper'
p175
tp176
a(S'DSC'
p177
S'PowerShellOrg'
p178
S'PowerShellOrg/DSC'
p179
tp180
a(S'PowerShell'
p181
S'clymb3r'
p182
S'clymb3r/PowerShell'
p183
tp184
a(S'boxstarter'
p185
S'mwrock'
p186
S'mwrock/boxstarter'
p187
tp188
a(S'Kautilya'
p189
S'samratashok'
p190
S'samratashok/Kautilya'
p191
tp192
a(S'vCheck-vSphere'
p193
S'alanrenouf'
p194
S'alanrenouf/vCheck-vSphere'
p195
tp196
a(S'Debloat-Windows-10'
p197
S'W4RH4WK'
p198
S'W4RH4WK/Debloat-Windows-10'
p199
tp200
a(S'cmder'
p201
S'cmderdev'
p202
S'cmderdev/cmder'
p203
tp204
a(S'Home'
p205
S'aspnet'
p206
S'aspnet/Home'
p207
tp208
a(S'Empire'
p209
S'PowerShellEmpire'
p210
S'PowerShellEmpire/Empire'
p211
tp212
a(S'CrackMapExec'
p213
S'byt3bl33d3r'
p214
S'byt3bl33d3r/CrackMapExec'
p215
tp216
a(S'scoop'
p217
S'lukesampson'
p218
S'lukesampson/scoop'
p219
tp220
a(S'PowerTools'
p221
S'PowerShellEmpire'
p222
S'PowerShellEmpire/PowerTools'
p223
tp224
a(S'packer-windows'
p225
S'joefitzgerald'
p226
S'joefitzgerald/packer-windows'
p227
tp228
a(S'nishang'
p229
S'samratashok'
p230
S'samratashok/nishang'
p231
tp232
a(S'vso-agent-tasks'
p233
S'Microsoft'
p234
S'Microsoft/vso-agent-tasks'
p235
tp236
a(S'Pester'
p237
S'pester'
p238
S'pester/Pester'
p239
tp240
a(S'PowerForensics'
p241
S'Invoke-IR'
p242
S'Invoke-IR/PowerForensics'
p243
tp244
a(S'Home'
p245
S'NuGet'
p246
S'NuGet/Home'
p247
tp248
a(S'Virtualization-Documentation'
p249
S'Microsoft'
p250
S'Microsoft/Virtualization-Documentation'
p251
tp252
a(S'Office-IT-Pro-Deployment-Scripts'
p253
S'OfficeDev'
p254
S'OfficeDev/Office-IT-Pro-Deployment-Scripts'
p255
tp256
a(S'Open-Xml-PowerTools'
p257
S'OfficeDev'
p258
S'OfficeDev/Open-Xml-PowerTools'
p259
tp260
a(S'psget'
p261
S'psget'
p262
S'psget/psget'
p263
tp264
a(S'dbatools'
p265
S'ctrlbold'
p266
S'ctrlbold/dbatools'
p267
tp268
a(S'dnvm'
p269
S'aspnet'
p270
S'aspnet/dnvm'
p271
tp272
a(S'Universe'
p273
S'aspnet'
p274
S'aspnet/Universe'
p275
tp276
a(S'ImportExcel'
p277
S'dfinke'
p278
S'dfinke/ImportExcel'
p279
tp280
a(S'meta-runner-power-pack'
p281
S'JetBrains'
p282
S'JetBrains/meta-runner-power-pack'
p283
tp284
a(S'ci'
p285
S'appveyor'
p286
S'appveyor/ci'
p287
tp288
a(S'scoop-extras'
p289
S'lukesampson'
p290
S'lukesampson/scoop-extras'
p291
tp292
a(S'chocolatey'
p293
S'chocolatey'
p294
S'chocolatey/chocolatey'
p295
tp296
a(S'posh-git'
p297
S'dahlbyk'
p298
S'dahlbyk/posh-git'
p299
tp300
a.