(lp0
(S'scarab-osd'
p1
S'ShikOfTheRa'
p2
S'ShikOfTheRa/scarab-osd'
p3
tp4
a(S'processing-js'
p5
S'processing-js'
p6
S'processing-js/processing-js'
p7
tp8
a(S'The-Nature-of-Code-Examples'
p9
S'shiffman'
p10
S'shiffman/The-Nature-of-Code-Examples'
p11
tp12
a(S'HYPE_Processing'
p13
S'hype'
p14
S'hype/HYPE_Processing'
p15
tp16
a(S'RF24'
p17
S'maniacbug'
p18
S'maniacbug/RF24'
p19
tp20
a(S'opencv-processing'
p21
S'atduskgreg'
p22
S'atduskgreg/opencv-processing'
p23
tp24
a(S'Piccolo'
p25
S'DiatomStudio'
p26
S'DiatomStudio/Piccolo'
p27
tp28
a(S'MMapper'
p29
S'feltron'
p30
S'feltron/MMapper'
p31
tp32
a(S'Code-Package-Processing-2.x'
p33
S'generative-design'
p34
S'generative-design/Code-Package-Processing-2.x'
p35
tp36
a(S'LPD8806'
p37
S'adafruit'
p38
S'adafruit/LPD8806'
p39
tp40
a(S'Box2D-for-Processing'
p41
S'shiffman'
p42
S'shiffman/Box2D-for-Processing'
p43
tp44
a(S'OpenBCI-V2hardware-DEPRECATED'
p45
S'OpenBCI'
p46
S'OpenBCI/OpenBCI-V2hardware-DEPRECATED'
p47
tp48
a(S'CAN_GenerativeTypography'
p49
S'AmnonOwed'
p50
S'AmnonOwed/CAN_GenerativeTypography'
p51
tp52
a(S'leap-motion-processing'
p53
S'heuermh'
p54
S'heuermh/leap-motion-processing'
p55
tp56
a(S'dobotArm'
p57
S'kidswong999'
p58
S'kidswong999/dobotArm'
p59
tp60
a(S'Face-It'
p61
S'shiffman'
p62
S'shiffman/Face-It'
p63
tp64
a(S'LearningProcessing'
p65
S'shiffman'
p66
S'shiffman/LearningProcessing'
p67
tp68
a(S'printing-code'
p69
S'runemadsen'
p70
S'runemadsen/printing-code'
p71
tp72
a(S'Kepler-Visualization'
p73
S'blprnt'
p74
S'blprnt/Kepler-Visualization'
p75
tp76
a(S'PixelSorting'
p77
S'jeffThompson'
p78
S'jeffThompson/PixelSorting'
p79
tp80
a(S'TFTLCD-Library'
p81
S'adafruit'
p82
S'adafruit/TFTLCD-Library'
p83
tp84
a(S'opencv-processing-book'
p85
S'atduskgreg'
p86
S'atduskgreg/opencv-processing-book'
p87
tp88
a(S'Arduino-Tutorial-Series'
p89
S'sciguy14'
p90
S'sciguy14/Arduino-Tutorial-Series'
p91
tp92
a(S'optiboot'
p93
S'Optiboot'
p94
S'Optiboot/optiboot'
p95
tp96
a(S'BrainGrapher'
p97
S'kitschpatrol'
p98
S'kitschpatrol/BrainGrapher'
p99
tp100
a(S'processing-js'
p101
S'processing-js'
p102
S'processing-js/processing-js'
p103
tp104
a(S'scarab-osd'
p105
S'ShikOfTheRa'
p106
S'ShikOfTheRa/scarab-osd'
p107
tp108
a(S'NetworkExamples'
p109
S'tigoe'
p110
S'tigoe/NetworkExamples'
p111
tp112
a(S'Kepler-Visualization'
p113
S'blprnt'
p114
S'blprnt/Kepler-Visualization'
p115
tp116
a(S'The-Nature-of-Code-Examples'
p117
S'shiffman'
p118
S'shiffman/The-Nature-of-Code-Examples'
p119
tp120
a(S'HYPE_Processing'
p121
S'hype'
p122
S'hype/HYPE_Processing'
p123
tp124
a(S'RF24'
p125
S'maniacbug'
p126
S'maniacbug/RF24'
p127
tp128
a(S'opencv-processing'
p129
S'atduskgreg'
p130
S'atduskgreg/opencv-processing'
p131
tp132
a(S'Piccolo'
p133
S'DiatomStudio'
p134
S'DiatomStudio/Piccolo'
p135
tp136
a(S'MMapper'
p137
S'feltron'
p138
S'feltron/MMapper'
p139
tp140
a(S'Code-Package-Processing-2.x'
p141
S'generative-design'
p142
S'generative-design/Code-Package-Processing-2.x'
p143
tp144
a(S'LPD8806'
p145
S'adafruit'
p146
S'adafruit/LPD8806'
p147
tp148
a(S'Box2D-for-Processing'
p149
S'shiffman'
p150
S'shiffman/Box2D-for-Processing'
p151
tp152
a(S'OpenBCI-V2hardware-DEPRECATED'
p153
S'OpenBCI'
p154
S'OpenBCI/OpenBCI-V2hardware-DEPRECATED'
p155
tp156
a(S'CAN_GenerativeTypography'
p157
S'AmnonOwed'
p158
S'AmnonOwed/CAN_GenerativeTypography'
p159
tp160
a(S'leap-motion-processing'
p161
S'heuermh'
p162
S'heuermh/leap-motion-processing'
p163
tp164
a(S'dobotArm'
p165
S'kidswong999'
p166
S'kidswong999/dobotArm'
p167
tp168
a(S'Face-It'
p169
S'shiffman'
p170
S'shiffman/Face-It'
p171
tp172
a(S'LearningProcessing'
p173
S'shiffman'
p174
S'shiffman/LearningProcessing'
p175
tp176
a(S'printing-code'
p177
S'runemadsen'
p178
S'runemadsen/printing-code'
p179
tp180
a(S'PixelSorting'
p181
S'jeffThompson'
p182
S'jeffThompson/PixelSorting'
p183
tp184
a(S'TFTLCD-Library'
p185
S'adafruit'
p186
S'adafruit/TFTLCD-Library'
p187
tp188
a(S'opencv-processing-book'
p189
S'atduskgreg'
p190
S'atduskgreg/opencv-processing-book'
p191
tp192
a(S'Arduino-Tutorial-Series'
p193
S'sciguy14'
p194
S'sciguy14/Arduino-Tutorial-Series'
p195
tp196
a(S'optiboot'
p197
S'Optiboot'
p198
S'Optiboot/optiboot'
p199
tp200
a(S'processing-js'
p201
S'processing-js'
p202
S'processing-js/processing-js'
p203
tp204
a(S'RF24'
p205
S'maniacbug'
p206
S'maniacbug/RF24'
p207
tp208
a(S'HYPE_Processing'
p209
S'hype'
p210
S'hype/HYPE_Processing'
p211
tp212
a(S'scarab-osd'
p213
S'ShikOfTheRa'
p214
S'ShikOfTheRa/scarab-osd'
p215
tp216
a(S'LearningProcessing'
p217
S'shiffman'
p218
S'shiffman/LearningProcessing'
p219
tp220
a(S'The-Nature-of-Code-Examples'
p221
S'shiffman'
p222
S'shiffman/The-Nature-of-Code-Examples'
p223
tp224
a(S'opencv-processing'
p225
S'atduskgreg'
p226
S'atduskgreg/opencv-processing'
p227
tp228
a(S'Piccolo'
p229
S'DiatomStudio'
p230
S'DiatomStudio/Piccolo'
p231
tp232
a(S'MMapper'
p233
S'feltron'
p234
S'feltron/MMapper'
p235
tp236
a(S'Code-Package-Processing-2.x'
p237
S'generative-design'
p238
S'generative-design/Code-Package-Processing-2.x'
p239
tp240
a(S'LPD8806'
p241
S'adafruit'
p242
S'adafruit/LPD8806'
p243
tp244
a(S'Box2D-for-Processing'
p245
S'shiffman'
p246
S'shiffman/Box2D-for-Processing'
p247
tp248
a(S'OpenBCI-V2hardware-DEPRECATED'
p249
S'OpenBCI'
p250
S'OpenBCI/OpenBCI-V2hardware-DEPRECATED'
p251
tp252
a(S'CAN_GenerativeTypography'
p253
S'AmnonOwed'
p254
S'AmnonOwed/CAN_GenerativeTypography'
p255
tp256
a(S'leap-motion-processing'
p257
S'heuermh'
p258
S'heuermh/leap-motion-processing'
p259
tp260
a(S'dobotArm'
p261
S'kidswong999'
p262
S'kidswong999/dobotArm'
p263
tp264
a(S'Face-It'
p265
S'shiffman'
p266
S'shiffman/Face-It'
p267
tp268
a(S'printing-code'
p269
S'runemadsen'
p270
S'runemadsen/printing-code'
p271
tp272
a(S'Kepler-Visualization'
p273
S'blprnt'
p274
S'blprnt/Kepler-Visualization'
p275
tp276
a(S'PixelSorting'
p277
S'jeffThompson'
p278
S'jeffThompson/PixelSorting'
p279
tp280
a(S'TFTLCD-Library'
p281
S'adafruit'
p282
S'adafruit/TFTLCD-Library'
p283
tp284
a(S'opencv-processing-book'
p285
S'atduskgreg'
p286
S'atduskgreg/opencv-processing-book'
p287
tp288
a(S'Arduino-Tutorial-Series'
p289
S'sciguy14'
p290
S'sciguy14/Arduino-Tutorial-Series'
p291
tp292
a(S'optiboot'
p293
S'Optiboot'
p294
S'Optiboot/optiboot'
p295
tp296
a(S'BrainGrapher'
p297
S'kitschpatrol'
p298
S'kitschpatrol/BrainGrapher'
p299
tp300
a.