(lp0
(S'csvkit'
p1
S'onyxfish'
p2
S'onyxfish/csvkit'
p3
tp4
a(S'marelle'
p5
S'larsyencken'
p6
S'larsyencken/marelle'
p7
tp8
a(S'StrangeLoop2014'
p9
S'strangeloop'
p10
S'strangeloop/StrangeLoop2014'
p11
tp12
a(S'cosmos'
p13
S'mcsoto'
p14
S'mcsoto/cosmos'
p15
tp16
a(S'iPad3_lcd'
p17
S'Emeryth'
p18
S'Emeryth/iPad3_lcd'
p19
tp20
a(S'FontPro'
p21
S'sebschub'
p22
S'sebschub/FontPro'
p23
tp24
a(S'prolog-examples'
p25
S'Anniepoo'
p26
S'Anniepoo/prolog-examples'
p27
tp28
a(S'swish'
p29
S'SWI-Prolog'
p30
S'SWI-Prolog/swish'
p31
tp32
a(S'thea'
p33
S'vangelisv'
p34
S'vangelisv/thea'
p35
tp36
a(S'OTM-02'
p37
S'hairykiwi'
p38
S'hairykiwi/OTM-02'
p39
tp40
a(S'musicontology'
p41
S'motools'
p42
S'motools/musicontology'
p43
tp44
a(S'hakank'
p45
S'hakank'
p46
S'hakank/hakank'
p47
tp48
a(S'APE'
p49
S'Attempto'
p50
S'Attempto/APE'
p51
tp52
a(S'FlappyBird'
p53
S'V-Play'
p54
S'V-Play/FlappyBird'
p55
tp56
a(S'datalog'
p57
S'c-cube'
p58
S'c-cube/datalog'
p59
tp60
a(S'Eagle-Tutorial-Series'
p61
S'sciguy14'
p62
S'sciguy14/Eagle-Tutorial-Series'
p63
tp64
a(S'prolongo'
p65
S'khueue'
p66
S'khueue/prolongo'
p67
tp68
a(S'Prolog-Library-Collection'
p69
S'wouterbeek'
p70
S'wouterbeek/Prolog-Library-Collection'
p71
tp72
a(S'twirc'
p73
S'semifor'
p74
S'semifor/twirc'
p75
tp76
a(S'Gleemin'
p77
S'stassa'
p78
S'stassa/Gleemin'
p79
tp80
a(S'xsd2json'
p81
S'fnogatz'
p82
S'fnogatz/xsd2json'
p83
tp84
a(S'7-languages-in-7-weeks'
p85
S'kikito'
p86
S'kikito/7-languages-in-7-weeks'
p87
tp88
a(S'Eagle'
p89
S'kernd'
p90
S'kernd/Eagle'
p91
tp92
a(S'melzi'
p93
S'reprappro'
p94
S'reprappro/melzi'
p95
tp96
a(S'swiplwebtut'
p97
S'Anniepoo'
p98
S'Anniepoo/swiplwebtut'
p99
tp100
a(S'csvkit'
p101
S'onyxfish'
p102
S'onyxfish/csvkit'
p103
tp104
a(S'FontPro'
p105
S'sebschub'
p106
S'sebschub/FontPro'
p107
tp108
a(S'marelle'
p109
S'larsyencken'
p110
S'larsyencken/marelle'
p111
tp112
a(S'StrangeLoop2014'
p113
S'strangeloop'
p114
S'strangeloop/StrangeLoop2014'
p115
tp116
a(S'cosmos'
p117
S'mcsoto'
p118
S'mcsoto/cosmos'
p119
tp120
a(S'iPad3_lcd'
p121
S'Emeryth'
p122
S'Emeryth/iPad3_lcd'
p123
tp124
a(S'prolog-examples'
p125
S'Anniepoo'
p126
S'Anniepoo/prolog-examples'
p127
tp128
a(S'swish'
p129
S'SWI-Prolog'
p130
S'SWI-Prolog/swish'
p131
tp132
a(S'thea'
p133
S'vangelisv'
p134
S'vangelisv/thea'
p135
tp136
a(S'OTM-02'
p137
S'hairykiwi'
p138
S'hairykiwi/OTM-02'
p139
tp140
a(S'musicontology'
p141
S'motools'
p142
S'motools/musicontology'
p143
tp144
a(S'hakank'
p145
S'hakank'
p146
S'hakank/hakank'
p147
tp148
a(S'APE'
p149
S'Attempto'
p150
S'Attempto/APE'
p151
tp152
a(S'FlappyBird'
p153
S'V-Play'
p154
S'V-Play/FlappyBird'
p155
tp156
a(S'Eagle-Tutorial-Series'
p157
S'sciguy14'
p158
S'sciguy14/Eagle-Tutorial-Series'
p159
tp160
a(S'datalog'
p161
S'c-cube'
p162
S'c-cube/datalog'
p163
tp164
a(S'Prolog-Library-Collection'
p165
S'wouterbeek'
p166
S'wouterbeek/Prolog-Library-Collection'
p167
tp168
a(S'prolongo'
p169
S'khueue'
p170
S'khueue/prolongo'
p171
tp172
a(S'Gleemin'
p173
S'stassa'
p174
S'stassa/Gleemin'
p175
tp176
a(S'twirc'
p177
S'semifor'
p178
S'semifor/twirc'
p179
tp180
a(S'7-languages-in-7-weeks'
p181
S'kikito'
p182
S'kikito/7-languages-in-7-weeks'
p183
tp184
a(S'xsd2json'
p185
S'fnogatz'
p186
S'fnogatz/xsd2json'
p187
tp188
a(S'Eagle'
p189
S'kernd'
p190
S'kernd/Eagle'
p191
tp192
a(S'melzi'
p193
S'reprappro'
p194
S'reprappro/melzi'
p195
tp196
a(S'ppx_blob'
p197
S'johnwhitington'
p198
S'johnwhitington/ppx_blob'
p199
tp200
a(S'csvkit'
p201
S'onyxfish'
p202
S'onyxfish/csvkit'
p203
tp204
a(S'marelle'
p205
S'larsyencken'
p206
S'larsyencken/marelle'
p207
tp208
a(S'StrangeLoop2014'
p209
S'strangeloop'
p210
S'strangeloop/StrangeLoop2014'
p211
tp212
a(S'cosmos'
p213
S'mcsoto'
p214
S'mcsoto/cosmos'
p215
tp216
a(S'iPad3_lcd'
p217
S'Emeryth'
p218
S'Emeryth/iPad3_lcd'
p219
tp220
a(S'FontPro'
p221
S'sebschub'
p222
S'sebschub/FontPro'
p223
tp224
a(S'prolog-examples'
p225
S'Anniepoo'
p226
S'Anniepoo/prolog-examples'
p227
tp228
a(S'thea'
p229
S'vangelisv'
p230
S'vangelisv/thea'
p231
tp232
a(S'swish'
p233
S'SWI-Prolog'
p234
S'SWI-Prolog/swish'
p235
tp236
a(S'OTM-02'
p237
S'hairykiwi'
p238
S'hairykiwi/OTM-02'
p239
tp240
a(S'musicontology'
p241
S'motools'
p242
S'motools/musicontology'
p243
tp244
a(S'hakank'
p245
S'hakank'
p246
S'hakank/hakank'
p247
tp248
a(S'APE'
p249
S'Attempto'
p250
S'Attempto/APE'
p251
tp252
a(S'FlappyBird'
p253
S'V-Play'
p254
S'V-Play/FlappyBird'
p255
tp256
a(S'Eagle-Tutorial-Series'
p257
S'sciguy14'
p258
S'sciguy14/Eagle-Tutorial-Series'
p259
tp260
a(S'datalog'
p261
S'c-cube'
p262
S'c-cube/datalog'
p263
tp264
a(S'Prolog-Library-Collection'
p265
S'wouterbeek'
p266
S'wouterbeek/Prolog-Library-Collection'
p267
tp268
a(S'prolongo'
p269
S'khueue'
p270
S'khueue/prolongo'
p271
tp272
a(S'twirc'
p273
S'semifor'
p274
S'semifor/twirc'
p275
tp276
a(S'Gleemin'
p277
S'stassa'
p278
S'stassa/Gleemin'
p279
tp280
a(S'7-languages-in-7-weeks'
p281
S'kikito'
p282
S'kikito/7-languages-in-7-weeks'
p283
tp284
a(S'xsd2json'
p285
S'fnogatz'
p286
S'fnogatz/xsd2json'
p287
tp288
a(S'Eagle'
p289
S'kernd'
p290
S'kernd/Eagle'
p291
tp292
a(S'melzi'
p293
S'reprappro'
p294
S'reprappro/melzi'
p295
tp296
a(S'swiplwebtut'
p297
S'Anniepoo'
p298
S'Anniepoo/swiplwebtut'
p299
tp300
a.