(lp0
(S'pymatgen'
p1
S'materialsproject'
p2
S'materialsproject/pymatgen'
p3
tp4
a(S'jtagulator'
p5
S'grandideastudio'
p6
S'grandideastudio/jtagulator'
p7
tp8
a(S'Propeddle'
p9
S'jacgoudsmit'
p10
S'jacgoudsmit/Propeddle'
p11
tp12
a(S'Defcon-22-badge'
p13
S'lockfale'
p14
S'lockfale/Defcon-22-badge'
p15
tp16
a(S'spin2cpp'
p17
S'totalspectrum'
p18
S'totalspectrum/spin2cpp'
p19
tp20
a(S'L-Star'
p21
S'jacgoudsmit'
p22
S'jacgoudsmit/L-Star'
p23
tp24
a(S'DEFCON_22_BADGE-_TAG'
p25
S'joshcano'
p26
S'joshcano/DEFCON_22_BADGE-_TAG'
p27
tp28
a(S'lamestation-sdk'
p29
S'lamestation'
p30
S'lamestation/lamestation-sdk'
p31
tp32
a(S'GDB'
p33
S'solx'
p34
S'solx/GDB'
p35
tp36
a(S'PongSat-Codes'
p37
S'PongSatParts'
p38
S'PongSatParts/PongSat-Codes'
p39
tp40
a(S'proplane'
p41
S'proplane'
p42
S'proplane/proplane'
p43
tp44
a(S'PropellerManager'
p45
S'parallaxinc'
p46
S'parallaxinc/PropellerManager'
p47
tp48
a(S'waitvid.2048'
p49
S'konimaru'
p50
S'konimaru/waitvid.2048'
p51
tp52
a(S'dc22hack'
p53
S'redvers'
p54
S'redvers/dc22hack'
p55
tp56
a(S'810001-robot-shield'
p57
S'fastrobotics'
p58
S'fastrobotics/810001-robot-shield'
p59
tp60
a(S'pasm.js'
p61
S'ZiCog'
p62
S'ZiCog/pasm.js'
p63
tp64
a(S'pymatgen'
p65
S'gVallverdu'
p66
S'gVallverdu/pymatgen'
p67
tp68
a(S'Pipman'
p69
S'CountMurphy'
p70
S'CountMurphy/Pipman'
p71
tp72
a(S'DEFCON22-BADGE'
p73
S'ahhh'
p74
S'ahhh/DEFCON22-BADGE'
p75
tp76
a(S'Spin-IDE_iOS'
p77
S'parallaxinc'
p78
S'parallaxinc/Spin-IDE_iOS'
p79
tp80
a(S'DEFCON22Badge'
p81
S'BrandonMXB'
p82
S'BrandonMXB/DEFCON22Badge'
p83
tp84
a(S'Firmware'
p85
S'pcDataSpider'
p86
S'pcDataSpider/Firmware'
p87
tp88
a(S'DeathStarInLEO'
p89
S'solx'
p90
S'solx/DeathStarInLEO'
p91
tp92
a(S'spinforth'
p93
S'prof-braino'
p94
S'prof-braino/spinforth'
p95
tp96
a(S'UAV-Parallax-Propeller'
p97
S'mattmccrink'
p98
S'mattmccrink/UAV-Parallax-Propeller'
p99
tp100
a(S'pymatgen'
p101
S'materialsproject'
p102
S'materialsproject/pymatgen'
p103
tp104
a(S'jtagulator'
p105
S'grandideastudio'
p106
S'grandideastudio/jtagulator'
p107
tp108
a(S'Propeddle'
p109
S'jacgoudsmit'
p110
S'jacgoudsmit/Propeddle'
p111
tp112
a(S'Defcon-22-badge'
p113
S'lockfale'
p114
S'lockfale/Defcon-22-badge'
p115
tp116
a(S'spin2cpp'
p117
S'totalspectrum'
p118
S'totalspectrum/spin2cpp'
p119
tp120
a(S'L-Star'
p121
S'jacgoudsmit'
p122
S'jacgoudsmit/L-Star'
p123
tp124
a(S'DEFCON_22_BADGE-_TAG'
p125
S'joshcano'
p126
S'joshcano/DEFCON_22_BADGE-_TAG'
p127
tp128
a(S'lamestation-sdk'
p129
S'lamestation'
p130
S'lamestation/lamestation-sdk'
p131
tp132
a(S'GDB'
p133
S'solx'
p134
S'solx/GDB'
p135
tp136
a(S'PongSat-Codes'
p137
S'PongSatParts'
p138
S'PongSatParts/PongSat-Codes'
p139
tp140
a(S'proplane'
p141
S'proplane'
p142
S'proplane/proplane'
p143
tp144
a(S'PropellerManager'
p145
S'parallaxinc'
p146
S'parallaxinc/PropellerManager'
p147
tp148
a(S'waitvid.2048'
p149
S'konimaru'
p150
S'konimaru/waitvid.2048'
p151
tp152
a(S'dc22hack'
p153
S'redvers'
p154
S'redvers/dc22hack'
p155
tp156
a(S'810001-robot-shield'
p157
S'fastrobotics'
p158
S'fastrobotics/810001-robot-shield'
p159
tp160
a(S'pasm.js'
p161
S'ZiCog'
p162
S'ZiCog/pasm.js'
p163
tp164
a(S'pymatgen'
p165
S'gVallverdu'
p166
S'gVallverdu/pymatgen'
p167
tp168
a(S'Pipman'
p169
S'CountMurphy'
p170
S'CountMurphy/Pipman'
p171
tp172
a(S'DEFCON22-BADGE'
p173
S'ahhh'
p174
S'ahhh/DEFCON22-BADGE'
p175
tp176
a(S'Spin-IDE_iOS'
p177
S'parallaxinc'
p178
S'parallaxinc/Spin-IDE_iOS'
p179
tp180
a(S'DEFCON22Badge'
p181
S'BrandonMXB'
p182
S'BrandonMXB/DEFCON22Badge'
p183
tp184
a(S'Firmware'
p185
S'pcDataSpider'
p186
S'pcDataSpider/Firmware'
p187
tp188
a(S'DeathStarInLEO'
p189
S'solx'
p190
S'solx/DeathStarInLEO'
p191
tp192
a(S'spinforth'
p193
S'prof-braino'
p194
S'prof-braino/spinforth'
p195
tp196
a(S'UAV-Parallax-Propeller'
p197
S'mattmccrink'
p198
S'mattmccrink/UAV-Parallax-Propeller'
p199
tp200
a(S'pymatgen'
p201
S'materialsproject'
p202
S'materialsproject/pymatgen'
p203
tp204
a(S'jtagulator'
p205
S'grandideastudio'
p206
S'grandideastudio/jtagulator'
p207
tp208
a(S'Propeddle'
p209
S'jacgoudsmit'
p210
S'jacgoudsmit/Propeddle'
p211
tp212
a(S'Defcon-22-badge'
p213
S'lockfale'
p214
S'lockfale/Defcon-22-badge'
p215
tp216
a(S'spin2cpp'
p217
S'totalspectrum'
p218
S'totalspectrum/spin2cpp'
p219
tp220
a(S'L-Star'
p221
S'jacgoudsmit'
p222
S'jacgoudsmit/L-Star'
p223
tp224
a(S'DEFCON_22_BADGE-_TAG'
p225
S'joshcano'
p226
S'joshcano/DEFCON_22_BADGE-_TAG'
p227
tp228
a(S'lamestation-sdk'
p229
S'lamestation'
p230
S'lamestation/lamestation-sdk'
p231
tp232
a(S'GDB'
p233
S'solx'
p234
S'solx/GDB'
p235
tp236
a(S'PongSat-Codes'
p237
S'PongSatParts'
p238
S'PongSatParts/PongSat-Codes'
p239
tp240
a(S'proplane'
p241
S'proplane'
p242
S'proplane/proplane'
p243
tp244
a(S'PropellerManager'
p245
S'parallaxinc'
p246
S'parallaxinc/PropellerManager'
p247
tp248
a(S'waitvid.2048'
p249
S'konimaru'
p250
S'konimaru/waitvid.2048'
p251
tp252
a(S'dc22hack'
p253
S'redvers'
p254
S'redvers/dc22hack'
p255
tp256
a(S'810001-robot-shield'
p257
S'fastrobotics'
p258
S'fastrobotics/810001-robot-shield'
p259
tp260
a(S'pasm.js'
p261
S'ZiCog'
p262
S'ZiCog/pasm.js'
p263
tp264
a(S'pymatgen'
p265
S'gVallverdu'
p266
S'gVallverdu/pymatgen'
p267
tp268
a(S'Pipman'
p269
S'CountMurphy'
p270
S'CountMurphy/Pipman'
p271
tp272
a(S'DEFCON22-BADGE'
p273
S'ahhh'
p274
S'ahhh/DEFCON22-BADGE'
p275
tp276
a(S'Spin-IDE_iOS'
p277
S'parallaxinc'
p278
S'parallaxinc/Spin-IDE_iOS'
p279
tp280
a(S'DEFCON22Badge'
p281
S'BrandonMXB'
p282
S'BrandonMXB/DEFCON22Badge'
p283
tp284
a(S'Firmware'
p285
S'pcDataSpider'
p286
S'pcDataSpider/Firmware'
p287
tp288
a(S'DeathStarInLEO'
p289
S'solx'
p290
S'solx/DeathStarInLEO'
p291
tp292
a(S'spinforth'
p293
S'prof-braino'
p294
S'prof-braino/spinforth'
p295
tp296
a(S'UAV-Parallax-Propeller'
p297
S'mattmccrink'
p298
S'mattmccrink/UAV-Parallax-Propeller'
p299
tp300
a.