(lp0
(S'googleapis'
p1
S'google'
p2
S'google/googleapis'
p3
tp4
a(S'yasha'
p5
S'dotabuff'
p6
S'dotabuff/yasha'
p7
tp8
a(S'vector-tile-spec'
p9
S'mapbox'
p10
S'mapbox/vector-tile-spec'
p11
tp12
a(S'loadcaffe'
p13
S'szagoruyko'
p14
S'szagoruyko/loadcaffe'
p15
tp16
a(S'idea-plugin-protobuf'
p17
S'nnmatveev'
p18
S'nnmatveev/idea-plugin-protobuf'
p19
tp20
a(S'dota2py'
p21
S'andrewsnowden'
p22
S'andrewsnowden/dota2py'
p23
tp24
a(S'manta'
p25
S'dotabuff'
p26
S'dotabuff/manta'
p27
tp28
a(S'docconv'
p29
S'sajari'
p30
S'sajari/docconv'
p31
tp32
a(S'sange'
p33
S'dotabuff'
p34
S'dotabuff/sange'
p35
tp36
a(S'goser'
p37
S'cloudflare'
p38
S'cloudflare/goser'
p39
tp40
a(S'node-csgo'
p41
S'joshuaferrara'
p42
S'joshuaferrara/node-csgo'
p43
tp44
a(S'go-hbase'
p45
S'Lazyshot'
p46
S'Lazyshot/go-hbase'
p47
tp48
a(S'edith'
p49
S'dschleck'
p50
S'dschleck/edith'
p51
tp52
a(S'instant-espresso'
p53
S'cytsai'
p54
S'cytsai/instant-espresso'
p55
tp56
a(S'kinetic-protocol'
p57
S'Kinetic'
p58
S'Kinetic/kinetic-protocol'
p59
tp60
a(S'node-steam-user'
p61
S'DoctorMcKay'
p62
S'DoctorMcKay/node-steam-user'
p63
tp64
a(S'hbase-rpc-client'
p65
S'falsecz'
p66
S'falsecz/hbase-rpc-client'
p67
tp68
a(S'Akka.Persistence.EventStore'
p69
S'trbngr'
p70
S'trbngr/Akka.Persistence.EventStore'
p71
tp72
a(S'node-tf2'
p73
S'DoctorMcKay'
p74
S'DoctorMcKay/node-tf2'
p75
tp76
a(S'googleplayupdater'
p77
S'NeroBurner'
p78
S'NeroBurner/googleplayupdater'
p79
tp80
a(S'gtfs_realtime_json'
p81
S'harrytruong'
p82
S'harrytruong/gtfs_realtime_json'
p83
tp84
a(S'fender'
p85
S'hassox'
p86
S'hassox/fender'
p87
tp88
a(S'relang'
p89
S'kureikain'
p90
S'kureikain/relang'
p91
tp92
a(S'protoc-gen-gokit'
p93
S'AmandaCameron'
p94
S'AmandaCameron/protoc-gen-gokit'
p95
tp96
a(S'bips'
p97
S'maaku'
p98
S'maaku/bips'
p99
tp100
a(S'googleapis'
p101
S'google'
p102
S'google/googleapis'
p103
tp104
a(S'yasha'
p105
S'dotabuff'
p106
S'dotabuff/yasha'
p107
tp108
a(S'vector-tile-spec'
p109
S'mapbox'
p110
S'mapbox/vector-tile-spec'
p111
tp112
a(S'loadcaffe'
p113
S'szagoruyko'
p114
S'szagoruyko/loadcaffe'
p115
tp116
a(S'idea-plugin-protobuf'
p117
S'nnmatveev'
p118
S'nnmatveev/idea-plugin-protobuf'
p119
tp120
a(S'dota2py'
p121
S'andrewsnowden'
p122
S'andrewsnowden/dota2py'
p123
tp124
a(S'manta'
p125
S'dotabuff'
p126
S'dotabuff/manta'
p127
tp128
a(S'docconv'
p129
S'sajari'
p130
S'sajari/docconv'
p131
tp132
a(S'sange'
p133
S'dotabuff'
p134
S'dotabuff/sange'
p135
tp136
a(S'goser'
p137
S'cloudflare'
p138
S'cloudflare/goser'
p139
tp140
a(S'node-csgo'
p141
S'joshuaferrara'
p142
S'joshuaferrara/node-csgo'
p143
tp144
a(S'go-hbase'
p145
S'Lazyshot'
p146
S'Lazyshot/go-hbase'
p147
tp148
a(S'edith'
p149
S'dschleck'
p150
S'dschleck/edith'
p151
tp152
a(S'instant-espresso'
p153
S'cytsai'
p154
S'cytsai/instant-espresso'
p155
tp156
a(S'kinetic-protocol'
p157
S'Kinetic'
p158
S'Kinetic/kinetic-protocol'
p159
tp160
a(S'node-steam-user'
p161
S'DoctorMcKay'
p162
S'DoctorMcKay/node-steam-user'
p163
tp164
a(S'hbase-rpc-client'
p165
S'falsecz'
p166
S'falsecz/hbase-rpc-client'
p167
tp168
a(S'Akka.Persistence.EventStore'
p169
S'trbngr'
p170
S'trbngr/Akka.Persistence.EventStore'
p171
tp172
a(S'node-tf2'
p173
S'DoctorMcKay'
p174
S'DoctorMcKay/node-tf2'
p175
tp176
a(S'googleplayupdater'
p177
S'NeroBurner'
p178
S'NeroBurner/googleplayupdater'
p179
tp180
a(S'gtfs_realtime_json'
p181
S'harrytruong'
p182
S'harrytruong/gtfs_realtime_json'
p183
tp184
a(S'fender'
p185
S'hassox'
p186
S'hassox/fender'
p187
tp188
a(S'relang'
p189
S'kureikain'
p190
S'kureikain/relang'
p191
tp192
a(S'protoc-gen-gokit'
p193
S'AmandaCameron'
p194
S'AmandaCameron/protoc-gen-gokit'
p195
tp196
a(S'bips'
p197
S'maaku'
p198
S'maaku/bips'
p199
tp200
a(S'loadcaffe'
p201
S'szagoruyko'
p202
S'szagoruyko/loadcaffe'
p203
tp204
a(S'googleapis'
p205
S'google'
p206
S'google/googleapis'
p207
tp208
a(S'yasha'
p209
S'dotabuff'
p210
S'dotabuff/yasha'
p211
tp212
a(S'vector-tile-spec'
p213
S'mapbox'
p214
S'mapbox/vector-tile-spec'
p215
tp216
a(S'idea-plugin-protobuf'
p217
S'nnmatveev'
p218
S'nnmatveev/idea-plugin-protobuf'
p219
tp220
a(S'dota2py'
p221
S'andrewsnowden'
p222
S'andrewsnowden/dota2py'
p223
tp224
a(S'manta'
p225
S'dotabuff'
p226
S'dotabuff/manta'
p227
tp228
a(S'docconv'
p229
S'sajari'
p230
S'sajari/docconv'
p231
tp232
a(S'sange'
p233
S'dotabuff'
p234
S'dotabuff/sange'
p235
tp236
a(S'goser'
p237
S'cloudflare'
p238
S'cloudflare/goser'
p239
tp240
a(S'node-csgo'
p241
S'joshuaferrara'
p242
S'joshuaferrara/node-csgo'
p243
tp244
a(S'go-hbase'
p245
S'Lazyshot'
p246
S'Lazyshot/go-hbase'
p247
tp248
a(S'edith'
p249
S'dschleck'
p250
S'dschleck/edith'
p251
tp252
a(S'instant-espresso'
p253
S'cytsai'
p254
S'cytsai/instant-espresso'
p255
tp256
a(S'node-steam-user'
p257
S'DoctorMcKay'
p258
S'DoctorMcKay/node-steam-user'
p259
tp260
a(S'kinetic-protocol'
p261
S'Kinetic'
p262
S'Kinetic/kinetic-protocol'
p263
tp264
a(S'hbase-rpc-client'
p265
S'falsecz'
p266
S'falsecz/hbase-rpc-client'
p267
tp268
a(S'Akka.Persistence.EventStore'
p269
S'trbngr'
p270
S'trbngr/Akka.Persistence.EventStore'
p271
tp272
a(S'node-tf2'
p273
S'DoctorMcKay'
p274
S'DoctorMcKay/node-tf2'
p275
tp276
a(S'googleplayupdater'
p277
S'NeroBurner'
p278
S'NeroBurner/googleplayupdater'
p279
tp280
a(S'gtfs_realtime_json'
p281
S'harrytruong'
p282
S'harrytruong/gtfs_realtime_json'
p283
tp284
a(S'fender'
p285
S'hassox'
p286
S'hassox/fender'
p287
tp288
a(S'relang'
p289
S'kureikain'
p290
S'kureikain/relang'
p291
tp292
a(S'bips'
p293
S'maaku'
p294
S'maaku/bips'
p295
tp296
a(S'protoc-gen-gokit'
p297
S'AmandaCameron'
p298
S'AmandaCameron/protoc-gen-gokit'
p299
tp300
a.