(lp0
(S'vagrantpress'
p1
S'vagrantpress'
p2
S'vagrantpress/vagrantpress'
p3
tp4
a(S'vagrant-php-dev-box'
p5
S'dirkaholic'
p6
S'dirkaholic/vagrant-php-dev-box'
p7
tp8
a(S'puppet-examples'
p9
S'jordansissel'
p10
S'jordansissel/puppet-examples'
p11
tp12
a(S'puppet-rvm'
p13
S'blt04'
p14
S'blt04/puppet-rvm'
p15
tp16
a(S'symfony2-vagrant'
p17
S'irmantas'
p18
S'irmantas/symfony2-vagrant'
p19
tp20
a(S'vagrant-ubuntu-oracle-xe'
p21
S'hilverd'
p22
S'hilverd/vagrant-ubuntu-oracle-xe'
p23
tp24
a(S'puppet-sandbox'
p25
S'elasticdog'
p26
S'elasticdog/puppet-sandbox'
p27
tp28
a(S'Ghost-Vagrant'
p29
S'TryGhost'
p30
S'TryGhost/Ghost-Vagrant'
p31
tp32
a(S'devbox'
p33
S'Aboalarm'
p34
S'Aboalarm/devbox'
p35
tp36
a(S'hexagonal-symfony'
p37
S'MarcelloDuarte'
p38
S'MarcelloDuarte/hexagonal-symfony'
p39
tp40
a(S'puppet-python'
p41
S'stankevich'
p42
S'stankevich/puppet-python'
p43
tp44
a(S'phalcon-rest'
p45
S'cmoore4'
p46
S'cmoore4/phalcon-rest'
p47
tp48
a(S'puppi'
p49
S'example42'
p50
S'example42/puppi'
p51
tp52
a(S'rails-starter-box'
p53
S'amaia'
p54
S'amaia/rails-starter-box'
p55
tp56
a(S'python-dev-bootstrap'
p57
S'AnthonyNystrom'
p58
S'AnthonyNystrom/python-dev-bootstrap'
p59
tp60
a(S'puppet-rbenv'
p61
S'alup'
p62
S'alup/puppet-rbenv'
p63
tp64
a(S'pentesting-playground'
p65
S'garethr'
p66
S'garethr/pentesting-playground'
p67
tp68
a(S'puppet-jenkins'
p69
S'rtyler'
p70
S'rtyler/puppet-jenkins'
p71
tp72
a(S'wp-vagrant'
p73
S'tierra'
p74
S'tierra/wp-vagrant'
p75
tp76
a(S'system-config'
p77
S'openstack-infra'
p78
S'openstack-infra/system-config'
p79
tp80
a(S'drupal-lxc-vagrant-docker'
p81
S'ricardoamaro'
p82
S'ricardoamaro/drupal-lxc-vagrant-docker'
p83
tp84
a(S'salt-sandbox'
p85
S'elasticdog'
p86
S'elasticdog/salt-sandbox'
p87
tp88
a(S'devstack-vagrant'
p89
S'openstack-dev'
p90
S'openstack-dev/devstack-vagrant'
p91
tp92
a(S'cis-puppet'
p93
S'arildjensen'
p94
S'arildjensen/cis-puppet'
p95
tp96
a(S'puppetlabs-openstack'
p97
S'puppetlabs'
p98
S'puppetlabs/puppetlabs-openstack'
p99
tp100
a(S'puppet-zabbix'
p101
S'dj-wasabi'
p102
S'dj-wasabi/puppet-zabbix'
p103
tp104
a(S'puppet-module-puppetboard'
p105
S'puppet-community'
p106
S'puppet-community/puppet-module-puppetboard'
p107
tp108
a(S'puppet-icinga2'
p109
S'Icinga'
p110
S'Icinga/puppet-icinga2'
p111
tp112
a(S'puppet-php'
p113
S'example42'
p114
S'example42/puppet-php'
p115
tp116
a(S'puppet-sysctl'
p117
S'thias'
p118
S'thias/puppet-sysctl'
p119
tp120
a(S'puppet-php'
p121
S'mayflower'
p122
S'mayflower/puppet-php'
p123
tp124
a(S'puppet-graphite'
p125
S'echocat'
p126
S'echocat/puppet-graphite'
p127
tp128
a(S'puppet-logstashforwarder'
p129
S'elastic'
p130
S'elastic/puppet-logstashforwarder'
p131
tp132
a(S'joomla-vagrant'
p133
S'joomlatools'
p134
S'joomlatools/joomla-vagrant'
p135
tp136
a(S'vagrantpress'
p137
S'vagrantpress'
p138
S'vagrantpress/vagrantpress'
p139
tp140
a(S'vagrant-php-dev-box'
p141
S'dirkaholic'
p142
S'dirkaholic/vagrant-php-dev-box'
p143
tp144
a(S'puppet-examples'
p145
S'jordansissel'
p146
S'jordansissel/puppet-examples'
p147
tp148
a(S'puppet-rvm'
p149
S'blt04'
p150
S'blt04/puppet-rvm'
p151
tp152
a(S'symfony2-vagrant'
p153
S'irmantas'
p154
S'irmantas/symfony2-vagrant'
p155
tp156
a(S'vagrant-ubuntu-oracle-xe'
p157
S'hilverd'
p158
S'hilverd/vagrant-ubuntu-oracle-xe'
p159
tp160
a(S'puppet-sandbox'
p161
S'elasticdog'
p162
S'elasticdog/puppet-sandbox'
p163
tp164
a(S'Ghost-Vagrant'
p165
S'TryGhost'
p166
S'TryGhost/Ghost-Vagrant'
p167
tp168
a(S'devbox'
p169
S'Aboalarm'
p170
S'Aboalarm/devbox'
p171
tp172
a(S'hexagonal-symfony'
p173
S'MarcelloDuarte'
p174
S'MarcelloDuarte/hexagonal-symfony'
p175
tp176
a(S'puppet-python'
p177
S'stankevich'
p178
S'stankevich/puppet-python'
p179
tp180
a(S'phalcon-rest'
p181
S'cmoore4'
p182
S'cmoore4/phalcon-rest'
p183
tp184
a(S'puppi'
p185
S'example42'
p186
S'example42/puppi'
p187
tp188
a(S'rails-starter-box'
p189
S'amaia'
p190
S'amaia/rails-starter-box'
p191
tp192
a(S'python-dev-bootstrap'
p193
S'AnthonyNystrom'
p194
S'AnthonyNystrom/python-dev-bootstrap'
p195
tp196
a(S'puppet-rbenv'
p197
S'alup'
p198
S'alup/puppet-rbenv'
p199
tp200
a(S'symfony2-vagrant'
p201
S'irmantas'
p202
S'irmantas/symfony2-vagrant'
p203
tp204
a(S'system-config'
p205
S'openstack-infra'
p206
S'openstack-infra/system-config'
p207
tp208
a(S'puppet-apache'
p209
S'example42'
p210
S'example42/puppet-apache'
p211
tp212
a(S'puppet-graphite'
p213
S'echocat'
p214
S'echocat/puppet-graphite'
p215
tp216
a(S'puppet-logstashforwarder'
p217
S'elastic'
p218
S'elastic/puppet-logstashforwarder'
p219
tp220
a(S'puppet-php'
p221
S'example42'
p222
S'example42/puppet-php'
p223
tp224
a(S'puppet-module-puppetboard'
p225
S'puppet-community'
p226
S'puppet-community/puppet-module-puppetboard'
p227
tp228
a(S'cis-puppet'
p229
S'arildjensen'
p230
S'arildjensen/cis-puppet'
p231
tp232
a(S'puppet-yum'
p233
S'example42'
p234
S'example42/puppet-yum'
p235
tp236
a(S'vagrantpress'
p237
S'vagrantpress'
p238
S'vagrantpress/vagrantpress'
p239
tp240
a(S'vagrant-php-dev-box'
p241
S'dirkaholic'
p242
S'dirkaholic/vagrant-php-dev-box'
p243
tp244
a(S'puppet-examples'
p245
S'jordansissel'
p246
S'jordansissel/puppet-examples'
p247
tp248
a(S'puppet-rvm'
p249
S'blt04'
p250
S'blt04/puppet-rvm'
p251
tp252
a(S'vagrant-ubuntu-oracle-xe'
p253
S'hilverd'
p254
S'hilverd/vagrant-ubuntu-oracle-xe'
p255
tp256
a(S'puppet-sandbox'
p257
S'elasticdog'
p258
S'elasticdog/puppet-sandbox'
p259
tp260
a(S'Ghost-Vagrant'
p261
S'TryGhost'
p262
S'TryGhost/Ghost-Vagrant'
p263
tp264
a(S'devbox'
p265
S'Aboalarm'
p266
S'Aboalarm/devbox'
p267
tp268
a(S'hexagonal-symfony'
p269
S'MarcelloDuarte'
p270
S'MarcelloDuarte/hexagonal-symfony'
p271
tp272
a(S'puppet-python'
p273
S'stankevich'
p274
S'stankevich/puppet-python'
p275
tp276
a(S'phalcon-rest'
p277
S'cmoore4'
p278
S'cmoore4/phalcon-rest'
p279
tp280
a(S'puppi'
p281
S'example42'
p282
S'example42/puppi'
p283
tp284
a(S'rails-starter-box'
p285
S'amaia'
p286
S'amaia/rails-starter-box'
p287
tp288
a(S'python-dev-bootstrap'
p289
S'AnthonyNystrom'
p290
S'AnthonyNystrom/python-dev-bootstrap'
p291
tp292
a(S'puppet-rbenv'
p293
S'alup'
p294
S'alup/puppet-rbenv'
p295
tp296
a(S'pentesting-playground'
p297
S'garethr'
p298
S'garethr/pentesting-playground'
p299
tp300
a.