(lp0
(S'purescript-halogen'
p1
S'slamdata'
p2
S'slamdata/purescript-halogen'
p3
tp4
a(S'cube-composer'
p5
S'sharkdp'
p6
S'sharkdp/cube-composer'
p7
tp8
a(S'purescript-react'
p9
S'purescript-contrib'
p10
S'purescript-contrib/purescript-react'
p11
tp12
a(S'purescript-signal'
p13
S'bodil'
p14
S'bodil/purescript-signal'
p15
tp16
a(S'purescript-book'
p17
S'paf31'
p18
S'paf31/purescript-book'
p19
tp20
a(S'purescript-thermite'
p21
S'paf31'
p22
S'paf31/purescript-thermite'
p23
tp24
a(S'slamdata-nodewebkit'
p25
S'slamdata'
p26
S'slamdata/slamdata-nodewebkit'
p27
tp28
a(S'slamdata'
p29
S'slamdata'
p30
S'slamdata/slamdata'
p31
tp32
a(S'purescript-is-magic'
p33
S'bodil'
p34
S'bodil/purescript-is-magic'
p35
tp36
a(S'purescript-optic-ui'
p37
S'zrho'
p38
S'zrho/purescript-optic-ui'
p39
tp40
a(S'purescript-aff'
p41
S'slamdata'
p42
S'slamdata/purescript-aff'
p43
tp44
a(S'purescript-in-purescript'
p45
S'purescript'
p46
S'purescript/purescript-in-purescript'
p47
tp48
a(S'purescript-express'
p49
S'dancingrobot84'
p50
S'dancingrobot84/purescript-express'
p51
tp52
a(S'purescript-asteroids'
p53
S'waterson'
p54
S'waterson/purescript-asteroids'
p55
tp56
a(S'purescript-demo-mario'
p57
S'michaelficarra'
p58
S'michaelficarra/purescript-demo-mario'
p59
tp60
a(S'purescript-simple-dom'
p61
S'aktowns'
p62
S'aktowns/purescript-simple-dom'
p63
tp64
a(S'purescript-d3'
p65
S'pelotom'
p66
S'pelotom/purescript-d3'
p67
tp68
a(S'purescript-lens'
p69
S'purescript-contrib'
p70
S'purescript-contrib/purescript-lens'
p71
tp72
a(S'purescript-virtual-dom'
p73
S'garyb'
p74
S'garyb/purescript-virtual-dom'
p75
tp76
a(S'gulp-purescript'
p77
S'purescript-contrib'
p78
S'purescript-contrib/gulp-purescript'
p79
tp80
a(S'purescript-thermite-todomvc'
p81
S'functorial'
p82
S'functorial/purescript-thermite-todomvc'
p83
tp84
a(S'purescript-quickcheck'
p85
S'purescript'
p86
S'purescript/purescript-quickcheck'
p87
tp88
a(S'purescript-smolder'
p89
S'bodil'
p90
S'bodil/purescript-smolder'
p91
tp92
a(S'purescript-parsing'
p93
S'purescript-contrib'
p94
S'purescript-contrib/purescript-parsing'
p95
tp96
a(S'bro'
p97
S'dancingrobot84'
p98
S'dancingrobot84/bro'
p99
tp100
a(S'purescript-halogen'
p101
S'slamdata'
p102
S'slamdata/purescript-halogen'
p103
tp104
a(S'cube-composer'
p105
S'sharkdp'
p106
S'sharkdp/cube-composer'
p107
tp108
a(S'purescript-react'
p109
S'purescript-contrib'
p110
S'purescript-contrib/purescript-react'
p111
tp112
a(S'purescript-signal'
p113
S'bodil'
p114
S'bodil/purescript-signal'
p115
tp116
a(S'purescript-book'
p117
S'paf31'
p118
S'paf31/purescript-book'
p119
tp120
a(S'purescript-thermite'
p121
S'paf31'
p122
S'paf31/purescript-thermite'
p123
tp124
a(S'slamdata-nodewebkit'
p125
S'slamdata'
p126
S'slamdata/slamdata-nodewebkit'
p127
tp128
a(S'slamdata'
p129
S'slamdata'
p130
S'slamdata/slamdata'
p131
tp132
a(S'purescript-is-magic'
p133
S'bodil'
p134
S'bodil/purescript-is-magic'
p135
tp136
a(S'purescript-optic-ui'
p137
S'zrho'
p138
S'zrho/purescript-optic-ui'
p139
tp140
a(S'purescript-aff'
p141
S'slamdata'
p142
S'slamdata/purescript-aff'
p143
tp144
a(S'purescript-express'
p145
S'dancingrobot84'
p146
S'dancingrobot84/purescript-express'
p147
tp148
a(S'purescript-in-purescript'
p149
S'purescript'
p150
S'purescript/purescript-in-purescript'
p151
tp152
a(S'purescript-asteroids'
p153
S'waterson'
p154
S'waterson/purescript-asteroids'
p155
tp156
a(S'purescript-demo-mario'
p157
S'michaelficarra'
p158
S'michaelficarra/purescript-demo-mario'
p159
tp160
a(S'purescript-d3'
p161
S'pelotom'
p162
S'pelotom/purescript-d3'
p163
tp164
a(S'purescript-simple-dom'
p165
S'aktowns'
p166
S'aktowns/purescript-simple-dom'
p167
tp168
a(S'purescript-lens'
p169
S'purescript-contrib'
p170
S'purescript-contrib/purescript-lens'
p171
tp172
a(S'purescript-virtual-dom'
p173
S'garyb'
p174
S'garyb/purescript-virtual-dom'
p175
tp176
a(S'gulp-purescript'
p177
S'purescript-contrib'
p178
S'purescript-contrib/gulp-purescript'
p179
tp180
a(S'purescript-thermite-todomvc'
p181
S'functorial'
p182
S'functorial/purescript-thermite-todomvc'
p183
tp184
a(S'purescript-quickcheck'
p185
S'purescript'
p186
S'purescript/purescript-quickcheck'
p187
tp188
a(S'purescript-smolder'
p189
S'bodil'
p190
S'bodil/purescript-smolder'
p191
tp192
a(S'purescript-parsing'
p193
S'purescript-contrib'
p194
S'purescript-contrib/purescript-parsing'
p195
tp196
a(S'purescript-angular'
p197
S'ethul'
p198
S'ethul/purescript-angular'
p199
tp200
a(S'purescript-halogen'
p201
S'slamdata'
p202
S'slamdata/purescript-halogen'
p203
tp204
a(S'purescript-react'
p205
S'purescript-contrib'
p206
S'purescript-contrib/purescript-react'
p207
tp208
a(S'slamdata'
p209
S'slamdata'
p210
S'slamdata/slamdata'
p211
tp212
a(S'cube-composer'
p213
S'sharkdp'
p214
S'sharkdp/cube-composer'
p215
tp216
a(S'purescript-signal'
p217
S'bodil'
p218
S'bodil/purescript-signal'
p219
tp220
a(S'purescript-book'
p221
S'paf31'
p222
S'paf31/purescript-book'
p223
tp224
a(S'purescript-thermite'
p225
S'paf31'
p226
S'paf31/purescript-thermite'
p227
tp228
a(S'slamdata-nodewebkit'
p229
S'slamdata'
p230
S'slamdata/slamdata-nodewebkit'
p231
tp232
a(S'purescript-is-magic'
p233
S'bodil'
p234
S'bodil/purescript-is-magic'
p235
tp236
a(S'purescript-optic-ui'
p237
S'zrho'
p238
S'zrho/purescript-optic-ui'
p239
tp240
a(S'purescript-aff'
p241
S'slamdata'
p242
S'slamdata/purescript-aff'
p243
tp244
a(S'purescript-in-purescript'
p245
S'purescript'
p246
S'purescript/purescript-in-purescript'
p247
tp248
a(S'purescript-express'
p249
S'dancingrobot84'
p250
S'dancingrobot84/purescript-express'
p251
tp252
a(S'purescript-asteroids'
p253
S'waterson'
p254
S'waterson/purescript-asteroids'
p255
tp256
a(S'purescript-demo-mario'
p257
S'michaelficarra'
p258
S'michaelficarra/purescript-demo-mario'
p259
tp260
a(S'purescript-simple-dom'
p261
S'aktowns'
p262
S'aktowns/purescript-simple-dom'
p263
tp264
a(S'purescript-d3'
p265
S'pelotom'
p266
S'pelotom/purescript-d3'
p267
tp268
a(S'purescript-lens'
p269
S'purescript-contrib'
p270
S'purescript-contrib/purescript-lens'
p271
tp272
a(S'purescript-virtual-dom'
p273
S'garyb'
p274
S'garyb/purescript-virtual-dom'
p275
tp276
a(S'gulp-purescript'
p277
S'purescript-contrib'
p278
S'purescript-contrib/gulp-purescript'
p279
tp280
a(S'purescript-thermite-todomvc'
p281
S'functorial'
p282
S'functorial/purescript-thermite-todomvc'
p283
tp284
a(S'purescript-quickcheck'
p285
S'purescript'
p286
S'purescript/purescript-quickcheck'
p287
tp288
a(S'purescript-smolder'
p289
S'bodil'
p290
S'bodil/purescript-smolder'
p291
tp292
a(S'purescript-parsing'
p293
S'purescript-contrib'
p294
S'purescript-contrib/purescript-parsing'
p295
tp296
a(S'purescript-angular'
p297
S'ethul'
p298
S'ethul/purescript-angular'
p299
tp300
a.