(lp0
(S'rjlib'
p1
S'rjdj'
p2
S'rjdj/rjlib'
p3
tp4
a(S'Making-Musical-Apps'
p5
S'nettoyeurny'
p6
S'nettoyeurny/Making-Musical-Apps'
p7
tp8
a(S'mmb'
p9
S'dotmmb'
p10
S'dotmmb/mmb'
p11
tp12
a(S'Text-to-music'
p13
S'AJFaraday'
p14
S'AJFaraday/Text-to-music'
p15
tp16
a(S'defaultxrs-pd-abstractions'
p17
S'defaultxr'
p18
S'defaultxr/defaultxrs-pd-abstractions'
p19
tp20
a(S'mtl'
p21
S'patricksebastien'
p22
S'patricksebastien/mtl'
p23
tp24
a(S'PdDroidParty'
p25
S'chr15m'
p26
S'chr15m/PdDroidParty'
p27
tp28
a(S'dmach'
p29
S'simonnorberg'
p30
S'simonnorberg/dmach'
p31
tp32
a(S'rpieffectbox'
p33
S'doitnowlabs'
p34
S'doitnowlabs/rpieffectbox'
p35
tp36
a(S'PlasmaSound'
p37
S'rjmarsan'
p38
S'rjmarsan/PlasmaSound'
p39
tp40
a(S'netpd'
p41
S'reduzent'
p42
S'reduzent/netpd'
p43
tp44
a(S'SyncJams'
p45
S'chr15m'
p46
S'chr15m/SyncJams'
p47
tp48
a(S'touche'
p49
S'madlabdk'
p50
S'madlabdk/touche'
p51
tp52
a(S'Puredata-abstractions'
p53
S'residuum'
p54
S'residuum/Puredata-abstractions'
p55
tp56
a(S'pdx7'
p57
S'footils'
p58
S'footils/pdx7'
p59
tp60
a(S'physigs'
p61
S'footils'
p62
S'footils/physigs'
p63
tp64
a(S'Pd-Dom'
p65
S'eerne'
p66
S'eerne/Pd-Dom'
p67
tp68
a(S'PureDataLibrary'
p69
S'halfbyte'
p70
S'halfbyte/PureDataLibrary'
p71
tp72
a(S'BangYourHead'
p73
S'danomatika'
p74
S'danomatika/BangYourHead'
p75
tp76
a(S'Radio-Patches'
p77
S'rumblesan'
p78
S'rumblesan/Radio-Patches'
p79
tp80
a(S'AudioVideoPatches'
p81
S'mxa'
p82
S'mxa/AudioVideoPatches'
p83
tp84
a(S'head-pose-estimation'
p85
S'kronihias'
p86
S'kronihias/head-pose-estimation'
p87
tp88
a(S'protodrom'
p89
S's3g'
p90
S's3g/protodrom'
p91
tp92
a(S'mimosalib'
p93
S'glerm'
p94
S'glerm/mimosalib'
p95
tp96
a(S'Pulsum-Plantae'
p97
S'Lessnullvoid'
p98
S'Lessnullvoid/Pulsum-Plantae'
p99
tp100
a(S'rjlib'
p101
S'rjdj'
p102
S'rjdj/rjlib'
p103
tp104
a(S'Making-Musical-Apps'
p105
S'nettoyeurny'
p106
S'nettoyeurny/Making-Musical-Apps'
p107
tp108
a(S'mmb'
p109
S'dotmmb'
p110
S'dotmmb/mmb'
p111
tp112
a(S'Text-to-music'
p113
S'AJFaraday'
p114
S'AJFaraday/Text-to-music'
p115
tp116
a(S'defaultxrs-pd-abstractions'
p117
S'defaultxr'
p118
S'defaultxr/defaultxrs-pd-abstractions'
p119
tp120
a(S'mtl'
p121
S'patricksebastien'
p122
S'patricksebastien/mtl'
p123
tp124
a(S'PdDroidParty'
p125
S'chr15m'
p126
S'chr15m/PdDroidParty'
p127
tp128
a(S'dmach'
p129
S'simonnorberg'
p130
S'simonnorberg/dmach'
p131
tp132
a(S'rpieffectbox'
p133
S'doitnowlabs'
p134
S'doitnowlabs/rpieffectbox'
p135
tp136
a(S'PlasmaSound'
p137
S'rjmarsan'
p138
S'rjmarsan/PlasmaSound'
p139
tp140
a(S'netpd'
p141
S'reduzent'
p142
S'reduzent/netpd'
p143
tp144
a(S'SyncJams'
p145
S'chr15m'
p146
S'chr15m/SyncJams'
p147
tp148
a(S'touche'
p149
S'madlabdk'
p150
S'madlabdk/touche'
p151
tp152
a(S'Puredata-abstractions'
p153
S'residuum'
p154
S'residuum/Puredata-abstractions'
p155
tp156
a(S'pdx7'
p157
S'footils'
p158
S'footils/pdx7'
p159
tp160
a(S'physigs'
p161
S'footils'
p162
S'footils/physigs'
p163
tp164
a(S'Pd-Dom'
p165
S'eerne'
p166
S'eerne/Pd-Dom'
p167
tp168
a(S'PureDataLibrary'
p169
S'halfbyte'
p170
S'halfbyte/PureDataLibrary'
p171
tp172
a(S'BangYourHead'
p173
S'danomatika'
p174
S'danomatika/BangYourHead'
p175
tp176
a(S'Radio-Patches'
p177
S'rumblesan'
p178
S'rumblesan/Radio-Patches'
p179
tp180
a(S'AudioVideoPatches'
p181
S'mxa'
p182
S'mxa/AudioVideoPatches'
p183
tp184
a(S'head-pose-estimation'
p185
S'kronihias'
p186
S'kronihias/head-pose-estimation'
p187
tp188
a(S'protodrom'
p189
S's3g'
p190
S's3g/protodrom'
p191
tp192
a(S'mimosalib'
p193
S'glerm'
p194
S'glerm/mimosalib'
p195
tp196
a(S'Pulsum-Plantae'
p197
S'Lessnullvoid'
p198
S'Lessnullvoid/Pulsum-Plantae'
p199
tp200
a(S'rjlib'
p201
S'rjdj'
p202
S'rjdj/rjlib'
p203
tp204
a(S'Making-Musical-Apps'
p205
S'nettoyeurny'
p206
S'nettoyeurny/Making-Musical-Apps'
p207
tp208
a(S'mmb'
p209
S'dotmmb'
p210
S'dotmmb/mmb'
p211
tp212
a(S'Text-to-music'
p213
S'AJFaraday'
p214
S'AJFaraday/Text-to-music'
p215
tp216
a(S'defaultxrs-pd-abstractions'
p217
S'defaultxr'
p218
S'defaultxr/defaultxrs-pd-abstractions'
p219
tp220
a(S'mtl'
p221
S'patricksebastien'
p222
S'patricksebastien/mtl'
p223
tp224
a(S'PdDroidParty'
p225
S'chr15m'
p226
S'chr15m/PdDroidParty'
p227
tp228
a(S'dmach'
p229
S'simonnorberg'
p230
S'simonnorberg/dmach'
p231
tp232
a(S'rpieffectbox'
p233
S'doitnowlabs'
p234
S'doitnowlabs/rpieffectbox'
p235
tp236
a(S'PlasmaSound'
p237
S'rjmarsan'
p238
S'rjmarsan/PlasmaSound'
p239
tp240
a(S'netpd'
p241
S'reduzent'
p242
S'reduzent/netpd'
p243
tp244
a(S'SyncJams'
p245
S'chr15m'
p246
S'chr15m/SyncJams'
p247
tp248
a(S'touche'
p249
S'madlabdk'
p250
S'madlabdk/touche'
p251
tp252
a(S'Puredata-abstractions'
p253
S'residuum'
p254
S'residuum/Puredata-abstractions'
p255
tp256
a(S'pdx7'
p257
S'footils'
p258
S'footils/pdx7'
p259
tp260
a(S'physigs'
p261
S'footils'
p262
S'footils/physigs'
p263
tp264
a(S'Pd-Dom'
p265
S'eerne'
p266
S'eerne/Pd-Dom'
p267
tp268
a(S'PureDataLibrary'
p269
S'halfbyte'
p270
S'halfbyte/PureDataLibrary'
p271
tp272
a(S'BangYourHead'
p273
S'danomatika'
p274
S'danomatika/BangYourHead'
p275
tp276
a(S'Radio-Patches'
p277
S'rumblesan'
p278
S'rumblesan/Radio-Patches'
p279
tp280
a(S'AudioVideoPatches'
p281
S'mxa'
p282
S'mxa/AudioVideoPatches'
p283
tp284
a(S'head-pose-estimation'
p285
S'kronihias'
p286
S'kronihias/head-pose-estimation'
p287
tp288
a(S'protodrom'
p289
S's3g'
p290
S's3g/protodrom'
p291
tp292
a(S'mimosalib'
p293
S'glerm'
p294
S'glerm/mimosalib'
p295
tp296
a(S'Pulsum-Plantae'
p297
S'Lessnullvoid'
p298
S'Lessnullvoid/Pulsum-Plantae'
p299
tp300
a.