(lp0
(S'fiftyshades'
p1
S'lisawray'
p2
S'lisawray/fiftyshades'
p3
tp4
a(S'pebble_firmware_patches'
p5
S'MarSoft'
p6
S'MarSoft/pebble_firmware_patches'
p7
tp8
a(S'D3hex'
p9
S'Dadido3'
p10
S'Dadido3/D3hex'
p11
tp12
a(S'HAMKO5'
p13
S'tsiktsiris'
p14
S'tsiktsiris/HAMKO5'
p15
tp16
a(S'mutter'
p17
S'eaton'
p18
S'eaton/mutter'
p19
tp20
a(S'afk-operator'
p21
S'bgeraghty'
p22
S'bgeraghty/afk-operator'
p23
tp24
a(S'compfuzor'
p25
S'rektide'
p26
S'rektide/compfuzor'
p27
tp28
a(S'D3classic'
p29
S'umby24'
p30
S'umby24/D3classic'
p31
tp32
a(S'emdr1986x-std-per-lib-doc'
p33
S'eldarkg'
p34
S'eldarkg/emdr1986x-std-per-lib-doc'
p35
tp36
a(S'BattleofSpades'
p37
S'xtreme8000'
p38
S'xtreme8000/BattleofSpades'
p39
tp40
a(S'WebSocket_Server'
p41
S'Dadido3'
p42
S'Dadido3/WebSocket_Server'
p43
tp44
a(S'iprtgn'
p45
S'deseven'
p46
S'deseven/iprtgn'
p47
tp48
a(S'serverD'
p49
S'stonedDiscord'
p50
S'stonedDiscord/serverD'
p51
tp52
a(S'planets'
p53
S'deseven'
p54
S'deseven/planets'
p55
tp56
a(S'PureBasic-Sources'
p57
S'aistun'
p58
S'aistun/PureBasic-Sources'
p59
tp60
a(S'WSN_TestApp1'
p61
S'KimiRaikking'
p62
S'KimiRaikking/WSN_TestApp1'
p63
tp64
a(S'purebasic-extension-for-adobe-air'
p65
S'kemsky'
p66
S'kemsky/purebasic-extension-for-adobe-air'
p67
tp68
a(S'LockResizeGadget'
p69
S'falsam'
p70
S'falsam/LockResizeGadget'
p71
tp72
a(S'ciphersaber'
p73
S'nueh'
p74
S'nueh/ciphersaber'
p75
tp76
a(S'D3classic'
p77
S'Dadido3'
p78
S'Dadido3/D3classic'
p79
tp80
a(S'pbsamples'
p81
S'deseven'
p82
S'deseven/pbsamples'
p83
tp84
a(S'pb-win-notify'
p85
S'deseven'
p86
S'deseven/pb-win-notify'
p87
tp88
a(S'TFMM'
p89
S'AlexanderNaehring'
p90
S'AlexanderNaehring/TFMM'
p91
tp92
a(S'Slippery-Clip'
p93
S'Guevara-chan'
p94
S'Guevara-chan/Slippery-Clip'
p95
tp96
a(S'copter_emb_f1'
p97
S'vasilya93'
p98
S'vasilya93/copter_emb_f1'
p99
tp100
a(S'fiftyshades'
p101
S'lisawray'
p102
S'lisawray/fiftyshades'
p103
tp104
a(S'pebble_firmware_patches'
p105
S'MarSoft'
p106
S'MarSoft/pebble_firmware_patches'
p107
tp108
a(S'D3hex'
p109
S'Dadido3'
p110
S'Dadido3/D3hex'
p111
tp112
a(S'HAMKO5'
p113
S'tsiktsiris'
p114
S'tsiktsiris/HAMKO5'
p115
tp116
a(S'mutter'
p117
S'eaton'
p118
S'eaton/mutter'
p119
tp120
a(S'afk-operator'
p121
S'bgeraghty'
p122
S'bgeraghty/afk-operator'
p123
tp124
a(S'compfuzor'
p125
S'rektide'
p126
S'rektide/compfuzor'
p127
tp128
a(S'D3classic'
p129
S'umby24'
p130
S'umby24/D3classic'
p131
tp132
a(S'emdr1986x-std-per-lib-doc'
p133
S'eldarkg'
p134
S'eldarkg/emdr1986x-std-per-lib-doc'
p135
tp136
a(S'BattleofSpades'
p137
S'xtreme8000'
p138
S'xtreme8000/BattleofSpades'
p139
tp140
a(S'WebSocket_Server'
p141
S'Dadido3'
p142
S'Dadido3/WebSocket_Server'
p143
tp144
a(S'iprtgn'
p145
S'deseven'
p146
S'deseven/iprtgn'
p147
tp148
a(S'serverD'
p149
S'stonedDiscord'
p150
S'stonedDiscord/serverD'
p151
tp152
a(S'planets'
p153
S'deseven'
p154
S'deseven/planets'
p155
tp156
a(S'PureBasic-Sources'
p157
S'aistun'
p158
S'aistun/PureBasic-Sources'
p159
tp160
a(S'WSN_TestApp1'
p161
S'KimiRaikking'
p162
S'KimiRaikking/WSN_TestApp1'
p163
tp164
a(S'purebasic-extension-for-adobe-air'
p165
S'kemsky'
p166
S'kemsky/purebasic-extension-for-adobe-air'
p167
tp168
a(S'LockResizeGadget'
p169
S'falsam'
p170
S'falsam/LockResizeGadget'
p171
tp172
a(S'ciphersaber'
p173
S'nueh'
p174
S'nueh/ciphersaber'
p175
tp176
a(S'D3classic'
p177
S'Dadido3'
p178
S'Dadido3/D3classic'
p179
tp180
a(S'pbsamples'
p181
S'deseven'
p182
S'deseven/pbsamples'
p183
tp184
a(S'pb-win-notify'
p185
S'deseven'
p186
S'deseven/pb-win-notify'
p187
tp188
a(S'TFMM'
p189
S'AlexanderNaehring'
p190
S'AlexanderNaehring/TFMM'
p191
tp192
a(S'Slippery-Clip'
p193
S'Guevara-chan'
p194
S'Guevara-chan/Slippery-Clip'
p195
tp196
a(S'copter_emb_f1'
p197
S'vasilya93'
p198
S'vasilya93/copter_emb_f1'
p199
tp200
a.