(lp0
(S'mimic'
p1
S'reinderien'
p2
S'reinderien/mimic'
p3
tp4
a(S'letsencrypt'
p5
S'letsencrypt'
p6
S'letsencrypt/letsencrypt'
p7
tp8
a(S'gping'
p9
S'orf'
p10
S'orf/gping'
p11
tp12
a(S'whatsappcli'
p13
S'KarimJedda'
p14
S'KarimJedda/whatsappcli'
p15
tp16
a(S'httpie'
p17
S'jkbrzt'
p18
S'jkbrzt/httpie'
p19
tp20
a(S'Legofy'
p21
S'JuanPotato'
p22
S'JuanPotato/Legofy'
p23
tp24
a(S'whatsapp-bot-seed'
p25
S'joaoricardo000'
p26
S'joaoricardo000/whatsapp-bot-seed'
p27
tp28
a(S'flask'
p29
S'mitsuhiko'
p30
S'mitsuhiko/flask'
p31
tp32
a(S'scikit-learn'
p33
S'scikit-learn'
p34
S'scikit-learn/scikit-learn'
p35
tp36
a(S'youtube-dl'
p37
S'rg3'
p38
S'rg3/youtube-dl'
p39
tp40
a(S'chromote'
p41
S'iiSeymour'
p42
S'iiSeymour/chromote'
p43
tp44
a(S'awesome-python'
p45
S'vinta'
p46
S'vinta/awesome-python'
p47
tp48
a(S'ansible'
p49
S'ansible'
p50
S'ansible/ansible'
p51
tp52
a(S'hosts'
p53
S'racaljk'
p54
S'racaljk/hosts'
p55
tp56
a(S'django'
p57
S'django'
p58
S'django/django'
p59
tp60
a(S'scrapy'
p61
S'scrapy'
p62
S'scrapy/scrapy'
p63
tp64
a(S'YouCompleteMe'
p65
S'Valloric'
p66
S'Valloric/YouCompleteMe'
p67
tp68
a(S'awesome-aws'
p69
S'donnemartin'
p70
S'donnemartin/awesome-aws'
p71
tp72
a(S'home-assistant'
p73
S'balloob'
p74
S'balloob/home-assistant'
p75
tp76
a(S'MagicPython'
p77
S'MagicStack'
p78
S'MagicStack/MagicPython'
p79
tp80
a(S'arguman.org'
p81
S'arguman'
p82
S'arguman/arguman.org'
p83
tp84
a(S'requests'
p85
S'kennethreitz'
p86
S'kennethreitz/requests'
p87
tp88
a(S'dnsteal'
p89
S'm57'
p90
S'm57/dnsteal'
p91
tp92
a(S'odoo'
p93
S'odoo'
p94
S'odoo/odoo'
p95
tp96
a(S'shadowsocks'
p97
S'shadowsocks'
p98
S'shadowsocks/shadowsocks'
p99
tp100
a(S'mimic'
p101
S'reinderien'
p102
S'reinderien/mimic'
p103
tp104
a(S'letsencrypt'
p105
S'letsencrypt'
p106
S'letsencrypt/letsencrypt'
p107
tp108
a(S'httpie'
p109
S'jkbrzt'
p110
S'jkbrzt/httpie'
p111
tp112
a(S'dev-setup'
p113
S'donnemartin'
p114
S'donnemartin/dev-setup'
p115
tp116
a(S'MagicPython'
p117
S'MagicStack'
p118
S'MagicStack/MagicPython'
p119
tp120
a(S'whatsappcli'
p121
S'KarimJedda'
p122
S'KarimJedda/whatsappcli'
p123
tp124
a(S'gping'
p125
S'orf'
p126
S'orf/gping'
p127
tp128
a(S'awesome-aws'
p129
S'donnemartin'
p130
S'donnemartin/awesome-aws'
p131
tp132
a(S'ansible'
p133
S'ansible'
p134
S'ansible/ansible'
p135
tp136
a(S'flask'
p137
S'mitsuhiko'
p138
S'mitsuhiko/flask'
p139
tp140
a(S'awesome-python'
p141
S'vinta'
p142
S'vinta/awesome-python'
p143
tp144
a(S'hosts'
p145
S'racaljk'
p146
S'racaljk/hosts'
p147
tp148
a(S'youtube-dl'
p149
S'rg3'
p150
S'rg3/youtube-dl'
p151
tp152
a(S'scrapy'
p153
S'scrapy'
p154
S'scrapy/scrapy'
p155
tp156
a(S'scikit-learn'
p157
S'scikit-learn'
p158
S'scikit-learn/scikit-learn'
p159
tp160
a(S'django'
p161
S'django'
p162
S'django/django'
p163
tp164
a(S'requests'
p165
S'kennethreitz'
p166
S'kennethreitz/requests'
p167
tp168
a(S'reverse'
p169
S'joelpx'
p170
S'joelpx/reverse'
p171
tp172
a(S'arguman.org'
p173
S'arguman'
p174
S'arguman/arguman.org'
p175
tp176
a(S'healthchecks'
p177
S'healthchecks'
p178
S'healthchecks/healthchecks'
p179
tp180
a(S'pytci'
p181
S'cheery'
p182
S'cheery/pytci'
p183
tp184
a(S'yowsup'
p185
S'tgalal'
p186
S'tgalal/yowsup'
p187
tp188
a(S'dnsteal'
p189
S'm57'
p190
S'm57/dnsteal'
p191
tp192
a(S'pyspider'
p193
S'binux'
p194
S'binux/pyspider'
p195
tp196
a(S'shadowsocks'
p197
S'shadowsocks'
p198
S'shadowsocks/shadowsocks'
p199
tp200
a(S'zulip'
p201
S'zulip'
p202
S'zulip/zulip'
p203
tp204
a(S'mimic'
p205
S'reinderien'
p206
S'reinderien/mimic'
p207
tp208
a(S'letsencrypt'
p209
S'letsencrypt'
p210
S'letsencrypt/letsencrypt'
p211
tp212
a(S'awesome-aws'
p213
S'donnemartin'
p214
S'donnemartin/awesome-aws'
p215
tp216
a(S'httpie'
p217
S'jkbrzt'
p218
S'jkbrzt/httpie'
p219
tp220
a(S'Instant-Music-Downloader'
p221
S'yask123'
p222
S'yask123/Instant-Music-Downloader'
p223
tp224
a(S'awesome-python'
p225
S'vinta'
p226
S'vinta/awesome-python'
p227
tp228
a(S'slouchy'
p229
S'pyskell'
p230
S'pyskell/slouchy'
p231
tp232
a(S'ansible'
p233
S'ansible'
p234
S'ansible/ansible'
p235
tp236
a(S'st2'
p237
S'StackStorm'
p238
S'StackStorm/st2'
p239
tp240
a(S'youtube-dl'
p241
S'rg3'
p242
S'rg3/youtube-dl'
p243
tp244
a(S'dev-setup'
p245
S'donnemartin'
p246
S'donnemartin/dev-setup'
p247
tp248
a(S'dnsteal'
p249
S'm57'
p250
S'm57/dnsteal'
p251
tp252
a(S'flask'
p253
S'mitsuhiko'
p254
S'mitsuhiko/flask'
p255
tp256
a(S'ohmu'
p257
S'paul-nechifor'
p258
S'paul-nechifor/ohmu'
p259
tp260
a(S'django'
p261
S'django'
p262
S'django/django'
p263
tp264
a(S'scrapy'
p265
S'scrapy'
p266
S'scrapy/scrapy'
p267
tp268
a(S'MagicPython'
p269
S'MagicStack'
p270
S'MagicStack/MagicPython'
p271
tp272
a(S'scikit-learn'
p273
S'scikit-learn'
p274
S'scikit-learn/scikit-learn'
p275
tp276
a(S'requests'
p277
S'kennethreitz'
p278
S'kennethreitz/requests'
p279
tp280
a(S'whatsappcli'
p281
S'KarimJedda'
p282
S'KarimJedda/whatsappcli'
p283
tp284
a(S'gping'
p285
S'orf'
p286
S'orf/gping'
p287
tp288
a(S'hosts'
p289
S'racaljk'
p290
S'racaljk/hosts'
p291
tp292
a(S'sync-engine'
p293
S'nylas'
p294
S'nylas/sync-engine'
p295
tp296
a(S'shadowsocks'
p297
S'shadowsocks'
p298
S'shadowsocks/shadowsocks'
p299
tp300
a.