(lp0
(S'papyros'
p1
S'papyros'
p2
S'papyros/papyros'
p3
tp4
a(S'yasem'
p5
S'mvasilchuk'
p6
S'mvasilchuk/yasem'
p7
tp8
a(S'QtCreator_SubDirExample'
p9
S'MrCrazyID'
p10
S'MrCrazyID/QtCreator_SubDirExample'
p11
tp12
a(S'OpenCV-With-QT-Quick-Demo'
p13
S'manashmndl'
p14
S'manashmndl/OpenCV-With-QT-Quick-Demo'
p15
tp16
a(S'mut-template'
p17
S'palazzem'
p18
S'palazzem/mut-template'
p19
tp20
a(S'ofQProjectGenerator'
p21
S'Furkanzmc'
p22
S'Furkanzmc/ofQProjectGenerator'
p23
tp24
a(S'OpenIndy-PluginTemplate'
p25
S'OpenIndy'
p26
S'OpenIndy/OpenIndy-PluginTemplate'
p27
tp28
a(S'bingrep'
p29
S'TheSlackOne'
p30
S'TheSlackOne/bingrep'
p31
tp32
a(S'sampleFactoryPatternExample'
p33
S'hoowang'
p34
S'hoowang/sampleFactoryPatternExample'
p35
tp36
a(S'CommandCenter'
p37
S'zhangkun456'
p38
S'zhangkun456/CommandCenter'
p39
tp40
a(S'observerPatternExample'
p41
S'hoowang'
p42
S'hoowang/observerPatternExample'
p43
tp44
a(S'Algorithm'
p45
S'RiweiChen'
p46
S'RiweiChen/Algorithm'
p47
tp48
a(S'palindrome'
p49
S'lolisa'
p50
S'lolisa/palindrome'
p51
tp52
a(S'code_library'
p53
S'dar-drozdova'
p54
S'dar-drozdova/code_library'
p55
tp56
a(S'factoryMethodPattern'
p57
S'hoowang'
p58
S'hoowang/factoryMethodPattern'
p59
tp60
a(S'CleanDownloadFolder'
p61
S'azemm'
p62
S'azemm/CleanDownloadFolder'
p63
tp64
a(S'StreamOpencvMatDemo'
p65
S'wzyuliyang'
p66
S'wzyuliyang/StreamOpencvMatDemo'
p67
tp68
a(S'qmake_example'
p69
S'nylocx'
p70
S'nylocx/qmake_example'
p71
tp72
a(S'alorithms_tech'
p73
S'ValerGit'
p74
S'ValerGit/alorithms_tech'
p75
tp76
a(S'sailtoViennaPackaging'
p77
S'merlin1991'
p78
S'merlin1991/sailtoViennaPackaging'
p79
tp80
a(S'abstractFactoryExample'
p81
S'hoowang'
p82
S'hoowang/abstractFactoryExample'
p83
tp84
a(S'Breakout'
p85
S'duksduks'
p86
S'duksduks/Breakout'
p87
tp88
a(S'ctest'
p89
S'ericyueyi'
p90
S'ericyueyi/ctest'
p91
tp92
a(S'study'
p93
S'FlarisGuan'
p94
S'FlarisGuan/study'
p95
tp96
a(S'00buff'
p97
S'120130'
p98
S'120130/00buff'
p99
tp100
a(S'papyros'
p101
S'papyros'
p102
S'papyros/papyros'
p103
tp104
a(S'yasem'
p105
S'mvasilchuk'
p106
S'mvasilchuk/yasem'
p107
tp108
a(S'QtCreator_SubDirExample'
p109
S'MrCrazyID'
p110
S'MrCrazyID/QtCreator_SubDirExample'
p111
tp112
a(S'OpenCV-With-QT-Quick-Demo'
p113
S'manashmndl'
p114
S'manashmndl/OpenCV-With-QT-Quick-Demo'
p115
tp116
a(S'mut-template'
p117
S'palazzem'
p118
S'palazzem/mut-template'
p119
tp120
a(S'ofQProjectGenerator'
p121
S'Furkanzmc'
p122
S'Furkanzmc/ofQProjectGenerator'
p123
tp124
a(S'OpenIndy-PluginTemplate'
p125
S'OpenIndy'
p126
S'OpenIndy/OpenIndy-PluginTemplate'
p127
tp128
a(S'bingrep'
p129
S'TheSlackOne'
p130
S'TheSlackOne/bingrep'
p131
tp132
a(S'sampleFactoryPatternExample'
p133
S'hoowang'
p134
S'hoowang/sampleFactoryPatternExample'
p135
tp136
a(S'CommandCenter'
p137
S'zhangkun456'
p138
S'zhangkun456/CommandCenter'
p139
tp140
a(S'observerPatternExample'
p141
S'hoowang'
p142
S'hoowang/observerPatternExample'
p143
tp144
a(S'Algorithm'
p145
S'RiweiChen'
p146
S'RiweiChen/Algorithm'
p147
tp148
a(S'palindrome'
p149
S'lolisa'
p150
S'lolisa/palindrome'
p151
tp152
a(S'code_library'
p153
S'dar-drozdova'
p154
S'dar-drozdova/code_library'
p155
tp156
a(S'factoryMethodPattern'
p157
S'hoowang'
p158
S'hoowang/factoryMethodPattern'
p159
tp160
a(S'CleanDownloadFolder'
p161
S'azemm'
p162
S'azemm/CleanDownloadFolder'
p163
tp164
a(S'StreamOpencvMatDemo'
p165
S'wzyuliyang'
p166
S'wzyuliyang/StreamOpencvMatDemo'
p167
tp168
a(S'qmake_example'
p169
S'nylocx'
p170
S'nylocx/qmake_example'
p171
tp172
a(S'alorithms_tech'
p173
S'ValerGit'
p174
S'ValerGit/alorithms_tech'
p175
tp176
a(S'sailtoViennaPackaging'
p177
S'merlin1991'
p178
S'merlin1991/sailtoViennaPackaging'
p179
tp180
a(S'abstractFactoryExample'
p181
S'hoowang'
p182
S'hoowang/abstractFactoryExample'
p183
tp184
a(S'Breakout'
p185
S'duksduks'
p186
S'duksduks/Breakout'
p187
tp188
a(S'ctest'
p189
S'ericyueyi'
p190
S'ericyueyi/ctest'
p191
tp192
a(S'study'
p193
S'FlarisGuan'
p194
S'FlarisGuan/study'
p195
tp196
a(S'00buff'
p197
S'120130'
p198
S'120130/00buff'
p199
tp200
a(S'papyros'
p201
S'papyros'
p202
S'papyros/papyros'
p203
tp204
a(S'yasem'
p205
S'mvasilchuk'
p206
S'mvasilchuk/yasem'
p207
tp208
a(S'QtCreator_SubDirExample'
p209
S'MrCrazyID'
p210
S'MrCrazyID/QtCreator_SubDirExample'
p211
tp212
a(S'OpenCV-With-QT-Quick-Demo'
p213
S'manashmndl'
p214
S'manashmndl/OpenCV-With-QT-Quick-Demo'
p215
tp216
a(S'mut-template'
p217
S'palazzem'
p218
S'palazzem/mut-template'
p219
tp220
a(S'ofQProjectGenerator'
p221
S'Furkanzmc'
p222
S'Furkanzmc/ofQProjectGenerator'
p223
tp224
a(S'OpenIndy-PluginTemplate'
p225
S'OpenIndy'
p226
S'OpenIndy/OpenIndy-PluginTemplate'
p227
tp228
a(S'bingrep'
p229
S'TheSlackOne'
p230
S'TheSlackOne/bingrep'
p231
tp232
a(S'sampleFactoryPatternExample'
p233
S'hoowang'
p234
S'hoowang/sampleFactoryPatternExample'
p235
tp236
a(S'CommandCenter'
p237
S'zhangkun456'
p238
S'zhangkun456/CommandCenter'
p239
tp240
a(S'observerPatternExample'
p241
S'hoowang'
p242
S'hoowang/observerPatternExample'
p243
tp244
a(S'Algorithm'
p245
S'RiweiChen'
p246
S'RiweiChen/Algorithm'
p247
tp248
a(S'palindrome'
p249
S'lolisa'
p250
S'lolisa/palindrome'
p251
tp252
a(S'code_library'
p253
S'dar-drozdova'
p254
S'dar-drozdova/code_library'
p255
tp256
a(S'factoryMethodPattern'
p257
S'hoowang'
p258
S'hoowang/factoryMethodPattern'
p259
tp260
a(S'CleanDownloadFolder'
p261
S'azemm'
p262
S'azemm/CleanDownloadFolder'
p263
tp264
a(S'StreamOpencvMatDemo'
p265
S'wzyuliyang'
p266
S'wzyuliyang/StreamOpencvMatDemo'
p267
tp268
a(S'qmake_example'
p269
S'nylocx'
p270
S'nylocx/qmake_example'
p271
tp272
a(S'alorithms_tech'
p273
S'ValerGit'
p274
S'ValerGit/alorithms_tech'
p275
tp276
a(S'sailtoViennaPackaging'
p277
S'merlin1991'
p278
S'merlin1991/sailtoViennaPackaging'
p279
tp280
a(S'abstractFactoryExample'
p281
S'hoowang'
p282
S'hoowang/abstractFactoryExample'
p283
tp284
a(S'Breakout'
p285
S'duksduks'
p286
S'duksduks/Breakout'
p287
tp288
a(S'ctest'
p289
S'ericyueyi'
p290
S'ericyueyi/ctest'
p291
tp292
a(S'study'
p293
S'FlarisGuan'
p294
S'FlarisGuan/study'
p295
tp296
a(S'00buff'
p297
S'120130'
p298
S'120130/00buff'
p299
tp300
a.