(lp0
(S'cool-retro-term'
p1
S'Swordfish90'
p2
S'Swordfish90/cool-retro-term'
p3
tp4
a(S'qml-material'
p5
S'papyros'
p6
S'papyros/qml-material'
p7
tp8
a(S'qmlbook'
p9
S'qmlbook'
p10
S'qmlbook/qmlbook'
p11
tp12
a(S'liri-browser'
p13
S'liri-project'
p14
S'liri-project/liri-browser'
p15
tp16
a(S'QGIS-resources'
p17
S'anitagraser'
p18
S'anitagraser/QGIS-resources'
p19
tp20
a(S'material'
p21
S'rschiang'
p22
S'rschiang/material'
p23
tp24
a(S'Phoenix'
p25
S'team-phoenix'
p26
S'team-phoenix/Phoenix'
p27
tp28
a(S'terrarium-app'
p29
S'penk'
p30
S'penk/terrarium-app'
p31
tp32
a(S'deepin-movie'
p33
S'linuxdeepin'
p34
S'linuxdeepin/deepin-movie'
p35
tp36
a(S'ButtleOFX'
p37
S'buttleofx'
p38
S'buttleofx/ButtleOFX'
p39
tp40
a(S'quickandroid'
p41
S'benlau'
p42
S'benlau/quickandroid'
p43
tp44
a(S'qml-bootstrap'
p45
S'brexis'
p46
S'brexis/qml-bootstrap'
p47
tp48
a(S'Tweetian'
p49
S'veskuh'
p50
S'veskuh/Tweetian'
p51
tp52
a(S'GCompris-qt'
p53
S'bdoin'
p54
S'bdoin/GCompris-qt'
p55
tp56
a(S'OSM-Shapefile-QGIS-stylesheets'
p57
S'charleyglynn'
p58
S'charleyglynn/OSM-Shapefile-QGIS-stylesheets'
p59
tp60
a(S'lime-qml'
p61
S'limetext'
p62
S'limetext/lime-qml'
p63
tp64
a(S'deepin-screenshot'
p65
S'linuxdeepin'
p66
S'linuxdeepin/deepin-screenshot'
p67
tp68
a(S'qmlcreator'
p69
S'wearyinside'
p70
S'wearyinside/qmlcreator'
p71
tp72
a(S'gpodder-sailfish'
p73
S'gpodder'
p74
S'gpodder/gpodder-sailfish'
p75
tp76
a(S'ttrss'
p77
S'cnlpete'
p78
S'cnlpete/ttrss'
p79
tp80
a(S'Tomatoid'
p81
S'arthurtaborda'
p82
S'arthurtaborda/Tomatoid'
p83
tp84
a(S'beatwhale'
p85
S'andresilvasantos'
p86
S'andresilvasantos/beatwhale'
p87
tp88
a(S'PandaViewer'
p89
S'seanegoodwin'
p90
S'seanegoodwin/PandaViewer'
p91
tp92
a(S'QGIS-styles'
p93
S'mixedbredie'
p94
S'mixedbredie/QGIS-styles'
p95
tp96
a(S'CleanPlayer'
p97
S'pansinm'
p98
S'pansinm/CleanPlayer'
p99
tp100
a(S'liri-browser'
p101
S'liri-project'
p102
S'liri-project/liri-browser'
p103
tp104
a(S'cool-retro-term'
p105
S'Swordfish90'
p106
S'Swordfish90/cool-retro-term'
p107
tp108
a(S'qml-material'
p109
S'papyros'
p110
S'papyros/qml-material'
p111
tp112
a(S'Phoenix'
p113
S'team-phoenix'
p114
S'team-phoenix/Phoenix'
p115
tp116
a(S'qmlbook'
p117
S'qmlbook'
p118
S'qmlbook/qmlbook'
p119
tp120
a(S'QGIS-resources'
p121
S'anitagraser'
p122
S'anitagraser/QGIS-resources'
p123
tp124
a(S'material'
p125
S'rschiang'
p126
S'rschiang/material'
p127
tp128
a(S'terrarium-app'
p129
S'penk'
p130
S'penk/terrarium-app'
p131
tp132
a(S'deepin-movie'
p133
S'linuxdeepin'
p134
S'linuxdeepin/deepin-movie'
p135
tp136
a(S'ButtleOFX'
p137
S'buttleofx'
p138
S'buttleofx/ButtleOFX'
p139
tp140
a(S'quickandroid'
p141
S'benlau'
p142
S'benlau/quickandroid'
p143
tp144
a(S'qml-bootstrap'
p145
S'brexis'
p146
S'brexis/qml-bootstrap'
p147
tp148
a(S'Tweetian'
p149
S'veskuh'
p150
S'veskuh/Tweetian'
p151
tp152
a(S'GCompris-qt'
p153
S'bdoin'
p154
S'bdoin/GCompris-qt'
p155
tp156
a(S'OSM-Shapefile-QGIS-stylesheets'
p157
S'charleyglynn'
p158
S'charleyglynn/OSM-Shapefile-QGIS-stylesheets'
p159
tp160
a(S'lime-qml'
p161
S'limetext'
p162
S'limetext/lime-qml'
p163
tp164
a(S'deepin-screenshot'
p165
S'linuxdeepin'
p166
S'linuxdeepin/deepin-screenshot'
p167
tp168
a(S'qmlcreator'
p169
S'wearyinside'
p170
S'wearyinside/qmlcreator'
p171
tp172
a(S'gpodder-sailfish'
p173
S'gpodder'
p174
S'gpodder/gpodder-sailfish'
p175
tp176
a(S'ttrss'
p177
S'cnlpete'
p178
S'cnlpete/ttrss'
p179
tp180
a(S'Tomatoid'
p181
S'arthurtaborda'
p182
S'arthurtaborda/Tomatoid'
p183
tp184
a(S'beatwhale'
p185
S'andresilvasantos'
p186
S'andresilvasantos/beatwhale'
p187
tp188
a(S'PandaViewer'
p189
S'seanegoodwin'
p190
S'seanegoodwin/PandaViewer'
p191
tp192
a(S'QGIS-styles'
p193
S'mixedbredie'
p194
S'mixedbredie/QGIS-styles'
p195
tp196
a(S'CleanPlayer'
p197
S'pansinm'
p198
S'pansinm/CleanPlayer'
p199
tp200
a(S'cool-retro-term'
p201
S'Swordfish90'
p202
S'Swordfish90/cool-retro-term'
p203
tp204
a(S'qml-material'
p205
S'papyros'
p206
S'papyros/qml-material'
p207
tp208
a(S'liri-browser'
p209
S'liri-project'
p210
S'liri-project/liri-browser'
p211
tp212
a(S'Phoenix'
p213
S'team-phoenix'
p214
S'team-phoenix/Phoenix'
p215
tp216
a(S'quickandroid'
p217
S'benlau'
p218
S'benlau/quickandroid'
p219
tp220
a(S'qmlbook'
p221
S'qmlbook'
p222
S'qmlbook/qmlbook'
p223
tp224
a(S'QGIS-resources'
p225
S'anitagraser'
p226
S'anitagraser/QGIS-resources'
p227
tp228
a(S'material'
p229
S'rschiang'
p230
S'rschiang/material'
p231
tp232
a(S'terrarium-app'
p233
S'penk'
p234
S'penk/terrarium-app'
p235
tp236
a(S'deepin-movie'
p237
S'linuxdeepin'
p238
S'linuxdeepin/deepin-movie'
p239
tp240
a(S'ButtleOFX'
p241
S'buttleofx'
p242
S'buttleofx/ButtleOFX'
p243
tp244
a(S'qml-bootstrap'
p245
S'brexis'
p246
S'brexis/qml-bootstrap'
p247
tp248
a(S'Tweetian'
p249
S'veskuh'
p250
S'veskuh/Tweetian'
p251
tp252
a(S'OSM-Shapefile-QGIS-stylesheets'
p253
S'charleyglynn'
p254
S'charleyglynn/OSM-Shapefile-QGIS-stylesheets'
p255
tp256
a(S'GCompris-qt'
p257
S'bdoin'
p258
S'bdoin/GCompris-qt'
p259
tp260
a(S'lime-qml'
p261
S'limetext'
p262
S'limetext/lime-qml'
p263
tp264
a(S'deepin-screenshot'
p265
S'linuxdeepin'
p266
S'linuxdeepin/deepin-screenshot'
p267
tp268
a(S'qmlcreator'
p269
S'wearyinside'
p270
S'wearyinside/qmlcreator'
p271
tp272
a(S'gpodder-sailfish'
p273
S'gpodder'
p274
S'gpodder/gpodder-sailfish'
p275
tp276
a(S'ttrss'
p277
S'cnlpete'
p278
S'cnlpete/ttrss'
p279
tp280
a(S'Tomatoid'
p281
S'arthurtaborda'
p282
S'arthurtaborda/Tomatoid'
p283
tp284
a(S'beatwhale'
p285
S'andresilvasantos'
p286
S'andresilvasantos/beatwhale'
p287
tp288
a(S'PandaViewer'
p289
S'seanegoodwin'
p290
S'seanegoodwin/PandaViewer'
p291
tp292
a(S'CleanPlayer'
p293
S'pansinm'
p294
S'pansinm/CleanPlayer'
p295
tp296
a(S'QGIS-styles'
p297
S'mixedbredie'
p298
S'mixedbredie/QGIS-styles'
p299
tp300
a.