(lp0
(S'ProgrammingAssignment2'
p1
S'rdpeng'
p2
S'rdpeng/ProgrammingAssignment2'
p3
tp4
a(S'tiq-test'
p5
S'mlsecproject'
p6
S'mlsecproject/tiq-test'
p7
tp8
a(S'roxygen'
p9
S'klutometis'
p10
S'klutometis/roxygen'
p11
tp12
a(S'RAdwords'
p13
S'jburkhardt'
p14
S'jburkhardt/RAdwords'
p15
tp16
a(S'ML_for_Hackers'
p17
S'johnmyleswhite'
p18
S'johnmyleswhite/ML_for_Hackers'
p19
tp20
a(S'ggplot2'
p21
S'hadley'
p22
S'hadley/ggplot2'
p23
tp24
a(S'shiny'
p25
S'rstudio'
p26
S'rstudio/shiny'
p27
tp28
a(S'swirl_courses'
p29
S'swirldev'
p30
S'swirldev/swirl_courses'
p31
tp32
a(S'AnomalyDetection'
p33
S'twitter'
p34
S'twitter/AnomalyDetection'
p35
tp36
a(S'devtools'
p37
S'hadley'
p38
S'hadley/devtools'
p39
tp40
a(S'knitr'
p41
S'yihui'
p42
S'yihui/knitr'
p43
tp44
a(S'awesome-R'
p45
S'qinwf'
p46
S'qinwf/awesome-R'
p47
tp48
a(S'benchm-ml'
p49
S'szilard'
p50
S'szilard/benchm-ml'
p51
tp52
a(S'slidify'
p53
S'ramnathv'
p54
S'ramnathv/slidify'
p55
tp56
a(S'SparkR-pkg'
p57
S'amplab-extras'
p58
S'amplab-extras/SparkR-pkg'
p59
tp60
a(S'ggvis'
p61
S'rstudio'
p62
S'rstudio/ggvis'
p63
tp64
a(S'ggthemes'
p65
S'jrnold'
p66
S'jrnold/ggthemes'
p67
tp68
a(S'rvest'
p69
S'hadley'
p70
S'hadley/rvest'
p71
tp72
a(S'CausalImpact'
p73
S'google'
p74
S'google/CausalImpact'
p75
tp76
a(S'plyr'
p77
S'hadley'
p78
S'hadley/plyr'
p79
tp80
a(S'httr'
p81
S'hadley'
p82
S'hadley/httr'
p83
tp84
a(S'labs'
p85
S'genomicsclass'
p86
S'genomicsclass/labs'
p87
tp88
a(S'rmarkdown'
p89
S'rstudio'
p90
S'rstudio/rmarkdown'
p91
tp92
a(S'r-ninja'
p93
S'yihui'
p94
S'yihui/r-ninja'
p95
tp96
a(S'DiagrammeR'
p97
S'rich-iannone'
p98
S'rich-iannone/DiagrammeR'
p99
tp100
a(S'ProgrammingAssignment2'
p101
S'rdpeng'
p102
S'rdpeng/ProgrammingAssignment2'
p103
tp104
a(S'vim-plugins-profile'
p105
S'hyiltiz'
p106
S'hyiltiz/vim-plugins-profile'
p107
tp108
a(S'swirl_courses'
p109
S'swirldev'
p110
S'swirldev/swirl_courses'
p111
tp112
a(S'awesome-R'
p113
S'qinwf'
p114
S'qinwf/awesome-R'
p115
tp116
a(S'ggplot2'
p117
S'hadley'
p118
S'hadley/ggplot2'
p119
tp120
a(S'stationaRy'
p121
S'rich-iannone'
p122
S'rich-iannone/stationaRy'
p123
tp124
a(S'ggfortify'
p125
S'sinhrks'
p126
S'sinhrks/ggfortify'
p127
tp128
a(S'knitr'
p129
S'yihui'
p130
S'yihui/knitr'
p131
tp132
a(S'forecast'
p133
S'robjhyndman'
p134
S'robjhyndman/forecast'
p135
tp136
a(S'shiny'
p137
S'rstudio'
p138
S'rstudio/shiny'
p139
tp140
a(S'mlr'
p141
S'mlr-org'
p142
S'mlr-org/mlr'
p143
tp144
a(S'textreuse'
p145
S'lmullen'
p146
S'lmullen/textreuse'
p147
tp148
a(S'DiagrammeR'
p149
S'rich-iannone'
p150
S'rich-iannone/DiagrammeR'
p151
tp152
a(S'lintr'
p153
S'jimhester'
p154
S'jimhester/lintr'
p155
tp156
a(S'data-science-your-way'
p157
S'jadianes'
p158
S'jadianes/data-science-your-way'
p159
tp160
a(S'devtools'
p161
S'hadley'
p162
S'hadley/devtools'
p163
tp164
a(S'swirl'
p165
S'swirldev'
p166
S'swirldev/swirl'
p167
tp168
a(S'rmarkdown'
p169
S'rstudio'
p170
S'rstudio/rmarkdown'
p171
tp172
a(S'rgithub'
p173
S'cscheid'
p174
S'cscheid/rgithub'
p175
tp176
a(S'oce'
p177
S'dankelley'
p178
S'dankelley/oce'
p179
tp180
a(S'Rook'
p181
S'jeffreyhorner'
p182
S'jeffreyhorner/Rook'
p183
tp184
a(S'testthat'
p185
S'hadley'
p186
S'hadley/testthat'
p187
tp188
a(S'DBI'
p189
S'rstats-db'
p190
S'rstats-db/DBI'
p191
tp192
a(S'Rforecastio'
p193
S'hrbrmstr'
p194
S'hrbrmstr/Rforecastio'
p195
tp196
a(S'ML_for_Hackers'
p197
S'johnmyleswhite'
p198
S'johnmyleswhite/ML_for_Hackers'
p199
tp200
a(S'ProgrammingAssignment2'
p201
S'rdpeng'
p202
S'rdpeng/ProgrammingAssignment2'
p203
tp204
a(S'swirl_courses'
p205
S'swirldev'
p206
S'swirldev/swirl_courses'
p207
tp208
a(S'awesome-R'
p209
S'qinwf'
p210
S'qinwf/awesome-R'
p211
tp212
a(S'ggplot2'
p213
S'hadley'
p214
S'hadley/ggplot2'
p215
tp216
a(S'shiny'
p217
S'rstudio'
p218
S'rstudio/shiny'
p219
tp220
a(S'mlr'
p221
S'mlr-org'
p222
S'mlr-org/mlr'
p223
tp224
a(S'purrr'
p225
S'hadley'
p226
S'hadley/purrr'
p227
tp228
a(S'knitr'
p229
S'yihui'
p230
S'yihui/knitr'
p231
tp232
a(S'vim-plugins-profile'
p233
S'hyiltiz'
p234
S'hyiltiz/vim-plugins-profile'
p235
tp236
a(S'swirl'
p237
S'swirldev'
p238
S'swirldev/swirl'
p239
tp240
a(S'jug'
p241
S'Bart6114'
p242
S'Bart6114/jug'
p243
tp244
a(S'ggfortify'
p245
S'sinhrks'
p246
S'sinhrks/ggfortify'
p247
tp248
a(S'rmarkdown'
p249
S'rstudio'
p250
S'rstudio/rmarkdown'
p251
tp252
a(S'devtools'
p253
S'hadley'
p254
S'hadley/devtools'
p255
tp256
a(S'DiagrammeR'
p257
S'rich-iannone'
p258
S'rich-iannone/DiagrammeR'
p259
tp260
a(S'IRkernel'
p261
S'IRkernel'
p262
S'IRkernel/IRkernel'
p263
tp264
a(S'chunked'
p265
S'edwindj'
p266
S'edwindj/chunked'
p267
tp268
a(S'data-science-your-way'
p269
S'jadianes'
p270
S'jadianes/data-science-your-way'
p271
tp272
a(S'caret'
p273
S'topepo'
p274
S'topepo/caret'
p275
tp276
a(S'asdfree'
p277
S'ajdamico'
p278
S'ajdamico/asdfree'
p279
tp280
a(S'networkD3'
p281
S'christophergandrud'
p282
S'christophergandrud/networkD3'
p283
tp284
a(S'stationaRy'
p285
S'rich-iannone'
p286
S'rich-iannone/stationaRy'
p287
tp288
a(S'forecast'
p289
S'robjhyndman'
p290
S'robjhyndman/forecast'
p291
tp292
a(S'ggvis'
p293
S'rstudio'
p294
S'rstudio/ggvis'
p295
tp296
a(S'lintr'
p297
S'jimhester'
p298
S'jimhester/lintr'
p299
tp300
a.