(lp0
(S'racket'
p1
S'racket'
p2
S'racket/racket'
p3
tp4
a(S'pollen'
p5
S'mbutterick'
p6
S'mbutterick/pollen'
p7
tp8
a(S'frog'
p9
S'greghendershott'
p10
S'greghendershott/frog'
p11
tp12
a(S'whalesong'
p13
S'dyoo'
p14
S'dyoo/whalesong'
p15
tp16
a(S'gll'
p17
S'epsil'
p18
S'epsil/gll'
p19
tp20
a(S'rackjure'
p21
S'greghendershott'
p22
S'greghendershott/rackjure'
p23
tp24
a(S'spin'
p25
S'dmac'
p26
S'dmac/spin'
p27
tp28
a(S'cKanren'
p29
S'calvis'
p30
S'calvis/cKanren'
p31
tp32
a(S'racket-book'
p33
S'tyrchen'
p34
S'tyrchen/racket-book'
p35
tp36
a(S'pict3d'
p37
S'ntoronto'
p38
S'ntoronto/pict3d'
p39
tp40
a(S'sicp'
p41
S'vu3rdd'
p42
S'vu3rdd/sicp'
p43
tp44
a(S'gradual-typing-bib'
p45
S'samth'
p46
S'samth/gradual-typing-bib'
p47
tp48
a(S'get-bonus'
p49
S'get-bonus'
p50
S'get-bonus/get-bonus'
p51
tp52
a(S'fear-of-macros'
p53
S'greghendershott'
p54
S'greghendershott/fear-of-macros'
p55
tp56
a(S'racket-clojure'
p57
S'takikawa'
p58
S'takikawa/racket-clojure'
p59
tp60
a(S'marketplace'
p61
S'tonyg'
p62
S'tonyg/marketplace'
p63
tp64
a(S'racket-gaming'
p65
S'samvv'
p66
S'samvv/racket-gaming'
p67
tp68
a(S'whalesong'
p69
S'soegaard'
p70
S'soegaard/whalesong'
p71
tp72
a(S'identikon'
p73
S'DarrenN'
p74
S'DarrenN/identikon'
p75
tp76
a(S'racket-2048'
p77
S'danprager'
p78
S'danprager/racket-2048'
p79
tp80
a(S'drbayes'
p81
S'ntoronto'
p82
S'ntoronto/drbayes'
p83
tp84
a(S'typed-racket'
p85
S'racket'
p86
S'racket/typed-racket'
p87
tp88
a(S'pi-nothing'
p89
S'tonyg'
p90
S'tonyg/pi-nothing'
p91
tp92
a(S'iwl'
p93
S'coding-robots'
p94
S'coding-robots/iwl'
p95
tp96
a(S'racket-llvm'
p97
S'endobson'
p98
S'endobson/racket-llvm'
p99
tp100
a(S'racket'
p101
S'racket'
p102
S'racket/racket'
p103
tp104
a(S'pollen'
p105
S'mbutterick'
p106
S'mbutterick/pollen'
p107
tp108
a(S'frog'
p109
S'greghendershott'
p110
S'greghendershott/frog'
p111
tp112
a(S'whalesong'
p113
S'dyoo'
p114
S'dyoo/whalesong'
p115
tp116
a(S'gll'
p117
S'epsil'
p118
S'epsil/gll'
p119
tp120
a(S'rackjure'
p121
S'greghendershott'
p122
S'greghendershott/rackjure'
p123
tp124
a(S'spin'
p125
S'dmac'
p126
S'dmac/spin'
p127
tp128
a(S'cKanren'
p129
S'calvis'
p130
S'calvis/cKanren'
p131
tp132
a(S'racket-book'
p133
S'tyrchen'
p134
S'tyrchen/racket-book'
p135
tp136
a(S'pict3d'
p137
S'ntoronto'
p138
S'ntoronto/pict3d'
p139
tp140
a(S'sicp'
p141
S'vu3rdd'
p142
S'vu3rdd/sicp'
p143
tp144
a(S'fear-of-macros'
p145
S'greghendershott'
p146
S'greghendershott/fear-of-macros'
p147
tp148
a(S'gradual-typing-bib'
p149
S'samth'
p150
S'samth/gradual-typing-bib'
p151
tp152
a(S'get-bonus'
p153
S'get-bonus'
p154
S'get-bonus/get-bonus'
p155
tp156
a(S'racket-clojure'
p157
S'takikawa'
p158
S'takikawa/racket-clojure'
p159
tp160
a(S'marketplace'
p161
S'tonyg'
p162
S'tonyg/marketplace'
p163
tp164
a(S'racket-gaming'
p165
S'samvv'
p166
S'samvv/racket-gaming'
p167
tp168
a(S'whalesong'
p169
S'soegaard'
p170
S'soegaard/whalesong'
p171
tp172
a(S'identikon'
p173
S'DarrenN'
p174
S'DarrenN/identikon'
p175
tp176
a(S'drbayes'
p177
S'ntoronto'
p178
S'ntoronto/drbayes'
p179
tp180
a(S'racket-2048'
p181
S'danprager'
p182
S'danprager/racket-2048'
p183
tp184
a(S'typed-racket'
p185
S'racket'
p186
S'racket/typed-racket'
p187
tp188
a(S'pi-nothing'
p189
S'tonyg'
p190
S'tonyg/pi-nothing'
p191
tp192
a(S'racket-llvm'
p193
S'endobson'
p194
S'endobson/racket-llvm'
p195
tp196
a(S'iwl'
p197
S'coding-robots'
p198
S'coding-robots/iwl'
p199
tp200
a(S'racket'
p201
S'racket'
p202
S'racket/racket'
p203
tp204
a(S'pollen'
p205
S'mbutterick'
p206
S'mbutterick/pollen'
p207
tp208
a(S'herbie'
p209
S'uwplse'
p210
S'uwplse/herbie'
p211
tp212
a(S'typed-racket'
p213
S'racket'
p214
S'racket/typed-racket'
p215
tp216
a(S'frog'
p217
S'greghendershott'
p218
S'greghendershott/frog'
p219
tp220
a(S'whalesong'
p221
S'dyoo'
p222
S'dyoo/whalesong'
p223
tp224
a(S'gll'
p225
S'epsil'
p226
S'epsil/gll'
p227
tp228
a(S'rackjure'
p229
S'greghendershott'
p230
S'greghendershott/rackjure'
p231
tp232
a(S'spin'
p233
S'dmac'
p234
S'dmac/spin'
p235
tp236
a(S'cKanren'
p237
S'calvis'
p238
S'calvis/cKanren'
p239
tp240
a(S'racket-book'
p241
S'tyrchen'
p242
S'tyrchen/racket-book'
p243
tp244
a(S'pict3d'
p245
S'ntoronto'
p246
S'ntoronto/pict3d'
p247
tp248
a(S'sicp'
p249
S'vu3rdd'
p250
S'vu3rdd/sicp'
p251
tp252
a(S'gradual-typing-bib'
p253
S'samth'
p254
S'samth/gradual-typing-bib'
p255
tp256
a(S'fear-of-macros'
p257
S'greghendershott'
p258
S'greghendershott/fear-of-macros'
p259
tp260
a(S'get-bonus'
p261
S'get-bonus'
p262
S'get-bonus/get-bonus'
p263
tp264
a(S'racket-clojure'
p265
S'takikawa'
p266
S'takikawa/racket-clojure'
p267
tp268
a(S'marketplace'
p269
S'tonyg'
p270
S'tonyg/marketplace'
p271
tp272
a(S'racket-gaming'
p273
S'samvv'
p274
S'samvv/racket-gaming'
p275
tp276
a(S'whalesong'
p277
S'soegaard'
p278
S'soegaard/whalesong'
p279
tp280
a(S'identikon'
p281
S'DarrenN'
p282
S'DarrenN/identikon'
p283
tp284
a(S'racket-2048'
p285
S'danprager'
p286
S'danprager/racket-2048'
p287
tp288
a(S'drbayes'
p289
S'ntoronto'
p290
S'ntoronto/drbayes'
p291
tp292
a(S'pi-nothing'
p293
S'tonyg'
p294
S'tonyg/pi-nothing'
p295
tp296
a(S'iwl'
p297
S'coding-robots'
p298
S'coding-robots/iwl'
p299
tp300
a.