(lp0
(S'redcloth'
p1
S'jgarber'
p2
S'jgarber/redcloth'
p3
tp4
a(S'amber'
p5
S'nineties'
p6
S'nineties/amber'
p7
tp8
a(S'ohcount'
p9
S'blackducksoftware'
p10
S'blackducksoftware/ohcount'
p11
tp12
a(S'rapa'
p13
S'rubinius'
p14
S'rubinius/rapa'
p15
tp16
a(S'JSatTrak'
p17
S'sgano'
p18
S'sgano/JSatTrak'
p19
tp20
a(S'ohcount'
p21
S'andyverprauskus'
p22
S'andyverprauskus/ohcount'
p23
tp24
a(S'ohcount'
p25
S'korsakov'
p26
S'korsakov/ohcount'
p27
tp28
a(S'ohcount'
p29
S'chadwackerman'
p30
S'chadwackerman/ohcount'
p31
tp32
a(S'ohcount'
p33
S'bytbox'
p34
S'bytbox/ohcount'
p35
tp36
a(S'ohcount'
p37
S'earl'
p38
S'earl/ohcount'
p39
tp40
a(S'gtf-parse-off'
p41
S'dcjones'
p42
S'dcjones/gtf-parse-off'
p43
tp44
a(S'ohcount'
p45
S'hvellyr'
p46
S'hvellyr/ohcount'
p47
tp48
a(S'ohcount'
p49
S'pfusik'
p50
S'pfusik/ohcount'
p51
tp52
a(S'ohcount'
p53
S'koraktor'
p54
S'koraktor/ohcount'
p55
tp56
a(S'ohcount'
p57
S'jbclements'
p58
S'jbclements/ohcount'
p59
tp60
a(S'ohcount'
p61
S'pombredanne'
p62
S'pombredanne/ohcount'
p63
tp64
a(S'ohcount'
p65
S'bordercore'
p66
S'bordercore/ohcount'
p67
tp68
a(S'ohcount'
p69
S'ehsan'
p70
S'ehsan/ohcount'
p71
tp72
a(S'ohcount'
p73
S'haraldkl'
p74
S'haraldkl/ohcount'
p75
tp76
a(S'ohcount'
p77
S'dolmen'
p78
S'dolmen/ohcount'
p79
tp80
a(S'ohcount'
p81
S'chris-morgan'
p82
S'chris-morgan/ohcount'
p83
tp84
a(S'ohcount'
p85
S'balena'
p86
S'balena/ohcount'
p87
tp88
a(S'ohcount'
p89
S'sylvestre'
p90
S'sylvestre/ohcount'
p91
tp92
a(S'ohcount'
p93
S'pmoura'
p94
S'pmoura/ohcount'
p95
tp96
a(S'ohcount'
p97
S'pshiryaev'
p98
S'pshiryaev/ohcount'
p99
tp100
a(S'redcloth'
p101
S'jgarber'
p102
S'jgarber/redcloth'
p103
tp104
a(S'amber'
p105
S'nineties'
p106
S'nineties/amber'
p107
tp108
a(S'ohcount'
p109
S'blackducksoftware'
p110
S'blackducksoftware/ohcount'
p111
tp112
a(S'rapa'
p113
S'rubinius'
p114
S'rubinius/rapa'
p115
tp116
a(S'JSatTrak'
p117
S'sgano'
p118
S'sgano/JSatTrak'
p119
tp120
a(S'ohcount'
p121
S'andyverprauskus'
p122
S'andyverprauskus/ohcount'
p123
tp124
a(S'ohcount'
p125
S'korsakov'
p126
S'korsakov/ohcount'
p127
tp128
a(S'ohcount'
p129
S'chadwackerman'
p130
S'chadwackerman/ohcount'
p131
tp132
a(S'ohcount'
p133
S'bytbox'
p134
S'bytbox/ohcount'
p135
tp136
a(S'ohcount'
p137
S'earl'
p138
S'earl/ohcount'
p139
tp140
a(S'gtf-parse-off'
p141
S'dcjones'
p142
S'dcjones/gtf-parse-off'
p143
tp144
a(S'ohcount'
p145
S'hvellyr'
p146
S'hvellyr/ohcount'
p147
tp148
a(S'ohcount'
p149
S'pfusik'
p150
S'pfusik/ohcount'
p151
tp152
a(S'ohcount'
p153
S'koraktor'
p154
S'koraktor/ohcount'
p155
tp156
a(S'ohcount'
p157
S'jbclements'
p158
S'jbclements/ohcount'
p159
tp160
a(S'ohcount'
p161
S'pombredanne'
p162
S'pombredanne/ohcount'
p163
tp164
a(S'ohcount'
p165
S'bordercore'
p166
S'bordercore/ohcount'
p167
tp168
a(S'ohcount'
p169
S'ehsan'
p170
S'ehsan/ohcount'
p171
tp172
a(S'ohcount'
p173
S'haraldkl'
p174
S'haraldkl/ohcount'
p175
tp176
a(S'ohcount'
p177
S'dolmen'
p178
S'dolmen/ohcount'
p179
tp180
a(S'ohcount'
p181
S'chris-morgan'
p182
S'chris-morgan/ohcount'
p183
tp184
a(S'ohcount'
p185
S'balena'
p186
S'balena/ohcount'
p187
tp188
a(S'ohcount'
p189
S'sylvestre'
p190
S'sylvestre/ohcount'
p191
tp192
a(S'ohcount'
p193
S'pmoura'
p194
S'pmoura/ohcount'
p195
tp196
a(S'ohcount'
p197
S'pshiryaev'
p198
S'pshiryaev/ohcount'
p199
tp200
a(S'redcloth'
p201
S'jgarber'
p202
S'jgarber/redcloth'
p203
tp204
a(S'amber'
p205
S'nineties'
p206
S'nineties/amber'
p207
tp208
a(S'ohcount'
p209
S'blackducksoftware'
p210
S'blackducksoftware/ohcount'
p211
tp212
a(S'rapa'
p213
S'rubinius'
p214
S'rubinius/rapa'
p215
tp216
a(S'JSatTrak'
p217
S'sgano'
p218
S'sgano/JSatTrak'
p219
tp220
a(S'ohcount'
p221
S'andyverprauskus'
p222
S'andyverprauskus/ohcount'
p223
tp224
a(S'ohcount'
p225
S'korsakov'
p226
S'korsakov/ohcount'
p227
tp228
a(S'ohcount'
p229
S'chadwackerman'
p230
S'chadwackerman/ohcount'
p231
tp232
a(S'ohcount'
p233
S'bytbox'
p234
S'bytbox/ohcount'
p235
tp236
a(S'ohcount'
p237
S'earl'
p238
S'earl/ohcount'
p239
tp240
a(S'gtf-parse-off'
p241
S'dcjones'
p242
S'dcjones/gtf-parse-off'
p243
tp244
a(S'ohcount'
p245
S'hvellyr'
p246
S'hvellyr/ohcount'
p247
tp248
a(S'ohcount'
p249
S'pfusik'
p250
S'pfusik/ohcount'
p251
tp252
a(S'ohcount'
p253
S'koraktor'
p254
S'koraktor/ohcount'
p255
tp256
a(S'ohcount'
p257
S'jbclements'
p258
S'jbclements/ohcount'
p259
tp260
a(S'ohcount'
p261
S'pombredanne'
p262
S'pombredanne/ohcount'
p263
tp264
a(S'ohcount'
p265
S'bordercore'
p266
S'bordercore/ohcount'
p267
tp268
a(S'ohcount'
p269
S'ehsan'
p270
S'ehsan/ohcount'
p271
tp272
a(S'ohcount'
p273
S'haraldkl'
p274
S'haraldkl/ohcount'
p275
tp276
a(S'ohcount'
p277
S'dolmen'
p278
S'dolmen/ohcount'
p279
tp280
a(S'ohcount'
p281
S'chris-morgan'
p282
S'chris-morgan/ohcount'
p283
tp284
a(S'ohcount'
p285
S'balena'
p286
S'balena/ohcount'
p287
tp288
a(S'ohcount'
p289
S'sylvestre'
p290
S'sylvestre/ohcount'
p291
tp292
a(S'ohcount'
p293
S'pmoura'
p294
S'pmoura/ohcount'
p295
tp296
a(S'ohcount'
p297
S'pshiryaev'
p298
S'pshiryaev/ohcount'
p299
tp300
a.