(lp0
(S'api-console'
p1
S'mulesoft'
p2
S'mulesoft/api-console'
p3
tp4
a(S'raml-java-parser'
p5
S'raml-org'
p6
S'raml-org/raml-java-parser'
p7
tp8
a(S'ramlfications'
p9
S'spotify'
p10
S'spotify/ramlfications'
p11
tp12
a(S'raml-dotnet-parser'
p13
S'raml-org'
p14
S'raml-org/raml-dotnet-parser'
p15
tp16
a(S'ramses-example'
p17
S'brandicted'
p18
S'brandicted/ramses-example'
p19
tp20
a(S'api'
p21
S'PhotoBackup'
p22
S'PhotoBackup/api'
p23
tp24
a(S'ramses-templates'
p25
S'adam-codeberg'
p26
S'adam-codeberg/ramses-templates'
p27
tp28
a(S'seller-schema'
p29
S'jet'
p30
S'jet/seller-schema'
p31
tp32
a(S'rest101_raml'
p33
S'irgalieri'
p34
S'irgalieri/rest101_raml'
p35
tp36
a(S'waste-service-standards'
p37
S'communitiesuk'
p38
S'communitiesuk/waste-service-standards'
p39
tp40
a(S'api-console'
p41
S'SNCF-SIV'
p42
S'SNCF-SIV/api-console'
p43
tp44
a(S'dvid-console'
p45
S'janelia-flyem'
p46
S'janelia-flyem/dvid-console'
p47
tp48
a(S'mss-demo'
p49
S'mulesoft-consulting'
p50
S'mulesoft-consulting/mss-demo'
p51
tp52
a(S'captogether'
p53
S'tonqa'
p54
S'tonqa/captogether'
p55
tp56
a(S'integration-test'
p57
S'khalsah'
p58
S'khalsah/integration-test'
p59
tp60
a(S'SalesforceChatter'
p61
S'raml-apis'
p62
S'raml-apis/SalesforceChatter'
p63
tp64
a(S'mule-api-kit'
p65
S'DavoCoder'
p66
S'DavoCoder/mule-api-kit'
p67
tp68
a(S'scraml-test-scala'
p69
S'atomicbits'
p70
S'atomicbits/scraml-test-scala'
p71
tp72
a(S'hf-eai-pcp'
p73
S'appnovation-hf'
p74
S'appnovation-hf/hf-eai-pcp'
p75
tp76
a(S'raml-java-client-generator'
p77
S'estebanwasinger'
p78
S'estebanwasinger/raml-java-client-generator'
p79
tp80
a(S'box-apihook'
p81
S'akanainc'
p82
S'akanainc/box-apihook'
p83
tp84
a(S'gravitee-management-webui'
p85
S'gravitee-io'
p86
S'gravitee-io/gravitee-management-webui'
p87
tp88
a(S'api-docs'
p89
S'GalacticFog'
p90
S'GalacticFog/api-docs'
p91
tp92
a(S'bramble'
p93
S'sordina'
p94
S'sordina/bramble'
p95
tp96
a(S'voicebase-developer-experience'
p97
S'voicebase'
p98
S'voicebase/voicebase-developer-experience'
p99
tp100
a(S'api-console'
p101
S'mulesoft'
p102
S'mulesoft/api-console'
p103
tp104
a(S'raml-java-parser'
p105
S'raml-org'
p106
S'raml-org/raml-java-parser'
p107
tp108
a(S'ramlfications'
p109
S'spotify'
p110
S'spotify/ramlfications'
p111
tp112
a(S'raml-dotnet-parser'
p113
S'raml-org'
p114
S'raml-org/raml-dotnet-parser'
p115
tp116
a(S'ramses-example'
p117
S'brandicted'
p118
S'brandicted/ramses-example'
p119
tp120
a(S'api'
p121
S'PhotoBackup'
p122
S'PhotoBackup/api'
p123
tp124
a(S'ramses-templates'
p125
S'adam-codeberg'
p126
S'adam-codeberg/ramses-templates'
p127
tp128
a(S'seller-schema'
p129
S'jet'
p130
S'jet/seller-schema'
p131
tp132
a(S'rest101_raml'
p133
S'irgalieri'
p134
S'irgalieri/rest101_raml'
p135
tp136
a(S'waste-service-standards'
p137
S'communitiesuk'
p138
S'communitiesuk/waste-service-standards'
p139
tp140
a(S'api-console'
p141
S'SNCF-SIV'
p142
S'SNCF-SIV/api-console'
p143
tp144
a(S'dvid-console'
p145
S'janelia-flyem'
p146
S'janelia-flyem/dvid-console'
p147
tp148
a(S'mss-demo'
p149
S'mulesoft-consulting'
p150
S'mulesoft-consulting/mss-demo'
p151
tp152
a(S'captogether'
p153
S'tonqa'
p154
S'tonqa/captogether'
p155
tp156
a(S'integration-test'
p157
S'khalsah'
p158
S'khalsah/integration-test'
p159
tp160
a(S'SalesforceChatter'
p161
S'raml-apis'
p162
S'raml-apis/SalesforceChatter'
p163
tp164
a(S'mule-api-kit'
p165
S'DavoCoder'
p166
S'DavoCoder/mule-api-kit'
p167
tp168
a(S'scraml-test-scala'
p169
S'atomicbits'
p170
S'atomicbits/scraml-test-scala'
p171
tp172
a(S'hf-eai-pcp'
p173
S'appnovation-hf'
p174
S'appnovation-hf/hf-eai-pcp'
p175
tp176
a(S'raml-java-client-generator'
p177
S'estebanwasinger'
p178
S'estebanwasinger/raml-java-client-generator'
p179
tp180
a(S'box-apihook'
p181
S'akanainc'
p182
S'akanainc/box-apihook'
p183
tp184
a(S'gravitee-management-webui'
p185
S'gravitee-io'
p186
S'gravitee-io/gravitee-management-webui'
p187
tp188
a(S'api-docs'
p189
S'GalacticFog'
p190
S'GalacticFog/api-docs'
p191
tp192
a(S'bramble'
p193
S'sordina'
p194
S'sordina/bramble'
p195
tp196
a(S'voicebase-developer-experience'
p197
S'voicebase'
p198
S'voicebase/voicebase-developer-experience'
p199
tp200
a(S'api-console'
p201
S'mulesoft'
p202
S'mulesoft/api-console'
p203
tp204
a(S'raml-java-parser'
p205
S'raml-org'
p206
S'raml-org/raml-java-parser'
p207
tp208
a(S'ramlfications'
p209
S'spotify'
p210
S'spotify/ramlfications'
p211
tp212
a(S'raml-dotnet-parser'
p213
S'raml-org'
p214
S'raml-org/raml-dotnet-parser'
p215
tp216
a(S'ramses-example'
p217
S'brandicted'
p218
S'brandicted/ramses-example'
p219
tp220
a(S'api'
p221
S'PhotoBackup'
p222
S'PhotoBackup/api'
p223
tp224
a(S'waste-service-standards'
p225
S'communitiesuk'
p226
S'communitiesuk/waste-service-standards'
p227
tp228
a(S'rest101_raml'
p229
S'irgalieri'
p230
S'irgalieri/rest101_raml'
p231
tp232
a(S'ramses-templates'
p233
S'adam-codeberg'
p234
S'adam-codeberg/ramses-templates'
p235
tp236
a(S'seller-schema'
p237
S'jet'
p238
S'jet/seller-schema'
p239
tp240
a(S'api-console'
p241
S'SNCF-SIV'
p242
S'SNCF-SIV/api-console'
p243
tp244
a(S'dvid-console'
p245
S'janelia-flyem'
p246
S'janelia-flyem/dvid-console'
p247
tp248
a(S'hello-world'
p249
S'amitinait'
p250
S'amitinait/hello-world'
p251
tp252
a(S'captogether'
p253
S'tonqa'
p254
S'tonqa/captogether'
p255
tp256
a(S'integration-test'
p257
S'khalsah'
p258
S'khalsah/integration-test'
p259
tp260
a(S'SalesforceChatter'
p261
S'raml-apis'
p262
S'raml-apis/SalesforceChatter'
p263
tp264
a(S'mule-api-kit'
p265
S'DavoCoder'
p266
S'DavoCoder/mule-api-kit'
p267
tp268
a(S'TAML'
p269
S'kkarthik9'
p270
S'kkarthik9/TAML'
p271
tp272
a(S'Saml'
p273
S'gandham38'
p274
S'gandham38/Saml'
p275
tp276
a(S'mss-demo'
p277
S'mulesoft-consulting'
p278
S'mulesoft-consulting/mss-demo'
p279
tp280
a(S'scraml-test-scala'
p281
S'atomicbits'
p282
S'atomicbits/scraml-test-scala'
p283
tp284
a(S'raml-java-client-generator'
p285
S'estebanwasinger'
p286
S'estebanwasinger/raml-java-client-generator'
p287
tp288
a(S'raml-for-jax-rs-void-demo'
p289
S'hennr'
p290
S'hennr/raml-for-jax-rs-void-demo'
p291
tp292
a(S'box-apihook'
p293
S'akanainc'
p294
S'akanainc/box-apihook'
p295
tp296
a(S'gravitee-management-webui'
p297
S'gravitee-io'
p298
S'gravitee-io/gravitee-management-webui'
p299
tp300
a.