(lp0
(S'AquaticPrime'
p1
S'bdrister'
p2
S'bdrister/AquaticPrime'
p3
tp4
a(S'ViMediaManager'
p5
S'vidalvanbergen'
p6
S'vidalvanbergen/ViMediaManager'
p7
tp8
a(S'macoslib'
p9
S'macoslib'
p10
S'macoslib/macoslib'
p11
tp12
a(S'WFS'
p13
S'arbp'
p14
S'arbp/WFS'
p15
tp16
a(S'IdleLogout'
p17
S'CLCMacTeam'
p18
S'CLCMacTeam/IdleLogout'
p19
tp20
a(S'RB-FTP'
p21
S'charonn0'
p22
S'charonn0/RB-FTP'
p23
tp24
a(S'OpenLingua'
p25
S'tempelmann'
p26
S'tempelmann/OpenLingua'
p27
tp28
a(S'cubeSQLAdmin'
p29
S'cubesql'
p30
S'cubesql/cubeSQLAdmin'
p31
tp32
a(S'rsfpdf'
p33
S'roblthegreat'
p34
S'roblthegreat/rsfpdf'
p35
tp36
a(S'RB-libcURL'
p37
S'charonn0'
p38
S'charonn0/RB-libcURL'
p39
tp40
a(S'AquaticPrime'
p41
S'maxvalle'
p42
S'maxvalle/AquaticPrime'
p43
tp44
a(S'Module_DutchTools'
p45
S'sworteu'
p46
S'sworteu/Module_DutchTools'
p47
tp48
a(S'BSLib'
p49
S'charonn0'
p50
S'charonn0/BSLib'
p51
tp52
a(S'WinLib'
p53
S'charonn0'
p54
S'charonn0/WinLib'
p55
tp56
a(S'AquaticPrime'
p57
S'tempelmann'
p58
S'tempelmann/AquaticPrime'
p59
tp60
a(S'XAddonManager'
p61
S'aussig'
p62
S'aussig/XAddonManager'
p63
tp64
a(S'custom-editfield'
p65
S'tempelmann'
p66
S'tempelmann/custom-editfield'
p67
tp68
a(S'WebServer'
p69
S'charonn0'
p70
S'charonn0/WebServer'
p71
tp72
a(S'AquaticPrime'
p73
S'zykloid'
p74
S'zykloid/AquaticPrime'
p75
tp76
a(S'Updater'
p77
S'charonn0'
p78
S'charonn0/Updater'
p79
tp80
a(S'Class_UpdateUIThread'
p81
S'sworteu'
p82
S'sworteu/Class_UpdateUIThread'
p83
tp84
a(S'AquaticPrime'
p85
S'adib'
p86
S'adib/AquaticPrime'
p87
tp88
a(S'WebTools'
p89
S'sworteu'
p90
S'sworteu/WebTools'
p91
tp92
a(S'AquaticPrime'
p93
S'MrNoodle'
p94
S'MrNoodle/AquaticPrime'
p95
tp96
a(S'athousandwords'
p97
S'charonn0'
p98
S'charonn0/athousandwords'
p99
tp100
a(S'macoslib'
p101
S'macoslib'
p102
S'macoslib/macoslib'
p103
tp104
a(S'AquaticPrime'
p105
S'bdrister'
p106
S'bdrister/AquaticPrime'
p107
tp108
a(S'ViMediaManager'
p109
S'vidalvanbergen'
p110
S'vidalvanbergen/ViMediaManager'
p111
tp112
a(S'WFS'
p113
S'arbp'
p114
S'arbp/WFS'
p115
tp116
a(S'IdleLogout'
p117
S'CLCMacTeam'
p118
S'CLCMacTeam/IdleLogout'
p119
tp120
a(S'RB-FTP'
p121
S'charonn0'
p122
S'charonn0/RB-FTP'
p123
tp124
a(S'OpenLingua'
p125
S'tempelmann'
p126
S'tempelmann/OpenLingua'
p127
tp128
a(S'cubeSQLAdmin'
p129
S'cubesql'
p130
S'cubesql/cubeSQLAdmin'
p131
tp132
a(S'RB-libcURL'
p133
S'charonn0'
p134
S'charonn0/RB-libcURL'
p135
tp136
a(S'Module_DutchTools'
p137
S'sworteu'
p138
S'sworteu/Module_DutchTools'
p139
tp140
a(S'AquaticPrime'
p141
S'maxvalle'
p142
S'maxvalle/AquaticPrime'
p143
tp144
a(S'rsfpdf'
p145
S'roblthegreat'
p146
S'roblthegreat/rsfpdf'
p147
tp148
a(S'XAddonManager'
p149
S'aussig'
p150
S'aussig/XAddonManager'
p151
tp152
a(S'AquaticPrime'
p153
S'tempelmann'
p154
S'tempelmann/AquaticPrime'
p155
tp156
a(S'custom-editfield'
p157
S'tempelmann'
p158
S'tempelmann/custom-editfield'
p159
tp160
a(S'BSLib'
p161
S'charonn0'
p162
S'charonn0/BSLib'
p163
tp164
a(S'WinLib'
p165
S'charonn0'
p166
S'charonn0/WinLib'
p167
tp168
a(S'WebServer'
p169
S'charonn0'
p170
S'charonn0/WebServer'
p171
tp172
a(S'AquaticPrime'
p173
S'zykloid'
p174
S'zykloid/AquaticPrime'
p175
tp176
a(S'Updater'
p177
S'charonn0'
p178
S'charonn0/Updater'
p179
tp180
a(S'Class_UpdateUIThread'
p181
S'sworteu'
p182
S'sworteu/Class_UpdateUIThread'
p183
tp184
a(S'AquaticPrime'
p185
S'adib'
p186
S'adib/AquaticPrime'
p187
tp188
a(S'AquaticPrime'
p189
S'MrNoodle'
p190
S'MrNoodle/AquaticPrime'
p191
tp192
a(S'WebTools'
p193
S'sworteu'
p194
S'sworteu/WebTools'
p195
tp196
a(S'RB-MC-rcon'
p197
S'charonn0'
p198
S'charonn0/RB-MC-rcon'
p199
tp200
a(S'macoslib'
p201
S'macoslib'
p202
S'macoslib/macoslib'
p203
tp204
a(S'AquaticPrime'
p205
S'bdrister'
p206
S'bdrister/AquaticPrime'
p207
tp208
a(S'ViMediaManager'
p209
S'vidalvanbergen'
p210
S'vidalvanbergen/ViMediaManager'
p211
tp212
a(S'WFS'
p213
S'arbp'
p214
S'arbp/WFS'
p215
tp216
a(S'IdleLogout'
p217
S'CLCMacTeam'
p218
S'CLCMacTeam/IdleLogout'
p219
tp220
a(S'RB-FTP'
p221
S'charonn0'
p222
S'charonn0/RB-FTP'
p223
tp224
a(S'OpenLingua'
p225
S'tempelmann'
p226
S'tempelmann/OpenLingua'
p227
tp228
a(S'cubeSQLAdmin'
p229
S'cubesql'
p230
S'cubesql/cubeSQLAdmin'
p231
tp232
a(S'RB-libcURL'
p233
S'charonn0'
p234
S'charonn0/RB-libcURL'
p235
tp236
a(S'Module_DutchTools'
p237
S'sworteu'
p238
S'sworteu/Module_DutchTools'
p239
tp240
a(S'AquaticPrime'
p241
S'maxvalle'
p242
S'maxvalle/AquaticPrime'
p243
tp244
a(S'rsfpdf'
p245
S'roblthegreat'
p246
S'roblthegreat/rsfpdf'
p247
tp248
a(S'XAddonManager'
p249
S'aussig'
p250
S'aussig/XAddonManager'
p251
tp252
a(S'AquaticPrime'
p253
S'tempelmann'
p254
S'tempelmann/AquaticPrime'
p255
tp256
a(S'custom-editfield'
p257
S'tempelmann'
p258
S'tempelmann/custom-editfield'
p259
tp260
a(S'BSLib'
p261
S'charonn0'
p262
S'charonn0/BSLib'
p263
tp264
a(S'WinLib'
p265
S'charonn0'
p266
S'charonn0/WinLib'
p267
tp268
a(S'WebServer'
p269
S'charonn0'
p270
S'charonn0/WebServer'
p271
tp272
a(S'AquaticPrime'
p273
S'zykloid'
p274
S'zykloid/AquaticPrime'
p275
tp276
a(S'Updater'
p277
S'charonn0'
p278
S'charonn0/Updater'
p279
tp280
a(S'Class_UpdateUIThread'
p281
S'sworteu'
p282
S'sworteu/Class_UpdateUIThread'
p283
tp284
a(S'AquaticPrime'
p285
S'adib'
p286
S'adib/AquaticPrime'
p287
tp288
a(S'AquaticPrime'
p289
S'MrNoodle'
p290
S'MrNoodle/AquaticPrime'
p291
tp292
a(S'WebTools'
p293
S'sworteu'
p294
S'sworteu/WebTools'
p295
tp296
a(S'RB-MC-rcon'
p297
S'charonn0'
p298
S'charonn0/RB-MC-rcon'
p299
tp300
a.