(lp0
(S'cheyenne'
p1
S'dockimbel'
p2
S'dockimbel/cheyenne'
p3
tp4
a(S'bbscrapeR'
p5
S'cpsievert'
p6
S'cpsievert/bbscrapeR'
p7
tp8
a(S'rebol-test'
p9
S'rebolsource'
p10
S'rebolsource/rebol-test'
p11
tp12
a(S'Rebol3'
p13
S'gchiu'
p14
S'gchiu/Rebol3'
p15
tp16
a(S'rebol-syntax'
p17
S'rebolsource'
p18
S'rebolsource/rebol-syntax'
p19
tp20
a(S'rebmu'
p21
S'hostilefork'
p22
S'hostilefork/rebmu'
p23
tp24
a(S'best_ex'
p25
S'blalpert'
p26
S'blalpert/best_ex'
p27
tp28
a(S'geany-dark-scheme'
p29
S'dflock'
p30
S'dflock/geany-dark-scheme'
p31
tp32
a(S'rs'
p33
S'Oldes'
p34
S'Oldes/rs'
p35
tp36
a(S'rebolbot'
p37
S'gchiu'
p38
S'gchiu/rebolbot'
p39
tp40
a(S'r3-gui'
p41
S'saphirion'
p42
S'saphirion/r3-gui'
p43
tp44
a(S'rebol3'
p45
S'earl'
p46
S'earl/rebol3'
p47
tp48
a(S'QuarterMaster'
p49
S'rgchris'
p50
S'rgchris/QuarterMaster'
p51
tp52
a(S'rebol-patches'
p53
S'BrianHawley'
p54
S'BrianHawley/rebol-patches'
p55
tp56
a(S'mysql-r3'
p57
S'zsx'
p58
S'zsx/mysql-r3'
p59
tp60
a(S'RebToStatic'
p61
S'jankom'
p62
S'jankom/RebToStatic'
p63
tp64
a(S'documentation'
p65
S'saphirion'
p66
S'saphirion/documentation'
p67
tp68
a(S'OpenME'
p69
S'greggirwin'
p70
S'greggirwin/OpenME'
p71
tp72
a(S'curecode'
p73
S'dockimbel'
p74
S'dockimbel/curecode'
p75
tp76
a(S'Rebol2'
p77
S'gchiu'
p78
S'gchiu/Rebol2'
p79
tp80
a(S'draem'
p81
S'hostilefork'
p82
S'hostilefork/draem'
p83
tp84
a(S'VID-Extension-Kit'
p85
S'henrikmk'
p86
S'henrikmk/VID-Extension-Kit'
p87
tp88
a(S'Scripts'
p89
S'rgchris'
p90
S'rgchris/Scripts'
p91
tp92
a(S'rubol'
p93
S'hostilefork'
p94
S'hostilefork/rubol'
p95
tp96
a(S'lest'
p97
S'rebolek'
p98
S'rebolek/lest'
p99
tp100
a(S'cheyenne'
p101
S'dockimbel'
p102
S'dockimbel/cheyenne'
p103
tp104
a(S'bbscrapeR'
p105
S'cpsievert'
p106
S'cpsievert/bbscrapeR'
p107
tp108
a(S'rebol-test'
p109
S'rebolsource'
p110
S'rebolsource/rebol-test'
p111
tp112
a(S'Rebol3'
p113
S'gchiu'
p114
S'gchiu/Rebol3'
p115
tp116
a(S'rebol-syntax'
p117
S'rebolsource'
p118
S'rebolsource/rebol-syntax'
p119
tp120
a(S'rebmu'
p121
S'hostilefork'
p122
S'hostilefork/rebmu'
p123
tp124
a(S'best_ex'
p125
S'blalpert'
p126
S'blalpert/best_ex'
p127
tp128
a(S'geany-dark-scheme'
p129
S'dflock'
p130
S'dflock/geany-dark-scheme'
p131
tp132
a(S'rs'
p133
S'Oldes'
p134
S'Oldes/rs'
p135
tp136
a(S'rebolbot'
p137
S'gchiu'
p138
S'gchiu/rebolbot'
p139
tp140
a(S'r3-gui'
p141
S'saphirion'
p142
S'saphirion/r3-gui'
p143
tp144
a(S'rebol3'
p145
S'earl'
p146
S'earl/rebol3'
p147
tp148
a(S'QuarterMaster'
p149
S'rgchris'
p150
S'rgchris/QuarterMaster'
p151
tp152
a(S'rebol-patches'
p153
S'BrianHawley'
p154
S'BrianHawley/rebol-patches'
p155
tp156
a(S'mysql-r3'
p157
S'zsx'
p158
S'zsx/mysql-r3'
p159
tp160
a(S'RebToStatic'
p161
S'jankom'
p162
S'jankom/RebToStatic'
p163
tp164
a(S'documentation'
p165
S'saphirion'
p166
S'saphirion/documentation'
p167
tp168
a(S'OpenME'
p169
S'greggirwin'
p170
S'greggirwin/OpenME'
p171
tp172
a(S'curecode'
p173
S'dockimbel'
p174
S'dockimbel/curecode'
p175
tp176
a(S'Rebol2'
p177
S'gchiu'
p178
S'gchiu/Rebol2'
p179
tp180
a(S'draem'
p181
S'hostilefork'
p182
S'hostilefork/draem'
p183
tp184
a(S'VID-Extension-Kit'
p185
S'henrikmk'
p186
S'henrikmk/VID-Extension-Kit'
p187
tp188
a(S'Scripts'
p189
S'rgchris'
p190
S'rgchris/Scripts'
p191
tp192
a(S'rubol'
p193
S'hostilefork'
p194
S'hostilefork/rubol'
p195
tp196
a(S'lest'
p197
S'rebolek'
p198
S'rebolek/lest'
p199
tp200
a(S'cheyenne'
p201
S'dockimbel'
p202
S'dockimbel/cheyenne'
p203
tp204
a(S'bbscrapeR'
p205
S'cpsievert'
p206
S'cpsievert/bbscrapeR'
p207
tp208
a(S'rebol-test'
p209
S'rebolsource'
p210
S'rebolsource/rebol-test'
p211
tp212
a(S'Rebol3'
p213
S'gchiu'
p214
S'gchiu/Rebol3'
p215
tp216
a(S'rebol-syntax'
p217
S'rebolsource'
p218
S'rebolsource/rebol-syntax'
p219
tp220
a(S'rebmu'
p221
S'hostilefork'
p222
S'hostilefork/rebmu'
p223
tp224
a(S'best_ex'
p225
S'blalpert'
p226
S'blalpert/best_ex'
p227
tp228
a(S'geany-dark-scheme'
p229
S'dflock'
p230
S'dflock/geany-dark-scheme'
p231
tp232
a(S'rs'
p233
S'Oldes'
p234
S'Oldes/rs'
p235
tp236
a(S'rebolbot'
p237
S'gchiu'
p238
S'gchiu/rebolbot'
p239
tp240
a(S'r3-gui'
p241
S'saphirion'
p242
S'saphirion/r3-gui'
p243
tp244
a(S'rebol3'
p245
S'earl'
p246
S'earl/rebol3'
p247
tp248
a(S'QuarterMaster'
p249
S'rgchris'
p250
S'rgchris/QuarterMaster'
p251
tp252
a(S'rebol-patches'
p253
S'BrianHawley'
p254
S'BrianHawley/rebol-patches'
p255
tp256
a(S'mysql-r3'
p257
S'zsx'
p258
S'zsx/mysql-r3'
p259
tp260
a(S'RebToStatic'
p261
S'jankom'
p262
S'jankom/RebToStatic'
p263
tp264
a(S'documentation'
p265
S'saphirion'
p266
S'saphirion/documentation'
p267
tp268
a(S'OpenME'
p269
S'greggirwin'
p270
S'greggirwin/OpenME'
p271
tp272
a(S'curecode'
p273
S'dockimbel'
p274
S'dockimbel/curecode'
p275
tp276
a(S'Rebol2'
p277
S'gchiu'
p278
S'gchiu/Rebol2'
p279
tp280
a(S'draem'
p281
S'hostilefork'
p282
S'hostilefork/draem'
p283
tp284
a(S'VID-Extension-Kit'
p285
S'henrikmk'
p286
S'henrikmk/VID-Extension-Kit'
p287
tp288
a(S'Scripts'
p289
S'rgchris'
p290
S'rgchris/Scripts'
p291
tp292
a(S'rubol'
p293
S'hostilefork'
p294
S'hostilefork/rubol'
p295
tp296
a(S'lest'
p297
S'rebolek'
p298
S'rebolek/lest'
p299
tp300
a.