(lp0
(S'red'
p1
S'red'
p2
S'red/red'
p3
tp4
a(S'Red-System-Libs'
p5
S'PeterWAWood'
p6
S'PeterWAWood/Red-System-Libs'
p7
tp8
a(S'red'
p9
S'qtxie'
p10
S'qtxie/red'
p11
tp12
a(S'YaceReloaded'
p13
S'martinus'
p14
S'martinus/YaceReloaded'
p15
tp16
a(S'RS-fossil-mirror'
p17
S'kealist'
p18
S'kealist/RS-fossil-mirror'
p19
tp20
a(S'glfw-red'
p21
S'ldci'
p22
S'ldci/glfw-red'
p23
tp24
a(S'Xiangqi'
p25
S'iArnold'
p26
S'iArnold/Xiangqi'
p27
tp28
a(S'red-mono'
p29
S'iceflow19'
p30
S'iceflow19/red-mono'
p31
tp32
a(S'Red'
p33
S'Oldes'
p34
S'Oldes/Red'
p35
tp36
a(S'CwUnit'
p37
S'MarkGoldberg'
p38
S'MarkGoldberg/CwUnit'
p39
tp40
a(S're-scripts'
p41
S'WayneCui'
p42
S'WayneCui/re-scripts'
p43
tp44
a(S'Codewars'
p45
S'cjbrowne'
p46
S'cjbrowne/Codewars'
p47
tp48
a(S'github-language-rainbow'
p49
S'cfreeley'
p50
S'cfreeley/github-language-rainbow'
p51
tp52
a(S'Red'
p53
S'0branch'
p54
S'0branch/Red'
p55
tp56
a(S'Redback'
p57
S'Skrylar'
p58
S'Skrylar/Redback'
p59
tp60
a(S'red'
p61
S'dreamsxin'
p62
S'dreamsxin/red'
p63
tp64
a(S'red'
p65
S'Anastasiia-Lada'
p66
S'Anastasiia-Lada/red'
p67
tp68
a(S'RequirementEngineering'
p69
S'JeppeHartm'
p70
S'JeppeHartm/RequirementEngineering'
p71
tp72
a(S'red'
p73
S'keepsunny'
p74
S'keepsunny/red'
p75
tp76
a(S'red'
p77
S'gunnarahlberg'
p78
S'gunnarahlberg/red'
p79
tp80
a(S'red'
p81
S'Robina44'
p82
S'Robina44/red'
p83
tp84
a(S'corewars'
p85
S'surma-dump'
p86
S'surma-dump/corewars'
p87
tp88
a(S'red'
p89
S'Norqy'
p90
S'Norqy/red'
p91
tp92
a(S'corewar'
p93
S'rodrigosetti'
p94
S'rodrigosetti/corewar'
p95
tp96
a(S'red-sdl-bindings'
p97
S'JacobGood1'
p98
S'JacobGood1/red-sdl-bindings'
p99
tp100
a(S'red'
p101
S'red'
p102
S'red/red'
p103
tp104
a(S'Red-System-Libs'
p105
S'PeterWAWood'
p106
S'PeterWAWood/Red-System-Libs'
p107
tp108
a(S'red'
p109
S'qtxie'
p110
S'qtxie/red'
p111
tp112
a(S'YaceReloaded'
p113
S'martinus'
p114
S'martinus/YaceReloaded'
p115
tp116
a(S'RS-fossil-mirror'
p117
S'kealist'
p118
S'kealist/RS-fossil-mirror'
p119
tp120
a(S'glfw-red'
p121
S'ldci'
p122
S'ldci/glfw-red'
p123
tp124
a(S'Xiangqi'
p125
S'iArnold'
p126
S'iArnold/Xiangqi'
p127
tp128
a(S'red-mono'
p129
S'iceflow19'
p130
S'iceflow19/red-mono'
p131
tp132
a(S'Red'
p133
S'Oldes'
p134
S'Oldes/Red'
p135
tp136
a(S'CwUnit'
p137
S'MarkGoldberg'
p138
S'MarkGoldberg/CwUnit'
p139
tp140
a(S're-scripts'
p141
S'WayneCui'
p142
S'WayneCui/re-scripts'
p143
tp144
a(S'Codewars'
p145
S'cjbrowne'
p146
S'cjbrowne/Codewars'
p147
tp148
a(S'github-language-rainbow'
p149
S'cfreeley'
p150
S'cfreeley/github-language-rainbow'
p151
tp152
a(S'Red'
p153
S'0branch'
p154
S'0branch/Red'
p155
tp156
a(S'Redback'
p157
S'Skrylar'
p158
S'Skrylar/Redback'
p159
tp160
a(S'red'
p161
S'dreamsxin'
p162
S'dreamsxin/red'
p163
tp164
a(S'red'
p165
S'Anastasiia-Lada'
p166
S'Anastasiia-Lada/red'
p167
tp168
a(S'RequirementEngineering'
p169
S'JeppeHartm'
p170
S'JeppeHartm/RequirementEngineering'
p171
tp172
a(S'red'
p173
S'keepsunny'
p174
S'keepsunny/red'
p175
tp176
a(S'red'
p177
S'gunnarahlberg'
p178
S'gunnarahlberg/red'
p179
tp180
a(S'red'
p181
S'Robina44'
p182
S'Robina44/red'
p183
tp184
a(S'corewars'
p185
S'surma-dump'
p186
S'surma-dump/corewars'
p187
tp188
a(S'red'
p189
S'Norqy'
p190
S'Norqy/red'
p191
tp192
a(S'corewar'
p193
S'rodrigosetti'
p194
S'rodrigosetti/corewar'
p195
tp196
a(S'red-sdl-bindings'
p197
S'JacobGood1'
p198
S'JacobGood1/red-sdl-bindings'
p199
tp200
a(S'red'
p201
S'red'
p202
S'red/red'
p203
tp204
a(S'Red-System-Libs'
p205
S'PeterWAWood'
p206
S'PeterWAWood/Red-System-Libs'
p207
tp208
a(S'red'
p209
S'qtxie'
p210
S'qtxie/red'
p211
tp212
a(S'Xiangqi'
p213
S'iArnold'
p214
S'iArnold/Xiangqi'
p215
tp216
a(S'RS-fossil-mirror'
p217
S'kealist'
p218
S'kealist/RS-fossil-mirror'
p219
tp220
a(S'glfw-red'
p221
S'ldci'
p222
S'ldci/glfw-red'
p223
tp224
a(S'YaceReloaded'
p225
S'martinus'
p226
S'martinus/YaceReloaded'
p227
tp228
a(S'Red'
p229
S'Oldes'
p230
S'Oldes/Red'
p231
tp232
a(S'CwUnit'
p233
S'MarkGoldberg'
p234
S'MarkGoldberg/CwUnit'
p235
tp236
a(S'red-mono'
p237
S'iceflow19'
p238
S'iceflow19/red-mono'
p239
tp240
a(S'Codewars'
p241
S'cjbrowne'
p242
S'cjbrowne/Codewars'
p243
tp244
a(S're-scripts'
p245
S'WayneCui'
p246
S'WayneCui/re-scripts'
p247
tp248
a(S'github-language-rainbow'
p249
S'cfreeley'
p250
S'cfreeley/github-language-rainbow'
p251
tp252
a(S'red'
p253
S'Robina44'
p254
S'Robina44/red'
p255
tp256
a(S'red'
p257
S'Anastasiia-Lada'
p258
S'Anastasiia-Lada/red'
p259
tp260
a(S'red'
p261
S'dreamsxin'
p262
S'dreamsxin/red'
p263
tp264
a(S'UBERPROGRAMMINGLANGUAGERAINBOWSANDWORLDMODELS'
p265
S'UBERANANTAGUNA'
p266
S'UBERANANTAGUNA/UBERPROGRAMMINGLANGUAGERAINBOWSANDWORLDMODELS'
p267
tp268
a(S'red-sdl-bindings'
p269
S'JacobGood1'
p270
S'JacobGood1/red-sdl-bindings'
p271
tp272
a(S'RequirementEngineering'
p273
S'JeppeHartm'
p274
S'JeppeHartm/RequirementEngineering'
p275
tp276
a(S'Red'
p277
S'0branch'
p278
S'0branch/Red'
p279
tp280
a(S'Redback'
p281
S'Skrylar'
p282
S'Skrylar/Redback'
p283
tp284
a(S'corewar'
p285
S'rodrigosetti'
p286
S'rodrigosetti/corewar'
p287
tp288
a(S'red'
p289
S'keepsunny'
p290
S'keepsunny/red'
p291
tp292
a(S'red'
p293
S'gunnarahlberg'
p294
S'gunnarahlberg/red'
p295
tp296
a(S'red'
p297
S'Norqy'
p298
S'Norqy/red'
p299
tp300
a.