(lp0
(S'clockdocs'
p1
S'ClockworkNet'
p2
S'ClockworkNet/clockdocs'
p3
tp4
a(S'cakewalk'
p5
S'vpostman'
p6
S'vpostman/cakewalk'
p7
tp8
a(S'cabel'
p9
S'robbiehinch'
p10
S'robbiehinch/cabel'
p11
tp12
a(S'clockdocs'
p13
S'sloped'
p14
S'sloped/clockdocs'
p15
tp16
a(S'clockdocs'
p17
S'ClockworkNet'
p18
S'ClockworkNet/clockdocs'
p19
tp20
a(S'cakewalk'
p21
S'vpostman'
p22
S'vpostman/cakewalk'
p23
tp24
a(S'cabel'
p25
S'robbiehinch'
p26
S'robbiehinch/cabel'
p27
tp28
a(S'clockdocs'
p29
S'sloped'
p30
S'sloped/clockdocs'
p31
tp32
a(S'clockdocs'
p33
S'ClockworkNet'
p34
S'ClockworkNet/clockdocs'
p35
tp36
a(S'cakewalk'
p37
S'vpostman'
p38
S'vpostman/cakewalk'
p39
tp40
a(S'cabel'
p41
S'robbiehinch'
p42
S'robbiehinch/cabel'
p43
tp44
a(S'clockdocs'
p45
S'sloped'
p46
S'sloped/clockdocs'
p47
tp48
a.