(lp0
(S'rust-encoding'
p1
S'lifthrasiir'
p2
S'lifthrasiir/rust-encoding'
p3
tp4
a(S'norx-rust'
p5
S'sneves'
p6
S'sneves/norx-rust'
p7
tp8
a(S'analit'
p9
S'jswrenn'
p10
S'jswrenn/analit'
p11
tp12
a(S'rust-cpp'
p13
S'bfops'
p14
S'bfops/rust-cpp'
p15
tp16
a(S'shaders'
p17
S'PistonDevelopers'
p18
S'PistonDevelopers/shaders'
p19
tp20
a(S'ipc-rs'
p21
S'alexcrichton'
p22
S'alexcrichton/ipc-rs'
p23
tp24
a(S'rust-iup-sys'
p25
S'dcampbell24'
p26
S'dcampbell24/rust-iup-sys'
p27
tp28
a(S'brotli'
p29
S'peter-bertok'
p30
S'peter-bertok/brotli'
p31
tp32
a(S'Redsparc-Toolkit'
p33
S'Z5T1'
p34
S'Z5T1/Redsparc-Toolkit'
p35
tp36
a(S'platform-frameworks-compile-slang'
p37
S'hgl888'
p38
S'hgl888/platform-frameworks-compile-slang'
p39
tp40
a(S'fft2d_renderscript'
p41
S'mamunul'
p42
S'mamunul/fft2d_renderscript'
p43
tp44
a(S'emagick.rs'
p45
S'nlfiedler'
p46
S'nlfiedler/emagick.rs'
p47
tp48
a(S'renderscript'
p49
S'ncwmdsf'
p50
S'ncwmdsf/renderscript'
p51
tp52
a(S'dns'
p53
S'amarc'
p54
S'amarc/dns'
p55
tp56
a(S'rust-airhockey'
p57
S'sarvex'
p58
S'sarvex/rust-airhockey'
p59
tp60
a(S'rust-encoding'
p61
S'SimonSapin'
p62
S'SimonSapin/rust-encoding'
p63
tp64
a(S'brotli'
p65
S'llogiq'
p66
S'llogiq/brotli'
p67
tp68
a(S'aggregator'
p69
S'avibryant'
p70
S'avibryant/aggregator'
p71
tp72
a(S'FractviewRenderscript'
p73
S'searles'
p74
S'searles/FractviewRenderscript'
p75
tp76
a(S'rabbitmq-rust-client'
p77
S'oroid'
p78
S'oroid/rabbitmq-rust-client'
p79
tp80
a(S'toy-rust-ipfs'
p81
S'nham'
p82
S'nham/toy-rust-ipfs'
p83
tp84
a(S'email-downloader'
p85
S'AndreAhmed'
p86
S'AndreAhmed/email-downloader'
p87
tp88
a(S'Pemrograman4'
p89
S'munjintaoroni'
p90
S'munjintaoroni/Pemrograman4'
p91
tp92
a(S'node15-box2d-vvvv'
p93
S'melmo'
p94
S'melmo/node15-box2d-vvvv'
p95
tp96
a(S'Pemrograman-IV'
p97
S'mif23'
p98
S'mif23/Pemrograman-IV'
p99
tp100
a(S'rust-encoding'
p101
S'lifthrasiir'
p102
S'lifthrasiir/rust-encoding'
p103
tp104
a(S'norx-rust'
p105
S'sneves'
p106
S'sneves/norx-rust'
p107
tp108
a(S'analit'
p109
S'jswrenn'
p110
S'jswrenn/analit'
p111
tp112
a(S'rust-cpp'
p113
S'bfops'
p114
S'bfops/rust-cpp'
p115
tp116
a(S'shaders'
p117
S'PistonDevelopers'
p118
S'PistonDevelopers/shaders'
p119
tp120
a(S'ipc-rs'
p121
S'alexcrichton'
p122
S'alexcrichton/ipc-rs'
p123
tp124
a(S'rust-iup-sys'
p125
S'dcampbell24'
p126
S'dcampbell24/rust-iup-sys'
p127
tp128
a(S'brotli'
p129
S'peter-bertok'
p130
S'peter-bertok/brotli'
p131
tp132
a(S'Redsparc-Toolkit'
p133
S'Z5T1'
p134
S'Z5T1/Redsparc-Toolkit'
p135
tp136
a(S'platform-frameworks-compile-slang'
p137
S'hgl888'
p138
S'hgl888/platform-frameworks-compile-slang'
p139
tp140
a(S'fft2d_renderscript'
p141
S'mamunul'
p142
S'mamunul/fft2d_renderscript'
p143
tp144
a(S'emagick.rs'
p145
S'nlfiedler'
p146
S'nlfiedler/emagick.rs'
p147
tp148
a(S'renderscript'
p149
S'ncwmdsf'
p150
S'ncwmdsf/renderscript'
p151
tp152
a(S'dns'
p153
S'amarc'
p154
S'amarc/dns'
p155
tp156
a(S'rust-airhockey'
p157
S'sarvex'
p158
S'sarvex/rust-airhockey'
p159
tp160
a(S'rust-encoding'
p161
S'SimonSapin'
p162
S'SimonSapin/rust-encoding'
p163
tp164
a(S'brotli'
p165
S'llogiq'
p166
S'llogiq/brotli'
p167
tp168
a(S'aggregator'
p169
S'avibryant'
p170
S'avibryant/aggregator'
p171
tp172
a(S'FractviewRenderscript'
p173
S'searles'
p174
S'searles/FractviewRenderscript'
p175
tp176
a(S'rabbitmq-rust-client'
p177
S'oroid'
p178
S'oroid/rabbitmq-rust-client'
p179
tp180
a(S'toy-rust-ipfs'
p181
S'nham'
p182
S'nham/toy-rust-ipfs'
p183
tp184
a(S'email-downloader'
p185
S'AndreAhmed'
p186
S'AndreAhmed/email-downloader'
p187
tp188
a(S'Pemrograman4'
p189
S'munjintaoroni'
p190
S'munjintaoroni/Pemrograman4'
p191
tp192
a(S'node15-box2d-vvvv'
p193
S'melmo'
p194
S'melmo/node15-box2d-vvvv'
p195
tp196
a(S'Pemrograman-IV'
p197
S'mif23'
p198
S'mif23/Pemrograman-IV'
p199
tp200
a(S'rust-encoding'
p201
S'lifthrasiir'
p202
S'lifthrasiir/rust-encoding'
p203
tp204
a(S'norx-rust'
p205
S'sneves'
p206
S'sneves/norx-rust'
p207
tp208
a(S'analit'
p209
S'jswrenn'
p210
S'jswrenn/analit'
p211
tp212
a(S'rust-cpp'
p213
S'bfops'
p214
S'bfops/rust-cpp'
p215
tp216
a(S'shaders'
p217
S'PistonDevelopers'
p218
S'PistonDevelopers/shaders'
p219
tp220
a(S'ipc-rs'
p221
S'alexcrichton'
p222
S'alexcrichton/ipc-rs'
p223
tp224
a(S'rust-iup-sys'
p225
S'dcampbell24'
p226
S'dcampbell24/rust-iup-sys'
p227
tp228
a(S'brotli'
p229
S'peter-bertok'
p230
S'peter-bertok/brotli'
p231
tp232
a(S'Redsparc-Toolkit'
p233
S'Z5T1'
p234
S'Z5T1/Redsparc-Toolkit'
p235
tp236
a(S'platform-frameworks-compile-slang'
p237
S'hgl888'
p238
S'hgl888/platform-frameworks-compile-slang'
p239
tp240
a(S'fft2d_renderscript'
p241
S'mamunul'
p242
S'mamunul/fft2d_renderscript'
p243
tp244
a(S'emagick.rs'
p245
S'nlfiedler'
p246
S'nlfiedler/emagick.rs'
p247
tp248
a(S'renderscript'
p249
S'ncwmdsf'
p250
S'ncwmdsf/renderscript'
p251
tp252
a(S'dns'
p253
S'amarc'
p254
S'amarc/dns'
p255
tp256
a(S'rust-airhockey'
p257
S'sarvex'
p258
S'sarvex/rust-airhockey'
p259
tp260
a(S'rust-encoding'
p261
S'SimonSapin'
p262
S'SimonSapin/rust-encoding'
p263
tp264
a(S'brotli'
p265
S'llogiq'
p266
S'llogiq/brotli'
p267
tp268
a(S'aggregator'
p269
S'avibryant'
p270
S'avibryant/aggregator'
p271
tp272
a(S'FractviewRenderscript'
p273
S'searles'
p274
S'searles/FractviewRenderscript'
p275
tp276
a(S'rabbitmq-rust-client'
p277
S'oroid'
p278
S'oroid/rabbitmq-rust-client'
p279
tp280
a(S'toy-rust-ipfs'
p281
S'nham'
p282
S'nham/toy-rust-ipfs'
p283
tp284
a(S'email-downloader'
p285
S'AndreAhmed'
p286
S'AndreAhmed/email-downloader'
p287
tp288
a(S'Pemrograman4'
p289
S'munjintaoroni'
p290
S'munjintaoroni/Pemrograman4'
p291
tp292
a(S'node15-box2d-vvvv'
p293
S'melmo'
p294
S'melmo/node15-box2d-vvvv'
p295
tp296
a(S'Pemrograman-IV'
p297
S'mif23'
p298
S'mif23/Pemrograman-IV'
p299
tp300
a.