(lp0
(S'integration'
p1
S'opendaylight'
p2
S'opendaylight/integration'
p3
tp4
a(S'robotframework-selenium2screenshots'
p5
S'datakurre'
p6
S'datakurre/robotframework-selenium2screenshots'
p7
tp8
a(S'RobotFramework-Selenium2Library'
p9
S'Atihinen'
p10
S'Atihinen/RobotFramework-Selenium2Library'
p11
tp12
a(S'DosDontsSlides'
p13
S'robotframework'
p14
S'robotframework/DosDontsSlides'
p15
tp16
a(S'course-robotframework'
p17
S'up1'
p18
S'up1/course-robotframework'
p19
tp20
a(S'smeserver-test-automation'
p21
S'MarcoHess'
p22
S'MarcoHess/smeserver-test-automation'
p23
tp24
a(S'robotframework-ondemand'
p25
S'ferronrsmith'
p26
S'ferronrsmith/robotframework-ondemand'
p27
tp28
a(S'IntroSlides'
p29
S'robotframework'
p30
S'robotframework/IntroSlides'
p31
tp32
a(S'robotframework-faker-example'
p33
S'laurentbristiel'
p34
S'laurentbristiel/robotframework-faker-example'
p35
tp36
a(S'RobotFramework-HttpLibrary-demo'
p37
S'Atihinen'
p38
S'Atihinen/RobotFramework-HttpLibrary-demo'
p39
tp40
a(S'ios-robotframework-appium'
p41
S'medullan'
p42
S'medullan/ios-robotframework-appium'
p43
tp44
a(S'openafs-robotest'
p45
S'marciobarbosa'
p46
S'marciobarbosa/openafs-robotest'
p47
tp48
a(S'integration-test'
p49
S'opendaylight'
p50
S'opendaylight/integration-test'
p51
tp52
a(S'robotframework'
p53
S'ntymtsiv'
p54
S'ntymtsiv/robotframework'
p55
tp56
a(S'test'
p57
S'jussimalinen'
p58
S'jussimalinen/test'
p59
tp60
a(S'simple-robot-example'
p61
S'sanitz'
p62
S'sanitz/simple-robot-example'
p63
tp64
a(S'robot_carepass_testing'
p65
S'ferronrsmith'
p66
S'ferronrsmith/robot_carepass_testing'
p67
tp68
a(S'robot_framework_starter'
p69
S'ferronrsmith'
p70
S'ferronrsmith/robot_framework_starter'
p71
tp72
a(S'oira.test'
p73
S'syslabcom'
p74
S'syslabcom/oira.test'
p75
tp76
a(S'motion-planning-data'
p77
S'adnanademovic'
p78
S'adnanademovic/motion-planning-data'
p79
tp80
a(S'RoyRFSCodes'
p81
S'roytest001'
p82
S'roytest001/RoyRFSCodes'
p83
tp84
a(S'robotframework-selenium2library-dojo-org-site'
p85
S'laurentbristiel'
p86
S'laurentbristiel/robotframework-selenium2library-dojo-org-site'
p87
tp88
a(S'Robot-Demo-With_selenium2Library'
p89
S'marufjont'
p90
S'marufjont/Robot-Demo-With_selenium2Library'
p91
tp92
a(S'odoo-robot-framework'
p93
S'brain-tec'
p94
S'brain-tec/odoo-robot-framework'
p95
tp96
a(S'shop_test'
p97
S'about0'
p98
S'about0/shop_test'
p99
tp100
a(S'integration'
p101
S'opendaylight'
p102
S'opendaylight/integration'
p103
tp104
a(S'robotframework-selenium2screenshots'
p105
S'datakurre'
p106
S'datakurre/robotframework-selenium2screenshots'
p107
tp108
a(S'RobotFramework-Selenium2Library'
p109
S'Atihinen'
p110
S'Atihinen/RobotFramework-Selenium2Library'
p111
tp112
a(S'DosDontsSlides'
p113
S'robotframework'
p114
S'robotframework/DosDontsSlides'
p115
tp116
a(S'course-robotframework'
p117
S'up1'
p118
S'up1/course-robotframework'
p119
tp120
a(S'smeserver-test-automation'
p121
S'MarcoHess'
p122
S'MarcoHess/smeserver-test-automation'
p123
tp124
a(S'robotframework-ondemand'
p125
S'ferronrsmith'
p126
S'ferronrsmith/robotframework-ondemand'
p127
tp128
a(S'IntroSlides'
p129
S'robotframework'
p130
S'robotframework/IntroSlides'
p131
tp132
a(S'robotframework-faker-example'
p133
S'laurentbristiel'
p134
S'laurentbristiel/robotframework-faker-example'
p135
tp136
a(S'RobotFramework-HttpLibrary-demo'
p137
S'Atihinen'
p138
S'Atihinen/RobotFramework-HttpLibrary-demo'
p139
tp140
a(S'ios-robotframework-appium'
p141
S'medullan'
p142
S'medullan/ios-robotframework-appium'
p143
tp144
a(S'openafs-robotest'
p145
S'marciobarbosa'
p146
S'marciobarbosa/openafs-robotest'
p147
tp148
a(S'integration-test'
p149
S'opendaylight'
p150
S'opendaylight/integration-test'
p151
tp152
a(S'robotframework'
p153
S'ntymtsiv'
p154
S'ntymtsiv/robotframework'
p155
tp156
a(S'test'
p157
S'jussimalinen'
p158
S'jussimalinen/test'
p159
tp160
a(S'simple-robot-example'
p161
S'sanitz'
p162
S'sanitz/simple-robot-example'
p163
tp164
a(S'robot_carepass_testing'
p165
S'ferronrsmith'
p166
S'ferronrsmith/robot_carepass_testing'
p167
tp168
a(S'robot_framework_starter'
p169
S'ferronrsmith'
p170
S'ferronrsmith/robot_framework_starter'
p171
tp172
a(S'oira.test'
p173
S'syslabcom'
p174
S'syslabcom/oira.test'
p175
tp176
a(S'motion-planning-data'
p177
S'adnanademovic'
p178
S'adnanademovic/motion-planning-data'
p179
tp180
a(S'RoyRFSCodes'
p181
S'roytest001'
p182
S'roytest001/RoyRFSCodes'
p183
tp184
a(S'robotframework-selenium2library-dojo-org-site'
p185
S'laurentbristiel'
p186
S'laurentbristiel/robotframework-selenium2library-dojo-org-site'
p187
tp188
a(S'Robot-Demo-With_selenium2Library'
p189
S'marufjont'
p190
S'marufjont/Robot-Demo-With_selenium2Library'
p191
tp192
a(S'odoo-robot-framework'
p193
S'brain-tec'
p194
S'brain-tec/odoo-robot-framework'
p195
tp196
a(S'shop_test'
p197
S'about0'
p198
S'about0/shop_test'
p199
tp200
a(S'integration'
p201
S'opendaylight'
p202
S'opendaylight/integration'
p203
tp204
a(S'robotframework-selenium2screenshots'
p205
S'datakurre'
p206
S'datakurre/robotframework-selenium2screenshots'
p207
tp208
a(S'RobotFramework-Selenium2Library'
p209
S'Atihinen'
p210
S'Atihinen/RobotFramework-Selenium2Library'
p211
tp212
a(S'DosDontsSlides'
p213
S'robotframework'
p214
S'robotframework/DosDontsSlides'
p215
tp216
a(S'course-robotframework'
p217
S'up1'
p218
S'up1/course-robotframework'
p219
tp220
a(S'smeserver-test-automation'
p221
S'MarcoHess'
p222
S'MarcoHess/smeserver-test-automation'
p223
tp224
a(S'robotframework-ondemand'
p225
S'ferronrsmith'
p226
S'ferronrsmith/robotframework-ondemand'
p227
tp228
a(S'IntroSlides'
p229
S'robotframework'
p230
S'robotframework/IntroSlides'
p231
tp232
a(S'robotframework-faker-example'
p233
S'laurentbristiel'
p234
S'laurentbristiel/robotframework-faker-example'
p235
tp236
a(S'RobotFramework-HttpLibrary-demo'
p237
S'Atihinen'
p238
S'Atihinen/RobotFramework-HttpLibrary-demo'
p239
tp240
a(S'ios-robotframework-appium'
p241
S'medullan'
p242
S'medullan/ios-robotframework-appium'
p243
tp244
a(S'openafs-robotest'
p245
S'marciobarbosa'
p246
S'marciobarbosa/openafs-robotest'
p247
tp248
a(S'integration-test'
p249
S'opendaylight'
p250
S'opendaylight/integration-test'
p251
tp252
a(S'robotframework'
p253
S'ntymtsiv'
p254
S'ntymtsiv/robotframework'
p255
tp256
a(S'test'
p257
S'jussimalinen'
p258
S'jussimalinen/test'
p259
tp260
a(S'simple-robot-example'
p261
S'sanitz'
p262
S'sanitz/simple-robot-example'
p263
tp264
a(S'robot_carepass_testing'
p265
S'ferronrsmith'
p266
S'ferronrsmith/robot_carepass_testing'
p267
tp268
a(S'robot_framework_starter'
p269
S'ferronrsmith'
p270
S'ferronrsmith/robot_framework_starter'
p271
tp272
a(S'oira.test'
p273
S'syslabcom'
p274
S'syslabcom/oira.test'
p275
tp276
a(S'motion-planning-data'
p277
S'adnanademovic'
p278
S'adnanademovic/motion-planning-data'
p279
tp280
a(S'RoyRFSCodes'
p281
S'roytest001'
p282
S'roytest001/RoyRFSCodes'
p283
tp284
a(S'robotframework-selenium2library-dojo-org-site'
p285
S'laurentbristiel'
p286
S'laurentbristiel/robotframework-selenium2library-dojo-org-site'
p287
tp288
a(S'Robot-Demo-With_selenium2Library'
p289
S'marufjont'
p290
S'marufjont/Robot-Demo-With_selenium2Library'
p291
tp292
a(S'odoo-robot-framework'
p293
S'brain-tec'
p294
S'brain-tec/odoo-robot-framework'
p295
tp296
a(S'shop_test'
p297
S'about0'
p298
S'about0/shop_test'
p299
tp300
a.