(lp0
(S'LiveMusic'
p1
S'cscott'
p2
S'cscott/LiveMusic'
p3
tp4
a(S'Raspberry-Pi'
p5
S'Jeytas'
p6
S'Jeytas/Raspberry-Pi'
p7
tp8
a(S'music'
p9
S'divVerent'
p10
S'divVerent/music'
p11
tp12
a(S'morashon'
p13
S'morashon'
p14
S'morashon/morashon'
p15
tp16
a(S'AutomatosGeradores'
p17
S'glerm'
p18
S'glerm/AutomatosGeradores'
p19
tp20
a(S'music-1'
p21
S'jamiepg1'
p22
S'jamiepg1/music-1'
p23
tp24
a(S'AutomatosGeradores'
p25
S'automata'
p26
S'automata/AutomatosGeradores'
p27
tp28
a(S'music'
p29
S'jamiepg1'
p30
S'jamiepg1/music'
p31
tp32
a(S'morashon'
p33
S'jamiepg1'
p34
S'jamiepg1/morashon'
p35
tp36
a(S'AutomatosGeradores'
p37
S'jamiepg1'
p38
S'jamiepg1/AutomatosGeradores'
p39
tp40
a(S'LiveMusic'
p41
S'jamiepg1'
p42
S'jamiepg1/LiveMusic'
p43
tp44
a(S'rogue'
p45
S'lord'
p46
S'lord/rogue'
p47
tp48
a(S'CS212-Bingo'
p49
S'MobiusHorizons'
p50
S'MobiusHorizons/CS212-Bingo'
p51
tp52
a(S'RegularExpressionsExamples'
p53
S'juandiegoh'
p54
S'juandiegoh/RegularExpressionsExamples'
p55
tp56
a(S'openprodtimer'
p57
S'A1kmm'
p58
S'A1kmm/openprodtimer'
p59
tp60
a(S'Raspberry-Pi'
p61
S'jamiepg1'
p62
S'jamiepg1/Raspberry-Pi'
p63
tp64
a(S'LiveMusic'
p65
S'cscott'
p66
S'cscott/LiveMusic'
p67
tp68
a(S'Raspberry-Pi'
p69
S'Jeytas'
p70
S'Jeytas/Raspberry-Pi'
p71
tp72
a(S'music'
p73
S'divVerent'
p74
S'divVerent/music'
p75
tp76
a(S'morashon'
p77
S'morashon'
p78
S'morashon/morashon'
p79
tp80
a(S'AutomatosGeradores'
p81
S'glerm'
p82
S'glerm/AutomatosGeradores'
p83
tp84
a(S'music-1'
p85
S'jamiepg1'
p86
S'jamiepg1/music-1'
p87
tp88
a(S'AutomatosGeradores'
p89
S'automata'
p90
S'automata/AutomatosGeradores'
p91
tp92
a(S'music'
p93
S'jamiepg1'
p94
S'jamiepg1/music'
p95
tp96
a(S'morashon'
p97
S'jamiepg1'
p98
S'jamiepg1/morashon'
p99
tp100
a(S'AutomatosGeradores'
p101
S'jamiepg1'
p102
S'jamiepg1/AutomatosGeradores'
p103
tp104
a(S'LiveMusic'
p105
S'jamiepg1'
p106
S'jamiepg1/LiveMusic'
p107
tp108
a(S'rogue'
p109
S'lord'
p110
S'lord/rogue'
p111
tp112
a(S'CS212-Bingo'
p113
S'MobiusHorizons'
p114
S'MobiusHorizons/CS212-Bingo'
p115
tp116
a(S'RegularExpressionsExamples'
p117
S'juandiegoh'
p118
S'juandiegoh/RegularExpressionsExamples'
p119
tp120
a(S'openprodtimer'
p121
S'A1kmm'
p122
S'A1kmm/openprodtimer'
p123
tp124
a(S'Raspberry-Pi'
p125
S'jamiepg1'
p126
S'jamiepg1/Raspberry-Pi'
p127
tp128
a(S'LiveMusic'
p129
S'cscott'
p130
S'cscott/LiveMusic'
p131
tp132
a(S'Raspberry-Pi'
p133
S'Jeytas'
p134
S'Jeytas/Raspberry-Pi'
p135
tp136
a(S'music'
p137
S'divVerent'
p138
S'divVerent/music'
p139
tp140
a(S'morashon'
p141
S'morashon'
p142
S'morashon/morashon'
p143
tp144
a(S'AutomatosGeradores'
p145
S'glerm'
p146
S'glerm/AutomatosGeradores'
p147
tp148
a(S'music-1'
p149
S'jamiepg1'
p150
S'jamiepg1/music-1'
p151
tp152
a(S'AutomatosGeradores'
p153
S'automata'
p154
S'automata/AutomatosGeradores'
p155
tp156
a(S'music'
p157
S'jamiepg1'
p158
S'jamiepg1/music'
p159
tp160
a(S'morashon'
p161
S'jamiepg1'
p162
S'jamiepg1/morashon'
p163
tp164
a(S'AutomatosGeradores'
p165
S'jamiepg1'
p166
S'jamiepg1/AutomatosGeradores'
p167
tp168
a(S'LiveMusic'
p169
S'jamiepg1'
p170
S'jamiepg1/LiveMusic'
p171
tp172
a(S'rogue'
p173
S'lord'
p174
S'lord/rogue'
p175
tp176
a(S'CS212-Bingo'
p177
S'MobiusHorizons'
p178
S'MobiusHorizons/CS212-Bingo'
p179
tp180
a(S'RegularExpressionsExamples'
p181
S'juandiegoh'
p182
S'juandiegoh/RegularExpressionsExamples'
p183
tp184
a(S'openprodtimer'
p185
S'A1kmm'
p186
S'A1kmm/openprodtimer'
p187
tp188
a(S'Raspberry-Pi'
p189
S'jamiepg1'
p190
S'jamiepg1/Raspberry-Pi'
p191
tp192
a.