(lp0
(S'fastlane'
p1
S'KrauseFx'
p2
S'KrauseFx/fastlane'
p3
tp4
a(S'homebrew'
p5
S'Homebrew'
p6
S'Homebrew/homebrew'
p7
tp8
a(S'wanko'
p9
S'amatsuda'
p10
S'amatsuda/wanko'
p11
tp12
a(S'awesome-react-native'
p13
S'jondot'
p14
S'jondot/awesome-react-native'
p15
tp16
a(S'jekyll'
p17
S'jekyll'
p18
S'jekyll/jekyll'
p19
tp20
a(S'rails_db'
p21
S'igorkasyanchuk'
p22
S'igorkasyanchuk/rails_db'
p23
tp24
a(S'rails'
p25
S'rails'
p26
S'rails/rails'
p27
tp28
a(S'homebrew-cask'
p29
S'caskroom'
p30
S'caskroom/homebrew-cask'
p31
tp32
a(S'snapshot'
p33
S'KrauseFx'
p34
S'KrauseFx/snapshot'
p35
tp36
a(S'gitlabhq'
p37
S'gitlabhq'
p38
S'gitlabhq/gitlabhq'
p39
tp40
a(S'scan'
p41
S'fastlane'
p42
S'fastlane/scan'
p43
tp44
a(S'chewy'
p45
S'toptal'
p46
S'toptal/chewy'
p47
tp48
a(S'sonic-pi'
p49
S'samaaron'
p50
S'samaaron/sonic-pi'
p51
tp52
a(S'ruby'
p53
S'ruby'
p54
S'ruby/ruby'
p55
tp56
a(S'deliver'
p57
S'KrauseFx'
p58
S'KrauseFx/deliver'
p59
tp60
a(S'huginn'
p61
S'cantino'
p62
S'cantino/huginn'
p63
tp64
a(S'metasploit-framework'
p65
S'rapid7'
p66
S'rapid7/metasploit-framework'
p67
tp68
a(S'spaceship'
p69
S'fastlane'
p70
S'fastlane/spaceship'
p71
tp72
a(S'engineering-blogs'
p73
S'kilimchoi'
p74
S'kilimchoi/engineering-blogs'
p75
tp76
a(S'devdocs'
p77
S'Thibaut'
p78
S'Thibaut/devdocs'
p79
tp80
a(S'supply'
p81
S'fastlane'
p82
S'fastlane/supply'
p83
tp84
a(S'sigh'
p85
S'KrauseFx'
p86
S'KrauseFx/sigh'
p87
tp88
a(S'solidus'
p89
S'solidusio'
p90
S'solidusio/solidus'
p91
tp92
a(S'logstash'
p93
S'elastic'
p94
S'elastic/logstash'
p95
tp96
a(S'vagrant'
p97
S'mitchellh'
p98
S'mitchellh/vagrant'
p99
tp100
a(S'homebrew'
p101
S'Homebrew'
p102
S'Homebrew/homebrew'
p103
tp104
a(S'fastlane'
p105
S'KrauseFx'
p106
S'KrauseFx/fastlane'
p107
tp108
a(S'rails_db'
p109
S'igorkasyanchuk'
p110
S'igorkasyanchuk/rails_db'
p111
tp112
a(S'awesome-react-native'
p113
S'jondot'
p114
S'jondot/awesome-react-native'
p115
tp116
a(S'rails'
p117
S'rails'
p118
S'rails/rails'
p119
tp120
a(S'jekyll'
p121
S'jekyll'
p122
S'jekyll/jekyll'
p123
tp124
a(S'homebrew-cask'
p125
S'caskroom'
p126
S'caskroom/homebrew-cask'
p127
tp128
a(S'supply'
p129
S'fastlane'
p130
S'fastlane/supply'
p131
tp132
a(S'devdocs'
p133
S'Thibaut'
p134
S'Thibaut/devdocs'
p135
tp136
a(S'discourse'
p137
S'discourse'
p138
S'discourse/discourse'
p139
tp140
a(S'CocoaPods'
p141
S'CocoaPods'
p142
S'CocoaPods/CocoaPods'
p143
tp144
a(S'gitlabhq'
p145
S'gitlabhq'
p146
S'gitlabhq/gitlabhq'
p147
tp148
a(S'the-ultimate-guide-to-ruby-timeouts'
p149
S'ankane'
p150
S'ankane/the-ultimate-guide-to-ruby-timeouts'
p151
tp152
a(S'FlagKit'
p153
S'madebybowtie'
p154
S'madebybowtie/FlagKit'
p155
tp156
a(S'wpbrute-rpc'
p157
S'zendoctor'
p158
S'zendoctor/wpbrute-rpc'
p159
tp160
a(S'devise'
p161
S'plataformatec'
p162
S'plataformatec/devise'
p163
tp164
a(S'ruby'
p165
S'ruby'
p166
S'ruby/ruby'
p167
tp168
a(S'huginn'
p169
S'cantino'
p170
S'cantino/huginn'
p171
tp172
a(S'vagrant'
p173
S'mitchellh'
p174
S'mitchellh/vagrant'
p175
tp176
a(S'inesita'
p177
S'inesita-rb'
p178
S'inesita-rb/inesita'
p179
tp180
a(S'scan'
p181
S'fastlane'
p182
S'fastlane/scan'
p183
tp184
a(S'sass'
p185
S'sass'
p186
S'sass/sass'
p187
tp188
a(S'wanko'
p189
S'amatsuda'
p190
S'amatsuda/wanko'
p191
tp192
a(S'rubocop'
p193
S'bbatsov'
p194
S'bbatsov/rubocop'
p195
tp196
a(S'snapshot'
p197
S'KrauseFx'
p198
S'KrauseFx/snapshot'
p199
tp200
a(S'homebrew'
p201
S'Homebrew'
p202
S'Homebrew/homebrew'
p203
tp204
a(S'awesome-rails-gem'
p205
S'hothero'
p206
S'hothero/awesome-rails-gem'
p207
tp208
a(S'FlagKit'
p209
S'madebybowtie'
p210
S'madebybowtie/FlagKit'
p211
tp212
a(S'mailchecker'
p213
S'FGRibreau'
p214
S'FGRibreau/mailchecker'
p215
tp216
a(S'rails'
p217
S'rails'
p218
S'rails/rails'
p219
tp220
a(S'jekyll'
p221
S'jekyll'
p222
S'jekyll/jekyll'
p223
tp224
a(S'fastlane'
p225
S'KrauseFx'
p226
S'KrauseFx/fastlane'
p227
tp228
a(S'awesome-react-native'
p229
S'jondot'
p230
S'jondot/awesome-react-native'
p231
tp232
a(S'homebrew-cask'
p233
S'caskroom'
p234
S'caskroom/homebrew-cask'
p235
tp236
a(S'discourse'
p237
S'discourse'
p238
S'discourse/discourse'
p239
tp240
a(S'devdocs'
p241
S'Thibaut'
p242
S'Thibaut/devdocs'
p243
tp244
a(S'rails_db'
p245
S'igorkasyanchuk'
p246
S'igorkasyanchuk/rails_db'
p247
tp248
a(S'gitlabhq'
p249
S'gitlabhq'
p250
S'gitlabhq/gitlabhq'
p251
tp252
a(S'vagrant'
p253
S'mitchellh'
p254
S'mitchellh/vagrant'
p255
tp256
a(S'ruby'
p257
S'ruby'
p258
S'ruby/ruby'
p259
tp260
a(S'CocoaPods'
p261
S'CocoaPods'
p262
S'CocoaPods/CocoaPods'
p263
tp264
a(S'ttnt'
p265
S'Genki-S'
p266
S'Genki-S/ttnt'
p267
tp268
a(S'devise'
p269
S'plataformatec'
p270
S'plataformatec/devise'
p271
tp272
a(S'metasploit-framework'
p273
S'rapid7'
p274
S'rapid7/metasploit-framework'
p275
tp276
a(S'sass'
p277
S'sass'
p278
S'sass/sass'
p279
tp280
a(S'huginn'
p281
S'cantino'
p282
S'cantino/huginn'
p283
tp284
a(S'rubocop'
p285
S'bbatsov'
p286
S'bbatsov/rubocop'
p287
tp288
a(S'engineering-blogs'
p289
S'kilimchoi'
p290
S'kilimchoi/engineering-blogs'
p291
tp292
a(S'logstash'
p293
S'elastic'
p294
S'elastic/logstash'
p295
tp296
a(S'sidekiq'
p297
S'mperham'
p298
S'mperham/sidekiq'
p299
tp300
a.