(lp0
(S'redox'
p1
S'redox-os'
p2
S'redox-os/redox'
p3
tp4
a(S'rust'
p5
S'rust-lang'
p6
S'rust-lang/rust'
p7
tp8
a(S'multirust-rs'
p9
S'Diggsey'
p10
S'Diggsey/multirust-rs'
p11
tp12
a(S'quickcheck'
p13
S'BurntSushi'
p14
S'BurntSushi/quickcheck'
p15
tp16
a(S'rust-by-example'
p17
S'rust-lang'
p18
S'rust-lang/rust-by-example'
p19
tp20
a(S'rust-bindgen'
p21
S'crabtw'
p22
S'crabtw/rust-bindgen'
p23
tp24
a(S'iron'
p25
S'iron'
p26
S'iron/iron'
p27
tp28
a(S'coreutils'
p29
S'uutils'
p30
S'uutils/coreutils'
p31
tp32
a(S'cargo'
p33
S'rust-lang'
p34
S'rust-lang/cargo'
p35
tp36
a(S'wtftw'
p37
S'Kintaro'
p38
S'Kintaro/wtftw'
p39
tp40
a(S'racer'
p41
S'phildawes'
p42
S'phildawes/racer'
p43
tp44
a(S'hyper'
p45
S'hyperium'
p46
S'hyperium/hyper'
p47
tp48
a(S'nickel.rs'
p49
S'nickel-org'
p50
S'nickel-org/nickel.rs'
p51
tp52
a(S'piston'
p53
S'PistonDevelopers'
p54
S'PistonDevelopers/piston'
p55
tp56
a(S'rsedis'
p57
S'seppo0010'
p58
S'seppo0010/rsedis'
p59
tp60
a(S'mio'
p61
S'carllerche'
p62
S'carllerche/mio'
p63
tp64
a(S'iota'
p65
S'gchp'
p66
S'gchp/iota'
p67
tp68
a(S'rust-doom'
p69
S'cristicbz'
p70
S'cristicbz/rust-doom'
p71
tp72
a(S'hematite'
p73
S'PistonDevelopers'
p74
S'PistonDevelopers/hematite'
p75
tp76
a(S'rustful'
p77
S'Ogeon'
p78
S'Ogeon/rustful'
p79
tp80
a(S'exa'
p81
S'ogham'
p82
S'ogham/exa'
p83
tp84
a(S'xsv'
p85
S'BurntSushi'
p86
S'BurntSushi/xsv'
p87
tp88
a(S'glium'
p89
S'tomaka'
p90
S'tomaka/glium'
p91
tp92
a(S'SolidOak'
p93
S'oakes'
p94
S'oakes/SolidOak'
p95
tp96
a(S'zinc'
p97
S'hackndev'
p98
S'hackndev/zinc'
p99
tp100
a(S'nucleon'
p101
S'NicolasLM'
p102
S'NicolasLM/nucleon'
p103
tp104
a(S'rust'
p105
S'rust-lang'
p106
S'rust-lang/rust'
p107
tp108
a(S'redox'
p109
S'redox-os'
p110
S'redox-os/redox'
p111
tp112
a(S'rust-bio'
p113
S'rust-bio'
p114
S'rust-bio/rust-bio'
p115
tp116
a(S'multirust-rs'
p117
S'Diggsey'
p118
S'Diggsey/multirust-rs'
p119
tp120
a(S'hyper'
p121
S'hyperium'
p122
S'hyperium/hyper'
p123
tp124
a(S'iron'
p125
S'iron'
p126
S'iron/iron'
p127
tp128
a(S'racer'
p129
S'phildawes'
p130
S'phildawes/racer'
p131
tp132
a(S'rustfmt'
p133
S'nrc'
p134
S'nrc/rustfmt'
p135
tp136
a(S'glium'
p137
S'tomaka'
p138
S'tomaka/glium'
p139
tp140
a(S'cargo'
p141
S'rust-lang'
p142
S'rust-lang/cargo'
p143
tp144
a(S'vagga'
p145
S'tailhook'
p146
S'tailhook/vagga'
p147
tp148
a(S'rust-clippy'
p149
S'Manishearth'
p150
S'Manishearth/rust-clippy'
p151
tp152
a(S'bfc'
p153
S'Wilfred'
p154
S'Wilfred/bfc'
p155
tp156
a(S'nickel.rs'
p157
S'nickel-org'
p158
S'nickel-org/nickel.rs'
p159
tp160
a(S'conrod'
p161
S'PistonDevelopers'
p162
S'PistonDevelopers/conrod'
p163
tp164
a(S'nom'
p165
S'Geal'
p166
S'Geal/nom'
p167
tp168
a(S'mio'
p169
S'carllerche'
p170
S'carllerche/mio'
p171
tp172
a(S'cargo-edit'
p173
S'killercup'
p174
S'killercup/cargo-edit'
p175
tp176
a(S'redis-rs'
p177
S'mitsuhiko'
p178
S'mitsuhiko/redis-rs'
p179
tp180
a(S'glutin'
p181
S'tomaka'
p182
S'tomaka/glutin'
p183
tp184
a(S'rust-chat'
p185
S'nbaksalyar'
p186
S'nbaksalyar/rust-chat'
p187
tp188
a(S'rust-by-example'
p189
S'rust-lang'
p190
S'rust-lang/rust-by-example'
p191
tp192
a(S'octavo'
p193
S'libOctavo'
p194
S'libOctavo/octavo'
p195
tp196
a(S'rustorm'
p197
S'ivanceras'
p198
S'ivanceras/rustorm'
p199
tp200
a(S'redox'
p201
S'redox-os'
p202
S'redox-os/redox'
p203
tp204
a(S'rust'
p205
S'rust-lang'
p206
S'rust-lang/rust'
p207
tp208
a(S'nucleon'
p209
S'NicolasLM'
p210
S'NicolasLM/nucleon'
p211
tp212
a(S'webrender'
p213
S'glennw'
p214
S'glennw/webrender'
p215
tp216
a(S'rustation'
p217
S'simias'
p218
S'simias/rustation'
p219
tp220
a(S'rust-bio'
p221
S'rust-bio'
p222
S'rust-bio/rust-bio'
p223
tp224
a(S'glium'
p225
S'tomaka'
p226
S'tomaka/glium'
p227
tp228
a(S'iron'
p229
S'iron'
p230
S'iron/iron'
p231
tp232
a(S'rustfmt'
p233
S'nrc'
p234
S'nrc/rustfmt'
p235
tp236
a(S'nickel.rs'
p237
S'nickel-org'
p238
S'nickel-org/nickel.rs'
p239
tp240
a(S'racer'
p241
S'phildawes'
p242
S'phildawes/racer'
p243
tp244
a(S'lalrpop'
p245
S'nikomatsakis'
p246
S'nikomatsakis/lalrpop'
p247
tp248
a(S'cargo'
p249
S'rust-lang'
p250
S'rust-lang/cargo'
p251
tp252
a(S'hyper'
p253
S'hyperium'
p254
S'hyperium/hyper'
p255
tp256
a(S'nom'
p257
S'Geal'
p258
S'Geal/nom'
p259
tp260
a(S'cargo-edit'
p261
S'killercup'
p262
S'killercup/cargo-edit'
p263
tp264
a(S'mio'
p265
S'carllerche'
p266
S'carllerche/mio'
p267
tp268
a(S'conrod'
p269
S'PistonDevelopers'
p270
S'PistonDevelopers/conrod'
p271
tp272
a(S'octavo'
p273
S'libOctavo'
p274
S'libOctavo/octavo'
p275
tp276
a(S'rust-chat'
p277
S'nbaksalyar'
p278
S'nbaksalyar/rust-chat'
p279
tp280
a(S'rust-by-example'
p281
S'rust-lang'
p282
S'rust-lang/rust-by-example'
p283
tp284
a(S'rust-clippy'
p285
S'Manishearth'
p286
S'Manishearth/rust-clippy'
p287
tp288
a(S'clap-rs'
p289
S'kbknapp'
p290
S'kbknapp/clap-rs'
p291
tp292
a(S'multirust-rs'
p293
S'Diggsey'
p294
S'Diggsey/multirust-rs'
p295
tp296
a(S'rusoto'
p297
S'DualSpark'
p298
S'DualSpark/rusoto'
p299
tp300
a.