(lp0
(S'Salty-WordPress'
p1
S'humanmade'
p2
S'humanmade/Salty-WordPress'
p3
tp4
a(S'salt-config-example'
p5
S'AppThemes'
p6
S'AppThemes/salt-config-example'
p7
tp8
a(S'salt-winrepo'
p9
S'saltstack'
p10
S'saltstack/salt-winrepo'
p11
tp12
a(S'nginx-formula'
p13
S'saltstack-formulas'
p14
S'saltstack-formulas/nginx-formula'
p15
tp16
a(S'salt-formula'
p17
S'saltstack-formulas'
p18
S'saltstack-formulas/salt-formula'
p19
tp20
a(S'ec2-autoscale-reactor'
p21
S'saltstack-formulas'
p22
S'saltstack-formulas/ec2-autoscale-reactor'
p23
tp24
a(S'salt-states'
p25
S'khrisrichardson'
p26
S'khrisrichardson/salt-states'
p27
tp28
a(S'mysql-formula'
p29
S'saltstack-formulas'
p30
S'saltstack-formulas/mysql-formula'
p31
tp32
a(S'docker-formula'
p33
S'saltstack-formulas'
p34
S'saltstack-formulas/docker-formula'
p35
tp36
a(S'salt-openstack'
p37
S'cloudbase'
p38
S'cloudbase/salt-openstack'
p39
tp40
a(S'users-formula'
p41
S'saltstack-formulas'
p42
S'saltstack-formulas/users-formula'
p43
tp44
a(S'openssh-formula'
p45
S'saltstack-formulas'
p46
S'saltstack-formulas/openssh-formula'
p47
tp48
a(S'salt-jenkins'
p49
S'saltstack'
p50
S'saltstack/salt-jenkins'
p51
tp52
a(S'margarita'
p53
S'caktus'
p54
S'caktus/margarita'
p55
tp56
a(S'hadoop-formula'
p57
S'saltstack-formulas'
p58
S'saltstack-formulas/hadoop-formula'
p59
tp60
a(S'saltymill'
p61
S'stevage'
p62
S'stevage/saltymill'
p63
tp64
a(S'jenkins-formula'
p65
S'saltstack-formulas'
p66
S'saltstack-formulas/jenkins-formula'
p67
tp68
a(S'salt-vagrant-demo'
p69
S'UtahDave'
p70
S'UtahDave/salt-vagrant-demo'
p71
tp72
a(S'psf-salt'
p73
S'python'
p74
S'python/psf-salt'
p75
tp76
a(S'gitlab-formula'
p77
S'saltstack-formulas'
p78
S'saltstack-formulas/gitlab-formula'
p79
tp80
a(S'fail2ban-formula'
p81
S'saltstack-formulas'
p82
S'saltstack-formulas/fail2ban-formula'
p83
tp84
a(S'ntp-formula'
p85
S'saltstack-formulas'
p86
S'saltstack-formulas/ntp-formula'
p87
tp88
a(S'mongodb-formula'
p89
S'saltstack-formulas'
p90
S'saltstack-formulas/mongodb-formula'
p91
tp92
a(S'buddycloud-vm'
p93
S'buddycloud'
p94
S'buddycloud/buddycloud-vm'
p95
tp96
a(S'hostsfile-formula'
p97
S'saltstack-formulas'
p98
S'saltstack-formulas/hostsfile-formula'
p99
tp100
a(S'salt-formula'
p101
S'saltstack-formulas'
p102
S'saltstack-formulas/salt-formula'
p103
tp104
a(S'Salty-WordPress'
p105
S'humanmade'
p106
S'humanmade/Salty-WordPress'
p107
tp108
a(S'salt-config-example'
p109
S'AppThemes'
p110
S'AppThemes/salt-config-example'
p111
tp112
a(S'salt-winrepo'
p113
S'saltstack'
p114
S'saltstack/salt-winrepo'
p115
tp116
a(S'nginx-formula'
p117
S'saltstack-formulas'
p118
S'saltstack-formulas/nginx-formula'
p119
tp120
a(S'ec2-autoscale-reactor'
p121
S'saltstack-formulas'
p122
S'saltstack-formulas/ec2-autoscale-reactor'
p123
tp124
a(S'salt-states'
p125
S'khrisrichardson'
p126
S'khrisrichardson/salt-states'
p127
tp128
a(S'mysql-formula'
p129
S'saltstack-formulas'
p130
S'saltstack-formulas/mysql-formula'
p131
tp132
a(S'docker-formula'
p133
S'saltstack-formulas'
p134
S'saltstack-formulas/docker-formula'
p135
tp136
a(S'salt-openstack'
p137
S'cloudbase'
p138
S'cloudbase/salt-openstack'
p139
tp140
a(S'users-formula'
p141
S'saltstack-formulas'
p142
S'saltstack-formulas/users-formula'
p143
tp144
a(S'openssh-formula'
p145
S'saltstack-formulas'
p146
S'saltstack-formulas/openssh-formula'
p147
tp148
a(S'salt-jenkins'
p149
S'saltstack'
p150
S'saltstack/salt-jenkins'
p151
tp152
a(S'margarita'
p153
S'caktus'
p154
S'caktus/margarita'
p155
tp156
a(S'hadoop-formula'
p157
S'saltstack-formulas'
p158
S'saltstack-formulas/hadoop-formula'
p159
tp160
a(S'saltymill'
p161
S'stevage'
p162
S'stevage/saltymill'
p163
tp164
a(S'jenkins-formula'
p165
S'saltstack-formulas'
p166
S'saltstack-formulas/jenkins-formula'
p167
tp168
a(S'gitlab-formula'
p169
S'saltstack-formulas'
p170
S'saltstack-formulas/gitlab-formula'
p171
tp172
a(S'psf-salt'
p173
S'python'
p174
S'python/psf-salt'
p175
tp176
a(S'salt-vagrant-demo'
p177
S'UtahDave'
p178
S'UtahDave/salt-vagrant-demo'
p179
tp180
a(S'fail2ban-formula'
p181
S'saltstack-formulas'
p182
S'saltstack-formulas/fail2ban-formula'
p183
tp184
a(S'ntp-formula'
p185
S'saltstack-formulas'
p186
S'saltstack-formulas/ntp-formula'
p187
tp188
a(S'mongodb-formula'
p189
S'saltstack-formulas'
p190
S'saltstack-formulas/mongodb-formula'
p191
tp192
a(S'buddycloud-vm'
p193
S'buddycloud'
p194
S'buddycloud/buddycloud-vm'
p195
tp196
a(S'hostsfile-formula'
p197
S'saltstack-formulas'
p198
S'saltstack-formulas/hostsfile-formula'
p199
tp200
a(S'Salty-WordPress'
p201
S'humanmade'
p202
S'humanmade/Salty-WordPress'
p203
tp204
a(S'salt-config-example'
p205
S'AppThemes'
p206
S'AppThemes/salt-config-example'
p207
tp208
a(S'salt-winrepo'
p209
S'saltstack'
p210
S'saltstack/salt-winrepo'
p211
tp212
a(S'nginx-formula'
p213
S'saltstack-formulas'
p214
S'saltstack-formulas/nginx-formula'
p215
tp216
a(S'salt-formula'
p217
S'saltstack-formulas'
p218
S'saltstack-formulas/salt-formula'
p219
tp220
a(S'ec2-autoscale-reactor'
p221
S'saltstack-formulas'
p222
S'saltstack-formulas/ec2-autoscale-reactor'
p223
tp224
a(S'salt-states'
p225
S'khrisrichardson'
p226
S'khrisrichardson/salt-states'
p227
tp228
a(S'mysql-formula'
p229
S'saltstack-formulas'
p230
S'saltstack-formulas/mysql-formula'
p231
tp232
a(S'docker-formula'
p233
S'saltstack-formulas'
p234
S'saltstack-formulas/docker-formula'
p235
tp236
a(S'salt-openstack'
p237
S'cloudbase'
p238
S'cloudbase/salt-openstack'
p239
tp240
a(S'users-formula'
p241
S'saltstack-formulas'
p242
S'saltstack-formulas/users-formula'
p243
tp244
a(S'openssh-formula'
p245
S'saltstack-formulas'
p246
S'saltstack-formulas/openssh-formula'
p247
tp248
a(S'salt-jenkins'
p249
S'saltstack'
p250
S'saltstack/salt-jenkins'
p251
tp252
a(S'margarita'
p253
S'caktus'
p254
S'caktus/margarita'
p255
tp256
a(S'hadoop-formula'
p257
S'saltstack-formulas'
p258
S'saltstack-formulas/hadoop-formula'
p259
tp260
a(S'saltymill'
p261
S'stevage'
p262
S'stevage/saltymill'
p263
tp264
a(S'jenkins-formula'
p265
S'saltstack-formulas'
p266
S'saltstack-formulas/jenkins-formula'
p267
tp268
a(S'salt-vagrant-demo'
p269
S'UtahDave'
p270
S'UtahDave/salt-vagrant-demo'
p271
tp272
a(S'psf-salt'
p273
S'python'
p274
S'python/psf-salt'
p275
tp276
a(S'gitlab-formula'
p277
S'saltstack-formulas'
p278
S'saltstack-formulas/gitlab-formula'
p279
tp280
a(S'fail2ban-formula'
p281
S'saltstack-formulas'
p282
S'saltstack-formulas/fail2ban-formula'
p283
tp284
a(S'ntp-formula'
p285
S'saltstack-formulas'
p286
S'saltstack-formulas/ntp-formula'
p287
tp288
a(S'mongodb-formula'
p289
S'saltstack-formulas'
p290
S'saltstack-formulas/mongodb-formula'
p291
tp292
a(S'buddycloud-vm'
p293
S'buddycloud'
p294
S'buddycloud/buddycloud-vm'
p295
tp296
a(S'hostsfile-formula'
p297
S'saltstack-formulas'
p298
S'saltstack-formulas/hostsfile-formula'
p299
tp300
a.