(lp0
(S'Programming-SAS'
p1
S'Jiangtang'
p2
S'Jiangtang/Programming-SAS'
p3
tp4
a(S'SAS-macros'
p5
S'friendly'
p6
S'friendly/SAS-macros'
p7
tp8
a(S'SAS'
p9
S'xieliaing'
p10
S'xieliaing/SAS'
p11
tp12
a(S'coco'
p13
S'leptonyu'
p14
S'leptonyu/coco'
p15
tp16
a(S'RTipsAndTricks'
p17
S'benjamin-chan'
p18
S'benjamin-chan/RTipsAndTricks'
p19
tp20
a(S'enlighten-apply'
p21
S'sassoftware'
p22
S'sassoftware/enlighten-apply'
p23
tp24
a(S'SAS2REDCap'
p25
S'RMPDC-BDM'
p26
S'RMPDC-BDM/SAS2REDCap'
p27
tp28
a(S'SAS_ListProcessing'
p29
S'Jiangtang'
p30
S'Jiangtang/SAS_ListProcessing'
p31
tp32
a(S'bestair-data-dictionary'
p33
S'sleepepi'
p34
S'sleepepi/bestair-data-dictionary'
p35
tp36
a(S'enlighten-deep'
p37
S'sassoftware'
p38
S'sassoftware/enlighten-deep'
p39
tp40
a(S'team-post-MI'
p41
S'datamarathon'
p42
S'datamarathon/team-post-MI'
p43
tp44
a(S'RegressionSAScode'
p45
S'nicklip'
p46
S'nicklip/RegressionSAScode'
p47
tp48
a(S'SAS-BASE-MACRO'
p49
S'elong0527'
p50
S'elong0527/SAS-BASE-MACRO'
p51
tp52
a(S'marketbasket'
p53
S'clarioanalytics'
p54
S'clarioanalytics/marketbasket'
p55
tp56
a(S'urban_analytics'
p57
S'MetropolitanTransportationCommission'
p58
S'MetropolitanTransportationCommission/urban_analytics'
p59
tp60
a(S'sasToolkit'
p61
S'lwjohnst86'
p62
S'lwjohnst86/sasToolkit'
p63
tp64
a(S'etl'
p65
S'jonathandick'
p66
S'jonathandick/etl'
p67
tp68
a(S'SAS'
p69
S'tomhub'
p70
S'tomhub/SAS'
p71
tp72
a(S'hdw.dat'
p73
S'vtsuperdarn'
p74
S'vtsuperdarn/hdw.dat'
p75
tp76
a(S'family-options'
p77
S'jamiepg1'
p78
S'jamiepg1/family-options'
p79
tp80
a(S'heartbeat-data-dictionary'
p81
S'sleepepi'
p82
S'sleepepi/heartbeat-data-dictionary'
p83
tp84
a(S'vizrisk_cunysph'
p85
S'hwangnyc'
p86
S'hwangnyc/vizrisk_cunysph'
p87
tp88
a(S'sas-tools'
p89
S'gramonov'
p90
S'gramonov/sas-tools'
p91
tp92
a(S'-SAS--Macros'
p93
S'SophiaJia'
p94
S'SophiaJia/-SAS--Macros'
p95
tp96
a(S'ODSMemoSuite'
p97
S'lopezr'
p98
S'lopezr/ODSMemoSuite'
p99
tp100
a(S'Programming-SAS'
p101
S'Jiangtang'
p102
S'Jiangtang/Programming-SAS'
p103
tp104
a(S'SAS-macros'
p105
S'friendly'
p106
S'friendly/SAS-macros'
p107
tp108
a(S'SAS'
p109
S'xieliaing'
p110
S'xieliaing/SAS'
p111
tp112
a(S'coco'
p113
S'leptonyu'
p114
S'leptonyu/coco'
p115
tp116
a(S'RTipsAndTricks'
p117
S'benjamin-chan'
p118
S'benjamin-chan/RTipsAndTricks'
p119
tp120
a(S'enlighten-apply'
p121
S'sassoftware'
p122
S'sassoftware/enlighten-apply'
p123
tp124
a(S'SAS2REDCap'
p125
S'RMPDC-BDM'
p126
S'RMPDC-BDM/SAS2REDCap'
p127
tp128
a(S'SAS_ListProcessing'
p129
S'Jiangtang'
p130
S'Jiangtang/SAS_ListProcessing'
p131
tp132
a(S'bestair-data-dictionary'
p133
S'sleepepi'
p134
S'sleepepi/bestair-data-dictionary'
p135
tp136
a(S'enlighten-deep'
p137
S'sassoftware'
p138
S'sassoftware/enlighten-deep'
p139
tp140
a(S'team-post-MI'
p141
S'datamarathon'
p142
S'datamarathon/team-post-MI'
p143
tp144
a(S'RegressionSAScode'
p145
S'nicklip'
p146
S'nicklip/RegressionSAScode'
p147
tp148
a(S'SAS-BASE-MACRO'
p149
S'elong0527'
p150
S'elong0527/SAS-BASE-MACRO'
p151
tp152
a(S'marketbasket'
p153
S'clarioanalytics'
p154
S'clarioanalytics/marketbasket'
p155
tp156
a(S'urban_analytics'
p157
S'MetropolitanTransportationCommission'
p158
S'MetropolitanTransportationCommission/urban_analytics'
p159
tp160
a(S'sasToolkit'
p161
S'lwjohnst86'
p162
S'lwjohnst86/sasToolkit'
p163
tp164
a(S'etl'
p165
S'jonathandick'
p166
S'jonathandick/etl'
p167
tp168
a(S'SAS'
p169
S'tomhub'
p170
S'tomhub/SAS'
p171
tp172
a(S'hdw.dat'
p173
S'vtsuperdarn'
p174
S'vtsuperdarn/hdw.dat'
p175
tp176
a(S'family-options'
p177
S'jamiepg1'
p178
S'jamiepg1/family-options'
p179
tp180
a(S'heartbeat-data-dictionary'
p181
S'sleepepi'
p182
S'sleepepi/heartbeat-data-dictionary'
p183
tp184
a(S'vizrisk_cunysph'
p185
S'hwangnyc'
p186
S'hwangnyc/vizrisk_cunysph'
p187
tp188
a(S'sas-tools'
p189
S'gramonov'
p190
S'gramonov/sas-tools'
p191
tp192
a(S'-SAS--Macros'
p193
S'SophiaJia'
p194
S'SophiaJia/-SAS--Macros'
p195
tp196
a(S'ODSMemoSuite'
p197
S'lopezr'
p198
S'lopezr/ODSMemoSuite'
p199
tp200
a(S'Programming-SAS'
p201
S'Jiangtang'
p202
S'Jiangtang/Programming-SAS'
p203
tp204
a(S'SAS-macros'
p205
S'friendly'
p206
S'friendly/SAS-macros'
p207
tp208
a(S'SAS'
p209
S'xieliaing'
p210
S'xieliaing/SAS'
p211
tp212
a(S'coco'
p213
S'leptonyu'
p214
S'leptonyu/coco'
p215
tp216
a(S'RTipsAndTricks'
p217
S'benjamin-chan'
p218
S'benjamin-chan/RTipsAndTricks'
p219
tp220
a(S'enlighten-apply'
p221
S'sassoftware'
p222
S'sassoftware/enlighten-apply'
p223
tp224
a(S'SAS2REDCap'
p225
S'RMPDC-BDM'
p226
S'RMPDC-BDM/SAS2REDCap'
p227
tp228
a(S'SAS_ListProcessing'
p229
S'Jiangtang'
p230
S'Jiangtang/SAS_ListProcessing'
p231
tp232
a(S'bestair-data-dictionary'
p233
S'sleepepi'
p234
S'sleepepi/bestair-data-dictionary'
p235
tp236
a(S'enlighten-deep'
p237
S'sassoftware'
p238
S'sassoftware/enlighten-deep'
p239
tp240
a(S'team-post-MI'
p241
S'datamarathon'
p242
S'datamarathon/team-post-MI'
p243
tp244
a(S'RegressionSAScode'
p245
S'nicklip'
p246
S'nicklip/RegressionSAScode'
p247
tp248
a(S'SAS-BASE-MACRO'
p249
S'elong0527'
p250
S'elong0527/SAS-BASE-MACRO'
p251
tp252
a(S'marketbasket'
p253
S'clarioanalytics'
p254
S'clarioanalytics/marketbasket'
p255
tp256
a(S'urban_analytics'
p257
S'MetropolitanTransportationCommission'
p258
S'MetropolitanTransportationCommission/urban_analytics'
p259
tp260
a(S'sasToolkit'
p261
S'lwjohnst86'
p262
S'lwjohnst86/sasToolkit'
p263
tp264
a(S'etl'
p265
S'jonathandick'
p266
S'jonathandick/etl'
p267
tp268
a(S'SAS'
p269
S'tomhub'
p270
S'tomhub/SAS'
p271
tp272
a(S'hdw.dat'
p273
S'vtsuperdarn'
p274
S'vtsuperdarn/hdw.dat'
p275
tp276
a(S'family-options'
p277
S'jamiepg1'
p278
S'jamiepg1/family-options'
p279
tp280
a(S'heartbeat-data-dictionary'
p281
S'sleepepi'
p282
S'sleepepi/heartbeat-data-dictionary'
p283
tp284
a(S'vizrisk_cunysph'
p285
S'hwangnyc'
p286
S'hwangnyc/vizrisk_cunysph'
p287
tp288
a(S'sas-tools'
p289
S'gramonov'
p290
S'gramonov/sas-tools'
p291
tp292
a(S'-SAS--Macros'
p293
S'SophiaJia'
p294
S'SophiaJia/-SAS--Macros'
p295
tp296
a(S'ODSMemoSuite'
p297
S'lopezr'
p298
S'lopezr/ODSMemoSuite'
p299
tp300
a.