(lp0
(S'dotty'
p1
S'lampepfl'
p2
S'lampepfl/dotty'
p3
tp4
a(S'spark'
p5
S'apache'
p6
S'apache/spark'
p7
tp8
a(S'scala'
p9
S'scala'
p10
S'scala/scala'
p11
tp12
a(S'scala-slack'
p13
S'flyberry-capital'
p14
S'flyberry-capital/scala-slack'
p15
tp16
a(S'lila'
p17
S'ornicar'
p18
S'ornicar/lila'
p19
tp20
a(S'PredictionIO'
p21
S'PredictionIO'
p22
S'PredictionIO/PredictionIO'
p23
tp24
a(S'tranquility'
p25
S'druid-io'
p26
S'druid-io/tranquility'
p27
tp28
a(S'scalac-scoverage-plugin'
p29
S'scoverage'
p30
S'scoverage/scalac-scoverage-plugin'
p31
tp32
a(S'lcamera'
p33
S'PkmX'
p34
S'PkmX/lcamera'
p35
tp36
a(S'ProScalaFX'
p37
S'scalafx'
p38
S'scalafx/ProScalaFX'
p39
tp40
a(S'shapeless'
p41
S'milessabin'
p42
S'milessabin/shapeless'
p43
tp44
a(S'sparkling-water'
p45
S'h2oai'
p46
S'h2oai/sparkling-water'
p47
tp48
a(S'scalaz-stream'
p49
S'scalaz'
p50
S'scalaz/scalaz-stream'
p51
tp52
a(S'playframework'
p53
S'playframework'
p54
S'playframework/playframework'
p55
tp56
a(S'gitbucket'
p57
S'gitbucket'
p58
S'gitbucket/gitbucket'
p59
tp60
a(S'akka'
p61
S'akka'
p62
S'akka/akka'
p63
tp64
a(S'ArnoldC'
p65
S'lhartikk'
p66
S'lhartikk/ArnoldC'
p67
tp68
a(S'finagle'
p69
S'twitter'
p70
S'twitter/finagle'
p71
tp72
a(S'zipkin'
p73
S'openzipkin'
p74
S'openzipkin/zipkin'
p75
tp76
a(S'kestrel'
p77
S'twitter'
p78
S'twitter/kestrel'
p79
tp80
a(S'flockdb'
p81
S'twitter'
p82
S'twitter/flockdb'
p83
tp84
a(S'sbt'
p85
S'sbt'
p86
S'sbt/sbt'
p87
tp88
a(S'scalding'
p89
S'twitter'
p90
S'twitter/scalding'
p91
tp92
a(S'snowplow'
p93
S'snowplow'
p94
S'snowplow/snowplow'
p95
tp96
a(S'diffy'
p97
S'twitter'
p98
S'twitter/diffy'
p99
tp100
a(S'spark'
p101
S'apache'
p102
S'apache/spark'
p103
tp104
a(S'dotty'
p105
S'lampepfl'
p106
S'lampepfl/dotty'
p107
tp108
a(S'PredictionIO'
p109
S'PredictionIO'
p110
S'PredictionIO/PredictionIO'
p111
tp112
a(S'scala'
p113
S'scala'
p114
S'scala/scala'
p115
tp116
a(S'playframework'
p117
S'playframework'
p118
S'playframework/playframework'
p119
tp120
a(S'finagle'
p121
S'twitter'
p122
S'twitter/finagle'
p123
tp124
a(S'Wonderland-Scala-Katas'
p125
S'bsamaripa'
p126
S'bsamaripa/Wonderland-Scala-Katas'
p127
tp128
a(S'akka'
p129
S'akka'
p130
S'akka/akka'
p131
tp132
a(S'links'
p133
S'velvia'
p134
S'velvia/links'
p135
tp136
a(S'lila'
p137
S'ornicar'
p138
S'ornicar/lila'
p139
tp140
a(S'marathon'
p141
S'mesosphere'
p142
S'mesosphere/marathon'
p143
tp144
a(S'fpinscala'
p145
S'fpinscala'
p146
S'fpinscala/fpinscala'
p147
tp148
a(S'zipkin'
p149
S'openzipkin'
p150
S'openzipkin/zipkin'
p151
tp152
a(S'kafka-manager'
p153
S'yahoo'
p154
S'yahoo/kafka-manager'
p155
tp156
a(S'spark-jobserver'
p157
S'spark-jobserver'
p158
S'spark-jobserver/spark-jobserver'
p159
tp160
a(S'astro'
p161
S'HuaweiBigData'
p162
S'HuaweiBigData/astro'
p163
tp164
a(S'gatling'
p165
S'gatling'
p166
S'gatling/gatling'
p167
tp168
a(S'spark-ext'
p169
S'collectivemedia'
p170
S'collectivemedia/spark-ext'
p171
tp172
a(S'gitbucket'
p173
S'gitbucket'
p174
S'gitbucket/gitbucket'
p175
tp176
a(S'sri'
p177
S'chandu0101'
p178
S'chandu0101/sri'
p179
tp180
a(S'cats'
p181
S'non'
p182
S'non/cats'
p183
tp184
a(S'scalajs-react'
p185
S'japgolly'
p186
S'japgolly/scalajs-react'
p187
tp188
a(S'slick'
p189
S'slick'
p190
S'slick/slick'
p191
tp192
a(S'mongo-scala-driver'
p193
S'mongodb'
p194
S'mongodb/mongo-scala-driver'
p195
tp196
a(S'util'
p197
S'twitter'
p198
S'twitter/util'
p199
tp200
a(S'spark'
p201
S'apache'
p202
S'apache/spark'
p203
tp204
a(S'sri'
p205
S'chandu0101'
p206
S'chandu0101/sri'
p207
tp208
a(S'PredictionIO'
p209
S'PredictionIO'
p210
S'PredictionIO/PredictionIO'
p211
tp212
a(S'scala'
p213
S'scala'
p214
S'scala/scala'
p215
tp216
a(S'playframework'
p217
S'playframework'
p218
S'playframework/playframework'
p219
tp220
a(S'lila'
p221
S'ornicar'
p222
S'ornicar/lila'
p223
tp224
a(S'akka'
p225
S'akka'
p226
S'akka/akka'
p227
tp228
a(S'gitbucket'
p229
S'gitbucket'
p230
S'gitbucket/gitbucket'
p231
tp232
a(S'better-files'
p233
S'pathikrit'
p234
S'pathikrit/better-files'
p235
tp236
a(S'finagle'
p237
S'twitter'
p238
S'twitter/finagle'
p239
tp240
a(S'marathon'
p241
S'mesosphere'
p242
S'mesosphere/marathon'
p243
tp244
a(S'dotty'
p245
S'lampepfl'
p246
S'lampepfl/dotty'
p247
tp248
a(S'astro'
p249
S'HuaweiBigData'
p250
S'HuaweiBigData/astro'
p251
tp252
a(S'khronus'
p253
S'Searchlight'
p254
S'Searchlight/khronus'
p255
tp256
a(S'fpinscala'
p257
S'fpinscala'
p258
S'fpinscala/fpinscala'
p259
tp260
a(S'kafka-manager'
p261
S'yahoo'
p262
S'yahoo/kafka-manager'
p263
tp264
a(S'gatling'
p265
S'gatling'
p266
S'gatling/gatling'
p267
tp268
a(S'cats'
p269
S'non'
p270
S'non/cats'
p271
tp272
a(S'atlas'
p273
S'Netflix'
p274
S'Netflix/atlas'
p275
tp276
a(S'bfg-repo-cleaner'
p277
S'rtyley'
p278
S'rtyley/bfg-repo-cleaner'
p279
tp280
a(S'spark-jobserver'
p281
S'spark-jobserver'
p282
S'spark-jobserver/spark-jobserver'
p283
tp284
a(S'zipkin'
p285
S'openzipkin'
p286
S'openzipkin/zipkin'
p287
tp288
a(S'scalaz'
p289
S'scalaz'
p290
S'scalaz/scalaz'
p291
tp292
a(S'finatra'
p293
S'twitter'
p294
S'twitter/finatra'
p295
tp296
a(S'fastparse'
p297
S'lihaoyi'
p298
S'lihaoyi/fastparse'
p299
tp300
a.