(lp0
(S'harlan'
p1
S'eholk'
p2
S'eholk/harlan'
p3
tp4
a(S'lambdanative'
p5
S'part-cw'
p6
S'part-cw/lambdanative'
p7
tp8
a(S'femtolisp'
p9
S'JeffBezanson'
p10
S'JeffBezanson/femtolisp'
p11
tp12
a(S'spatial'
p13
S'neo4j-contrib'
p14
S'neo4j-contrib/spatial'
p15
tp16
a(S'SICP-answers'
p17
S'huangz1990'
p18
S'huangz1990/SICP-answers'
p19
tp20
a(S'the-little-schemer'
p21
S'pkrumins'
p22
S'pkrumins/the-little-schemer'
p23
tp24
a(S'eopl3'
p25
S'mwand'
p26
S'mwand/eopl3'
p27
tp28
a(S'lightsabers'
p29
S'yinwang0'
p30
S'yinwang0/lightsabers'
p31
tp32
a(S'nanopass-framework'
p33
S'akeep'
p34
S'akeep/nanopass-framework'
p35
tp36
a(S'inc'
p37
S'namin'
p38
S'namin/inc'
p39
tp40
a(S'chibi-scheme'
p41
S'ashinn'
p42
S'ashinn/chibi-scheme'
p43
tp44
a(S'j-bob'
p45
S'the-little-prover'
p46
S'the-little-prover/j-bob'
p47
tp48
a(S'scsh'
p49
S'scheme'
p50
S'scheme/scsh'
p51
tp52
a(S'artanis'
p53
S'NalaGinrut'
p54
S'NalaGinrut/artanis'
p55
tp56
a(S'django-vagrant'
p57
S'notanumber'
p58
S'notanumber/django-vagrant'
p59
tp60
a(S'miniKanren'
p61
S'miniKanren'
p62
S'miniKanren/miniKanren'
p63
tp64
a(S'waxeye'
p65
S'orlandohill'
p66
S'orlandohill/waxeye'
p67
tp68
a(S'vicare'
p69
S'marcomaggi'
p70
S'marcomaggi/vicare'
p71
tp72
a(S'mosh'
p73
S'higepon'
p74
S'higepon/mosh'
p75
tp76
a(S'yscheme'
p77
S'yinwang0'
p78
S'yinwang0/yscheme'
p79
tp80
a(S'radamsa'
p81
S'aoh'
p82
S'aoh/radamsa'
p83
tp84
a(S'scheme-to-c'
p85
S'akeep'
p86
S'akeep/scheme-to-c'
p87
tp88
a(S'emacsy'
p89
S'shanecelis'
p90
S'shanecelis/emacsy'
p91
tp92
a(S'gambit-iphone-example'
p93
S'jlongster'
p94
S'jlongster/gambit-iphone-example'
p95
tp96
a(S'sicp'
p97
S'jiacai2050'
p98
S'jiacai2050/sicp'
p99
tp100
a(S'massmine'
p101
S'n3mo'
p102
S'n3mo/massmine'
p103
tp104
a(S'harlan'
p105
S'eholk'
p106
S'eholk/harlan'
p107
tp108
a(S'lambdanative'
p109
S'part-cw'
p110
S'part-cw/lambdanative'
p111
tp112
a(S'femtolisp'
p113
S'JeffBezanson'
p114
S'JeffBezanson/femtolisp'
p115
tp116
a(S'spatial'
p117
S'neo4j-contrib'
p118
S'neo4j-contrib/spatial'
p119
tp120
a(S'SICP-answers'
p121
S'huangz1990'
p122
S'huangz1990/SICP-answers'
p123
tp124
a(S'the-little-schemer'
p125
S'pkrumins'
p126
S'pkrumins/the-little-schemer'
p127
tp128
a(S'eopl3'
p129
S'mwand'
p130
S'mwand/eopl3'
p131
tp132
a(S'lightsabers'
p133
S'yinwang0'
p134
S'yinwang0/lightsabers'
p135
tp136
a(S'nanopass-framework'
p137
S'akeep'
p138
S'akeep/nanopass-framework'
p139
tp140
a(S'inc'
p141
S'namin'
p142
S'namin/inc'
p143
tp144
a(S'chibi-scheme'
p145
S'ashinn'
p146
S'ashinn/chibi-scheme'
p147
tp148
a(S'j-bob'
p149
S'the-little-prover'
p150
S'the-little-prover/j-bob'
p151
tp152
a(S'scsh'
p153
S'scheme'
p154
S'scheme/scsh'
p155
tp156
a(S'artanis'
p157
S'NalaGinrut'
p158
S'NalaGinrut/artanis'
p159
tp160
a(S'django-vagrant'
p161
S'notanumber'
p162
S'notanumber/django-vagrant'
p163
tp164
a(S'miniKanren'
p165
S'miniKanren'
p166
S'miniKanren/miniKanren'
p167
tp168
a(S'waxeye'
p169
S'orlandohill'
p170
S'orlandohill/waxeye'
p171
tp172
a(S'vicare'
p173
S'marcomaggi'
p174
S'marcomaggi/vicare'
p175
tp176
a(S'mosh'
p177
S'higepon'
p178
S'higepon/mosh'
p179
tp180
a(S'yscheme'
p181
S'yinwang0'
p182
S'yinwang0/yscheme'
p183
tp184
a(S'radamsa'
p185
S'aoh'
p186
S'aoh/radamsa'
p187
tp188
a(S'scheme-to-c'
p189
S'akeep'
p190
S'akeep/scheme-to-c'
p191
tp192
a(S'emacsy'
p193
S'shanecelis'
p194
S'shanecelis/emacsy'
p195
tp196
a(S'gambit-iphone-example'
p197
S'jlongster'
p198
S'jlongster/gambit-iphone-example'
p199
tp200
a(S'harlan'
p201
S'eholk'
p202
S'eholk/harlan'
p203
tp204
a(S'chibi-scheme'
p205
S'ashinn'
p206
S'ashinn/chibi-scheme'
p207
tp208
a(S'massmine'
p209
S'n3mo'
p210
S'n3mo/massmine'
p211
tp212
a(S'lambdanative'
p213
S'part-cw'
p214
S'part-cw/lambdanative'
p215
tp216
a(S'spatial'
p217
S'neo4j-contrib'
p218
S'neo4j-contrib/spatial'
p219
tp220
a(S'femtolisp'
p221
S'JeffBezanson'
p222
S'JeffBezanson/femtolisp'
p223
tp224
a(S'SICP-answers'
p225
S'huangz1990'
p226
S'huangz1990/SICP-answers'
p227
tp228
a(S'the-little-schemer'
p229
S'pkrumins'
p230
S'pkrumins/the-little-schemer'
p231
tp232
a(S'eopl3'
p233
S'mwand'
p234
S'mwand/eopl3'
p235
tp236
a(S'lightsabers'
p237
S'yinwang0'
p238
S'yinwang0/lightsabers'
p239
tp240
a(S'nanopass-framework'
p241
S'akeep'
p242
S'akeep/nanopass-framework'
p243
tp244
a(S'inc'
p245
S'namin'
p246
S'namin/inc'
p247
tp248
a(S'j-bob'
p249
S'the-little-prover'
p250
S'the-little-prover/j-bob'
p251
tp252
a(S'scsh'
p253
S'scheme'
p254
S'scheme/scsh'
p255
tp256
a(S'artanis'
p257
S'NalaGinrut'
p258
S'NalaGinrut/artanis'
p259
tp260
a(S'miniKanren'
p261
S'miniKanren'
p262
S'miniKanren/miniKanren'
p263
tp264
a(S'django-vagrant'
p265
S'notanumber'
p266
S'notanumber/django-vagrant'
p267
tp268
a(S'waxeye'
p269
S'orlandohill'
p270
S'orlandohill/waxeye'
p271
tp272
a(S'vicare'
p273
S'marcomaggi'
p274
S'marcomaggi/vicare'
p275
tp276
a(S'mosh'
p277
S'higepon'
p278
S'higepon/mosh'
p279
tp280
a(S'yscheme'
p281
S'yinwang0'
p282
S'yinwang0/yscheme'
p283
tp284
a(S'radamsa'
p285
S'aoh'
p286
S'aoh/radamsa'
p287
tp288
a(S'scheme-to-c'
p289
S'akeep'
p290
S'akeep/scheme-to-c'
p291
tp292
a(S'emacsy'
p293
S'shanecelis'
p294
S'shanecelis/emacsy'
p295
tp296
a(S'gambit-iphone-example'
p297
S'jlongster'
p298
S'jlongster/gambit-iphone-example'
p299
tp300
a.