(lp0
(S'scilab'
p1
S'opencollab'
p2
S'opencollab/scilab'
p3
tp4
a(S'arktoolbox'
p5
S'arktools'
p6
S'arktools/arktoolbox'
p7
tp8
a(S'akanda'
p9
S'openstack'
p10
S'openstack/akanda'
p11
tp12
a(S'libreexp'
p13
S'arauhala'
p14
S'arauhala/libreexp'
p15
tp16
a(S'Elements-of-Computing-Systems'
p17
S'cmoylan'
p18
S'cmoylan/Elements-of-Computing-Systems'
p19
tp20
a(S'ubuntu-ui-extras'
p21
S'iBeliever'
p22
S'iBeliever/ubuntu-ui-extras'
p23
tp24
a(S'scilab_cloud'
p25
S'saketkc'
p26
S'saketkc/scilab_cloud'
p27
tp28
a(S'flecc_in_c'
p29
S'IAIK'
p30
S'IAIK/flecc_in_c'
p31
tp32
a(S'logsim'
p33
S'darius'
p34
S'darius/logsim'
p35
tp36
a(S'Scilab-Serial'
p37
S'sengupta'
p38
S'sengupta/Scilab-Serial'
p39
tp40
a(S'patchrom_i9300'
p41
S'MiCode'
p42
S'MiCode/patchrom_i9300'
p43
tp44
a(S'hamsterdb-tests'
p45
S'cruppstahl'
p46
S'cruppstahl/hamsterdb-tests'
p47
tp48
a(S'numerical-analysis'
p49
S'narrowfail'
p50
S'narrowfail/numerical-analysis'
p51
tp52
a(S'richelieu'
p53
S'OCamlPro'
p54
S'OCamlPro/richelieu'
p55
tp56
a(S'scilab-maxima'
p57
S'sengupta'
p58
S'sengupta/scilab-maxima'
p59
tp60
a(S'acm'
p61
S'begoon'
p62
S'begoon/acm'
p63
tp64
a(S'R-Decision-Tree-Examples'
p65
S'hugulas'
p66
S'hugulas/R-Decision-Tree-Examples'
p67
tp68
a(S'scilab-http'
p69
S'sengupta'
p70
S'sengupta/scilab-http'
p71
tp72
a(S'TK-Libraries'
p73
S'dancryer'
p74
S'dancryer/TK-Libraries'
p75
tp76
a(S'ANN'
p77
S'Breemua'
p78
S'Breemua/ANN'
p79
tp80
a(S'FD'
p81
S'RDeville'
p82
S'RDeville/FD'
p83
tp84
a(S'The-Elements-of-Computing-Systems'
p85
S'whostolebenfrog'
p86
S'whostolebenfrog/The-Elements-of-Computing-Systems'
p87
tp88
a(S'datasets'
p89
S'mikeizbicki'
p90
S'mikeizbicki/datasets'
p91
tp92
a(S'furry-octo-computing-machine'
p93
S'FlaviusAetius'
p94
S'FlaviusAetius/furry-octo-computing-machine'
p95
tp96
a(S'NumericalAnalysis'
p97
S'c00kiemon5ter'
p98
S'c00kiemon5ter/NumericalAnalysis'
p99
tp100
a(S'scilab'
p101
S'opencollab'
p102
S'opencollab/scilab'
p103
tp104
a(S'arktoolbox'
p105
S'arktools'
p106
S'arktools/arktoolbox'
p107
tp108
a(S'akanda'
p109
S'openstack'
p110
S'openstack/akanda'
p111
tp112
a(S'libreexp'
p113
S'arauhala'
p114
S'arauhala/libreexp'
p115
tp116
a(S'Elements-of-Computing-Systems'
p117
S'cmoylan'
p118
S'cmoylan/Elements-of-Computing-Systems'
p119
tp120
a(S'ubuntu-ui-extras'
p121
S'iBeliever'
p122
S'iBeliever/ubuntu-ui-extras'
p123
tp124
a(S'scilab_cloud'
p125
S'saketkc'
p126
S'saketkc/scilab_cloud'
p127
tp128
a(S'flecc_in_c'
p129
S'IAIK'
p130
S'IAIK/flecc_in_c'
p131
tp132
a(S'logsim'
p133
S'darius'
p134
S'darius/logsim'
p135
tp136
a(S'Scilab-Serial'
p137
S'sengupta'
p138
S'sengupta/Scilab-Serial'
p139
tp140
a(S'patchrom_i9300'
p141
S'MiCode'
p142
S'MiCode/patchrom_i9300'
p143
tp144
a(S'hamsterdb-tests'
p145
S'cruppstahl'
p146
S'cruppstahl/hamsterdb-tests'
p147
tp148
a(S'numerical-analysis'
p149
S'narrowfail'
p150
S'narrowfail/numerical-analysis'
p151
tp152
a(S'richelieu'
p153
S'OCamlPro'
p154
S'OCamlPro/richelieu'
p155
tp156
a(S'scilab-maxima'
p157
S'sengupta'
p158
S'sengupta/scilab-maxima'
p159
tp160
a(S'acm'
p161
S'begoon'
p162
S'begoon/acm'
p163
tp164
a(S'R-Decision-Tree-Examples'
p165
S'hugulas'
p166
S'hugulas/R-Decision-Tree-Examples'
p167
tp168
a(S'scilab-http'
p169
S'sengupta'
p170
S'sengupta/scilab-http'
p171
tp172
a(S'TK-Libraries'
p173
S'dancryer'
p174
S'dancryer/TK-Libraries'
p175
tp176
a(S'ANN'
p177
S'Breemua'
p178
S'Breemua/ANN'
p179
tp180
a(S'FD'
p181
S'RDeville'
p182
S'RDeville/FD'
p183
tp184
a(S'The-Elements-of-Computing-Systems'
p185
S'whostolebenfrog'
p186
S'whostolebenfrog/The-Elements-of-Computing-Systems'
p187
tp188
a(S'datasets'
p189
S'mikeizbicki'
p190
S'mikeizbicki/datasets'
p191
tp192
a(S'furry-octo-computing-machine'
p193
S'FlaviusAetius'
p194
S'FlaviusAetius/furry-octo-computing-machine'
p195
tp196
a(S'NumericalAnalysis'
p197
S'c00kiemon5ter'
p198
S'c00kiemon5ter/NumericalAnalysis'
p199
tp200
a(S'scilab'
p201
S'opencollab'
p202
S'opencollab/scilab'
p203
tp204
a(S'arktoolbox'
p205
S'arktools'
p206
S'arktools/arktoolbox'
p207
tp208
a(S'akanda'
p209
S'openstack'
p210
S'openstack/akanda'
p211
tp212
a(S'libreexp'
p213
S'arauhala'
p214
S'arauhala/libreexp'
p215
tp216
a(S'Elements-of-Computing-Systems'
p217
S'cmoylan'
p218
S'cmoylan/Elements-of-Computing-Systems'
p219
tp220
a(S'ubuntu-ui-extras'
p221
S'iBeliever'
p222
S'iBeliever/ubuntu-ui-extras'
p223
tp224
a(S'scilab_cloud'
p225
S'saketkc'
p226
S'saketkc/scilab_cloud'
p227
tp228
a(S'flecc_in_c'
p229
S'IAIK'
p230
S'IAIK/flecc_in_c'
p231
tp232
a(S'logsim'
p233
S'darius'
p234
S'darius/logsim'
p235
tp236
a(S'Scilab-Serial'
p237
S'sengupta'
p238
S'sengupta/Scilab-Serial'
p239
tp240
a(S'patchrom_i9300'
p241
S'MiCode'
p242
S'MiCode/patchrom_i9300'
p243
tp244
a(S'hamsterdb-tests'
p245
S'cruppstahl'
p246
S'cruppstahl/hamsterdb-tests'
p247
tp248
a(S'numerical-analysis'
p249
S'narrowfail'
p250
S'narrowfail/numerical-analysis'
p251
tp252
a(S'richelieu'
p253
S'OCamlPro'
p254
S'OCamlPro/richelieu'
p255
tp256
a(S'scilab-maxima'
p257
S'sengupta'
p258
S'sengupta/scilab-maxima'
p259
tp260
a(S'acm'
p261
S'begoon'
p262
S'begoon/acm'
p263
tp264
a(S'R-Decision-Tree-Examples'
p265
S'hugulas'
p266
S'hugulas/R-Decision-Tree-Examples'
p267
tp268
a(S'scilab-http'
p269
S'sengupta'
p270
S'sengupta/scilab-http'
p271
tp272
a(S'TK-Libraries'
p273
S'dancryer'
p274
S'dancryer/TK-Libraries'
p275
tp276
a(S'ANN'
p277
S'Breemua'
p278
S'Breemua/ANN'
p279
tp280
a(S'FD'
p281
S'RDeville'
p282
S'RDeville/FD'
p283
tp284
a(S'The-Elements-of-Computing-Systems'
p285
S'whostolebenfrog'
p286
S'whostolebenfrog/The-Elements-of-Computing-Systems'
p287
tp288
a(S'datasets'
p289
S'mikeizbicki'
p290
S'mikeizbicki/datasets'
p291
tp292
a(S'furry-octo-computing-machine'
p293
S'FlaviusAetius'
p294
S'FlaviusAetius/furry-octo-computing-machine'
p295
tp296
a(S'NumericalAnalysis'
p297
S'c00kiemon5ter'
p298
S'c00kiemon5ter/NumericalAnalysis'
p299
tp300
a.