(lp0
(S'self'
p1
S'russellallen'
p2
S'russellallen/self'
p3
tp4
a(S'klein'
p5
S'AdamSpitz'
p6
S'AdamSpitz/klein'
p7
tp8
a(S'self'
p9
S'krono'
p10
S'krono/self'
p11
tp12
a(S'self'
p13
S'doublec'
p14
S'doublec/self'
p15
tp16
a(S'fail0verflow2'
p17
S'willy88'
p18
S'willy88/fail0verflow2'
p19
tp20
a(S'self'
p21
S'AdamSpitz'
p22
S'AdamSpitz/self'
p23
tp24
a(S'alecmercer-origins'
p25
S'adithedude007'
p26
S'adithedude007/alecmercer-origins'
p27
tp28
a(S'fail0verflow2'
p29
S'AfricaEOL'
p30
S'AfricaEOL/fail0verflow2'
p31
tp32
a(S'fail0verflow2'
p33
S'pitu205'
p34
S'pitu205/fail0verflow2'
p35
tp36
a(S'self'
p37
S'mildred'
p38
S'mildred/self'
p39
tp40
a(S'self-vncviewer'
p41
S'doublec'
p42
S'doublec/self-vncviewer'
p43
tp44
a(S'fail0verflow2'
p45
S'otaku1818'
p46
S'otaku1818/fail0verflow2'
p47
tp48
a(S'PSL1GHT-Graphical-Game-Lib'
p49
S'NZHawk'
p50
S'NZHawk/PSL1GHT-Graphical-Game-Lib'
p51
tp52
a(S'fail0verflow2'
p53
S'Frogggy'
p54
S'Frogggy/fail0verflow2'
p55
tp56
a(S'alecmercer-origins'
p57
S'pastds'
p58
S'pastds/alecmercer-origins'
p59
tp60
a(S'fail0verflow2'
p61
S'Psmaniaco'
p62
S'Psmaniaco/fail0verflow2'
p63
tp64
a(S'fail0verflow2'
p65
S'c42n4l'
p66
S'c42n4l/fail0verflow2'
p67
tp68
a(S'fail0verflow2'
p69
S'wallflow'
p70
S'wallflow/fail0verflow2'
p71
tp72
a(S'self-webserver'
p73
S'russellallen'
p74
S'russellallen/self-webserver'
p75
tp76
a(S'fail0verflow2'
p77
S'RastaEOL'
p78
S'RastaEOL/fail0verflow2'
p79
tp80
a(S'fail0verflow2'
p81
S'rulicos'
p82
S'rulicos/fail0verflow2'
p83
tp84
a(S'InstallPackageHomebrew'
p85
S'wargio'
p86
S'wargio/InstallPackageHomebrew'
p87
tp88
a(S'fail0verflow2'
p89
S'jb10797'
p90
S'jb10797/fail0verflow2'
p91
tp92
a(S'fail0verflow2'
p93
S'pauluchin'
p94
S'pauluchin/fail0verflow2'
p95
tp96
a(S'fail0verflow2'
p97
S'Carslove54'
p98
S'Carslove54/fail0verflow2'
p99
tp100
a(S'self'
p101
S'russellallen'
p102
S'russellallen/self'
p103
tp104
a(S'klein'
p105
S'AdamSpitz'
p106
S'AdamSpitz/klein'
p107
tp108
a(S'self'
p109
S'krono'
p110
S'krono/self'
p111
tp112
a(S'self'
p113
S'doublec'
p114
S'doublec/self'
p115
tp116
a(S'fail0verflow2'
p117
S'willy88'
p118
S'willy88/fail0verflow2'
p119
tp120
a(S'self'
p121
S'AdamSpitz'
p122
S'AdamSpitz/self'
p123
tp124
a(S'alecmercer-origins'
p125
S'adithedude007'
p126
S'adithedude007/alecmercer-origins'
p127
tp128
a(S'fail0verflow2'
p129
S'AfricaEOL'
p130
S'AfricaEOL/fail0verflow2'
p131
tp132
a(S'fail0verflow2'
p133
S'pitu205'
p134
S'pitu205/fail0verflow2'
p135
tp136
a(S'self'
p137
S'mildred'
p138
S'mildred/self'
p139
tp140
a(S'self-vncviewer'
p141
S'doublec'
p142
S'doublec/self-vncviewer'
p143
tp144
a(S'fail0verflow2'
p145
S'otaku1818'
p146
S'otaku1818/fail0verflow2'
p147
tp148
a(S'PSL1GHT-Graphical-Game-Lib'
p149
S'NZHawk'
p150
S'NZHawk/PSL1GHT-Graphical-Game-Lib'
p151
tp152
a(S'fail0verflow2'
p153
S'Frogggy'
p154
S'Frogggy/fail0verflow2'
p155
tp156
a(S'alecmercer-origins'
p157
S'pastds'
p158
S'pastds/alecmercer-origins'
p159
tp160
a(S'fail0verflow2'
p161
S'Psmaniaco'
p162
S'Psmaniaco/fail0verflow2'
p163
tp164
a(S'fail0verflow2'
p165
S'c42n4l'
p166
S'c42n4l/fail0verflow2'
p167
tp168
a(S'fail0verflow2'
p169
S'wallflow'
p170
S'wallflow/fail0verflow2'
p171
tp172
a(S'self-webserver'
p173
S'russellallen'
p174
S'russellallen/self-webserver'
p175
tp176
a(S'fail0verflow2'
p177
S'RastaEOL'
p178
S'RastaEOL/fail0verflow2'
p179
tp180
a(S'fail0verflow2'
p181
S'rulicos'
p182
S'rulicos/fail0verflow2'
p183
tp184
a(S'InstallPackageHomebrew'
p185
S'wargio'
p186
S'wargio/InstallPackageHomebrew'
p187
tp188
a(S'fail0verflow2'
p189
S'jb10797'
p190
S'jb10797/fail0verflow2'
p191
tp192
a(S'fail0verflow2'
p193
S'pauluchin'
p194
S'pauluchin/fail0verflow2'
p195
tp196
a(S'fail0verflow2'
p197
S'Carslove54'
p198
S'Carslove54/fail0verflow2'
p199
tp200
a(S'self'
p201
S'russellallen'
p202
S'russellallen/self'
p203
tp204
a(S'klein'
p205
S'AdamSpitz'
p206
S'AdamSpitz/klein'
p207
tp208
a(S'self'
p209
S'krono'
p210
S'krono/self'
p211
tp212
a(S'self'
p213
S'doublec'
p214
S'doublec/self'
p215
tp216
a(S'fail0verflow2'
p217
S'willy88'
p218
S'willy88/fail0verflow2'
p219
tp220
a(S'self'
p221
S'AdamSpitz'
p222
S'AdamSpitz/self'
p223
tp224
a(S'alecmercer-origins'
p225
S'adithedude007'
p226
S'adithedude007/alecmercer-origins'
p227
tp228
a(S'fail0verflow2'
p229
S'AfricaEOL'
p230
S'AfricaEOL/fail0verflow2'
p231
tp232
a(S'fail0verflow2'
p233
S'pitu205'
p234
S'pitu205/fail0verflow2'
p235
tp236
a(S'self'
p237
S'mildred'
p238
S'mildred/self'
p239
tp240
a(S'self-vncviewer'
p241
S'doublec'
p242
S'doublec/self-vncviewer'
p243
tp244
a(S'fail0verflow2'
p245
S'otaku1818'
p246
S'otaku1818/fail0verflow2'
p247
tp248
a(S'PSL1GHT-Graphical-Game-Lib'
p249
S'NZHawk'
p250
S'NZHawk/PSL1GHT-Graphical-Game-Lib'
p251
tp252
a(S'fail0verflow2'
p253
S'Frogggy'
p254
S'Frogggy/fail0verflow2'
p255
tp256
a(S'alecmercer-origins'
p257
S'pastds'
p258
S'pastds/alecmercer-origins'
p259
tp260
a(S'fail0verflow2'
p261
S'Psmaniaco'
p262
S'Psmaniaco/fail0verflow2'
p263
tp264
a(S'fail0verflow2'
p265
S'c42n4l'
p266
S'c42n4l/fail0verflow2'
p267
tp268
a(S'fail0verflow2'
p269
S'wallflow'
p270
S'wallflow/fail0verflow2'
p271
tp272
a(S'self-webserver'
p273
S'russellallen'
p274
S'russellallen/self-webserver'
p275
tp276
a(S'fail0verflow2'
p277
S'RastaEOL'
p278
S'RastaEOL/fail0verflow2'
p279
tp280
a(S'fail0verflow2'
p281
S'rulicos'
p282
S'rulicos/fail0verflow2'
p283
tp284
a(S'InstallPackageHomebrew'
p285
S'wargio'
p286
S'wargio/InstallPackageHomebrew'
p287
tp288
a(S'fail0verflow2'
p289
S'jb10797'
p290
S'jb10797/fail0verflow2'
p291
tp292
a(S'fail0verflow2'
p293
S'pauluchin'
p294
S'pauluchin/fail0verflow2'
p295
tp296
a(S'fail0verflow2'
p297
S'Carslove54'
p298
S'Carslove54/fail0verflow2'
p299
tp300
a.