(lp0
(S'my-gentoo-box'
p1
S'ilyaigpetrov'
p2
S'ilyaigpetrov/my-gentoo-box'
p3
tp4
a(S'my-gentoo-box'
p5
S'ilyaigpetrov'
p6
S'ilyaigpetrov/my-gentoo-box'
p7
tp8
a(S'my-gentoo-box'
p9
S'ilyaigpetrov'
p10
S'ilyaigpetrov/my-gentoo-box'
p11
tp12
a.