(lp0
(S'style-guides'
p1
S'Khan'
p2
S'Khan/style-guides'
p3
tp4
a(S'oh-my-zsh'
p5
S'robbyrussell'
p6
S'robbyrussell/oh-my-zsh'
p7
tp8
a(S'nvm'
p9
S'creationix'
p10
S'creationix/nvm'
p11
tp12
a(S'haskell-ide'
p13
S'haskell'
p14
S'haskell/haskell-ide'
p15
tp16
a(S'bucket'
p17
S'alphapapa'
p18
S'alphapapa/bucket'
p19
tp20
a(S'flarum'
p21
S'flarum'
p22
S'flarum/flarum'
p23
tp24
a(S'prezto'
p25
S'sorin-ionescu'
p26
S'sorin-ionescu/prezto'
p27
tp28
a(S'prettyping'
p29
S'denilsonsa'
p30
S'denilsonsa/prettyping'
p31
tp32
a(S'Hack'
p33
S'chrissimpkins'
p34
S'chrissimpkins/Hack'
p35
tp36
a(S'babun'
p37
S'babun'
p38
S'babun/babun'
p39
tp40
a(S'nginx-proxy'
p41
S'jwilder'
p42
S'jwilder/nginx-proxy'
p43
tp44
a(S'git-extras'
p45
S'tj'
p46
S'tj/git-extras'
p47
tp48
a(S'n'
p49
S'tj'
p50
S'tj/n'
p51
tp52
a(S'docker-osx-dev'
p53
S'brikis98'
p54
S'brikis98/docker-osx-dev'
p55
tp56
a(S'z'
p57
S'rupa'
p58
S'rupa/z'
p59
tp60
a(S'dockerfiles'
p61
S'jfrazelle'
p62
S'jfrazelle/dockerfiles'
p63
tp64
a(S'ubuntu'
p65
S'boxcutter'
p66
S'boxcutter/ubuntu'
p67
tp68
a(S'dotfiles'
p69
S'thoughtbot'
p70
S'thoughtbot/dotfiles'
p71
tp72
a(S'Install-OpenCV'
p73
S'jayrambhia'
p74
S'jayrambhia/Install-OpenCV'
p75
tp76
a(S'MSYS2-packages'
p77
S'Alexpux'
p78
S'Alexpux/MSYS2-packages'
p79
tp80
a(S'cf-release'
p81
S'cloudfoundry'
p82
S'cloudfoundry/cf-release'
p83
tp84
a(S'clonezilla'
p85
S'stevenshiau'
p86
S'stevenshiau/clonezilla'
p87
tp88
a(S'android_vendor_cm'
p89
S'CyanogenMod'
p90
S'CyanogenMod/android_vendor_cm'
p91
tp92
a(S'theme-bobthefish'
p93
S'oh-my-fish'
p94
S'oh-my-fish/theme-bobthefish'
p95
tp96
a(S'resource-agents'
p97
S'ClusterLabs'
p98
S'ClusterLabs/resource-agents'
p99
tp100
a(S'style-guides'
p101
S'Khan'
p102
S'Khan/style-guides'
p103
tp104
a(S'oh-my-zsh'
p105
S'robbyrussell'
p106
S'robbyrussell/oh-my-zsh'
p107
tp108
a(S'nvm'
p109
S'creationix'
p110
S'creationix/nvm'
p111
tp112
a(S'prettyping'
p113
S'denilsonsa'
p114
S'denilsonsa/prettyping'
p115
tp116
a(S'flarum'
p117
S'flarum'
p118
S'flarum/flarum'
p119
tp120
a(S'rpi-webapplication'
p121
S'zehfernandes'
p122
S'zehfernandes/rpi-webapplication'
p123
tp124
a(S'Hack'
p125
S'chrissimpkins'
p126
S'chrissimpkins/Hack'
p127
tp128
a(S'babun'
p129
S'babun'
p130
S'babun/babun'
p131
tp132
a(S'dokku'
p133
S'progrium'
p134
S'progrium/dokku'
p135
tp136
a(g57
S'rupa'
p137
S'rupa/z'
p138
tp139
a(S'prezto'
p140
S'sorin-ionescu'
p141
S'sorin-ionescu/prezto'
p142
tp143
a(S'polyfy'
p144
S'onespaceman'
p145
S'onespaceman/polyfy'
p146
tp147
a(S'TTGEmojiRate'
p148
S'zekunyan'
p149
S'zekunyan/TTGEmojiRate'
p150
tp151
a(S'git-extras'
p152
S'tj'
p153
S'tj/git-extras'
p154
tp155
a(S'ansible-examples'
p156
S'ansible'
p157
S'ansible/ansible-examples'
p158
tp159
a(g49
S'tj'
p160
S'tj/n'
p161
tp162
a(S'haskell-ide'
p163
S'haskell'
p164
S'haskell/haskell-ide'
p165
tp166
a(S'FullPageOS'
p167
S'guysoft'
p168
S'guysoft/FullPageOS'
p169
tp170
a(S'oh-my-fish'
p171
S'oh-my-fish'
p172
S'oh-my-fish/oh-my-fish'
p173
tp174
a(S'nginx-proxy'
p175
S'jwilder'
p176
S'jwilder/nginx-proxy'
p177
tp178
a(S'dotfiles'
p179
S'thoughtbot'
p180
S'thoughtbot/dotfiles'
p181
tp182
a(S'bash-it'
p183
S'Bash-it'
p184
S'Bash-it/bash-it'
p185
tp186
a(S'azure-quickstart-templates'
p187
S'Azure'
p188
S'Azure/azure-quickstart-templates'
p189
tp190
a(S'rancher'
p191
S'rancher'
p192
S'rancher/rancher'
p193
tp194
a(S'VVV'
p195
S'Varying-Vagrant-Vagrants'
p196
S'Varying-Vagrant-Vagrants/VVV'
p197
tp198
a(S'oh-my-zsh'
p199
S'robbyrussell'
p200
S'robbyrussell/oh-my-zsh'
p201
tp202
a(S'style-guides'
p203
S'Khan'
p204
S'Khan/style-guides'
p205
tp206
a(S'nvm'
p207
S'creationix'
p208
S'creationix/nvm'
p209
tp210
a(S'babun'
p211
S'babun'
p212
S'babun/babun'
p213
tp214
a(S'Hack'
p215
S'chrissimpkins'
p216
S'chrissimpkins/Hack'
p217
tp218
a(S'flarum'
p219
S'flarum'
p220
S'flarum/flarum'
p221
tp222
a(S'dokku'
p223
S'progrium'
p224
S'progrium/dokku'
p225
tp226
a(S'prezto'
p227
S'sorin-ionescu'
p228
S'sorin-ionescu/prezto'
p229
tp230
a(S'git-extras'
p231
S'tj'
p232
S'tj/git-extras'
p233
tp234
a(g57
S'rupa'
p235
S'rupa/z'
p236
tp237
a(g49
S'tj'
p238
S'tj/n'
p239
tp240
a(S'nginx-proxy'
p241
S'jwilder'
p242
S'jwilder/nginx-proxy'
p243
tp244
a(S'rancher'
p245
S'rancher'
p246
S'rancher/rancher'
p247
tp248
a(S'bash-it'
p249
S'Bash-it'
p250
S'Bash-it/bash-it'
p251
tp252
a(S'distributions'
p253
S'nodesource'
p254
S'nodesource/distributions'
p255
tp256
a(S'prettyping'
p257
S'denilsonsa'
p258
S'denilsonsa/prettyping'
p259
tp260
a(S'ansible-examples'
p261
S'ansible'
p262
S'ansible/ansible-examples'
p263
tp264
a(S'dotfiles'
p265
S'thoughtbot'
p266
S'thoughtbot/dotfiles'
p267
tp268
a(S'azure-quickstart-templates'
p269
S'Azure'
p270
S'Azure/azure-quickstart-templates'
p271
tp272
a(S'oh-my-fish'
p273
S'oh-my-fish'
p274
S'oh-my-fish/oh-my-fish'
p275
tp276
a(S'laptop'
p277
S'thoughtbot'
p278
S'thoughtbot/laptop'
p279
tp280
a(S'dockerfiles'
p281
S'jfrazelle'
p282
S'jfrazelle/dockerfiles'
p283
tp284
a(S'docker-gitlab'
p285
S'sameersbn'
p286
S'sameersbn/docker-gitlab'
p287
tp288
a(S'docker-alpine'
p289
S'gliderlabs'
p290
S'gliderlabs/docker-alpine'
p291
tp292
a(S'boot2docker'
p293
S'boot2docker'
p294
S'boot2docker/boot2docker'
p295
tp296
a.