(lp0
(S'shen-libs'
p1
S'vasil-sd'
p2
S'vasil-sd/shen-libs'
p3
tp4
a(S'shen-ruby'
p5
S'gregspurrier'
p6
S'gregspurrier/shen-ruby'
p7
tp8
a(S'shen-sources'
p9
S'Shen-Language'
p10
S'Shen-Language/shen-sources'
p11
tp12
a(S'shen-scheme'
p13
S'tizoc'
p14
S'tizoc/shen-scheme'
p15
tp16
a(S'Shen.java'
p17
S'artella-coding'
p18
S'artella-coding/Shen.java'
p19
tp20
a(S'shen-minikanren'
p21
S'mthom'
p22
S'mthom/shen-minikanren'
p23
tp24
a(S'klvm'
p25
S'gravicappa'
p26
S'gravicappa/klvm'
p27
tp28
a(S'shen.clj'
p29
S'michaelsbradleyjr'
p30
S'michaelsbradleyjr/shen.clj'
p31
tp32
a(S'js-kl'
p33
S'gravicappa'
p34
S'gravicappa/js-kl'
p35
tp36
a(S'microKanren-shen'
p37
S'jasonhemann'
p38
S'jasonhemann/microKanren-shen'
p39
tp40
a(S'shen'
p41
S'automenta'
p42
S'automenta/shen'
p43
tp44
a(S'shen-test'
p45
S'gregspurrier'
p46
S'gregspurrier/shen-test'
p47
tp48
a(S'shen'
p49
S'lsgxeva'
p50
S'lsgxeva/shen'
p51
tp52
a(S'Shen.java'
p53
S'gunnarahlberg'
p54
S'gunnarahlberg/Shen.java'
p55
tp56
a(S'Shen.java'
p57
S'jamiepg1'
p58
S'jamiepg1/Shen.java'
p59
tp60
a(S'shen-ruby'
p61
S'wstrinz'
p62
S'wstrinz/shen-ruby'
p63
tp64
a(S'Shen.java'
p65
S'JacobGood1'
p66
S'JacobGood1/Shen.java'
p67
tp68
a(S'shen.clj'
p69
S'lsgxeva'
p70
S'lsgxeva/shen.clj'
p71
tp72
a(S'shen-libs'
p73
S'lsgxeva'
p74
S'lsgxeva/shen-libs'
p75
tp76
a(S'shen-libs'
p77
S'srenatus'
p78
S'srenatus/shen-libs'
p79
tp80
a(S'shen-libs'
p81
S'pb-pravin'
p82
S'pb-pravin/shen-libs'
p83
tp84
a(S'shen-libs'
p85
S'thezerobit'
p86
S'thezerobit/shen-libs'
p87
tp88
a(S'shen-sharp'
p89
S'rkoeninger'
p90
S'rkoeninger/shen-sharp'
p91
tp92
a(S'codecolor-of-deutschland'
p93
S'Joy-of-Code'
p94
S'Joy-of-Code/codecolor-of-deutschland'
p95
tp96
a(S'sufjan-shen'
p97
S'TheSandwichMakr'
p98
S'TheSandwichMakr/sufjan-shen'
p99
tp100
a(S'shen-libs'
p101
S'vasil-sd'
p102
S'vasil-sd/shen-libs'
p103
tp104
a(S'shen-ruby'
p105
S'gregspurrier'
p106
S'gregspurrier/shen-ruby'
p107
tp108
a(S'shen-sources'
p109
S'Shen-Language'
p110
S'Shen-Language/shen-sources'
p111
tp112
a(S'shen-scheme'
p113
S'tizoc'
p114
S'tizoc/shen-scheme'
p115
tp116
a(S'Shen.java'
p117
S'artella-coding'
p118
S'artella-coding/Shen.java'
p119
tp120
a(S'shen-minikanren'
p121
S'mthom'
p122
S'mthom/shen-minikanren'
p123
tp124
a(S'klvm'
p125
S'gravicappa'
p126
S'gravicappa/klvm'
p127
tp128
a(S'shen.clj'
p129
S'michaelsbradleyjr'
p130
S'michaelsbradleyjr/shen.clj'
p131
tp132
a(S'js-kl'
p133
S'gravicappa'
p134
S'gravicappa/js-kl'
p135
tp136
a(S'microKanren-shen'
p137
S'jasonhemann'
p138
S'jasonhemann/microKanren-shen'
p139
tp140
a(S'shen'
p141
S'automenta'
p142
S'automenta/shen'
p143
tp144
a(S'shen-test'
p145
S'gregspurrier'
p146
S'gregspurrier/shen-test'
p147
tp148
a(S'shen'
p149
S'lsgxeva'
p150
S'lsgxeva/shen'
p151
tp152
a(S'Shen.java'
p153
S'gunnarahlberg'
p154
S'gunnarahlberg/Shen.java'
p155
tp156
a(S'Shen.java'
p157
S'jamiepg1'
p158
S'jamiepg1/Shen.java'
p159
tp160
a(S'shen-ruby'
p161
S'wstrinz'
p162
S'wstrinz/shen-ruby'
p163
tp164
a(S'Shen.java'
p165
S'JacobGood1'
p166
S'JacobGood1/Shen.java'
p167
tp168
a(S'shen.clj'
p169
S'lsgxeva'
p170
S'lsgxeva/shen.clj'
p171
tp172
a(S'shen-libs'
p173
S'lsgxeva'
p174
S'lsgxeva/shen-libs'
p175
tp176
a(S'shen-libs'
p177
S'srenatus'
p178
S'srenatus/shen-libs'
p179
tp180
a(S'shen-libs'
p181
S'pb-pravin'
p182
S'pb-pravin/shen-libs'
p183
tp184
a(S'shen-libs'
p185
S'thezerobit'
p186
S'thezerobit/shen-libs'
p187
tp188
a(S'shen-sharp'
p189
S'rkoeninger'
p190
S'rkoeninger/shen-sharp'
p191
tp192
a(S'codecolor-of-deutschland'
p193
S'Joy-of-Code'
p194
S'Joy-of-Code/codecolor-of-deutschland'
p195
tp196
a(S'sufjan-shen'
p197
S'TheSandwichMakr'
p198
S'TheSandwichMakr/sufjan-shen'
p199
tp200
a(S'shen-libs'
p201
S'vasil-sd'
p202
S'vasil-sd/shen-libs'
p203
tp204
a(S'shen-ruby'
p205
S'gregspurrier'
p206
S'gregspurrier/shen-ruby'
p207
tp208
a(S'shen-sources'
p209
S'Shen-Language'
p210
S'Shen-Language/shen-sources'
p211
tp212
a(S'shen-scheme'
p213
S'tizoc'
p214
S'tizoc/shen-scheme'
p215
tp216
a(S'Shen.java'
p217
S'artella-coding'
p218
S'artella-coding/Shen.java'
p219
tp220
a(S'shen-minikanren'
p221
S'mthom'
p222
S'mthom/shen-minikanren'
p223
tp224
a(S'klvm'
p225
S'gravicappa'
p226
S'gravicappa/klvm'
p227
tp228
a(S'shen.clj'
p229
S'michaelsbradleyjr'
p230
S'michaelsbradleyjr/shen.clj'
p231
tp232
a(S'js-kl'
p233
S'gravicappa'
p234
S'gravicappa/js-kl'
p235
tp236
a(S'microKanren-shen'
p237
S'jasonhemann'
p238
S'jasonhemann/microKanren-shen'
p239
tp240
a(S'shen'
p241
S'automenta'
p242
S'automenta/shen'
p243
tp244
a(S'shen-test'
p245
S'gregspurrier'
p246
S'gregspurrier/shen-test'
p247
tp248
a(S'shen'
p249
S'lsgxeva'
p250
S'lsgxeva/shen'
p251
tp252
a(S'Shen.java'
p253
S'gunnarahlberg'
p254
S'gunnarahlberg/Shen.java'
p255
tp256
a(S'Shen.java'
p257
S'jamiepg1'
p258
S'jamiepg1/Shen.java'
p259
tp260
a(S'shen-ruby'
p261
S'wstrinz'
p262
S'wstrinz/shen-ruby'
p263
tp264
a(S'Shen.java'
p265
S'JacobGood1'
p266
S'JacobGood1/Shen.java'
p267
tp268
a(S'shen.clj'
p269
S'lsgxeva'
p270
S'lsgxeva/shen.clj'
p271
tp272
a(S'shen-libs'
p273
S'lsgxeva'
p274
S'lsgxeva/shen-libs'
p275
tp276
a(S'shen-libs'
p277
S'srenatus'
p278
S'srenatus/shen-libs'
p279
tp280
a(S'shen-libs'
p281
S'pb-pravin'
p282
S'pb-pravin/shen-libs'
p283
tp284
a(S'shen-libs'
p285
S'thezerobit'
p286
S'thezerobit/shen-libs'
p287
tp288
a(S'shen-sharp'
p289
S'rkoeninger'
p290
S'rkoeninger/shen-sharp'
p291
tp292
a(S'codecolor-of-deutschland'
p293
S'Joy-of-Code'
p294
S'Joy-of-Code/codecolor-of-deutschland'
p295
tp296
a(S'sufjan-shen'
p297
S'TheSandwichMakr'
p298
S'TheSandwichMakr/sufjan-shen'
p299
tp300
a.