(lp0
(S'lanyuan'
p1
S'lanyuancom'
p2
S'lanyuancom/lanyuan'
p3
tp4
a(S'cloud-slang-content'
p5
S'CloudSlang'
p6
S'CloudSlang/cloud-slang-content'
p7
tp8
a(S'sharp_office'
p9
S'sharp'
p10
S'sharp/sharp_office'
p11
tp12
a(S'apps'
p13
S'akka'
p14
S'akka/apps'
p15
tp16
a(S'bootstrap--springsecurity----'
p17
S'bigbomb'
p18
S'bigbomb/bootstrap--springsecurity----'
p19
tp20
a(S'web'
p21
S'slash-lang'
p22
S'slash-lang/web'
p23
tp24
a(S'scratch-akka-cluster-singleton'
p25
S'Synesso'
p26
S'Synesso/scratch-akka-cluster-singleton'
p27
tp28
a(S'katana-dev'
p29
S'dekekincaid'
p30
S'dekekincaid/katana-dev'
p31
tp32
a(S'akka-spray-cluster-example'
p33
S'ograycode'
p34
S'ograycode/akka-spray-cluster-example'
p35
tp36
a(S'ribarchive'
p37
S'prideout'
p38
S'prideout/ribarchive'
p39
tp40
a(S'ezeShaderSuite'
p41
S'ezequielmastrasso'
p42
S'ezequielmastrasso/ezeShaderSuite'
p43
tp44
a(S'jed-share'
p45
S'olesenm'
p46
S'olesenm/jed-share'
p47
tp48
a(S'Personality-Prediction-using-facebook-profile'
p49
S'niyasc'
p50
S'niyasc/Personality-Prediction-using-facebook-profile'
p51
tp52
a(S'CloudMonitor'
p53
S'jws7'
p54
S'jws7/CloudMonitor'
p55
tp56
a(S'lanyuan'
p57
S'zhdevelop'
p58
S'zhdevelop/lanyuan'
p59
tp60
a(S'mydbaas-monitor'
p61
S'araujodavid'
p62
S'araujodavid/mydbaas-monitor'
p63
tp64
a(S'kaleidoscope'
p65
S'guriguri'
p66
S'guriguri/kaleidoscope'
p67
tp68
a(S'slash-dis'
p69
S'charliesome'
p70
S'charliesome/slash-dis'
p71
tp72
a(S'think_in_java'
p73
S'cstriker1407'
p74
S'cstriker1407/think_in_java'
p75
tp76
a(S'TibcoEMSMonitor'
p77
S'tradel'
p78
S'tradel/TibcoEMSMonitor'
p79
tp80
a(S'circo'
p81
S'pditommaso'
p82
S'pditommaso/circo'
p83
tp84
a(S'rdbms_layer'
p85
S'pfalda'
p86
S'pfalda/rdbms_layer'
p87
tp88
a(S'ruleskeeper-sigar'
p89
S'RulesKeeper'
p90
S'RulesKeeper/ruleskeeper-sigar'
p91
tp92
a(S'MLSPProject'
p93
S'vvvemuri1'
p94
S'vvvemuri1/MLSPProject'
p95
tp96
a(S'AppDynamicsApp'
p97
S'hughbrien'
p98
S'hughbrien/AppDynamicsApp'
p99
tp100
a(S'lanyuan'
p101
S'lanyuancom'
p102
S'lanyuancom/lanyuan'
p103
tp104
a(S'cloud-slang-content'
p105
S'CloudSlang'
p106
S'CloudSlang/cloud-slang-content'
p107
tp108
a(S'sharp_office'
p109
S'sharp'
p110
S'sharp/sharp_office'
p111
tp112
a(S'apps'
p113
S'akka'
p114
S'akka/apps'
p115
tp116
a(S'bootstrap--springsecurity----'
p117
S'bigbomb'
p118
S'bigbomb/bootstrap--springsecurity----'
p119
tp120
a(S'web'
p121
S'slash-lang'
p122
S'slash-lang/web'
p123
tp124
a(S'scratch-akka-cluster-singleton'
p125
S'Synesso'
p126
S'Synesso/scratch-akka-cluster-singleton'
p127
tp128
a(S'katana-dev'
p129
S'dekekincaid'
p130
S'dekekincaid/katana-dev'
p131
tp132
a(S'akka-spray-cluster-example'
p133
S'ograycode'
p134
S'ograycode/akka-spray-cluster-example'
p135
tp136
a(S'ribarchive'
p137
S'prideout'
p138
S'prideout/ribarchive'
p139
tp140
a(S'ezeShaderSuite'
p141
S'ezequielmastrasso'
p142
S'ezequielmastrasso/ezeShaderSuite'
p143
tp144
a(S'jed-share'
p145
S'olesenm'
p146
S'olesenm/jed-share'
p147
tp148
a(S'Personality-Prediction-using-facebook-profile'
p149
S'niyasc'
p150
S'niyasc/Personality-Prediction-using-facebook-profile'
p151
tp152
a(S'CloudMonitor'
p153
S'jws7'
p154
S'jws7/CloudMonitor'
p155
tp156
a(S'lanyuan'
p157
S'zhdevelop'
p158
S'zhdevelop/lanyuan'
p159
tp160
a(S'mydbaas-monitor'
p161
S'araujodavid'
p162
S'araujodavid/mydbaas-monitor'
p163
tp164
a(S'kaleidoscope'
p165
S'guriguri'
p166
S'guriguri/kaleidoscope'
p167
tp168
a(S'slash-dis'
p169
S'charliesome'
p170
S'charliesome/slash-dis'
p171
tp172
a(S'think_in_java'
p173
S'cstriker1407'
p174
S'cstriker1407/think_in_java'
p175
tp176
a(S'TibcoEMSMonitor'
p177
S'tradel'
p178
S'tradel/TibcoEMSMonitor'
p179
tp180
a(S'circo'
p181
S'pditommaso'
p182
S'pditommaso/circo'
p183
tp184
a(S'rdbms_layer'
p185
S'pfalda'
p186
S'pfalda/rdbms_layer'
p187
tp188
a(S'ruleskeeper-sigar'
p189
S'RulesKeeper'
p190
S'RulesKeeper/ruleskeeper-sigar'
p191
tp192
a(S'MLSPProject'
p193
S'vvvemuri1'
p194
S'vvvemuri1/MLSPProject'
p195
tp196
a(S'AppDynamicsApp'
p197
S'hughbrien'
p198
S'hughbrien/AppDynamicsApp'
p199
tp200
a(S'lanyuan'
p201
S'lanyuancom'
p202
S'lanyuancom/lanyuan'
p203
tp204
a(S'cloud-slang-content'
p205
S'CloudSlang'
p206
S'CloudSlang/cloud-slang-content'
p207
tp208
a(S'sharp_office'
p209
S'sharp'
p210
S'sharp/sharp_office'
p211
tp212
a(S'apps'
p213
S'akka'
p214
S'akka/apps'
p215
tp216
a(S'bootstrap--springsecurity----'
p217
S'bigbomb'
p218
S'bigbomb/bootstrap--springsecurity----'
p219
tp220
a(S'web'
p221
S'slash-lang'
p222
S'slash-lang/web'
p223
tp224
a(S'scratch-akka-cluster-singleton'
p225
S'Synesso'
p226
S'Synesso/scratch-akka-cluster-singleton'
p227
tp228
a(S'katana-dev'
p229
S'dekekincaid'
p230
S'dekekincaid/katana-dev'
p231
tp232
a(S'akka-spray-cluster-example'
p233
S'ograycode'
p234
S'ograycode/akka-spray-cluster-example'
p235
tp236
a(S'ribarchive'
p237
S'prideout'
p238
S'prideout/ribarchive'
p239
tp240
a(S'ezeShaderSuite'
p241
S'ezequielmastrasso'
p242
S'ezequielmastrasso/ezeShaderSuite'
p243
tp244
a(S'jed-share'
p245
S'olesenm'
p246
S'olesenm/jed-share'
p247
tp248
a(S'Personality-Prediction-using-facebook-profile'
p249
S'niyasc'
p250
S'niyasc/Personality-Prediction-using-facebook-profile'
p251
tp252
a(S'CloudMonitor'
p253
S'jws7'
p254
S'jws7/CloudMonitor'
p255
tp256
a(S'lanyuan'
p257
S'zhdevelop'
p258
S'zhdevelop/lanyuan'
p259
tp260
a(S'mydbaas-monitor'
p261
S'araujodavid'
p262
S'araujodavid/mydbaas-monitor'
p263
tp264
a(S'kaleidoscope'
p265
S'guriguri'
p266
S'guriguri/kaleidoscope'
p267
tp268
a(S'slash-dis'
p269
S'charliesome'
p270
S'charliesome/slash-dis'
p271
tp272
a(S'think_in_java'
p273
S'cstriker1407'
p274
S'cstriker1407/think_in_java'
p275
tp276
a(S'TibcoEMSMonitor'
p277
S'tradel'
p278
S'tradel/TibcoEMSMonitor'
p279
tp280
a(S'circo'
p281
S'pditommaso'
p282
S'pditommaso/circo'
p283
tp284
a(S'rdbms_layer'
p285
S'pfalda'
p286
S'pfalda/rdbms_layer'
p287
tp288
a(S'ruleskeeper-sigar'
p289
S'RulesKeeper'
p290
S'RulesKeeper/ruleskeeper-sigar'
p291
tp292
a(S'MLSPProject'
p293
S'vvvemuri1'
p294
S'vvvemuri1/MLSPProject'
p295
tp296
a(S'AppDynamicsApp'
p297
S'hughbrien'
p298
S'hughbrien/AppDynamicsApp'
p299
tp300
a.