(lp0
(S'smali'
p1
S'JesusFreke'
p2
S'JesusFreke/smali'
p3
tp4
a(S'simplify'
p5
S'CalebFenton'
p6
S'CalebFenton/simplify'
p7
tp8
a(S'JFLTE-GPE'
p9
S'MatthewBooth'
p10
S'MatthewBooth/JFLTE-GPE'
p11
tp12
a(S'patchrom_android'
p13
S'MiCode'
p14
S'MiCode/patchrom_android'
p15
tp16
a(S'jBART'
p17
S'BurgerZ'
p18
S'BurgerZ/jBART'
p19
tp20
a(S'hiding-passwords-android'
p21
S'pillfill'
p22
S'pillfill/hiding-passwords-android'
p23
tp24
a(S'patchrom_miui_oneplus_bacon'
p25
S'X-s'
p26
S'X-s/patchrom_miui_oneplus_bacon'
p27
tp28
a(S'Emacs-Smali'
p29
S'strazzere'
p30
S'strazzere/Emacs-Smali'
p31
tp32
a(S'v6-XML-Compare'
p33
S'Acid-miuipolskapl'
p34
S'Acid-miuipolskapl/v6-XML-Compare'
p35
tp36
a(S'devices-base_cm'
p37
S'FlymeOS'
p38
S'FlymeOS/devices-base_cm'
p39
tp40
a(S'WAMD'
p41
S'BrianValente'
p42
S'BrianValente/WAMD'
p43
tp44
a(S'patchrom_nexus5'
p45
S'MiCode'
p46
S'MiCode/patchrom_nexus5'
p47
tp48
a(S'MIUI_patchrom_Find5'
p49
S'wuxianlin'
p50
S'wuxianlin/MIUI_patchrom_Find5'
p51
tp52
a(S'MIUI.v7.Patches.Smali'
p53
S'MI-Global'
p54
S'MI-Global/MIUI.v7.Patches.Smali'
p55
tp56
a(S'Flyme_devices_A0001'
p57
S'nucked'
p58
S'nucked/Flyme_devices_A0001'
p59
tp60
a(S'devices-base'
p61
S'FlymeOS'
p62
S'FlymeOS/devices-base'
p63
tp64
a(S'dtfmods-core'
p65
S'jakev'
p66
S'jakev/dtfmods-core'
p67
tp68
a(S'TPS'
p69
S'TOSPlus'
p70
S'TOSPlus/TPS'
p71
tp72
a(S'-android-source-code'
p73
S'xfchenl'
p74
S'xfchenl/-android-source-code'
p75
tp76
a(S'FlymeOS_A0001'
p77
S'wuxianlin'
p78
S'wuxianlin/FlymeOS_A0001'
p79
tp80
a(S'com.tencent.mm'
p81
S'reverseengineeringer'
p82
S'reverseengineeringer/com.tencent.mm'
p83
tp84
a(S'Flyme-extended-notifications'
p85
S'iicc1'
p86
S'iicc1/Flyme-extended-notifications'
p87
tp88
a(S'patchrom_miui_m0'
p89
S'nian0114'
p90
S'nian0114/patchrom_miui_m0'
p91
tp92
a(S'AndroidAnalyzer'
p93
S'mclarkelauer'
p94
S'mclarkelauer/AndroidAnalyzer'
p95
tp96
a(S'patchrom-gnote-CM'
p97
S'ymdzq'
p98
S'ymdzq/patchrom-gnote-CM'
p99
tp100
a(S'smali'
p101
S'JesusFreke'
p102
S'JesusFreke/smali'
p103
tp104
a(S'JFLTE-GPE'
p105
S'MatthewBooth'
p106
S'MatthewBooth/JFLTE-GPE'
p107
tp108
a(S'patchrom_android'
p109
S'MiCode'
p110
S'MiCode/patchrom_android'
p111
tp112
a(S'jBART'
p113
S'BurgerZ'
p114
S'BurgerZ/jBART'
p115
tp116
a(S'hiding-passwords-android'
p117
S'pillfill'
p118
S'pillfill/hiding-passwords-android'
p119
tp120
a(S'patchrom_miui_oneplus_bacon'
p121
S'X-s'
p122
S'X-s/patchrom_miui_oneplus_bacon'
p123
tp124
a(S'Emacs-Smali'
p125
S'strazzere'
p126
S'strazzere/Emacs-Smali'
p127
tp128
a(S'v6-XML-Compare'
p129
S'Acid-miuipolskapl'
p130
S'Acid-miuipolskapl/v6-XML-Compare'
p131
tp132
a(S'devices-base_cm'
p133
S'FlymeOS'
p134
S'FlymeOS/devices-base_cm'
p135
tp136
a(S'patchrom_nexus5'
p137
S'MiCode'
p138
S'MiCode/patchrom_nexus5'
p139
tp140
a(S'WAMD'
p141
S'BrianValente'
p142
S'BrianValente/WAMD'
p143
tp144
a(S'MIUI_patchrom_Find5'
p145
S'wuxianlin'
p146
S'wuxianlin/MIUI_patchrom_Find5'
p147
tp148
a(S'MIUI.v7.Patches.Smali'
p149
S'MI-Global'
p150
S'MI-Global/MIUI.v7.Patches.Smali'
p151
tp152
a(S'Flyme_devices_A0001'
p153
S'nucked'
p154
S'nucked/Flyme_devices_A0001'
p155
tp156
a(S'devices-base'
p157
S'FlymeOS'
p158
S'FlymeOS/devices-base'
p159
tp160
a(S'dtfmods-core'
p161
S'jakev'
p162
S'jakev/dtfmods-core'
p163
tp164
a(S'TPS'
p165
S'TOSPlus'
p166
S'TOSPlus/TPS'
p167
tp168
a(S'Flyme-extended-notifications'
p169
S'iicc1'
p170
S'iicc1/Flyme-extended-notifications'
p171
tp172
a(S'patchrom_miui_m0'
p173
S'nian0114'
p174
S'nian0114/patchrom_miui_m0'
p175
tp176
a(S'-android-source-code'
p177
S'xfchenl'
p178
S'xfchenl/-android-source-code'
p179
tp180
a(S'FlymeOS_A0001'
p181
S'wuxianlin'
p182
S'wuxianlin/FlymeOS_A0001'
p183
tp184
a(S'com.tencent.mm'
p185
S'reverseengineeringer'
p186
S'reverseengineeringer/com.tencent.mm'
p187
tp188
a(S'-android-source-code'
p189
S'ZoranLi'
p190
S'ZoranLi/-android-source-code'
p191
tp192
a(S'waze-security-paper'
p193
S'secretline'
p194
S'secretline/waze-security-paper'
p195
tp196
a(S'EDGE'
p197
S'Mygod'
p198
S'Mygod/EDGE'
p199
tp200
a(S'smali'
p201
S'JesusFreke'
p202
S'JesusFreke/smali'
p203
tp204
a(S'JFLTE-GPE'
p205
S'MatthewBooth'
p206
S'MatthewBooth/JFLTE-GPE'
p207
tp208
a(S'patchrom_android'
p209
S'MiCode'
p210
S'MiCode/patchrom_android'
p211
tp212
a(S'jBART'
p213
S'BurgerZ'
p214
S'BurgerZ/jBART'
p215
tp216
a(S'hiding-passwords-android'
p217
S'pillfill'
p218
S'pillfill/hiding-passwords-android'
p219
tp220
a(S'patchrom_miui_oneplus_bacon'
p221
S'X-s'
p222
S'X-s/patchrom_miui_oneplus_bacon'
p223
tp224
a(S'Emacs-Smali'
p225
S'strazzere'
p226
S'strazzere/Emacs-Smali'
p227
tp228
a(S'v6-XML-Compare'
p229
S'Acid-miuipolskapl'
p230
S'Acid-miuipolskapl/v6-XML-Compare'
p231
tp232
a(S'devices-base_cm'
p233
S'FlymeOS'
p234
S'FlymeOS/devices-base_cm'
p235
tp236
a(S'patchrom_nexus5'
p237
S'MiCode'
p238
S'MiCode/patchrom_nexus5'
p239
tp240
a(S'WAMD'
p241
S'BrianValente'
p242
S'BrianValente/WAMD'
p243
tp244
a(S'MIUI_patchrom_Find5'
p245
S'wuxianlin'
p246
S'wuxianlin/MIUI_patchrom_Find5'
p247
tp248
a(S'MIUI.v7.Patches.Smali'
p249
S'MI-Global'
p250
S'MI-Global/MIUI.v7.Patches.Smali'
p251
tp252
a(S'devices-base'
p253
S'FlymeOS'
p254
S'FlymeOS/devices-base'
p255
tp256
a(S'Flyme_devices_A0001'
p257
S'nucked'
p258
S'nucked/Flyme_devices_A0001'
p259
tp260
a(S'dtfmods-core'
p261
S'jakev'
p262
S'jakev/dtfmods-core'
p263
tp264
a(S'TPS'
p265
S'TOSPlus'
p266
S'TOSPlus/TPS'
p267
tp268
a(S'FlymeOS_A0001'
p269
S'wuxianlin'
p270
S'wuxianlin/FlymeOS_A0001'
p271
tp272
a(S'-android-source-code'
p273
S'xfchenl'
p274
S'xfchenl/-android-source-code'
p275
tp276
a(S'com.tencent.mm'
p277
S'reverseengineeringer'
p278
S'reverseengineeringer/com.tencent.mm'
p279
tp280
a(S'patchrom_miui_m0'
p281
S'nian0114'
p282
S'nian0114/patchrom_miui_m0'
p283
tp284
a(S'Flyme-extended-notifications'
p285
S'iicc1'
p286
S'iicc1/Flyme-extended-notifications'
p287
tp288
a(S'MIUI-extra-apps'
p289
S'Acid-miuipolskapl'
p290
S'Acid-miuipolskapl/MIUI-extra-apps'
p291
tp292
a(S'patchrom-gnote-CM'
p293
S'ymdzq'
p294
S'ymdzq/patchrom-gnote-CM'
p295
tp296
a(S'EDGE'
p297
S'Mygod'
p298
S'Mygod/EDGE'
p299
tp300
a.