(lp0
(S'kbengine_unity3d_warring'
p1
S'kbengine'
p2
S'kbengine/kbengine_unity3d_warring'
p3
tp4
a(S'gnu_smalltalk_koans'
p5
S'sl4m'
p6
S'sl4m/gnu_smalltalk_koans'
p7
tp8
a(S'smalltalk'
p9
S'bonzini'
p10
S'bonzini/smalltalk'
p11
tp12
a(S'filetree'
p13
S'dalehenrich'
p14
S'dalehenrich/filetree'
p15
tp16
a(S'pharo-core'
p17
S'pharo-project'
p18
S'pharo-project/pharo-core'
p19
tp20
a(S'flow'
p21
S'flow-stack'
p22
S'flow-stack/flow'
p23
tp24
a(S'iliad'
p25
S'NicolasPetton'
p26
S'NicolasPetton/iliad'
p27
tp28
a(S'Cuis-Smalltalk-Dev'
p29
S'Cuis-Smalltalk'
p30
S'Cuis-Smalltalk/Cuis-Smalltalk-Dev'
p31
tp32
a(S'gitocello'
p33
S'timfel'
p34
S'timfel/gitocello'
p35
tp36
a(S'thinglab'
p37
S'cdglabs'
p38
S'cdglabs/thinglab'
p39
tp40
a(S'mist'
p41
S'martinmcclure'
p42
S'martinmcclure/mist'
p43
tp44
a(S'ston'
p45
S'svenvc'
p46
S'svenvc/ston'
p47
tp48
a(S'zinc'
p49
S'svenvc'
p50
S'svenvc/zinc'
p51
tp52
a(S'SqueakByExample-english'
p53
S'SquareBracketAssociates'
p54
S'SquareBracketAssociates/SqueakByExample-english'
p55
tp56
a(S'metacello-work'
p57
S'dalehenrich'
p58
S'dalehenrich/metacello-work'
p59
tp60
a(S'Cypress'
p61
S'CampSmalltalk'
p62
S'CampSmalltalk/Cypress'
p63
tp64
a(S'Cuis'
p65
S'jvuletich'
p66
S'jvuletich/Cuis'
p67
tp68
a(S'gst-visualgst'
p69
S'GwenaelCasaccio'
p70
S'GwenaelCasaccio/gst-visualgst'
p71
tp72
a(S'tode'
p73
S'dalehenrich'
p74
S'dalehenrich/tode'
p75
tp76
a(S'EntityShell'
p77
S'beefarino'
p78
S'beefarino/EntityShell'
p79
tp80
a(S'shampoo'
p81
S'dmatveev'
p82
S'dmatveev/shampoo'
p83
tp84
a(S'flow'
p85
S'sebastianconcept'
p86
S'sebastianconcept/flow'
p87
tp88
a(S'nlp_smalltalk'
p89
S'mark-watson'
p90
S'mark-watson/nlp_smalltalk'
p91
tp92
a(S'xoos'
p93
S'lukego'
p94
S'lukego/xoos'
p95
tp96
a(S'vivide'
p97
S'hpi-swa'
p98
S'hpi-swa/vivide'
p99
tp100
a(S'kbengine_unity3d_warring'
p101
S'kbengine'
p102
S'kbengine/kbengine_unity3d_warring'
p103
tp104
a(S'gnu_smalltalk_koans'
p105
S'sl4m'
p106
S'sl4m/gnu_smalltalk_koans'
p107
tp108
a(S'smalltalk'
p109
S'bonzini'
p110
S'bonzini/smalltalk'
p111
tp112
a(S'filetree'
p113
S'dalehenrich'
p114
S'dalehenrich/filetree'
p115
tp116
a(S'pharo-core'
p117
S'pharo-project'
p118
S'pharo-project/pharo-core'
p119
tp120
a(S'flow'
p121
S'flow-stack'
p122
S'flow-stack/flow'
p123
tp124
a(S'iliad'
p125
S'NicolasPetton'
p126
S'NicolasPetton/iliad'
p127
tp128
a(S'Cuis-Smalltalk-Dev'
p129
S'Cuis-Smalltalk'
p130
S'Cuis-Smalltalk/Cuis-Smalltalk-Dev'
p131
tp132
a(S'gitocello'
p133
S'timfel'
p134
S'timfel/gitocello'
p135
tp136
a(S'thinglab'
p137
S'cdglabs'
p138
S'cdglabs/thinglab'
p139
tp140
a(S'mist'
p141
S'martinmcclure'
p142
S'martinmcclure/mist'
p143
tp144
a(S'ston'
p145
S'svenvc'
p146
S'svenvc/ston'
p147
tp148
a(S'zinc'
p149
S'svenvc'
p150
S'svenvc/zinc'
p151
tp152
a(S'SqueakByExample-english'
p153
S'SquareBracketAssociates'
p154
S'SquareBracketAssociates/SqueakByExample-english'
p155
tp156
a(S'metacello-work'
p157
S'dalehenrich'
p158
S'dalehenrich/metacello-work'
p159
tp160
a(S'Cypress'
p161
S'CampSmalltalk'
p162
S'CampSmalltalk/Cypress'
p163
tp164
a(S'Cuis'
p165
S'jvuletich'
p166
S'jvuletich/Cuis'
p167
tp168
a(S'gst-visualgst'
p169
S'GwenaelCasaccio'
p170
S'GwenaelCasaccio/gst-visualgst'
p171
tp172
a(S'tode'
p173
S'dalehenrich'
p174
S'dalehenrich/tode'
p175
tp176
a(S'EntityShell'
p177
S'beefarino'
p178
S'beefarino/EntityShell'
p179
tp180
a(S'shampoo'
p181
S'dmatveev'
p182
S'dmatveev/shampoo'
p183
tp184
a(S'flow'
p185
S'sebastianconcept'
p186
S'sebastianconcept/flow'
p187
tp188
a(S'nlp_smalltalk'
p189
S'mark-watson'
p190
S'mark-watson/nlp_smalltalk'
p191
tp192
a(S'xoos'
p193
S'lukego'
p194
S'lukego/xoos'
p195
tp196
a(S'vivide'
p197
S'hpi-swa'
p198
S'hpi-swa/vivide'
p199
tp200
a(S'kbengine_unity3d_warring'
p201
S'kbengine'
p202
S'kbengine/kbengine_unity3d_warring'
p203
tp204
a(S'gnu_smalltalk_koans'
p205
S'sl4m'
p206
S'sl4m/gnu_smalltalk_koans'
p207
tp208
a(S'smalltalk'
p209
S'bonzini'
p210
S'bonzini/smalltalk'
p211
tp212
a(S'filetree'
p213
S'dalehenrich'
p214
S'dalehenrich/filetree'
p215
tp216
a(S'pharo-core'
p217
S'pharo-project'
p218
S'pharo-project/pharo-core'
p219
tp220
a(S'flow'
p221
S'flow-stack'
p222
S'flow-stack/flow'
p223
tp224
a(S'iliad'
p225
S'NicolasPetton'
p226
S'NicolasPetton/iliad'
p227
tp228
a(S'Cuis-Smalltalk-Dev'
p229
S'Cuis-Smalltalk'
p230
S'Cuis-Smalltalk/Cuis-Smalltalk-Dev'
p231
tp232
a(S'gitocello'
p233
S'timfel'
p234
S'timfel/gitocello'
p235
tp236
a(S'thinglab'
p237
S'cdglabs'
p238
S'cdglabs/thinglab'
p239
tp240
a(S'mist'
p241
S'martinmcclure'
p242
S'martinmcclure/mist'
p243
tp244
a(S'ston'
p245
S'svenvc'
p246
S'svenvc/ston'
p247
tp248
a(S'zinc'
p249
S'svenvc'
p250
S'svenvc/zinc'
p251
tp252
a(S'SqueakByExample-english'
p253
S'SquareBracketAssociates'
p254
S'SquareBracketAssociates/SqueakByExample-english'
p255
tp256
a(S'metacello-work'
p257
S'dalehenrich'
p258
S'dalehenrich/metacello-work'
p259
tp260
a(S'Cypress'
p261
S'CampSmalltalk'
p262
S'CampSmalltalk/Cypress'
p263
tp264
a(S'Cuis'
p265
S'jvuletich'
p266
S'jvuletich/Cuis'
p267
tp268
a(S'gst-visualgst'
p269
S'GwenaelCasaccio'
p270
S'GwenaelCasaccio/gst-visualgst'
p271
tp272
a(S'tode'
p273
S'dalehenrich'
p274
S'dalehenrich/tode'
p275
tp276
a(S'EntityShell'
p277
S'beefarino'
p278
S'beefarino/EntityShell'
p279
tp280
a(S'shampoo'
p281
S'dmatveev'
p282
S'dmatveev/shampoo'
p283
tp284
a(S'flow'
p285
S'sebastianconcept'
p286
S'sebastianconcept/flow'
p287
tp288
a(S'nlp_smalltalk'
p289
S'mark-watson'
p290
S'mark-watson/nlp_smalltalk'
p291
tp292
a(S'xoos'
p293
S'lukego'
p294
S'lukego/xoos'
p295
tp296
a(S'vivide'
p297
S'hpi-swa'
p298
S'hpi-swa/vivide'
p299
tp300
a.