(lp0
(S'boot2docker-vagrant-box'
p1
S'mitchellh'
p2
S'mitchellh/boot2docker-vagrant-box'
p3
tp4
a(S'grunt-photobox'
p5
S'stefanjudis'
p6
S'stefanjudis/grunt-photobox'
p7
tp8
a(S'vagrant-symfony'
p9
S'kleiram'
p10
S'kleiram/vagrant-symfony'
p11
tp12
a(S'python-project-template'
p13
S'seanfisk'
p14
S'seanfisk/python-project-template'
p15
tp16
a(S'template-bootstrap'
p17
S'ShaunR'
p18
S'ShaunR/template-bootstrap'
p19
tp20
a(S'haproxy-ddos'
p21
S'analytically'
p22
S'analytically/haproxy-ddos'
p23
tp24
a(S'resume-bandit'
p25
S'Alexander-0x80'
p26
S'Alexander-0x80/resume-bandit'
p27
tp28
a(S'bootwhmcs'
p29
S'Bootwhmcs'
p30
S'Bootwhmcs/bootwhmcs'
p31
tp32
a(S'docker-collectd-mesos'
p33
S'bobrik'
p34
S'bobrik/docker-collectd-mesos'
p35
tp36
a(S'Scribite'
p37
S'zikula-modules'
p38
S'zikula-modules/Scribite'
p39
tp40
a(S'templates-six'
p41
S'WHMCS'
p42
S'WHMCS/templates-six'
p43
tp44
a(S'templates.js'
p45
S'psychobunny'
p46
S'psychobunny/templates.js'
p47
tp48
a(S'openshift-php'
p49
S'Sgoettschkes'
p50
S'Sgoettschkes/openshift-php'
p51
tp52
a(S'flixel-templates'
p53
S'HaxeFlixel'
p54
S'HaxeFlixel/flixel-templates'
p55
tp56
a(S'xavr'
p57
S'jawher'
p58
S'jawher/xavr'
p59
tp60
a(S'prestashop-html5-theme'
p61
S'dunglas'
p62
S'dunglas/prestashop-html5-theme'
p63
tp64
a(S'TravianZ'
p65
S'Shadowss'
p66
S'Shadowss/TravianZ'
p67
tp68
a(S'magento-ansible'
p69
S'mikewhitby'
p70
S'mikewhitby/magento-ansible'
p71
tp72
a(S'PrintTemplates'
p73
S'merchantos'
p74
S'merchantos/PrintTemplates'
p75
tp76
a(S'Legal'
p77
S'zikula-modules'
p78
S'zikula-modules/Legal'
p79
tp80
a(S'sublime-smarty'
p81
S'amitsnyderman'
p82
S'amitsnyderman/sublime-smarty'
p83
tp84
a(S'nodebb-theme-persona'
p85
S'NodeBB'
p86
S'NodeBB/nodebb-theme-persona'
p87
tp88
a(S'scruffy-server'
p89
S'wernight'
p90
S'wernight/scruffy-server'
p91
tp92
a(S'nodebb-theme-vanilla'
p93
S'NodeBB'
p94
S'NodeBB/nodebb-theme-vanilla'
p95
tp96
a(S'eccube-on-bootstrap3'
p97
S'clicktx'
p98
S'clicktx/eccube-on-bootstrap3'
p99
tp100
a(S'flixel-templates'
p101
S'HaxeFlixel'
p102
S'HaxeFlixel/flixel-templates'
p103
tp104
a(S'boot2docker-vagrant-box'
p105
S'mitchellh'
p106
S'mitchellh/boot2docker-vagrant-box'
p107
tp108
a(S'grunt-photobox'
p109
S'stefanjudis'
p110
S'stefanjudis/grunt-photobox'
p111
tp112
a(S'vagrant-symfony'
p113
S'kleiram'
p114
S'kleiram/vagrant-symfony'
p115
tp116
a(S'python-project-template'
p117
S'seanfisk'
p118
S'seanfisk/python-project-template'
p119
tp120
a(S'template-bootstrap'
p121
S'ShaunR'
p122
S'ShaunR/template-bootstrap'
p123
tp124
a(S'haproxy-ddos'
p125
S'analytically'
p126
S'analytically/haproxy-ddos'
p127
tp128
a(S'resume-bandit'
p129
S'Alexander-0x80'
p130
S'Alexander-0x80/resume-bandit'
p131
tp132
a(S'bootwhmcs'
p133
S'Bootwhmcs'
p134
S'Bootwhmcs/bootwhmcs'
p135
tp136
a(S'docker-collectd-mesos'
p137
S'bobrik'
p138
S'bobrik/docker-collectd-mesos'
p139
tp140
a(S'Scribite'
p141
S'zikula-modules'
p142
S'zikula-modules/Scribite'
p143
tp144
a(S'templates.js'
p145
S'psychobunny'
p146
S'psychobunny/templates.js'
p147
tp148
a(S'templates-six'
p149
S'WHMCS'
p150
S'WHMCS/templates-six'
p151
tp152
a(S'openshift-php'
p153
S'Sgoettschkes'
p154
S'Sgoettschkes/openshift-php'
p155
tp156
a(S'xavr'
p157
S'jawher'
p158
S'jawher/xavr'
p159
tp160
a(S'prestashop-html5-theme'
p161
S'dunglas'
p162
S'dunglas/prestashop-html5-theme'
p163
tp164
a(S'TravianZ'
p165
S'Shadowss'
p166
S'Shadowss/TravianZ'
p167
tp168
a(S'magento-ansible'
p169
S'mikewhitby'
p170
S'mikewhitby/magento-ansible'
p171
tp172
a(S'PrintTemplates'
p173
S'merchantos'
p174
S'merchantos/PrintTemplates'
p175
tp176
a(S'Legal'
p177
S'zikula-modules'
p178
S'zikula-modules/Legal'
p179
tp180
a(S'sublime-smarty'
p181
S'amitsnyderman'
p182
S'amitsnyderman/sublime-smarty'
p183
tp184
a(S'nodebb-theme-persona'
p185
S'NodeBB'
p186
S'NodeBB/nodebb-theme-persona'
p187
tp188
a(S'scruffy-server'
p189
S'wernight'
p190
S'wernight/scruffy-server'
p191
tp192
a(S'nodebb-theme-vanilla'
p193
S'NodeBB'
p194
S'NodeBB/nodebb-theme-vanilla'
p195
tp196
a(S'eccube-on-bootstrap3'
p197
S'clicktx'
p198
S'clicktx/eccube-on-bootstrap3'
p199
tp200
a(S'templates-six'
p201
S'WHMCS'
p202
S'WHMCS/templates-six'
p203
tp204
a(S'flixel-templates'
p205
S'HaxeFlixel'
p206
S'HaxeFlixel/flixel-templates'
p207
tp208
a(S'boot2docker-vagrant-box'
p209
S'mitchellh'
p210
S'mitchellh/boot2docker-vagrant-box'
p211
tp212
a(S'grunt-photobox'
p213
S'stefanjudis'
p214
S'stefanjudis/grunt-photobox'
p215
tp216
a(S'vagrant-symfony'
p217
S'kleiram'
p218
S'kleiram/vagrant-symfony'
p219
tp220
a(S'python-project-template'
p221
S'seanfisk'
p222
S'seanfisk/python-project-template'
p223
tp224
a(S'template-bootstrap'
p225
S'ShaunR'
p226
S'ShaunR/template-bootstrap'
p227
tp228
a(S'haproxy-ddos'
p229
S'analytically'
p230
S'analytically/haproxy-ddos'
p231
tp232
a(S'resume-bandit'
p233
S'Alexander-0x80'
p234
S'Alexander-0x80/resume-bandit'
p235
tp236
a(S'bootwhmcs'
p237
S'Bootwhmcs'
p238
S'Bootwhmcs/bootwhmcs'
p239
tp240
a(S'docker-collectd-mesos'
p241
S'bobrik'
p242
S'bobrik/docker-collectd-mesos'
p243
tp244
a(S'Scribite'
p245
S'zikula-modules'
p246
S'zikula-modules/Scribite'
p247
tp248
a(S'templates.js'
p249
S'psychobunny'
p250
S'psychobunny/templates.js'
p251
tp252
a(S'openshift-php'
p253
S'Sgoettschkes'
p254
S'Sgoettschkes/openshift-php'
p255
tp256
a(S'xavr'
p257
S'jawher'
p258
S'jawher/xavr'
p259
tp260
a(S'prestashop-html5-theme'
p261
S'dunglas'
p262
S'dunglas/prestashop-html5-theme'
p263
tp264
a(S'TravianZ'
p265
S'Shadowss'
p266
S'Shadowss/TravianZ'
p267
tp268
a(S'magento-ansible'
p269
S'mikewhitby'
p270
S'mikewhitby/magento-ansible'
p271
tp272
a(S'PrintTemplates'
p273
S'merchantos'
p274
S'merchantos/PrintTemplates'
p275
tp276
a(S'Legal'
p277
S'zikula-modules'
p278
S'zikula-modules/Legal'
p279
tp280
a(S'sublime-smarty'
p281
S'amitsnyderman'
p282
S'amitsnyderman/sublime-smarty'
p283
tp284
a(S'nodebb-theme-persona'
p285
S'NodeBB'
p286
S'NodeBB/nodebb-theme-persona'
p287
tp288
a(S'nodebb-theme-vanilla'
p289
S'NodeBB'
p290
S'NodeBB/nodebb-theme-vanilla'
p291
tp292
a(S'scruffy-server'
p293
S'wernight'
p294
S'wernight/scruffy-server'
p295
tp296
a(S'eccube-on-bootstrap3'
p297
S'clicktx'
p298
S'clicktx/eccube-on-bootstrap3'
p299
tp300
a.