(lp0
(S'CVC4'
p1
S'CVC4'
p2
S'CVC4/CVC4'
p3
tp4
a(S'pysmt'
p5
S'pysmt'
p6
S'pysmt/pysmt'
p7
tp8
a(S'dreal'
p9
S'dreal'
p10
S'dreal/dreal'
p11
tp12
a(S'scala-smtlib'
p13
S'regb'
p14
S'regb/scala-smtlib'
p15
tp16
a(S'benchmarks'
p17
S'tip-org'
p18
S'tip-org/benchmarks'
p19
tp20
a(S'CVC4'
p21
S'tiliang'
p22
S'tiliang/CVC4'
p23
tp24
a(S'benchmarks'
p25
S'ahorn'
p26
S'ahorn/benchmarks'
p27
tp28
a(S'platereader'
p29
S'csbl'
p30
S'csbl/platereader'
p31
tp32
a(S'smtcomp14-sl'
p33
S'mihasighi'
p34
S'mihasighi/smtcomp14-sl'
p35
tp36
a(S'dreal3'
p37
S'dreal'
p38
S'dreal/dreal3'
p39
tp40
a(S'maxsmt-playground'
p41
S'mechtaev'
p42
S'mechtaev/maxsmt-playground'
p43
tp44
a(S'z3test'
p45
S'Z3Prover'
p46
S'Z3Prover/z3test'
p47
tp48
a(S'fstar-edu'
p49
S'fstar-spbu-edu'
p50
S'fstar-spbu-edu/fstar-edu'
p51
tp52
a(S'dreal3'
p53
S'zenna'
p54
S'zenna/dreal3'
p55
tp56
a(S'smt-queries-from-party'
p57
S'5nizza'
p58
S'5nizza/smt-queries-from-party'
p59
tp60
a(S'kind2-benchmarks'
p61
S'kind2-mc'
p62
S'kind2-mc/kind2-benchmarks'
p63
tp64
a(S'scabolic'
p65
S'RomanHargrave'
p66
S'RomanHargrave/scabolic'
p67
tp68
a(S'test'
p69
S'OptetTrustworthyFactory'
p70
S'OptetTrustworthyFactory/test'
p71
tp72
a(S'com.thalesgroup.optet.analysis.openjml'
p73
S'OptetTrustworthyFactory'
p74
S'OptetTrustworthyFactory/com.thalesgroup.optet.analysis.openjml'
p75
tp76
a(S'TestFactory'
p77
S'TrustworthyFactory'
p78
S'TrustworthyFactory/TestFactory'
p79
tp80
a(S'CVC4SepLogic'
p81
S'timothy-king'
p82
S'timothy-king/CVC4SepLogic'
p83
tp84
a(S'z3test'
p85
S'wintersteiger'
p86
S'wintersteiger/z3test'
p87
tp88
a(S'S3CAMX'
p89
S'zutshi'
p90
S'zutshi/S3CAMX'
p91
tp92
a(S'aZ3'
p93
S'qsphan'
p94
S'qsphan/aZ3'
p95
tp96
a(S'jimple2boogie'
p97
S'martinschaef'
p98
S'martinschaef/jimple2boogie'
p99
tp100
a(S'CVC4'
p101
S'CVC4'
p102
S'CVC4/CVC4'
p103
tp104
a(S'pysmt'
p105
S'pysmt'
p106
S'pysmt/pysmt'
p107
tp108
a(S'dreal'
p109
S'dreal'
p110
S'dreal/dreal'
p111
tp112
a(S'scala-smtlib'
p113
S'regb'
p114
S'regb/scala-smtlib'
p115
tp116
a(S'benchmarks'
p117
S'tip-org'
p118
S'tip-org/benchmarks'
p119
tp120
a(S'CVC4'
p121
S'tiliang'
p122
S'tiliang/CVC4'
p123
tp124
a(S'benchmarks'
p125
S'ahorn'
p126
S'ahorn/benchmarks'
p127
tp128
a(S'platereader'
p129
S'csbl'
p130
S'csbl/platereader'
p131
tp132
a(S'smtcomp14-sl'
p133
S'mihasighi'
p134
S'mihasighi/smtcomp14-sl'
p135
tp136
a(S'dreal3'
p137
S'dreal'
p138
S'dreal/dreal3'
p139
tp140
a(S'maxsmt-playground'
p141
S'mechtaev'
p142
S'mechtaev/maxsmt-playground'
p143
tp144
a(S'z3test'
p145
S'Z3Prover'
p146
S'Z3Prover/z3test'
p147
tp148
a(S'fstar-edu'
p149
S'fstar-spbu-edu'
p150
S'fstar-spbu-edu/fstar-edu'
p151
tp152
a(S'dreal3'
p153
S'zenna'
p154
S'zenna/dreal3'
p155
tp156
a(S'smt-queries-from-party'
p157
S'5nizza'
p158
S'5nizza/smt-queries-from-party'
p159
tp160
a(S'kind2-benchmarks'
p161
S'kind2-mc'
p162
S'kind2-mc/kind2-benchmarks'
p163
tp164
a(S'scabolic'
p165
S'RomanHargrave'
p166
S'RomanHargrave/scabolic'
p167
tp168
a(S'test'
p169
S'OptetTrustworthyFactory'
p170
S'OptetTrustworthyFactory/test'
p171
tp172
a(S'com.thalesgroup.optet.analysis.openjml'
p173
S'OptetTrustworthyFactory'
p174
S'OptetTrustworthyFactory/com.thalesgroup.optet.analysis.openjml'
p175
tp176
a(S'TestFactory'
p177
S'TrustworthyFactory'
p178
S'TrustworthyFactory/TestFactory'
p179
tp180
a(S'CVC4SepLogic'
p181
S'timothy-king'
p182
S'timothy-king/CVC4SepLogic'
p183
tp184
a(S'z3test'
p185
S'wintersteiger'
p186
S'wintersteiger/z3test'
p187
tp188
a(S'S3CAMX'
p189
S'zutshi'
p190
S'zutshi/S3CAMX'
p191
tp192
a(S'aZ3'
p193
S'qsphan'
p194
S'qsphan/aZ3'
p195
tp196
a(S'jimple2boogie'
p197
S'martinschaef'
p198
S'martinschaef/jimple2boogie'
p199
tp200
a(S'CVC4'
p201
S'CVC4'
p202
S'CVC4/CVC4'
p203
tp204
a(S'pysmt'
p205
S'pysmt'
p206
S'pysmt/pysmt'
p207
tp208
a(S'dreal'
p209
S'dreal'
p210
S'dreal/dreal'
p211
tp212
a(S'scala-smtlib'
p213
S'regb'
p214
S'regb/scala-smtlib'
p215
tp216
a(S'CVC4'
p217
S'tiliang'
p218
S'tiliang/CVC4'
p219
tp220
a(S'benchmarks'
p221
S'tip-org'
p222
S'tip-org/benchmarks'
p223
tp224
a(S'benchmarks'
p225
S'ahorn'
p226
S'ahorn/benchmarks'
p227
tp228
a(S'platereader'
p229
S'csbl'
p230
S'csbl/platereader'
p231
tp232
a(S'smtcomp14-sl'
p233
S'mihasighi'
p234
S'mihasighi/smtcomp14-sl'
p235
tp236
a(S'dreal3'
p237
S'dreal'
p238
S'dreal/dreal3'
p239
tp240
a(S'z3test'
p241
S'Z3Prover'
p242
S'Z3Prover/z3test'
p243
tp244
a(S'maxsmt-playground'
p245
S'mechtaev'
p246
S'mechtaev/maxsmt-playground'
p247
tp248
a(S'fstar-edu'
p249
S'fstar-spbu-edu'
p250
S'fstar-spbu-edu/fstar-edu'
p251
tp252
a(S'dreal3'
p253
S'zenna'
p254
S'zenna/dreal3'
p255
tp256
a(S'smt-queries-from-party'
p257
S'5nizza'
p258
S'5nizza/smt-queries-from-party'
p259
tp260
a(S'kind2-benchmarks'
p261
S'kind2-mc'
p262
S'kind2-mc/kind2-benchmarks'
p263
tp264
a(S'scabolic'
p265
S'RomanHargrave'
p266
S'RomanHargrave/scabolic'
p267
tp268
a(S'CVC4'
p269
S'kbansal'
p270
S'kbansal/CVC4'
p271
tp272
a(S'test'
p273
S'OptetTrustworthyFactory'
p274
S'OptetTrustworthyFactory/test'
p275
tp276
a(S'com.thalesgroup.optet.analysis.openjml'
p277
S'OptetTrustworthyFactory'
p278
S'OptetTrustworthyFactory/com.thalesgroup.optet.analysis.openjml'
p279
tp280
a(S'TestFactory'
p281
S'TrustworthyFactory'
p282
S'TrustworthyFactory/TestFactory'
p283
tp284
a(S'CVC4SepLogic'
p285
S'timothy-king'
p286
S'timothy-king/CVC4SepLogic'
p287
tp288
a(S'LinearSatSolver'
p289
S'lvyinrun'
p290
S'lvyinrun/LinearSatSolver'
p291
tp292
a(S'aZ3'
p293
S'qsphan'
p294
S'qsphan/aZ3'
p295
tp296
a(S'jimple2boogie'
p297
S'martinschaef'
p298
S'martinschaef/jimple2boogie'
p299
tp300
a.