(lp0
(S'meta-gstreamer1.0'
p1
S'dv1'
p2
S'dv1/meta-gstreamer1.0'
p3
tp4
a(S'csgo-pug-setup'
p5
S'splewis'
p6
S'splewis/csgo-pug-setup'
p7
tp8
a(S'csgo-multi-1v1'
p9
S'splewis'
p10
S'splewis/csgo-multi-1v1'
p11
tp12
a(S'MGEMod'
p13
S'Lange'
p14
S'Lange/MGEMod'
p15
tp16
a(S'smlib'
p17
S'bcserv'
p18
S'bcserv/smlib'
p19
tp20
a(S'csgo-retakes'
p21
S'splewis'
p22
S'splewis/csgo-retakes'
p23
tp24
a(S'SOAP-TF2DM'
p25
S'Lange'
p26
S'Lange/SOAP-TF2DM'
p27
tp28
a(S'hidenseek-csgo'
p29
S'ceLoFaN'
p30
S'ceLoFaN/hidenseek-csgo'
p31
tp32
a(S'CSGO-aim-heatmaps'
p33
S'pawREP'
p34
S'pawREP/CSGO-aim-heatmaps'
p35
tp36
a(S'samp-weapon-config'
p37
S'oscar-broman'
p38
S'oscar-broman/samp-weapon-config'
p39
tp40
a(S'YSI-Includes'
p41
S'Misiur'
p42
S'Misiur/YSI-Includes'
p43
tp44
a(S'store'
p45
S'alongubkin'
p46
S'alongubkin/store'
p47
tp48
a(S'insurgency-sourcemod'
p49
S'jaredballou'
p50
S'jaredballou/insurgency-sourcemod'
p51
tp52
a(S'govCMS'
p53
S'govCMS'
p54
S'govCMS/govCMS'
p55
tp56
a(S'goonpug'
p57
S'goonpug'
p58
S'goonpug/goonpug'
p59
tp60
a(S'War3Source'
p61
S'War3Source'
p62
S'War3Source/War3Source'
p63
tp64
a(S'csgo-deathmatch'
p65
S'Maxximou5'
p66
S'Maxximou5/csgo-deathmatch'
p67
tp68
a(S'FF2-Official'
p69
S'50DKP'
p70
S'50DKP/FF2-Official'
p71
tp72
a(S'progress2'
p73
S'Southclaw'
p74
S'Southclaw/progress2'
p75
tp76
a(S'ppg'
p77
S'oscar-broman'
p78
S'oscar-broman/ppg'
p79
tp80
a(S'agov'
p81
S'previousnext'
p82
S'previousnext/agov'
p83
tp84
a(S'ckSurf'
p85
S'jonitaikaponi'
p86
S'jonitaikaponi/ckSurf'
p87
tp88
a(S'smrpg'
p89
S'peace-maker'
p90
S'peace-maker/smrpg'
p91
tp92
a(S'Spedit'
p93
S'TheJelle'
p94
S'TheJelle/Spedit'
p95
tp96
a(S'ProMod'
p97
S'Stabbath'
p98
S'Stabbath/ProMod'
p99
tp100
a(S'meta-gstreamer1.0'
p101
S'dv1'
p102
S'dv1/meta-gstreamer1.0'
p103
tp104
a(S'csgo-pug-setup'
p105
S'splewis'
p106
S'splewis/csgo-pug-setup'
p107
tp108
a(S'csgo-multi-1v1'
p109
S'splewis'
p110
S'splewis/csgo-multi-1v1'
p111
tp112
a(S'MGEMod'
p113
S'Lange'
p114
S'Lange/MGEMod'
p115
tp116
a(S'smlib'
p117
S'bcserv'
p118
S'bcserv/smlib'
p119
tp120
a(S'csgo-retakes'
p121
S'splewis'
p122
S'splewis/csgo-retakes'
p123
tp124
a(S'SOAP-TF2DM'
p125
S'Lange'
p126
S'Lange/SOAP-TF2DM'
p127
tp128
a(S'hidenseek-csgo'
p129
S'ceLoFaN'
p130
S'ceLoFaN/hidenseek-csgo'
p131
tp132
a(S'CSGO-aim-heatmaps'
p133
S'pawREP'
p134
S'pawREP/CSGO-aim-heatmaps'
p135
tp136
a(S'samp-weapon-config'
p137
S'oscar-broman'
p138
S'oscar-broman/samp-weapon-config'
p139
tp140
a(S'YSI-Includes'
p141
S'Misiur'
p142
S'Misiur/YSI-Includes'
p143
tp144
a(S'store'
p145
S'alongubkin'
p146
S'alongubkin/store'
p147
tp148
a(S'insurgency-sourcemod'
p149
S'jaredballou'
p150
S'jaredballou/insurgency-sourcemod'
p151
tp152
a(S'govCMS'
p153
S'govCMS'
p154
S'govCMS/govCMS'
p155
tp156
a(S'goonpug'
p157
S'goonpug'
p158
S'goonpug/goonpug'
p159
tp160
a(S'War3Source'
p161
S'War3Source'
p162
S'War3Source/War3Source'
p163
tp164
a(S'csgo-deathmatch'
p165
S'Maxximou5'
p166
S'Maxximou5/csgo-deathmatch'
p167
tp168
a(S'FF2-Official'
p169
S'50DKP'
p170
S'50DKP/FF2-Official'
p171
tp172
a(S'progress2'
p173
S'Southclaw'
p174
S'Southclaw/progress2'
p175
tp176
a(S'ppg'
p177
S'oscar-broman'
p178
S'oscar-broman/ppg'
p179
tp180
a(S'agov'
p181
S'previousnext'
p182
S'previousnext/agov'
p183
tp184
a(S'ckSurf'
p185
S'jonitaikaponi'
p186
S'jonitaikaponi/ckSurf'
p187
tp188
a(S'smrpg'
p189
S'peace-maker'
p190
S'peace-maker/smrpg'
p191
tp192
a(S'Spedit'
p193
S'TheJelle'
p194
S'TheJelle/Spedit'
p195
tp196
a(S'ProMod'
p197
S'Stabbath'
p198
S'Stabbath/ProMod'
p199
tp200
a(S'csgo-multi-1v1'
p201
S'splewis'
p202
S'splewis/csgo-multi-1v1'
p203
tp204
a(S'meta-gstreamer1.0'
p205
S'dv1'
p206
S'dv1/meta-gstreamer1.0'
p207
tp208
a(S'csgo-pug-setup'
p209
S'splewis'
p210
S'splewis/csgo-pug-setup'
p211
tp212
a(S'MGEMod'
p213
S'Lange'
p214
S'Lange/MGEMod'
p215
tp216
a(S'csgo-retakes'
p217
S'splewis'
p218
S'splewis/csgo-retakes'
p219
tp220
a(S'smlib'
p221
S'bcserv'
p222
S'bcserv/smlib'
p223
tp224
a(S'SOAP-TF2DM'
p225
S'Lange'
p226
S'Lange/SOAP-TF2DM'
p227
tp228
a(S'hidenseek-csgo'
p229
S'ceLoFaN'
p230
S'ceLoFaN/hidenseek-csgo'
p231
tp232
a(S'CSGO-aim-heatmaps'
p233
S'pawREP'
p234
S'pawREP/CSGO-aim-heatmaps'
p235
tp236
a(S'samp-weapon-config'
p237
S'oscar-broman'
p238
S'oscar-broman/samp-weapon-config'
p239
tp240
a(S'YSI-Includes'
p241
S'Misiur'
p242
S'Misiur/YSI-Includes'
p243
tp244
a(S'store'
p245
S'alongubkin'
p246
S'alongubkin/store'
p247
tp248
a(S'insurgency-sourcemod'
p249
S'jaredballou'
p250
S'jaredballou/insurgency-sourcemod'
p251
tp252
a(S'govCMS'
p253
S'govCMS'
p254
S'govCMS/govCMS'
p255
tp256
a(S'goonpug'
p257
S'goonpug'
p258
S'goonpug/goonpug'
p259
tp260
a(S'War3Source'
p261
S'War3Source'
p262
S'War3Source/War3Source'
p263
tp264
a(S'csgo-deathmatch'
p265
S'Maxximou5'
p266
S'Maxximou5/csgo-deathmatch'
p267
tp268
a(S'FF2-Official'
p269
S'50DKP'
p270
S'50DKP/FF2-Official'
p271
tp272
a(S'progress2'
p273
S'Southclaw'
p274
S'Southclaw/progress2'
p275
tp276
a(S'ppg'
p277
S'oscar-broman'
p278
S'oscar-broman/ppg'
p279
tp280
a(S'ckSurf'
p281
S'jonitaikaponi'
p282
S'jonitaikaponi/ckSurf'
p283
tp284
a(S'agov'
p285
S'previousnext'
p286
S'previousnext/agov'
p287
tp288
a(S'smrpg'
p289
S'peace-maker'
p290
S'peace-maker/smrpg'
p291
tp292
a(S'Spedit'
p293
S'TheJelle'
p294
S'TheJelle/Spedit'
p295
tp296
a(S'ProMod'
p297
S'Stabbath'
p298
S'Stabbath/ProMod'
p299
tp300
a.