(lp0
(S'ArmA3_Wasteland.Altis'
p1
S'A3Wasteland'
p2
S'A3Wasteland/ArmA3_Wasteland.Altis'
p3
tp4
a(S'DayZ-Private-master'
p5
S'thevisad'
p6
S'thevisad/DayZ-Private-master'
p7
tp8
a(S'Altis-Life'
p9
S'Itsyuka'
p10
S'Itsyuka/Altis-Life'
p11
tp12
a(S'CBA_A3'
p13
S'CBATeam'
p14
S'CBATeam/CBA_A3'
p15
tp16
a(S'F3'
p17
S'ferstaberinde'
p18
S'ferstaberinde/F3'
p19
tp20
a(S'Altis-Life'
p21
S'TAWTonic'
p22
S'TAWTonic/Altis-Life'
p23
tp24
a(S'Release_Files'
p25
S'A3Wasteland'
p26
S'A3Wasteland/Release_Files'
p27
tp28
a(S'Dayz-Epoch-Linux-Server'
p29
S'denisio'
p30
S'denisio/Dayz-Epoch-Linux-Server'
p31
tp32
a(S'Epoch-Admin-Tools'
p33
S'noxsicarius'
p34
S'noxsicarius/Epoch-Admin-Tools'
p35
tp36
a(S'ArmA3_Wasteland.Stratis'
p37
S'A3Wasteland'
p38
S'A3Wasteland/ArmA3_Wasteland.Stratis'
p39
tp40
a(S'WICKED-AI'
p41
S'f3cuk'
p42
S'f3cuk/WICKED-AI'
p43
tp44
a(S'DMS_Exile'
p45
S'Defent'
p46
S'Defent/DMS_Exile'
p47
tp48
a(S'dayz'
p49
S'vos'
p50
S'vos/dayz'
p51
tp52
a(S'ws_fnc'
p53
S'Wolfenswan'
p54
S'Wolfenswan/ws_fnc'
p55
tp56
a(S'SealDrop-AltisLife'
p57
S'DeadP4xel'
p58
S'DeadP4xel/SealDrop-AltisLife'
p59
tp60
a(S'bCombat'
p61
S'fabrizioT'
p62
S'fabrizioT/bCombat'
p63
tp64
a(S'DZAI'
p65
S'StrangeFace'
p66
S'StrangeFace/DZAI'
p67
tp68
a(S'ArmA3_Wasteland.Altis'
p69
S'LouDnl'
p70
S'LouDnl/ArmA3_Wasteland.Altis'
p71
tp72
a(S'ArmA3_Wasteland.Altis'
p73
S'TOPARMA'
p74
S'TOPARMA/ArmA3_Wasteland.Altis'
p75
tp76
a(S'DUWS-R'
p77
S'DUWS-R-Team'
p78
S'DUWS-R-Team/DUWS-R'
p79
tp80
a(S'Distrikt41'
p81
S'Dscha'
p82
S'Dscha/Distrikt41'
p83
tp84
a(S'VEMF'
p85
S'SMVampire'
p86
S'SMVampire/VEMF'
p87
tp88
a(S'pra3'
p89
S'realitymod'
p90
S'realitymod/pra3'
p91
tp92
a(S'Simple-Epoch-Missions'
p93
S'KiloSwiss'
p94
S'KiloSwiss/Simple-Epoch-Missions'
p95
tp96
a(S'a3s_epoch_0103'
p97
S'withoutx'
p98
S'withoutx/a3s_epoch_0103'
p99
tp100
a(S'Altis-Life'
p101
S'Itsyuka'
p102
S'Itsyuka/Altis-Life'
p103
tp104
a(S'ArmA3_Wasteland.Altis'
p105
S'A3Wasteland'
p106
S'A3Wasteland/ArmA3_Wasteland.Altis'
p107
tp108
a(S'DayZ-Private-master'
p109
S'thevisad'
p110
S'thevisad/DayZ-Private-master'
p111
tp112
a(S'CBA_A3'
p113
S'CBATeam'
p114
S'CBATeam/CBA_A3'
p115
tp116
a(S'Altis-Life'
p117
S'TAWTonic'
p118
S'TAWTonic/Altis-Life'
p119
tp120
a(S'F3'
p121
S'ferstaberinde'
p122
S'ferstaberinde/F3'
p123
tp124
a(S'Release_Files'
p125
S'A3Wasteland'
p126
S'A3Wasteland/Release_Files'
p127
tp128
a(S'Dayz-Epoch-Linux-Server'
p129
S'denisio'
p130
S'denisio/Dayz-Epoch-Linux-Server'
p131
tp132
a(S'Epoch-Admin-Tools'
p133
S'noxsicarius'
p134
S'noxsicarius/Epoch-Admin-Tools'
p135
tp136
a(S'ArmA3_Wasteland.Stratis'
p137
S'A3Wasteland'
p138
S'A3Wasteland/ArmA3_Wasteland.Stratis'
p139
tp140
a(S'WICKED-AI'
p141
S'f3cuk'
p142
S'f3cuk/WICKED-AI'
p143
tp144
a(S'DMS_Exile'
p145
S'Defent'
p146
S'Defent/DMS_Exile'
p147
tp148
a(S'dayz'
p149
S'vos'
p150
S'vos/dayz'
p151
tp152
a(S'ws_fnc'
p153
S'Wolfenswan'
p154
S'Wolfenswan/ws_fnc'
p155
tp156
a(S'bCombat'
p157
S'fabrizioT'
p158
S'fabrizioT/bCombat'
p159
tp160
a(S'DZAI'
p161
S'StrangeFace'
p162
S'StrangeFace/DZAI'
p163
tp164
a(S'SealDrop-AltisLife'
p165
S'DeadP4xel'
p166
S'DeadP4xel/SealDrop-AltisLife'
p167
tp168
a(S'ArmA3_Wasteland.Altis'
p169
S'LouDnl'
p170
S'LouDnl/ArmA3_Wasteland.Altis'
p171
tp172
a(S'DUWS-R'
p173
S'DUWS-R-Team'
p174
S'DUWS-R-Team/DUWS-R'
p175
tp176
a(S'ArmA3_Wasteland.Altis'
p177
S'TOPARMA'
p178
S'TOPARMA/ArmA3_Wasteland.Altis'
p179
tp180
a(S'Distrikt41'
p181
S'Dscha'
p182
S'Dscha/Distrikt41'
p183
tp184
a(S'pra3'
p185
S'realitymod'
p186
S'realitymod/pra3'
p187
tp188
a(S'VEMF'
p189
S'SMVampire'
p190
S'SMVampire/VEMF'
p191
tp192
a(S'a3s_epoch_0103'
p193
S'withoutx'
p194
S'withoutx/a3s_epoch_0103'
p195
tp196
a(S'Simple-Epoch-Missions'
p197
S'KiloSwiss'
p198
S'KiloSwiss/Simple-Epoch-Missions'
p199
tp200
a(S'CBA_A3'
p201
S'CBATeam'
p202
S'CBATeam/CBA_A3'
p203
tp204
a(S'ArmA3_Wasteland.Altis'
p205
S'A3Wasteland'
p206
S'A3Wasteland/ArmA3_Wasteland.Altis'
p207
tp208
a(S'Altis-Life'
p209
S'Itsyuka'
p210
S'Itsyuka/Altis-Life'
p211
tp212
a(S'DayZ-Private-master'
p213
S'thevisad'
p214
S'thevisad/DayZ-Private-master'
p215
tp216
a(S'Altis-Life'
p217
S'TAWTonic'
p218
S'TAWTonic/Altis-Life'
p219
tp220
a(S'F3'
p221
S'ferstaberinde'
p222
S'ferstaberinde/F3'
p223
tp224
a(S'Release_Files'
p225
S'A3Wasteland'
p226
S'A3Wasteland/Release_Files'
p227
tp228
a(S'Dayz-Epoch-Linux-Server'
p229
S'denisio'
p230
S'denisio/Dayz-Epoch-Linux-Server'
p231
tp232
a(S'Epoch-Admin-Tools'
p233
S'noxsicarius'
p234
S'noxsicarius/Epoch-Admin-Tools'
p235
tp236
a(S'ArmA3_Wasteland.Stratis'
p237
S'A3Wasteland'
p238
S'A3Wasteland/ArmA3_Wasteland.Stratis'
p239
tp240
a(S'WICKED-AI'
p241
S'f3cuk'
p242
S'f3cuk/WICKED-AI'
p243
tp244
a(S'DMS_Exile'
p245
S'Defent'
p246
S'Defent/DMS_Exile'
p247
tp248
a(S'dayz'
p249
S'vos'
p250
S'vos/dayz'
p251
tp252
a(S'ws_fnc'
p253
S'Wolfenswan'
p254
S'Wolfenswan/ws_fnc'
p255
tp256
a(S'bCombat'
p257
S'fabrizioT'
p258
S'fabrizioT/bCombat'
p259
tp260
a(S'DZAI'
p261
S'StrangeFace'
p262
S'StrangeFace/DZAI'
p263
tp264
a(S'SealDrop-AltisLife'
p265
S'DeadP4xel'
p266
S'DeadP4xel/SealDrop-AltisLife'
p267
tp268
a(S'ArmA3_Wasteland.Altis'
p269
S'LouDnl'
p270
S'LouDnl/ArmA3_Wasteland.Altis'
p271
tp272
a(S'DUWS-R'
p273
S'DUWS-R-Team'
p274
S'DUWS-R-Team/DUWS-R'
p275
tp276
a(S'ArmA3_Wasteland.Altis'
p277
S'TOPARMA'
p278
S'TOPARMA/ArmA3_Wasteland.Altis'
p279
tp280
a(S'Distrikt41'
p281
S'Dscha'
p282
S'Dscha/Distrikt41'
p283
tp284
a(S'pra3'
p285
S'realitymod'
p286
S'realitymod/pra3'
p287
tp288
a(S'VEMF'
p289
S'SMVampire'
p290
S'SMVampire/VEMF'
p291
tp292
a(S'a3s_epoch_0103'
p293
S'withoutx'
p294
S'withoutx/a3s_epoch_0103'
p295
tp296
a(S'Simple-Epoch-Missions'
p297
S'KiloSwiss'
p298
S'KiloSwiss/Simple-Epoch-Missions'
p299
tp300
a.