(lp0
(S'agilebill'
p1
S'tony-landis'
p2
S'tony-landis/agilebill'
p3
tp4
a(S'tang_poetry'
p5
S'hxgdzyuyi'
p6
S'hxgdzyuyi/tang_poetry'
p7
tp8
a(S'TDB_4.3.4_NLU'
p9
S'TrinityCore'
p10
S'TrinityCore/TDB_4.3.4_NLU'
p11
tp12
a(S'census-postgres'
p13
S'leehach'
p14
S'leehach/census-postgres'
p15
tp16
a(S'mytap'
p17
S'theory'
p18
S'theory/mytap'
p19
tp20
a(S'shorts'
p21
S'thatjpcsguy'
p22
S'thatjpcsguy/shorts'
p23
tp24
a(S'fonetica-sql'
p25
S'vyper'
p26
S'vyper/fonetica-sql'
p27
tp28
a(S'common_schema'
p29
S'shlomi-noach'
p30
S'shlomi-noach/common_schema'
p31
tp32
a(S'ip4r'
p33
S'RhodiumToad'
p34
S'RhodiumToad/ip4r'
p35
tp36
a(S'voynich_manchu_oradb'
p37
S'longwall'
p38
S'longwall/voynich_manchu_oradb'
p39
tp40
a(S'poetification'
p41
S'pietdaniel'
p42
S'pietdaniel/poetification'
p43
tp44
a(S'DocGraph'
p45
S'jhajagos'
p46
S'jhajagos/DocGraph'
p47
tp48
a(S'martini-example'
p49
S'joiggama'
p50
S'joiggama/martini-example'
p51
tp52
a(S'Lstore'
p53
S'cistoner'
p54
S'cistoner/Lstore'
p55
tp56
a(S'jSQLtuner'
p57
S'piotrsukiennik'
p58
S'piotrsukiennik/jSQLtuner'
p59
tp60
a(S'metpetdb-py'
p61
S'metpetdb'
p62
S'metpetdb/metpetdb-py'
p63
tp64
a(S'Ali-Data-Mining'
p65
S'sunnotes'
p66
S'sunnotes/Ali-Data-Mining'
p67
tp68
a(S'sql'
p69
S'cliffordsnow'
p70
S'cliffordsnow/sql'
p71
tp72
a(S'sundry_requests'
p73
S'TEAMSchools'
p74
S'TEAMSchools/sundry_requests'
p75
tp76
a(S'Donor9'
p77
S'hacker9'
p78
S'hacker9/Donor9'
p79
tp80
a(S'Vanilla'
p81
S'andrewmunro'
p82
S'andrewmunro/Vanilla'
p83
tp84
a(S'quartz-jee-demo'
p85
S'kolorobot'
p86
S'kolorobot/quartz-jee-demo'
p87
tp88
a(S'agentInfer'
p89
S'zmijevik'
p90
S'zmijevik/agentInfer'
p91
tp92
a(S'Live2'
p93
S'saphanaacademy'
p94
S'saphanaacademy/Live2'
p95
tp96
a(S'puppet-openfire'
p97
S'ghoneycutt'
p98
S'ghoneycutt/puppet-openfire'
p99
tp100
a(S'agilebill'
p101
S'tony-landis'
p102
S'tony-landis/agilebill'
p103
tp104
a(S'tang_poetry'
p105
S'hxgdzyuyi'
p106
S'hxgdzyuyi/tang_poetry'
p107
tp108
a(S'TDB_4.3.4_NLU'
p109
S'TrinityCore'
p110
S'TrinityCore/TDB_4.3.4_NLU'
p111
tp112
a(S'census-postgres'
p113
S'leehach'
p114
S'leehach/census-postgres'
p115
tp116
a(S'mytap'
p117
S'theory'
p118
S'theory/mytap'
p119
tp120
a(S'shorts'
p121
S'thatjpcsguy'
p122
S'thatjpcsguy/shorts'
p123
tp124
a(S'fonetica-sql'
p125
S'vyper'
p126
S'vyper/fonetica-sql'
p127
tp128
a(S'common_schema'
p129
S'shlomi-noach'
p130
S'shlomi-noach/common_schema'
p131
tp132
a(S'ip4r'
p133
S'RhodiumToad'
p134
S'RhodiumToad/ip4r'
p135
tp136
a(S'voynich_manchu_oradb'
p137
S'longwall'
p138
S'longwall/voynich_manchu_oradb'
p139
tp140
a(S'poetification'
p141
S'pietdaniel'
p142
S'pietdaniel/poetification'
p143
tp144
a(S'DocGraph'
p145
S'jhajagos'
p146
S'jhajagos/DocGraph'
p147
tp148
a(S'martini-example'
p149
S'joiggama'
p150
S'joiggama/martini-example'
p151
tp152
a(S'Lstore'
p153
S'cistoner'
p154
S'cistoner/Lstore'
p155
tp156
a(S'jSQLtuner'
p157
S'piotrsukiennik'
p158
S'piotrsukiennik/jSQLtuner'
p159
tp160
a(S'metpetdb-py'
p161
S'metpetdb'
p162
S'metpetdb/metpetdb-py'
p163
tp164
a(S'Ali-Data-Mining'
p165
S'sunnotes'
p166
S'sunnotes/Ali-Data-Mining'
p167
tp168
a(S'sql'
p169
S'cliffordsnow'
p170
S'cliffordsnow/sql'
p171
tp172
a(S'sundry_requests'
p173
S'TEAMSchools'
p174
S'TEAMSchools/sundry_requests'
p175
tp176
a(S'Donor9'
p177
S'hacker9'
p178
S'hacker9/Donor9'
p179
tp180
a(S'Vanilla'
p181
S'andrewmunro'
p182
S'andrewmunro/Vanilla'
p183
tp184
a(S'quartz-jee-demo'
p185
S'kolorobot'
p186
S'kolorobot/quartz-jee-demo'
p187
tp188
a(S'agentInfer'
p189
S'zmijevik'
p190
S'zmijevik/agentInfer'
p191
tp192
a(S'Live2'
p193
S'saphanaacademy'
p194
S'saphanaacademy/Live2'
p195
tp196
a(S'puppet-openfire'
p197
S'ghoneycutt'
p198
S'ghoneycutt/puppet-openfire'
p199
tp200
a(S'agilebill'
p201
S'tony-landis'
p202
S'tony-landis/agilebill'
p203
tp204
a(S'tang_poetry'
p205
S'hxgdzyuyi'
p206
S'hxgdzyuyi/tang_poetry'
p207
tp208
a(S'TDB_4.3.4_NLU'
p209
S'TrinityCore'
p210
S'TrinityCore/TDB_4.3.4_NLU'
p211
tp212
a(S'census-postgres'
p213
S'leehach'
p214
S'leehach/census-postgres'
p215
tp216
a(S'mytap'
p217
S'theory'
p218
S'theory/mytap'
p219
tp220
a(S'shorts'
p221
S'thatjpcsguy'
p222
S'thatjpcsguy/shorts'
p223
tp224
a(S'fonetica-sql'
p225
S'vyper'
p226
S'vyper/fonetica-sql'
p227
tp228
a(S'common_schema'
p229
S'shlomi-noach'
p230
S'shlomi-noach/common_schema'
p231
tp232
a(S'ip4r'
p233
S'RhodiumToad'
p234
S'RhodiumToad/ip4r'
p235
tp236
a(S'voynich_manchu_oradb'
p237
S'longwall'
p238
S'longwall/voynich_manchu_oradb'
p239
tp240
a(S'poetification'
p241
S'pietdaniel'
p242
S'pietdaniel/poetification'
p243
tp244
a(S'DocGraph'
p245
S'jhajagos'
p246
S'jhajagos/DocGraph'
p247
tp248
a(S'martini-example'
p249
S'joiggama'
p250
S'joiggama/martini-example'
p251
tp252
a(S'Lstore'
p253
S'cistoner'
p254
S'cistoner/Lstore'
p255
tp256
a(S'jSQLtuner'
p257
S'piotrsukiennik'
p258
S'piotrsukiennik/jSQLtuner'
p259
tp260
a(S'metpetdb-py'
p261
S'metpetdb'
p262
S'metpetdb/metpetdb-py'
p263
tp264
a(S'Ali-Data-Mining'
p265
S'sunnotes'
p266
S'sunnotes/Ali-Data-Mining'
p267
tp268
a(S'sql'
p269
S'cliffordsnow'
p270
S'cliffordsnow/sql'
p271
tp272
a(S'sundry_requests'
p273
S'TEAMSchools'
p274
S'TEAMSchools/sundry_requests'
p275
tp276
a(S'Donor9'
p277
S'hacker9'
p278
S'hacker9/Donor9'
p279
tp280
a(S'Vanilla'
p281
S'andrewmunro'
p282
S'andrewmunro/Vanilla'
p283
tp284
a(S'quartz-jee-demo'
p285
S'kolorobot'
p286
S'kolorobot/quartz-jee-demo'
p287
tp288
a(S'agentInfer'
p289
S'zmijevik'
p290
S'zmijevik/agentInfer'
p291
tp292
a(S'Live2'
p293
S'saphanaacademy'
p294
S'saphanaacademy/Live2'
p295
tp296
a(S'puppet-openfire'
p297
S'ghoneycutt'
p298
S'ghoneycutt/puppet-openfire'
p299
tp300
a.