(lp0
(S'Chats'
p1
S'acani'
p2
S'acani/Chats'
p3
tp4
a(S'mixerp'
p5
S'mixerp'
p6
S'mixerp/mixerp'
p7
tp8
a(S'pgx_scripts'
p9
S'pgexperts'
p10
S'pgexperts/pgx_scripts'
p11
tp12
a(S'sql-scripts'
p13
S'MichelleUfford'
p14
S'MichelleUfford/sql-scripts'
p15
tp16
a(S'pgMemento'
p17
S'pgMemento'
p18
S'pgMemento/pgMemento'
p19
tp20
a(S'SQLServer'
p21
S'tmmtsmith'
p22
S'tmmtsmith/SQLServer'
p23
tp24
a(S'mage-reset'
p25
S'ccondrup'
p26
S'ccondrup/mage-reset'
p27
tp28
a(S'docker-pentaho'
p29
S'wmarinho'
p30
S'wmarinho/docker-pentaho'
p31
tp32
a(S'QueryingT-SQL'
p33
S'MicrosoftLearning'
p34
S'MicrosoftLearning/QueryingT-SQL'
p35
tp36
a(S'ODM2'
p37
S'ODM2'
p38
S'ODM2/ODM2'
p39
tp40
a(S'MySQL-distance-between-GPS-coordinates'
p41
S'mnisjk'
p42
S'mnisjk/MySQL-distance-between-GPS-coordinates'
p43
tp44
a(S'tSQLt'
p45
S'tSQLt'
p46
S'tSQLt/tSQLt'
p47
tp48
a(S'database'
p49
S'mangoszero'
p50
S'mangoszero/database'
p51
tp52
a(S'database'
p53
S'mangosthree'
p54
S'mangosthree/database'
p55
tp56
a(S'censusreporter'
p57
S'Code4SA'
p58
S'Code4SA/censusreporter'
p59
tp60
a(S'advanced-sql-nicar15'
p61
S'anthonydb'
p62
S'anthonydb/advanced-sql-nicar15'
p63
tp64
a(S'osm-bright.tm2source'
p65
S'kartotherian'
p66
S'kartotherian/osm-bright.tm2source'
p67
tp68
a(S'CISL'
p69
S'NikoNeugebauer'
p70
S'NikoNeugebauer/CISL'
p71
tp72
a(S'postgis-scripts'
p73
S'minus34'
p74
S'minus34/postgis-scripts'
p75
tp76
a(S'v3.0'
p77
S'mimic2'
p78
S'mimic2/v3.0'
p79
tp80
a(S'PAL'
p81
S'saphanaacademy'
p82
S'saphanaacademy/PAL'
p83
tp84
a(S'ScriptDiagram'
p85
S'neutmute'
p86
S'neutmute/ScriptDiagram'
p87
tp88
a(S'OneDatabase'
p89
S'CoronaCore'
p90
S'CoronaCore/OneDatabase'
p91
tp92
a(S'moocchat'
p93
S'ucberkeley'
p94
S'ucberkeley/moocchat'
p95
tp96
a(S'Installer'
p97
S'opensourceautomation'
p98
S'opensourceautomation/Installer'
p99
tp100
a(S'Chats'
p101
S'acani'
p102
S'acani/Chats'
p103
tp104
a(S'mixerp'
p105
S'mixerp'
p106
S'mixerp/mixerp'
p107
tp108
a(S'pgx_scripts'
p109
S'pgexperts'
p110
S'pgexperts/pgx_scripts'
p111
tp112
a(S'sql-scripts'
p113
S'MichelleUfford'
p114
S'MichelleUfford/sql-scripts'
p115
tp116
a(S'pgMemento'
p117
S'pgMemento'
p118
S'pgMemento/pgMemento'
p119
tp120
a(S'SQLServer'
p121
S'tmmtsmith'
p122
S'tmmtsmith/SQLServer'
p123
tp124
a(S'mage-reset'
p125
S'ccondrup'
p126
S'ccondrup/mage-reset'
p127
tp128
a(S'docker-pentaho'
p129
S'wmarinho'
p130
S'wmarinho/docker-pentaho'
p131
tp132
a(S'QueryingT-SQL'
p133
S'MicrosoftLearning'
p134
S'MicrosoftLearning/QueryingT-SQL'
p135
tp136
a(S'ODM2'
p137
S'ODM2'
p138
S'ODM2/ODM2'
p139
tp140
a(S'MySQL-distance-between-GPS-coordinates'
p141
S'mnisjk'
p142
S'mnisjk/MySQL-distance-between-GPS-coordinates'
p143
tp144
a(S'tSQLt'
p145
S'tSQLt'
p146
S'tSQLt/tSQLt'
p147
tp148
a(S'database'
p149
S'mangoszero'
p150
S'mangoszero/database'
p151
tp152
a(S'database'
p153
S'mangosthree'
p154
S'mangosthree/database'
p155
tp156
a(S'censusreporter'
p157
S'Code4SA'
p158
S'Code4SA/censusreporter'
p159
tp160
a(S'advanced-sql-nicar15'
p161
S'anthonydb'
p162
S'anthonydb/advanced-sql-nicar15'
p163
tp164
a(S'osm-bright.tm2source'
p165
S'kartotherian'
p166
S'kartotherian/osm-bright.tm2source'
p167
tp168
a(S'CISL'
p169
S'NikoNeugebauer'
p170
S'NikoNeugebauer/CISL'
p171
tp172
a(S'postgis-scripts'
p173
S'minus34'
p174
S'minus34/postgis-scripts'
p175
tp176
a(S'v3.0'
p177
S'mimic2'
p178
S'mimic2/v3.0'
p179
tp180
a(S'PAL'
p181
S'saphanaacademy'
p182
S'saphanaacademy/PAL'
p183
tp184
a(S'ScriptDiagram'
p185
S'neutmute'
p186
S'neutmute/ScriptDiagram'
p187
tp188
a(S'OneDatabase'
p189
S'CoronaCore'
p190
S'CoronaCore/OneDatabase'
p191
tp192
a(S'moocchat'
p193
S'ucberkeley'
p194
S'ucberkeley/moocchat'
p195
tp196
a(S'Installer'
p197
S'opensourceautomation'
p198
S'opensourceautomation/Installer'
p199
tp200
a(S'mixerp'
p201
S'mixerp'
p202
S'mixerp/mixerp'
p203
tp204
a(S'Chats'
p205
S'acani'
p206
S'acani/Chats'
p207
tp208
a(S'pgx_scripts'
p209
S'pgexperts'
p210
S'pgexperts/pgx_scripts'
p211
tp212
a(S'sql-scripts'
p213
S'MichelleUfford'
p214
S'MichelleUfford/sql-scripts'
p215
tp216
a(S'pgMemento'
p217
S'pgMemento'
p218
S'pgMemento/pgMemento'
p219
tp220
a(S'SQLServer'
p221
S'tmmtsmith'
p222
S'tmmtsmith/SQLServer'
p223
tp224
a(S'mage-reset'
p225
S'ccondrup'
p226
S'ccondrup/mage-reset'
p227
tp228
a(S'docker-pentaho'
p229
S'wmarinho'
p230
S'wmarinho/docker-pentaho'
p231
tp232
a(S'QueryingT-SQL'
p233
S'MicrosoftLearning'
p234
S'MicrosoftLearning/QueryingT-SQL'
p235
tp236
a(S'ODM2'
p237
S'ODM2'
p238
S'ODM2/ODM2'
p239
tp240
a(S'MySQL-distance-between-GPS-coordinates'
p241
S'mnisjk'
p242
S'mnisjk/MySQL-distance-between-GPS-coordinates'
p243
tp244
a(S'tSQLt'
p245
S'tSQLt'
p246
S'tSQLt/tSQLt'
p247
tp248
a(S'database'
p249
S'mangoszero'
p250
S'mangoszero/database'
p251
tp252
a(S'censusreporter'
p253
S'Code4SA'
p254
S'Code4SA/censusreporter'
p255
tp256
a(S'database'
p257
S'mangosthree'
p258
S'mangosthree/database'
p259
tp260
a(S'advanced-sql-nicar15'
p261
S'anthonydb'
p262
S'anthonydb/advanced-sql-nicar15'
p263
tp264
a(S'osm-bright.tm2source'
p265
S'kartotherian'
p266
S'kartotherian/osm-bright.tm2source'
p267
tp268
a(S'CISL'
p269
S'NikoNeugebauer'
p270
S'NikoNeugebauer/CISL'
p271
tp272
a(S'v3.0'
p273
S'mimic2'
p274
S'mimic2/v3.0'
p275
tp276
a(S'postgis-scripts'
p277
S'minus34'
p278
S'minus34/postgis-scripts'
p279
tp280
a(S'OneDatabase'
p281
S'CoronaCore'
p282
S'CoronaCore/OneDatabase'
p283
tp284
a(S'ScriptDiagram'
p285
S'neutmute'
p286
S'neutmute/ScriptDiagram'
p287
tp288
a(S'PAL'
p289
S'saphanaacademy'
p290
S'saphanaacademy/PAL'
p291
tp292
a(S'moocchat'
p293
S'ucberkeley'
p294
S'ucberkeley/moocchat'
p295
tp296
a(S'Installer'
p297
S'opensourceautomation'
p298
S'opensourceautomation/Installer'
p299
tp300
a.