(lp0
(S'reference'
p1
S'electricimp'
p2
S'electricimp/reference'
p3
tp4
a(S'Power_Monitor'
p5
S'hephaestus9'
p6
S'hephaestus9/Power_Monitor'
p7
tp8
a(S'futurestack14_badge'
p9
S'newrelic'
p10
S'newrelic/futurestack14_badge'
p11
tp12
a(S'ei-fw-tom'
p13
S'ersatzavian'
p14
S'ersatzavian/ei-fw-tom'
p15
tp16
a(S'Wimp_Weather_Station'
p17
S'sparkfun'
p18
S'sparkfun/Wimp_Weather_Station'
p19
tp20
a(S'Tomatoless_Boots'
p21
S'sparkfun'
p22
S'sparkfun/Tomatoless_Boots'
p23
tp24
a(S'flowbright'
p25
S'ersatzavian'
p26
S'ersatzavian/flowbright'
p27
tp28
a(S'electricimp-nRF24L01'
p29
S'stanleyseow'
p30
S'stanleyseow/electricimp-nRF24L01'
p31
tp32
a(S'tyrion'
p33
S'rwaldron'
p34
S'rwaldron/tyrion'
p35
tp36
a(S'ElectricImpDemo'
p37
S'firebase'
p38
S'firebase/ElectricImpDemo'
p39
tp40
a(S'futurestack_badge'
p41
S'newrelic'
p42
S'newrelic/futurestack_badge'
p43
tp44
a(S'pak128'
p45
S'simutrans'
p46
S'simutrans/pak128'
p47
tp48
a(S'ISS-Overhead'
p49
S'cat-haines'
p50
S'cat-haines/ISS-Overhead'
p51
tp52
a(S'Eureka'
p53
S'mezelve'
p54
S'mezelve/Eureka'
p55
tp56
a(S'thingspeak-electric-imp'
p57
S'iobridge'
p58
S'iobridge/thingspeak-electric-imp'
p59
tp60
a(S'attract-extra'
p61
S'mickelson'
p62
S'mickelson/attract-extra'
p63
tp64
a(S'BEE2-items'
p65
S'TeamSpen210'
p66
S'TeamSpen210/BEE2-items'
p67
tp68
a(S'WolframDataDrop'
p69
S'electricimp'
p70
S'electricimp/WolframDataDrop'
p71
tp72
a(S'Tutorial_Electric_Imp_MAX31855'
p73
S'joel-wehr'
p74
S'joel-wehr/Tutorial_Electric_Imp_MAX31855'
p75
tp76
a(S'electric_imp_security_system'
p77
S'joel-wehr'
p78
S'joel-wehr/electric_imp_security_system'
p79
tp80
a(S'Rocky'
p81
S'electricimp'
p82
S'electricimp/Rocky'
p83
tp84
a(S'lib'
p85
S'esquiloio'
p86
S'esquiloio/lib'
p87
tp88
a(S'implay'
p89
S'djbouche'
p90
S'djbouche/implay'
p91
tp92
a(S'nut-snmpagent'
p93
S'luizluca'
p94
S'luizluca/nut-snmpagent'
p95
tp96
a(S'AIAI'
p97
S'matkoniecz'
p98
S'matkoniecz/AIAI'
p99
tp100
a(S'reference'
p101
S'electricimp'
p102
S'electricimp/reference'
p103
tp104
a(S'Power_Monitor'
p105
S'hephaestus9'
p106
S'hephaestus9/Power_Monitor'
p107
tp108
a(S'futurestack14_badge'
p109
S'newrelic'
p110
S'newrelic/futurestack14_badge'
p111
tp112
a(S'ei-fw-tom'
p113
S'ersatzavian'
p114
S'ersatzavian/ei-fw-tom'
p115
tp116
a(S'Wimp_Weather_Station'
p117
S'sparkfun'
p118
S'sparkfun/Wimp_Weather_Station'
p119
tp120
a(S'Tomatoless_Boots'
p121
S'sparkfun'
p122
S'sparkfun/Tomatoless_Boots'
p123
tp124
a(S'flowbright'
p125
S'ersatzavian'
p126
S'ersatzavian/flowbright'
p127
tp128
a(S'electricimp-nRF24L01'
p129
S'stanleyseow'
p130
S'stanleyseow/electricimp-nRF24L01'
p131
tp132
a(S'tyrion'
p133
S'rwaldron'
p134
S'rwaldron/tyrion'
p135
tp136
a(S'ElectricImpDemo'
p137
S'firebase'
p138
S'firebase/ElectricImpDemo'
p139
tp140
a(S'futurestack_badge'
p141
S'newrelic'
p142
S'newrelic/futurestack_badge'
p143
tp144
a(S'pak128'
p145
S'simutrans'
p146
S'simutrans/pak128'
p147
tp148
a(S'ISS-Overhead'
p149
S'cat-haines'
p150
S'cat-haines/ISS-Overhead'
p151
tp152
a(S'Eureka'
p153
S'mezelve'
p154
S'mezelve/Eureka'
p155
tp156
a(S'thingspeak-electric-imp'
p157
S'iobridge'
p158
S'iobridge/thingspeak-electric-imp'
p159
tp160
a(S'attract-extra'
p161
S'mickelson'
p162
S'mickelson/attract-extra'
p163
tp164
a(S'BEE2-items'
p165
S'TeamSpen210'
p166
S'TeamSpen210/BEE2-items'
p167
tp168
a(S'WolframDataDrop'
p169
S'electricimp'
p170
S'electricimp/WolframDataDrop'
p171
tp172
a(S'Tutorial_Electric_Imp_MAX31855'
p173
S'joel-wehr'
p174
S'joel-wehr/Tutorial_Electric_Imp_MAX31855'
p175
tp176
a(S'electric_imp_security_system'
p177
S'joel-wehr'
p178
S'joel-wehr/electric_imp_security_system'
p179
tp180
a(S'Rocky'
p181
S'electricimp'
p182
S'electricimp/Rocky'
p183
tp184
a(S'lib'
p185
S'esquiloio'
p186
S'esquiloio/lib'
p187
tp188
a(S'implay'
p189
S'djbouche'
p190
S'djbouche/implay'
p191
tp192
a(S'nut-snmpagent'
p193
S'luizluca'
p194
S'luizluca/nut-snmpagent'
p195
tp196
a(S'AIAI'
p197
S'matkoniecz'
p198
S'matkoniecz/AIAI'
p199
tp200
a(S'reference'
p201
S'electricimp'
p202
S'electricimp/reference'
p203
tp204
a(S'Power_Monitor'
p205
S'hephaestus9'
p206
S'hephaestus9/Power_Monitor'
p207
tp208
a(S'futurestack14_badge'
p209
S'newrelic'
p210
S'newrelic/futurestack14_badge'
p211
tp212
a(S'ei-fw-tom'
p213
S'ersatzavian'
p214
S'ersatzavian/ei-fw-tom'
p215
tp216
a(S'Wimp_Weather_Station'
p217
S'sparkfun'
p218
S'sparkfun/Wimp_Weather_Station'
p219
tp220
a(S'Tomatoless_Boots'
p221
S'sparkfun'
p222
S'sparkfun/Tomatoless_Boots'
p223
tp224
a(S'flowbright'
p225
S'ersatzavian'
p226
S'ersatzavian/flowbright'
p227
tp228
a(S'electricimp-nRF24L01'
p229
S'stanleyseow'
p230
S'stanleyseow/electricimp-nRF24L01'
p231
tp232
a(S'tyrion'
p233
S'rwaldron'
p234
S'rwaldron/tyrion'
p235
tp236
a(S'ElectricImpDemo'
p237
S'firebase'
p238
S'firebase/ElectricImpDemo'
p239
tp240
a(S'futurestack_badge'
p241
S'newrelic'
p242
S'newrelic/futurestack_badge'
p243
tp244
a(S'pak128'
p245
S'simutrans'
p246
S'simutrans/pak128'
p247
tp248
a(S'ISS-Overhead'
p249
S'cat-haines'
p250
S'cat-haines/ISS-Overhead'
p251
tp252
a(S'Eureka'
p253
S'mezelve'
p254
S'mezelve/Eureka'
p255
tp256
a(S'thingspeak-electric-imp'
p257
S'iobridge'
p258
S'iobridge/thingspeak-electric-imp'
p259
tp260
a(S'attract-extra'
p261
S'mickelson'
p262
S'mickelson/attract-extra'
p263
tp264
a(S'BEE2-items'
p265
S'TeamSpen210'
p266
S'TeamSpen210/BEE2-items'
p267
tp268
a(S'WolframDataDrop'
p269
S'electricimp'
p270
S'electricimp/WolframDataDrop'
p271
tp272
a(S'Tutorial_Electric_Imp_MAX31855'
p273
S'joel-wehr'
p274
S'joel-wehr/Tutorial_Electric_Imp_MAX31855'
p275
tp276
a(S'electric_imp_security_system'
p277
S'joel-wehr'
p278
S'joel-wehr/electric_imp_security_system'
p279
tp280
a(S'Rocky'
p281
S'electricimp'
p282
S'electricimp/Rocky'
p283
tp284
a(S'lib'
p285
S'esquiloio'
p286
S'esquiloio/lib'
p287
tp288
a(S'implay'
p289
S'djbouche'
p290
S'djbouche/implay'
p291
tp292
a(S'nut-snmpagent'
p293
S'luizluca'
p294
S'luizluca/nut-snmpagent'
p295
tp296
a(S'AIAI'
p297
S'matkoniecz'
p298
S'matkoniecz/AIAI'
p299
tp300
a.