(lp0
(S'truecrypt-verified-mirror'
p1
S'AuditProject'
p2
S'AuditProject/truecrypt-verified-mirror'
p3
tp4
a(S'World-Citizenship'
p5
S'MrChrisJ'
p6
S'MrChrisJ/World-Citizenship'
p7
tp8
a(S'GoldenCheetah'
p9
S'GoldenCheetah'
p10
S'GoldenCheetah/GoldenCheetah'
p11
tp12
a(S'mlton'
p13
S'MLton'
p14
S'MLton/mlton'
p15
tp16
a(S'mlworks'
p17
S'Ravenbrook'
p18
S'Ravenbrook/mlworks'
p19
tp20
a(S'mosml'
p21
S'kfl'
p22
S'kfl/mosml'
p23
tp24
a(S'cakeml'
p25
S'CakeML'
p26
S'CakeML/cakeml'
p27
tp28
a(S'interactive-lp'
p29
S'chrisamaphone'
p30
S'chrisamaphone/interactive-lp'
p31
tp32
a(S'JonPRL'
p33
S'jonsterling'
p34
S'jonsterling/JonPRL'
p35
tp36
a(S'HOL'
p37
S'HOL-Theorem-Prover'
p38
S'HOL-Theorem-Prover/HOL'
p39
tp40
a(S'prads'
p41
S'gamelinux'
p42
S'gamelinux/prads'
p43
tp44
a(S'web-server'
p45
S'surespot'
p46
S'surespot/web-server'
p47
tp48
a(S'smackage'
p49
S'standardml'
p50
S'standardml/smackage'
p51
tp52
a(S'hm'
p53
S'jozefg'
p54
S'jozefg/hm'
p55
tp56
a(S'qcheck'
p57
S'league'
p58
S'league/qcheck'
p59
tp60
a(S'multiMLton'
p61
S'kayceesrk'
p62
S'kayceesrk/multiMLton'
p63
tp64
a(S'sml-lib'
p65
S'robsimmons'
p66
S'robsimmons/sml-lib'
p67
tp68
a(S'l1c'
p69
S'j-baker'
p70
S'j-baker/l1c'
p71
tp72
a(S'dogecoinpaperwallet'
p73
S'wr'
p74
S'wr/dogecoinpaperwallet'
p75
tp76
a(S'mempo-kernel'
p77
S'mempo'
p78
S'mempo/mempo-kernel'
p79
tp80
a(S'mlkit'
p81
S'melsman'
p82
S'melsman/mlkit'
p83
tp84
a(S'urweb'
p85
S'urweb'
p86
S'urweb/urweb'
p87
tp88
a(S'polyml'
p89
S'polyml'
p90
S'polyml/polyml'
p91
tp92
a(S'smlsharp'
p93
S'smlsharp'
p94
S'smlsharp/smlsharp'
p95
tp96
a(S'vg'
p97
S'dbuenzli'
p98
S'dbuenzli/vg'
p99
tp100
a(S'truecrypt-verified-mirror'
p101
S'AuditProject'
p102
S'AuditProject/truecrypt-verified-mirror'
p103
tp104
a(S'World-Citizenship'
p105
S'MrChrisJ'
p106
S'MrChrisJ/World-Citizenship'
p107
tp108
a(S'GoldenCheetah'
p109
S'GoldenCheetah'
p110
S'GoldenCheetah/GoldenCheetah'
p111
tp112
a(S'mlton'
p113
S'MLton'
p114
S'MLton/mlton'
p115
tp116
a(S'mlworks'
p117
S'Ravenbrook'
p118
S'Ravenbrook/mlworks'
p119
tp120
a(S'mosml'
p121
S'kfl'
p122
S'kfl/mosml'
p123
tp124
a(S'cakeml'
p125
S'CakeML'
p126
S'CakeML/cakeml'
p127
tp128
a(S'interactive-lp'
p129
S'chrisamaphone'
p130
S'chrisamaphone/interactive-lp'
p131
tp132
a(S'JonPRL'
p133
S'jonsterling'
p134
S'jonsterling/JonPRL'
p135
tp136
a(S'HOL'
p137
S'HOL-Theorem-Prover'
p138
S'HOL-Theorem-Prover/HOL'
p139
tp140
a(S'prads'
p141
S'gamelinux'
p142
S'gamelinux/prads'
p143
tp144
a(S'web-server'
p145
S'surespot'
p146
S'surespot/web-server'
p147
tp148
a(S'smackage'
p149
S'standardml'
p150
S'standardml/smackage'
p151
tp152
a(S'hm'
p153
S'jozefg'
p154
S'jozefg/hm'
p155
tp156
a(S'qcheck'
p157
S'league'
p158
S'league/qcheck'
p159
tp160
a(S'multiMLton'
p161
S'kayceesrk'
p162
S'kayceesrk/multiMLton'
p163
tp164
a(S'sml-lib'
p165
S'robsimmons'
p166
S'robsimmons/sml-lib'
p167
tp168
a(S'l1c'
p169
S'j-baker'
p170
S'j-baker/l1c'
p171
tp172
a(S'dogecoinpaperwallet'
p173
S'wr'
p174
S'wr/dogecoinpaperwallet'
p175
tp176
a(S'mempo-kernel'
p177
S'mempo'
p178
S'mempo/mempo-kernel'
p179
tp180
a(S'mlkit'
p181
S'melsman'
p182
S'melsman/mlkit'
p183
tp184
a(S'urweb'
p185
S'urweb'
p186
S'urweb/urweb'
p187
tp188
a(S'polyml'
p189
S'polyml'
p190
S'polyml/polyml'
p191
tp192
a(S'smlsharp'
p193
S'smlsharp'
p194
S'smlsharp/smlsharp'
p195
tp196
a(S'vg'
p197
S'dbuenzli'
p198
S'dbuenzli/vg'
p199
tp200
a(S'mlton'
p201
S'MLton'
p202
S'MLton/mlton'
p203
tp204
a(S'GoldenCheetah'
p205
S'GoldenCheetah'
p206
S'GoldenCheetah/GoldenCheetah'
p207
tp208
a(S'cakeml'
p209
S'CakeML'
p210
S'CakeML/cakeml'
p211
tp212
a(S'truecrypt-verified-mirror'
p213
S'AuditProject'
p214
S'AuditProject/truecrypt-verified-mirror'
p215
tp216
a(S'World-Citizenship'
p217
S'MrChrisJ'
p218
S'MrChrisJ/World-Citizenship'
p219
tp220
a(S'mlworks'
p221
S'Ravenbrook'
p222
S'Ravenbrook/mlworks'
p223
tp224
a(S'mosml'
p225
S'kfl'
p226
S'kfl/mosml'
p227
tp228
a(S'interactive-lp'
p229
S'chrisamaphone'
p230
S'chrisamaphone/interactive-lp'
p231
tp232
a(S'JonPRL'
p233
S'jonsterling'
p234
S'jonsterling/JonPRL'
p235
tp236
a(S'HOL'
p237
S'HOL-Theorem-Prover'
p238
S'HOL-Theorem-Prover/HOL'
p239
tp240
a(S'prads'
p241
S'gamelinux'
p242
S'gamelinux/prads'
p243
tp244
a(S'web-server'
p245
S'surespot'
p246
S'surespot/web-server'
p247
tp248
a(S'smackage'
p249
S'standardml'
p250
S'standardml/smackage'
p251
tp252
a(S'hm'
p253
S'jozefg'
p254
S'jozefg/hm'
p255
tp256
a(S'qcheck'
p257
S'league'
p258
S'league/qcheck'
p259
tp260
a(S'multiMLton'
p261
S'kayceesrk'
p262
S'kayceesrk/multiMLton'
p263
tp264
a(S'sml-lib'
p265
S'robsimmons'
p266
S'robsimmons/sml-lib'
p267
tp268
a(S'dogecoinpaperwallet'
p269
S'wr'
p270
S'wr/dogecoinpaperwallet'
p271
tp272
a(S'mempo-kernel'
p273
S'mempo'
p274
S'mempo/mempo-kernel'
p275
tp276
a(S'l1c'
p277
S'j-baker'
p278
S'j-baker/l1c'
p279
tp280
a(S'urweb'
p281
S'urweb'
p282
S'urweb/urweb'
p283
tp284
a(S'mlkit'
p285
S'melsman'
p286
S'melsman/mlkit'
p287
tp288
a(S'smlsharp'
p289
S'smlsharp'
p290
S'smlsharp/smlsharp'
p291
tp292
a(S'polyml'
p293
S'polyml'
p294
S'polyml/polyml'
p295
tp296
a(S'vg'
p297
S'dbuenzli'
p298
S'dbuenzli/vg'
p299
tp300
a.