(lp0
(S'google-hosts'
p1
S'txthinking'
p2
S'txthinking/google-hosts'
p3
tp4
a(S'atlas-data'
p5
S'cid-harvard'
p6
S'cid-harvard/atlas-data'
p7
tp8
a(S'mostly-harmless-replication'
p9
S'vikjam'
p10
S'vikjam/mostly-harmless-replication'
p11
tp12
a(S'GoogleHosts-Python'
p13
S'csrgxtu'
p14
S'csrgxtu/GoogleHosts-Python'
p15
tp16
a(S'reghdfe'
p17
S'sergiocorreia'
p18
S'sergiocorreia/reghdfe'
p19
tp20
a(S'proxy-methodology'
p21
S'cfpb'
p22
S'cfpb/proxy-methodology'
p23
tp24
a(S'parallel'
p25
S'gvegayon'
p26
S'gvegayon/parallel'
p27
tp28
a(S'binscatter'
p29
S'michaelstepner'
p30
S'michaelstepner/binscatter'
p31
tp32
a(S'nwcommands'
p33
S'ThomasGrund'
p34
S'ThomasGrund/nwcommands'
p35
tp36
a(S'odkmeta'
p37
S'matthew-white'
p38
S'matthew-white/odkmeta'
p39
tp40
a(S'stata-bysum'
p41
S'matthieugomez'
p42
S'matthieugomez/stata-bysum'
p43
tp44
a(S'stata-tools'
p45
S'kfinlay'
p46
S'kfinlay/stata-tools'
p47
tp48
a(S'estout'
p49
S'benjann'
p50
S'benjann/estout'
p51
tp52
a(S'stata-cookbook'
p53
S'lfkrebs'
p54
S'lfkrebs/stata-cookbook'
p55
tp56
a(S'stgit'
p57
S'matthew-white'
p58
S'matthew-white/stgit'
p59
tp60
a(S'google-hosts'
p61
S'Lerrytou'
p62
S'Lerrytou/google-hosts'
p63
tp64
a(S'Stata-modules'
p65
S'bquistorff'
p66
S'bquistorff/Stata-modules'
p67
tp68
a(S'amlm_ecprss2014'
p69
S'fghjorth'
p70
S'fghjorth/amlm_ecprss2014'
p71
tp72
a(S'github-training'
p73
S'PovertyAction'
p74
S'PovertyAction/github-training'
p75
tp76
a(S'google-hosts'
p77
S'Darmody'
p78
S'Darmody/google-hosts'
p79
tp80
a(S'MQtime'
p81
S'jvoorheis'
p82
S'jvoorheis/MQtime'
p83
tp84
a(S'statasvm'
p85
S'kousu'
p86
S'kousu/statasvm'
p87
tp88
a(S'mata_testcase'
p89
S'jrfiedler'
p90
S'jrfiedler/mata_testcase'
p91
tp92
a(S'worldstat'
p93
S'damiancclarke'
p94
S'damiancclarke/worldstat'
p95
tp96
a(S'Cameroon'
p97
S'tonijung'
p98
S'tonijung/Cameroon'
p99
tp100
a(S'google-hosts'
p101
S'txthinking'
p102
S'txthinking/google-hosts'
p103
tp104
a(S'atlas-data'
p105
S'cid-harvard'
p106
S'cid-harvard/atlas-data'
p107
tp108
a(S'mostly-harmless-replication'
p109
S'vikjam'
p110
S'vikjam/mostly-harmless-replication'
p111
tp112
a(S'GoogleHosts-Python'
p113
S'csrgxtu'
p114
S'csrgxtu/GoogleHosts-Python'
p115
tp116
a(S'reghdfe'
p117
S'sergiocorreia'
p118
S'sergiocorreia/reghdfe'
p119
tp120
a(S'proxy-methodology'
p121
S'cfpb'
p122
S'cfpb/proxy-methodology'
p123
tp124
a(S'parallel'
p125
S'gvegayon'
p126
S'gvegayon/parallel'
p127
tp128
a(S'binscatter'
p129
S'michaelstepner'
p130
S'michaelstepner/binscatter'
p131
tp132
a(S'nwcommands'
p133
S'ThomasGrund'
p134
S'ThomasGrund/nwcommands'
p135
tp136
a(S'odkmeta'
p137
S'matthew-white'
p138
S'matthew-white/odkmeta'
p139
tp140
a(S'stata-bysum'
p141
S'matthieugomez'
p142
S'matthieugomez/stata-bysum'
p143
tp144
a(S'stata-tools'
p145
S'kfinlay'
p146
S'kfinlay/stata-tools'
p147
tp148
a(S'estout'
p149
S'benjann'
p150
S'benjann/estout'
p151
tp152
a(S'stata-cookbook'
p153
S'lfkrebs'
p154
S'lfkrebs/stata-cookbook'
p155
tp156
a(S'stgit'
p157
S'matthew-white'
p158
S'matthew-white/stgit'
p159
tp160
a(S'google-hosts'
p161
S'Lerrytou'
p162
S'Lerrytou/google-hosts'
p163
tp164
a(S'Stata-modules'
p165
S'bquistorff'
p166
S'bquistorff/Stata-modules'
p167
tp168
a(S'amlm_ecprss2014'
p169
S'fghjorth'
p170
S'fghjorth/amlm_ecprss2014'
p171
tp172
a(S'github-training'
p173
S'PovertyAction'
p174
S'PovertyAction/github-training'
p175
tp176
a(S'google-hosts'
p177
S'Darmody'
p178
S'Darmody/google-hosts'
p179
tp180
a(S'MQtime'
p181
S'jvoorheis'
p182
S'jvoorheis/MQtime'
p183
tp184
a(S'statasvm'
p185
S'kousu'
p186
S'kousu/statasvm'
p187
tp188
a(S'mata_testcase'
p189
S'jrfiedler'
p190
S'jrfiedler/mata_testcase'
p191
tp192
a(S'worldstat'
p193
S'damiancclarke'
p194
S'damiancclarke/worldstat'
p195
tp196
a(S'Cameroon'
p197
S'tonijung'
p198
S'tonijung/Cameroon'
p199
tp200
a(S'google-hosts'
p201
S'txthinking'
p202
S'txthinking/google-hosts'
p203
tp204
a(S'atlas-data'
p205
S'cid-harvard'
p206
S'cid-harvard/atlas-data'
p207
tp208
a(S'mostly-harmless-replication'
p209
S'vikjam'
p210
S'vikjam/mostly-harmless-replication'
p211
tp212
a(S'GoogleHosts-Python'
p213
S'csrgxtu'
p214
S'csrgxtu/GoogleHosts-Python'
p215
tp216
a(S'reghdfe'
p217
S'sergiocorreia'
p218
S'sergiocorreia/reghdfe'
p219
tp220
a(S'proxy-methodology'
p221
S'cfpb'
p222
S'cfpb/proxy-methodology'
p223
tp224
a(S'parallel'
p225
S'gvegayon'
p226
S'gvegayon/parallel'
p227
tp228
a(S'binscatter'
p229
S'michaelstepner'
p230
S'michaelstepner/binscatter'
p231
tp232
a(S'nwcommands'
p233
S'ThomasGrund'
p234
S'ThomasGrund/nwcommands'
p235
tp236
a(S'odkmeta'
p237
S'matthew-white'
p238
S'matthew-white/odkmeta'
p239
tp240
a(S'stata-bysum'
p241
S'matthieugomez'
p242
S'matthieugomez/stata-bysum'
p243
tp244
a(S'stata-tools'
p245
S'kfinlay'
p246
S'kfinlay/stata-tools'
p247
tp248
a(S'estout'
p249
S'benjann'
p250
S'benjann/estout'
p251
tp252
a(S'stata-cookbook'
p253
S'lfkrebs'
p254
S'lfkrebs/stata-cookbook'
p255
tp256
a(S'stgit'
p257
S'matthew-white'
p258
S'matthew-white/stgit'
p259
tp260
a(S'google-hosts'
p261
S'Lerrytou'
p262
S'Lerrytou/google-hosts'
p263
tp264
a(S'Stata-modules'
p265
S'bquistorff'
p266
S'bquistorff/Stata-modules'
p267
tp268
a(S'amlm_ecprss2014'
p269
S'fghjorth'
p270
S'fghjorth/amlm_ecprss2014'
p271
tp272
a(S'github-training'
p273
S'PovertyAction'
p274
S'PovertyAction/github-training'
p275
tp276
a(S'google-hosts'
p277
S'Darmody'
p278
S'Darmody/google-hosts'
p279
tp280
a(S'MQtime'
p281
S'jvoorheis'
p282
S'jvoorheis/MQtime'
p283
tp284
a(S'statasvm'
p285
S'kousu'
p286
S'kousu/statasvm'
p287
tp288
a(S'mata_testcase'
p289
S'jrfiedler'
p290
S'jrfiedler/mata_testcase'
p291
tp292
a(S'worldstat'
p293
S'damiancclarke'
p294
S'damiancclarke/worldstat'
p295
tp296
a(S'Cameroon'
p297
S'tonijung'
p298
S'tonijung/Cameroon'
p299
tp300
a.