(lp0
(S'Skoarcery'
p1
S'sofakid'
p2
S'sofakid/Skoarcery'
p3
tp4
a(S'scprivatepool'
p5
S'rukano'
p6
S'rukano/scprivatepool'
p7
tp8
a(S'supercollider-tmbundle'
p9
S'rfwatson'
p10
S'rfwatson/supercollider-tmbundle'
p11
tp12
a(S'SCThings'
p13
S'earslap'
p14
S'earslap/SCThings'
p15
tp16
a(S'roundhouse-synth-design-course-2014'
p17
S'acarabott'
p18
S'acarabott/roundhouse-synth-design-course-2014'
p19
tp20
a(S'Modality-toolkit'
p21
S'ModalityTeam'
p22
S'ModalityTeam/Modality-toolkit'
p23
tp24
a(S'sunflow'
p25
S'fpsunflower'
p26
S'fpsunflower/sunflow'
p27
tp28
a(S'ixilang'
p29
S'thormagnusson'
p30
S'thormagnusson/ixilang'
p31
tp32
a(S'sndflo'
p33
S'jonnor'
p34
S'jonnor/sndflo'
p35
tp36
a(S'ScDoc'
p37
S'lijon'
p38
S'lijon/ScDoc'
p39
tp40
a(S'Unit-Lib'
p41
S'GameOfLife'
p42
S'GameOfLife/Unit-Lib'
p43
tp44
a(S'AlgoScore2'
p45
S'lijon'
p46
S'lijon/AlgoScore2'
p47
tp48
a(S'hadron'
p49
S'jamshark70'
p50
S'jamshark70/hadron'
p51
tp52
a(S'Utopia'
p53
S'muellmusik'
p54
S'muellmusik/Utopia'
p55
tp56
a(S'rt-spatialization'
p57
S'andresperezlopez'
p58
S'andresperezlopez/rt-spatialization'
p59
tp60
a(S'SuperDirt'
p61
S'musikinformatik'
p62
S'musikinformatik/SuperDirt'
p63
tp64
a(S'tiny-sc'
p65
S'iani'
p66
S'iani/tiny-sc'
p67
tp68
a(S'cbpsc'
p69
S'kitefishlabs'
p70
S'kitefishlabs/cbpsc'
p71
tp72
a(S'mztx06a'
p73
S'yaolet'
p74
S'yaolet/mztx06a'
p75
tp76
a(S'FPLib'
p77
S'miguel-negrao'
p78
S'miguel-negrao/FPLib'
p79
tp80
a(S'superfomus'
p81
S'smoge'
p82
S'smoge/superfomus'
p83
tp84
a(S'NanoKontrol.sc'
p85
S'jesusgollonet'
p86
S'jesusgollonet/NanoKontrol.sc'
p87
tp88
a(S'live-loop-tool'
p89
S'rfwatson'
p90
S'rfwatson/live-loop-tool'
p91
tp92
a(S'GenLoop'
p93
S'acarabott'
p94
S'acarabott/GenLoop'
p95
tp96
a(S'Hadron'
p97
S'earslap'
p98
S'earslap/Hadron'
p99
tp100
a(S'Skoarcery'
p101
S'sofakid'
p102
S'sofakid/Skoarcery'
p103
tp104
a(S'scprivatepool'
p105
S'rukano'
p106
S'rukano/scprivatepool'
p107
tp108
a(S'supercollider-tmbundle'
p109
S'rfwatson'
p110
S'rfwatson/supercollider-tmbundle'
p111
tp112
a(S'SCThings'
p113
S'earslap'
p114
S'earslap/SCThings'
p115
tp116
a(S'roundhouse-synth-design-course-2014'
p117
S'acarabott'
p118
S'acarabott/roundhouse-synth-design-course-2014'
p119
tp120
a(S'Modality-toolkit'
p121
S'ModalityTeam'
p122
S'ModalityTeam/Modality-toolkit'
p123
tp124
a(S'sunflow'
p125
S'fpsunflower'
p126
S'fpsunflower/sunflow'
p127
tp128
a(S'ixilang'
p129
S'thormagnusson'
p130
S'thormagnusson/ixilang'
p131
tp132
a(S'sndflo'
p133
S'jonnor'
p134
S'jonnor/sndflo'
p135
tp136
a(S'ScDoc'
p137
S'lijon'
p138
S'lijon/ScDoc'
p139
tp140
a(S'Unit-Lib'
p141
S'GameOfLife'
p142
S'GameOfLife/Unit-Lib'
p143
tp144
a(S'AlgoScore2'
p145
S'lijon'
p146
S'lijon/AlgoScore2'
p147
tp148
a(S'hadron'
p149
S'jamshark70'
p150
S'jamshark70/hadron'
p151
tp152
a(S'Utopia'
p153
S'muellmusik'
p154
S'muellmusik/Utopia'
p155
tp156
a(S'rt-spatialization'
p157
S'andresperezlopez'
p158
S'andresperezlopez/rt-spatialization'
p159
tp160
a(S'SuperDirt'
p161
S'musikinformatik'
p162
S'musikinformatik/SuperDirt'
p163
tp164
a(S'tiny-sc'
p165
S'iani'
p166
S'iani/tiny-sc'
p167
tp168
a(S'cbpsc'
p169
S'kitefishlabs'
p170
S'kitefishlabs/cbpsc'
p171
tp172
a(S'mztx06a'
p173
S'yaolet'
p174
S'yaolet/mztx06a'
p175
tp176
a(S'FPLib'
p177
S'miguel-negrao'
p178
S'miguel-negrao/FPLib'
p179
tp180
a(S'superfomus'
p181
S'smoge'
p182
S'smoge/superfomus'
p183
tp184
a(S'NanoKontrol.sc'
p185
S'jesusgollonet'
p186
S'jesusgollonet/NanoKontrol.sc'
p187
tp188
a(S'live-loop-tool'
p189
S'rfwatson'
p190
S'rfwatson/live-loop-tool'
p191
tp192
a(S'GenLoop'
p193
S'acarabott'
p194
S'acarabott/GenLoop'
p195
tp196
a(S'Hadron'
p197
S'earslap'
p198
S'earslap/Hadron'
p199
tp200
a(S'Skoarcery'
p201
S'sofakid'
p202
S'sofakid/Skoarcery'
p203
tp204
a(S'scprivatepool'
p205
S'rukano'
p206
S'rukano/scprivatepool'
p207
tp208
a(S'supercollider-tmbundle'
p209
S'rfwatson'
p210
S'rfwatson/supercollider-tmbundle'
p211
tp212
a(S'SCThings'
p213
S'earslap'
p214
S'earslap/SCThings'
p215
tp216
a(S'roundhouse-synth-design-course-2014'
p217
S'acarabott'
p218
S'acarabott/roundhouse-synth-design-course-2014'
p219
tp220
a(S'Modality-toolkit'
p221
S'ModalityTeam'
p222
S'ModalityTeam/Modality-toolkit'
p223
tp224
a(S'sunflow'
p225
S'fpsunflower'
p226
S'fpsunflower/sunflow'
p227
tp228
a(S'ixilang'
p229
S'thormagnusson'
p230
S'thormagnusson/ixilang'
p231
tp232
a(S'sndflo'
p233
S'jonnor'
p234
S'jonnor/sndflo'
p235
tp236
a(S'ScDoc'
p237
S'lijon'
p238
S'lijon/ScDoc'
p239
tp240
a(S'Unit-Lib'
p241
S'GameOfLife'
p242
S'GameOfLife/Unit-Lib'
p243
tp244
a(S'AlgoScore2'
p245
S'lijon'
p246
S'lijon/AlgoScore2'
p247
tp248
a(S'hadron'
p249
S'jamshark70'
p250
S'jamshark70/hadron'
p251
tp252
a(S'Utopia'
p253
S'muellmusik'
p254
S'muellmusik/Utopia'
p255
tp256
a(S'rt-spatialization'
p257
S'andresperezlopez'
p258
S'andresperezlopez/rt-spatialization'
p259
tp260
a(S'SuperDirt'
p261
S'musikinformatik'
p262
S'musikinformatik/SuperDirt'
p263
tp264
a(S'tiny-sc'
p265
S'iani'
p266
S'iani/tiny-sc'
p267
tp268
a(S'cbpsc'
p269
S'kitefishlabs'
p270
S'kitefishlabs/cbpsc'
p271
tp272
a(S'mztx06a'
p273
S'yaolet'
p274
S'yaolet/mztx06a'
p275
tp276
a(S'FPLib'
p277
S'miguel-negrao'
p278
S'miguel-negrao/FPLib'
p279
tp280
a(S'superfomus'
p281
S'smoge'
p282
S'smoge/superfomus'
p283
tp284
a(S'NanoKontrol.sc'
p285
S'jesusgollonet'
p286
S'jesusgollonet/NanoKontrol.sc'
p287
tp288
a(S'live-loop-tool'
p289
S'rfwatson'
p290
S'rfwatson/live-loop-tool'
p291
tp292
a(S'GenLoop'
p293
S'acarabott'
p294
S'acarabott/GenLoop'
p295
tp296
a(S'Hadron'
p297
S'earslap'
p298
S'earslap/Hadron'
p299
tp300
a.