(lp0
(S'StarWars.iOS'
p1
S'Yalantis'
p2
S'Yalantis/StarWars.iOS'
p3
tp4
a(S'DGElasticPullToRefresh'
p5
S'gontovnik'
p6
S'gontovnik/DGElasticPullToRefresh'
p7
tp8
a(S'Cereal'
p9
S'Weebly'
p10
S'Weebly/Cereal'
p11
tp12
a(S'Alamofire'
p13
S'Alamofire'
p14
S'Alamofire/Alamofire'
p15
tp16
a(S'Run'
p17
S'khoiln'
p18
S'khoiln/Run'
p19
tp20
a(S'Swift-Radio-Pro'
p21
S'swiftcodex'
p22
S'swiftcodex/Swift-Radio-Pro'
p23
tp24
a(S'Interstellar'
p25
S'JensRavens'
p26
S'JensRavens/Interstellar'
p27
tp28
a(S'TuningFork'
p29
S'comyarzaheri'
p30
S'comyarzaheri/TuningFork'
p31
tp32
a(S'Eureka'
p33
S'xmartlabs'
p34
S'xmartlabs/Eureka'
p35
tp36
a(S'Async'
p37
S'duemunk'
p38
S'duemunk/Async'
p39
tp40
a(S'SwiftyJSON'
p41
S'SwiftyJSON'
p42
S'SwiftyJSON/SwiftyJSON'
p43
tp44
a(S'LeetCode-Solutions-in-Swift'
p45
S'diwu'
p46
S'diwu/LeetCode-Solutions-in-Swift'
p47
tp48
a(S'producter-book-examples'
p49
S'ProducterTips'
p50
S'ProducterTips/producter-book-examples'
p51
tp52
a(S'CVCalendar'
p53
S'Mozharovsky'
p54
S'Mozharovsky/CVCalendar'
p55
tp56
a(S'RxSwift'
p57
S'ReactiveX'
p58
S'ReactiveX/RxSwift'
p59
tp60
a(S'ViewMonitor'
p61
S'daisuke0131'
p62
S'daisuke0131/ViewMonitor'
p63
tp64
a(S'Reachability.swift'
p65
S'ashleymills'
p66
S'ashleymills/Reachability.swift'
p67
tp68
a(S'ios-charts'
p69
S'danielgindi'
p70
S'danielgindi/ios-charts'
p71
tp72
a(S'CardKit'
p73
S'kylef'
p74
S'kylef/CardKit'
p75
tp76
a(S'PermissionScope'
p77
S'nickoneill'
p78
S'nickoneill/PermissionScope'
p79
tp80
a(S'animated-tab-bar'
p81
S'Ramotion'
p82
S'Ramotion/animated-tab-bar'
p83
tp84
a(S'Carthage'
p85
S'Carthage'
p86
S'Carthage/Carthage'
p87
tp88
a(S'LiquidFloatingActionButton'
p89
S'yoavlt'
p90
S'yoavlt/LiquidFloatingActionButton'
p91
tp92
a(S'realm-cocoa'
p93
S'realm'
p94
S'realm/realm-cocoa'
p95
tp96
a(S'PromiseKit'
p97
S'mxcl'
p98
S'mxcl/PromiseKit'
p99
tp100
a(S'StarWars.iOS'
p101
S'Yalantis'
p102
S'Yalantis/StarWars.iOS'
p103
tp104
a(S'DGElasticPullToRefresh'
p105
S'gontovnik'
p106
S'gontovnik/DGElasticPullToRefresh'
p107
tp108
a(S'Eureka'
p109
S'xmartlabs'
p110
S'xmartlabs/Eureka'
p111
tp112
a(S'CVCalendar'
p113
S'Mozharovsky'
p114
S'Mozharovsky/CVCalendar'
p115
tp116
a(S'LeetCode-Solutions-in-Swift'
p117
S'diwu'
p118
S'diwu/LeetCode-Solutions-in-Swift'
p119
tp120
a(S'Alamofire'
p121
S'Alamofire'
p122
S'Alamofire/Alamofire'
p123
tp124
a(S'PermissionScope'
p125
S'nickoneill'
p126
S'nickoneill/PermissionScope'
p127
tp128
a(S'ViewMonitor'
p129
S'daisuke0131'
p130
S'daisuke0131/ViewMonitor'
p131
tp132
a(S'Cereal'
p133
S'Weebly'
p134
S'Weebly/Cereal'
p135
tp136
a(S'ios-charts'
p137
S'danielgindi'
p138
S'danielgindi/ios-charts'
p139
tp140
a(S'SwiftyJSON'
p141
S'SwiftyJSON'
p142
S'SwiftyJSON/SwiftyJSON'
p143
tp144
a(S'RxSwift'
p145
S'ReactiveX'
p146
S'ReactiveX/RxSwift'
p147
tp148
a(S'EasyAnimation'
p149
S'icanzilb'
p150
S'icanzilb/EasyAnimation'
p151
tp152
a(S'Reachability.swift'
p153
S'ashleymills'
p154
S'ashleymills/Reachability.swift'
p155
tp156
a(S'Swift-Radio-Pro'
p157
S'swiftcodex'
p158
S'swiftcodex/Swift-Radio-Pro'
p159
tp160
a(S'CardAnimation'
p161
S'seedante'
p162
S'seedante/CardAnimation'
p163
tp164
a(S'PathKit'
p165
S'kylef'
p166
S'kylef/PathKit'
p167
tp168
a(S'producter-book-examples'
p169
S'ProducterTips'
p170
S'ProducterTips/producter-book-examples'
p171
tp172
a(S'Carthage'
p173
S'Carthage'
p174
S'Carthage/Carthage'
p175
tp176
a(S'Interstellar'
p177
S'JensRavens'
p178
S'JensRavens/Interstellar'
p179
tp180
a(S'Async'
p181
S'duemunk'
p182
S'duemunk/Async'
p183
tp184
a(S'LiquidFloatingActionButton'
p185
S'yoavlt'
p186
S'yoavlt/LiquidFloatingActionButton'
p187
tp188
a(S'iOS-9-Sampler'
p189
S'shu223'
p190
S'shu223/iOS-9-Sampler'
p191
tp192
a(S'MonkeyKing'
p193
S'nixzhu'
p194
S'nixzhu/MonkeyKing'
p195
tp196
a(S'realm-cocoa'
p197
S'realm'
p198
S'realm/realm-cocoa'
p199
tp200
a(S'Eureka'
p201
S'xmartlabs'
p202
S'xmartlabs/Eureka'
p203
tp204
a(S'iOS-9-Sampler'
p205
S'shu223'
p206
S'shu223/iOS-9-Sampler'
p207
tp208
a(S'Swift-Radio-Pro'
p209
S'swiftcodex'
p210
S'swiftcodex/Swift-Radio-Pro'
p211
tp212
a(S'StarWars.iOS'
p213
S'Yalantis'
p214
S'Yalantis/StarWars.iOS'
p215
tp216
a(S'Async'
p217
S'duemunk'
p218
S'duemunk/Async'
p219
tp220
a(S'Alamofire'
p221
S'Alamofire'
p222
S'Alamofire/Alamofire'
p223
tp224
a(S'BluetoothKit'
p225
S'rasmusth'
p226
S'rasmusth/BluetoothKit'
p227
tp228
a(S'Venice'
p229
S'Zewo'
p230
S'Zewo/Venice'
p231
tp232
a(S'DGElasticPullToRefresh'
p233
S'gontovnik'
p234
S'gontovnik/DGElasticPullToRefresh'
p235
tp236
a(S'SwiftyJSON'
p237
S'SwiftyJSON'
p238
S'SwiftyJSON/SwiftyJSON'
p239
tp240
a(S'ios-charts'
p241
S'danielgindi'
p242
S'danielgindi/ios-charts'
p243
tp244
a(S'LiquidFloatingActionButton'
p245
S'yoavlt'
p246
S'yoavlt/LiquidFloatingActionButton'
p247
tp248
a(S'RxSwift'
p249
S'ReactiveX'
p250
S'ReactiveX/RxSwift'
p251
tp252
a(S'ViewMonitor'
p253
S'daisuke0131'
p254
S'daisuke0131/ViewMonitor'
p255
tp256
a(S'Nuke'
p257
S'kean'
p258
S'kean/Nuke'
p259
tp260
a(S'Reachability.swift'
p261
S'ashleymills'
p262
S'ashleymills/Reachability.swift'
p263
tp264
a(S'CVCalendar'
p265
S'Mozharovsky'
p266
S'Mozharovsky/CVCalendar'
p267
tp268
a(S'CardAnimation'
p269
S'seedante'
p270
S'seedante/CardAnimation'
p271
tp272
a(S'Carthage'
p273
S'Carthage'
p274
S'Carthage/Carthage'
p275
tp276
a(S'Pitaya'
p277
S'johnlui'
p278
S'johnlui/Pitaya'
p279
tp280
a(S'realm-cocoa'
p281
S'realm'
p282
S'realm/realm-cocoa'
p283
tp284
a(S'SwiftGen'
p285
S'AliSoftware'
p286
S'AliSoftware/SwiftGen'
p287
tp288
a(S'PermissionScope'
p289
S'nickoneill'
p290
S'nickoneill/PermissionScope'
p291
tp292
a(S'JSONNeverDie'
p293
S'johnlui'
p294
S'johnlui/JSONNeverDie'
p295
tp296
a(S'SwiftRandom'
p297
S'thellimist'
p298
S'thellimist/SwiftRandom'
p299
tp300
a.