(lp0
(S'pindel'
p1
S'genome'
p2
S'genome/pindel'
p3
tp4
a(S'uvmprimer'
p5
S'rdsalemi'
p6
S'rdsalemi/uvmprimer'
p7
tp8
a(S'SystemVerilogReference'
p9
S'VerificationExcellence'
p10
S'VerificationExcellence/SystemVerilogReference'
p11
tp12
a(S'zynq-sandbox'
p13
S'swetland'
p14
S'swetland/zynq-sandbox'
p15
tp16
a(S'openhmc'
p17
S'unihd-cag'
p18
S'unihd-cag/openhmc'
p19
tp20
a(S'SystemVerilogAssertions'
p21
S'VerificationExcellence'
p22
S'VerificationExcellence/SystemVerilogAssertions'
p23
tp24
a(S'uvm-utest'
p25
S'nosnhojn'
p26
S'nosnhojn/uvm-utest'
p27
tp28
a(S'UVMReference'
p29
S'VerificationExcellence'
p30
S'VerificationExcellence/UVMReference'
p31
tp32
a(S'AES'
p33
S'cjdrake'
p34
S'cjdrake/AES'
p35
tp36
a(S'svaunit'
p37
S'amiq-consulting'
p38
S'amiq-consulting/svaunit'
p39
tp40
a(S'amiq_apb'
p41
S'amiq-consulting'
p42
S'amiq-consulting/amiq_apb'
p43
tp44
a(S'NetEmulation'
p45
S'UCLONG'
p46
S'UCLONG/NetEmulation'
p47
tp48
a(S'uvm_agents'
p49
S'dovstamler'
p50
S'dovstamler/uvm_agents'
p51
tp52
a(S'system-verilog-patterns'
p53
S'luuvish'
p54
S'luuvish/system-verilog-patterns'
p55
tp56
a(S'rp8'
p57
S'jeras'
p58
S'jeras/rp8'
p59
tp60
a(S'silver'
p61
S'melt-umn'
p62
S'melt-umn/silver'
p63
tp64
a(S'ece337project'
p65
S'iDFLO'
p66
S'iDFLO/ece337project'
p67
tp68
a(S'svsc'
p69
S'ljepson74'
p70
S'ljepson74/svsc'
p71
tp72
a(S'amiq_eth'
p73
S'amiq-consulting'
p74
S'amiq-consulting/amiq_eth'
p75
tp76
a(S'SOC'
p77
S'kouamano'
p78
S'kouamano/SOC'
p79
tp80
a(S'i2c_master_slave_core'
p81
S'freecores'
p82
S'freecores/i2c_master_slave_core'
p83
tp84
a(S'musk'
p85
S'arunov'
p86
S'arunov/musk'
p87
tp88
a(S'DaltonizationASIC'
p89
S'purdoo'
p90
S'purdoo/DaltonizationASIC'
p91
tp92
a(S'fpga_functions'
p93
S'rdustinb'
p94
S'rdustinb/fpga_functions'
p95
tp96
a(S'asic-edge-detector'
p97
S'sidharthms'
p98
S'sidharthms/asic-edge-detector'
p99
tp100
a(S'pindel'
p101
S'genome'
p102
S'genome/pindel'
p103
tp104
a(S'uvmprimer'
p105
S'rdsalemi'
p106
S'rdsalemi/uvmprimer'
p107
tp108
a(S'SystemVerilogReference'
p109
S'VerificationExcellence'
p110
S'VerificationExcellence/SystemVerilogReference'
p111
tp112
a(S'zynq-sandbox'
p113
S'swetland'
p114
S'swetland/zynq-sandbox'
p115
tp116
a(S'openhmc'
p117
S'unihd-cag'
p118
S'unihd-cag/openhmc'
p119
tp120
a(S'SystemVerilogAssertions'
p121
S'VerificationExcellence'
p122
S'VerificationExcellence/SystemVerilogAssertions'
p123
tp124
a(S'uvm-utest'
p125
S'nosnhojn'
p126
S'nosnhojn/uvm-utest'
p127
tp128
a(S'UVMReference'
p129
S'VerificationExcellence'
p130
S'VerificationExcellence/UVMReference'
p131
tp132
a(S'AES'
p133
S'cjdrake'
p134
S'cjdrake/AES'
p135
tp136
a(S'svaunit'
p137
S'amiq-consulting'
p138
S'amiq-consulting/svaunit'
p139
tp140
a(S'amiq_apb'
p141
S'amiq-consulting'
p142
S'amiq-consulting/amiq_apb'
p143
tp144
a(S'NetEmulation'
p145
S'UCLONG'
p146
S'UCLONG/NetEmulation'
p147
tp148
a(S'uvm_agents'
p149
S'dovstamler'
p150
S'dovstamler/uvm_agents'
p151
tp152
a(S'system-verilog-patterns'
p153
S'luuvish'
p154
S'luuvish/system-verilog-patterns'
p155
tp156
a(S'rp8'
p157
S'jeras'
p158
S'jeras/rp8'
p159
tp160
a(S'silver'
p161
S'melt-umn'
p162
S'melt-umn/silver'
p163
tp164
a(S'ece337project'
p165
S'iDFLO'
p166
S'iDFLO/ece337project'
p167
tp168
a(S'svsc'
p169
S'ljepson74'
p170
S'ljepson74/svsc'
p171
tp172
a(S'amiq_eth'
p173
S'amiq-consulting'
p174
S'amiq-consulting/amiq_eth'
p175
tp176
a(S'SOC'
p177
S'kouamano'
p178
S'kouamano/SOC'
p179
tp180
a(S'i2c_master_slave_core'
p181
S'freecores'
p182
S'freecores/i2c_master_slave_core'
p183
tp184
a(S'musk'
p185
S'arunov'
p186
S'arunov/musk'
p187
tp188
a(S'DaltonizationASIC'
p189
S'purdoo'
p190
S'purdoo/DaltonizationASIC'
p191
tp192
a(S'fpga_functions'
p193
S'rdustinb'
p194
S'rdustinb/fpga_functions'
p195
tp196
a(S'asic-edge-detector'
p197
S'sidharthms'
p198
S'sidharthms/asic-edge-detector'
p199
tp200
a(S'pindel'
p201
S'genome'
p202
S'genome/pindel'
p203
tp204
a(S'uvmprimer'
p205
S'rdsalemi'
p206
S'rdsalemi/uvmprimer'
p207
tp208
a(S'SystemVerilogReference'
p209
S'VerificationExcellence'
p210
S'VerificationExcellence/SystemVerilogReference'
p211
tp212
a(S'zynq-sandbox'
p213
S'swetland'
p214
S'swetland/zynq-sandbox'
p215
tp216
a(S'openhmc'
p217
S'unihd-cag'
p218
S'unihd-cag/openhmc'
p219
tp220
a(S'SystemVerilogAssertions'
p221
S'VerificationExcellence'
p222
S'VerificationExcellence/SystemVerilogAssertions'
p223
tp224
a(S'uvm-utest'
p225
S'nosnhojn'
p226
S'nosnhojn/uvm-utest'
p227
tp228
a(S'UVMReference'
p229
S'VerificationExcellence'
p230
S'VerificationExcellence/UVMReference'
p231
tp232
a(S'AES'
p233
S'cjdrake'
p234
S'cjdrake/AES'
p235
tp236
a(S'svaunit'
p237
S'amiq-consulting'
p238
S'amiq-consulting/svaunit'
p239
tp240
a(S'amiq_apb'
p241
S'amiq-consulting'
p242
S'amiq-consulting/amiq_apb'
p243
tp244
a(S'NetEmulation'
p245
S'UCLONG'
p246
S'UCLONG/NetEmulation'
p247
tp248
a(S'uvm_agents'
p249
S'dovstamler'
p250
S'dovstamler/uvm_agents'
p251
tp252
a(S'system-verilog-patterns'
p253
S'luuvish'
p254
S'luuvish/system-verilog-patterns'
p255
tp256
a(S'rp8'
p257
S'jeras'
p258
S'jeras/rp8'
p259
tp260
a(S'silver'
p261
S'melt-umn'
p262
S'melt-umn/silver'
p263
tp264
a(S'ece337project'
p265
S'iDFLO'
p266
S'iDFLO/ece337project'
p267
tp268
a(S'svsc'
p269
S'ljepson74'
p270
S'ljepson74/svsc'
p271
tp272
a(S'amiq_eth'
p273
S'amiq-consulting'
p274
S'amiq-consulting/amiq_eth'
p275
tp276
a(S'SOC'
p277
S'kouamano'
p278
S'kouamano/SOC'
p279
tp280
a(S'i2c_master_slave_core'
p281
S'freecores'
p282
S'freecores/i2c_master_slave_core'
p283
tp284
a(S'musk'
p285
S'arunov'
p286
S'arunov/musk'
p287
tp288
a(S'DaltonizationASIC'
p289
S'purdoo'
p290
S'purdoo/DaltonizationASIC'
p291
tp292
a(S'fpga_functions'
p293
S'rdustinb'
p294
S'rdustinb/fpga_functions'
p295
tp296
a(S'asic-edge-detector'
p297
S'sidharthms'
p298
S'sidharthms/asic-edge-detector'
p299
tp300
a.