(lp0
(S'gorilla'
p1
S'zdia'
p2
S'zdia/gorilla'
p3
tp4
a(S'sqawk'
p5
S'dbohdan'
p6
S'dbohdan/sqawk'
p7
tp8
a(S'mosquito'
p9
S'koto'
p10
S'koto/mosquito'
p11
tp12
a(S'PythonTurtle'
p13
S'cool-RR'
p14
S'cool-RR/PythonTurtle'
p15
tp16
a(S'ruby-redis'
p17
S'AE9RB'
p18
S'AE9RB/ruby-redis'
p19
tp20
a(S'machinery'
p21
S'efrecon'
p22
S'efrecon/machinery'
p23
tp24
a(S'Bigdis'
p25
S'antirez'
p26
S'antirez/Bigdis'
p27
tp28
a(S'imunes'
p29
S'imunes'
p30
S'imunes/imunes'
p31
tp32
a(S'piaware'
p33
S'flightaware'
p34
S'flightaware/piaware'
p35
tp36
a(S'logpress-tornado'
p37
S'dengmin'
p38
S'dengmin/logpress-tornado'
p39
tp40
a(S'slingshotSMS'
p41
S'developmentseed'
p42
S'developmentseed/slingshotSMS'
p43
tp44
a(S'sguil'
p45
S'bammv'
p46
S'bammv/sguil'
p47
tp48
a(S'webdot'
p49
S'ellson'
p50
S'ellson/webdot'
p51
tp52
a(S'journal2ebook'
p53
S'adasilva'
p54
S'adasilva/journal2ebook'
p55
tp56
a(S'9p-rfc'
p57
S'ericvh'
p58
S'ericvh/9p-rfc'
p59
tp60
a(S'partitions'
p61
S'antirez'
p62
S'antirez/partitions'
p63
tp64
a(S'XilinxTclStore'
p65
S'Xilinx'
p66
S'Xilinx/XilinxTclStore'
p67
tp68
a(S'icons'
p69
S'exherb'
p70
S'exherb/icons'
p71
tp72
a(S'twitter-tcl'
p73
S'horgh'
p74
S'horgh/twitter-tcl'
p75
tp76
a(S'bmotion'
p77
S'jamesoff'
p78
S'jamesoff/bmotion'
p79
tp80
a(S'DigisparkExamplePrograms'
p81
S'digistump'
p82
S'digistump/DigisparkExamplePrograms'
p83
tp84
a(S'tcllib'
p85
S'tcltk'
p86
S'tcltk/tcllib'
p87
tp88
a(S'drakon_editor'
p89
S'stepan-mitkin'
p90
S'stepan-mitkin/drakon_editor'
p91
tp92
a(S'installjammer'
p93
S'damoncourtney'
p94
S'damoncourtney/installjammer'
p95
tp96
a(S'tsp'
p97
S'tpoindex'
p98
S'tpoindex/tsp'
p99
tp100
a(S'XilinxTclStore'
p101
S'Xilinx'
p102
S'Xilinx/XilinxTclStore'
p103
tp104
a(S'twitter-tcl'
p105
S'horgh'
p106
S'horgh/twitter-tcl'
p107
tp108
a(S'gorilla'
p109
S'zdia'
p110
S'zdia/gorilla'
p111
tp112
a(S'sqawk'
p113
S'dbohdan'
p114
S'dbohdan/sqawk'
p115
tp116
a(S'mosquito'
p117
S'koto'
p118
S'koto/mosquito'
p119
tp120
a(S'PythonTurtle'
p121
S'cool-RR'
p122
S'cool-RR/PythonTurtle'
p123
tp124
a(S'ruby-redis'
p125
S'AE9RB'
p126
S'AE9RB/ruby-redis'
p127
tp128
a(S'machinery'
p129
S'efrecon'
p130
S'efrecon/machinery'
p131
tp132
a(S'Bigdis'
p133
S'antirez'
p134
S'antirez/Bigdis'
p135
tp136
a(S'piaware'
p137
S'flightaware'
p138
S'flightaware/piaware'
p139
tp140
a(S'imunes'
p141
S'imunes'
p142
S'imunes/imunes'
p143
tp144
a(S'logpress-tornado'
p145
S'dengmin'
p146
S'dengmin/logpress-tornado'
p147
tp148
a(S'slingshotSMS'
p149
S'developmentseed'
p150
S'developmentseed/slingshotSMS'
p151
tp152
a(S'sguil'
p153
S'bammv'
p154
S'bammv/sguil'
p155
tp156
a(S'webdot'
p157
S'ellson'
p158
S'ellson/webdot'
p159
tp160
a(S'9p-rfc'
p161
S'ericvh'
p162
S'ericvh/9p-rfc'
p163
tp164
a(S'journal2ebook'
p165
S'adasilva'
p166
S'adasilva/journal2ebook'
p167
tp168
a(S'partitions'
p169
S'antirez'
p170
S'antirez/partitions'
p171
tp172
a(S'icons'
p173
S'exherb'
p174
S'exherb/icons'
p175
tp176
a(S'bmotion'
p177
S'jamesoff'
p178
S'jamesoff/bmotion'
p179
tp180
a(S'DigisparkExamplePrograms'
p181
S'digistump'
p182
S'digistump/DigisparkExamplePrograms'
p183
tp184
a(S'drakon_editor'
p185
S'stepan-mitkin'
p186
S'stepan-mitkin/drakon_editor'
p187
tp188
a(S'tcllib'
p189
S'tcltk'
p190
S'tcltk/tcllib'
p191
tp192
a(S'installjammer'
p193
S'damoncourtney'
p194
S'damoncourtney/installjammer'
p195
tp196
a(S'tsp'
p197
S'tpoindex'
p198
S'tpoindex/tsp'
p199
tp200
a(S'imunes'
p201
S'imunes'
p202
S'imunes/imunes'
p203
tp204
a(S'gorilla'
p205
S'zdia'
p206
S'zdia/gorilla'
p207
tp208
a(S'sqawk'
p209
S'dbohdan'
p210
S'dbohdan/sqawk'
p211
tp212
a(S'mosquito'
p213
S'koto'
p214
S'koto/mosquito'
p215
tp216
a(S'PythonTurtle'
p217
S'cool-RR'
p218
S'cool-RR/PythonTurtle'
p219
tp220
a(S'ruby-redis'
p221
S'AE9RB'
p222
S'AE9RB/ruby-redis'
p223
tp224
a(S'machinery'
p225
S'efrecon'
p226
S'efrecon/machinery'
p227
tp228
a(S'Bigdis'
p229
S'antirez'
p230
S'antirez/Bigdis'
p231
tp232
a(S'piaware'
p233
S'flightaware'
p234
S'flightaware/piaware'
p235
tp236
a(S'logpress-tornado'
p237
S'dengmin'
p238
S'dengmin/logpress-tornado'
p239
tp240
a(S'slingshotSMS'
p241
S'developmentseed'
p242
S'developmentseed/slingshotSMS'
p243
tp244
a(S'sguil'
p245
S'bammv'
p246
S'bammv/sguil'
p247
tp248
a(S'webdot'
p249
S'ellson'
p250
S'ellson/webdot'
p251
tp252
a(S'9p-rfc'
p253
S'ericvh'
p254
S'ericvh/9p-rfc'
p255
tp256
a(S'journal2ebook'
p257
S'adasilva'
p258
S'adasilva/journal2ebook'
p259
tp260
a(S'partitions'
p261
S'antirez'
p262
S'antirez/partitions'
p263
tp264
a(S'XilinxTclStore'
p265
S'Xilinx'
p266
S'Xilinx/XilinxTclStore'
p267
tp268
a(S'icons'
p269
S'exherb'
p270
S'exherb/icons'
p271
tp272
a(S'twitter-tcl'
p273
S'horgh'
p274
S'horgh/twitter-tcl'
p275
tp276
a(S'bmotion'
p277
S'jamesoff'
p278
S'jamesoff/bmotion'
p279
tp280
a(S'DigisparkExamplePrograms'
p281
S'digistump'
p282
S'digistump/DigisparkExamplePrograms'
p283
tp284
a(S'tcllib'
p285
S'tcltk'
p286
S'tcltk/tcllib'
p287
tp288
a(S'drakon_editor'
p289
S'stepan-mitkin'
p290
S'stepan-mitkin/drakon_editor'
p291
tp292
a(S'installjammer'
p293
S'damoncourtney'
p294
S'damoncourtney/installjammer'
p295
tp296
a(S'tsp'
p297
S'tpoindex'
p298
S'tpoindex/tsp'
p299
tp300
a.