(lp0
(S'datateknik-lth'
p1
S'datateknik-lth'
p2
S'datateknik-lth/datateknik-lth'
p3
tp4
a(S'RE-for-beginners'
p5
S'dennis714'
p6
S'dennis714/RE-for-beginners'
p7
tp8
a(S'leetcode'
p9
S'soulmachine'
p10
S'soulmachine/leetcode'
p11
tp12
a(S'AlgoXY'
p13
S'liuxinyu95'
p14
S'liuxinyu95/AlgoXY'
p15
tp16
a(S'draft'
p17
S'cplusplus'
p18
S'cplusplus/draft'
p19
tp20
a(S'CleverAlgorithms'
p21
S'jbrownlee'
p22
S'jbrownlee/CleverAlgorithms'
p23
tp24
a(S'book'
p25
S'crypto101'
p26
S'crypto101/book'
p27
tp28
a(S'the-little-mongodb-book'
p29
S'karlseguin'
p30
S'karlseguin/the-little-mongodb-book'
p31
tp32
a(S'book'
p33
S'HoTT'
p34
S'HoTT/book'
p35
tp36
a(S'scientific-python-lectures'
p37
S'jrjohansson'
p38
S'jrjohansson/scientific-python-lectures'
p39
tp40
a(S'machine-learning-cheat-sheet'
p41
S'soulmachine'
p42
S'soulmachine/machine-learning-cheat-sheet'
p43
tp44
a(S'sicp'
p45
S'ieure'
p46
S'ieure/sicp'
p47
tp48
a(S'the-little-redis-book'
p49
S'karlseguin'
p50
S'karlseguin/the-little-redis-book'
p51
tp52
a(S'Learning-Go-zh-cn'
p53
S'mikespook'
p54
S'mikespook/Learning-Go-zh-cn'
p55
tp56
a(S'texlive.js'
p57
S'manuels'
p58
S'manuels/texlive.js'
p59
tp60
a(S'redisbook'
p61
S'huangz1990'
p62
S'huangz1990/redisbook'
p63
tp64
a(S'gobook'
p65
S'miekg'
p66
S'miekg/gobook'
p67
tp68
a(S'mtheme'
p69
S'matze'
p70
S'matze/mtheme'
p71
tp72
a(S'Deedy-Resume'
p73
S'deedydas'
p74
S'deedydas/Deedy-Resume'
p75
tp76
a(S'magicmethods'
p77
S'RafeKettler'
p78
S'RafeKettler/magicmethods'
p79
tp80
a(S'acm-cheat-sheet'
p81
S'soulmachine'
p82
S'soulmachine/acm-cheat-sheet'
p83
tp84
a(S'opencompute'
p85
S'facebookarchive'
p86
S'facebookarchive/opencompute'
p87
tp88
a(S'adv-r'
p89
S'hadley'
p90
S'hadley/adv-r'
p91
tp92
a(S'cleanthesis'
p93
S'derric'
p94
S'derric/cleanthesis'
p95
tp96
a(S'emcee'
p97
S'dfm'
p98
S'dfm/emcee'
p99
tp100
a(S'Algo-Quicksheet'
p101
S'algorhythms'
p102
S'algorhythms/Algo-Quicksheet'
p103
tp104
a(S'mythryl'
p105
S'mythryl'
p106
S'mythryl/mythryl'
p107
tp108
a(S'mtheme'
p109
S'matze'
p110
S'matze/mtheme'
p111
tp112
a(S'the-little-go-book'
p113
S'karlseguin'
p114
S'karlseguin/the-little-go-book'
p115
tp116
a(S'draft'
p117
S'cplusplus'
p118
S'cplusplus/draft'
p119
tp120
a(S'bnfc'
p121
S'BNFC'
p122
S'BNFC/bnfc'
p123
tp124
a(S'datateknik-lth'
p125
S'datateknik-lth'
p126
S'datateknik-lth/datateknik-lth'
p127
tp128
a(S'kjh-vita'
p129
S'kjhealy'
p130
S'kjhealy/kjh-vita'
p131
tp132
a(S'julialang.github.com'
p133
S'JuliaLang'
p134
S'JuliaLang/julialang.github.com'
p135
tp136
a(S'openintro-statistics'
p137
S'OpenIntroOrg'
p138
S'OpenIntroOrg/openintro-statistics'
p139
tp140
a(S'Constitution'
p141
S'ComputerScienceHouse'
p142
S'ComputerScienceHouse/Constitution'
p143
tp144
a(S'RE-for-beginners'
p145
S'dennis714'
p146
S'dennis714/RE-for-beginners'
p147
tp148
a(S'leetcode'
p149
S'soulmachine'
p150
S'soulmachine/leetcode'
p151
tp152
a(S'AlgoXY'
p153
S'liuxinyu95'
p154
S'liuxinyu95/AlgoXY'
p155
tp156
a(S'CleverAlgorithms'
p157
S'jbrownlee'
p158
S'jbrownlee/CleverAlgorithms'
p159
tp160
a(S'book'
p161
S'crypto101'
p162
S'crypto101/book'
p163
tp164
a(S'the-little-mongodb-book'
p165
S'karlseguin'
p166
S'karlseguin/the-little-mongodb-book'
p167
tp168
a(S'book'
p169
S'HoTT'
p170
S'HoTT/book'
p171
tp172
a(S'scientific-python-lectures'
p173
S'jrjohansson'
p174
S'jrjohansson/scientific-python-lectures'
p175
tp176
a(S'machine-learning-cheat-sheet'
p177
S'soulmachine'
p178
S'soulmachine/machine-learning-cheat-sheet'
p179
tp180
a(S'sicp'
p181
S'ieure'
p182
S'ieure/sicp'
p183
tp184
a(S'the-little-redis-book'
p185
S'karlseguin'
p186
S'karlseguin/the-little-redis-book'
p187
tp188
a(S'Learning-Go-zh-cn'
p189
S'mikespook'
p190
S'mikespook/Learning-Go-zh-cn'
p191
tp192
a(S'texlive.js'
p193
S'manuels'
p194
S'manuels/texlive.js'
p195
tp196
a(S'redisbook'
p197
S'huangz1990'
p198
S'huangz1990/redisbook'
p199
tp200
a(S'Algo-Quicksheet'
p201
S'algorhythms'
p202
S'algorhythms/Algo-Quicksheet'
p203
tp204
a(S'mtheme'
p205
S'matze'
p206
S'matze/mtheme'
p207
tp208
a(S'AlgoXY'
p209
S'liuxinyu95'
p210
S'liuxinyu95/AlgoXY'
p211
tp212
a(S'pandoc-academic-publication'
p213
S'claymcleod'
p214
S'claymcleod/pandoc-academic-publication'
p215
tp216
a(S'probability_cheatsheet'
p217
S'wzchen'
p218
S'wzchen/probability_cheatsheet'
p219
tp220
a(S'draft'
p221
S'cplusplus'
p222
S'cplusplus/draft'
p223
tp224
a(S'mythryl'
p225
S'mythryl'
p226
S'mythryl/mythryl'
p227
tp228
a(S'adv-r'
p229
S'hadley'
p230
S'hadley/adv-r'
p231
tp232
a(S'the-little-go-book'
p233
S'karlseguin'
p234
S'karlseguin/the-little-go-book'
p235
tp236
a(S'Parallel-Computing-Javascript'
p237
S'cstipkovic'
p238
S'cstipkovic/Parallel-Computing-Javascript'
p239
tp240
a(S'emcee'
p241
S'dfm'
p242
S'dfm/emcee'
p243
tp244
a(S'ciml'
p245
S'hal3'
p246
S'hal3/ciml'
p247
tp248
a(S'book'
p249
S'GoBootcamp'
p250
S'GoBootcamp/book'
p251
tp252
a(S'latex-homework'
p253
S'artemmavrin'
p254
S'artemmavrin/latex-homework'
p255
tp256
a(S'kjh-vita'
p257
S'kjhealy'
p258
S'kjhealy/kjh-vita'
p259
tp260
a(S'stat-cookbook'
p261
S'mavam'
p262
S'mavam/stat-cookbook'
p263
tp264
a(S'Text'
p265
S'Tox-Docs'
p266
S'Tox-Docs/Text'
p267
tp268
a(S'Applied-Crypto-Hardening'
p269
S'BetterCrypto'
p270
S'BetterCrypto/Applied-Crypto-Hardening'
p271
tp272
a(S'biblatex'
p273
S'plk'
p274
S'plk/biblatex'
p275
tp276
a(S'Labs'
p277
S'Foundations-of-Applied-Mathematics'
p278
S'Foundations-of-Applied-Mathematics/Labs'
p279
tp280
a(S'maths-with-python'
p281
S'IanHawke'
p282
S'IanHawke/maths-with-python'
p283
tp284
a(S'trema-book'
p285
S'yasuhito'
p286
S'yasuhito/trema-book'
p287
tp288
a(S'RE-for-beginners'
p289
S'dennis714'
p290
S'dennis714/RE-for-beginners'
p291
tp292
a(S'leetcode'
p293
S'soulmachine'
p294
S'soulmachine/leetcode'
p295
tp296
a(S'CleverAlgorithms'
p297
S'jbrownlee'
p298
S'jbrownlee/CleverAlgorithms'
p299
tp300
a.