(lp0
(S'tchannel'
p1
S'uber'
p2
S'uber/tchannel'
p3
tp4
a(S'herringbone'
p5
S'stripe'
p6
S'stripe/herringbone'
p7
tp8
a(S'thrift-missing-guide'
p9
S'diwakergupta'
p10
S'diwakergupta/thrift-missing-guide'
p11
tp12
a(S'LINE-instant-messenger-protocol'
p13
S'cslinmiso'
p14
S'cslinmiso/LINE-instant-messenger-protocol'
p15
tp16
a(S'impala-java-client'
p17
S'pauldeschacht'
p18
S'pauldeschacht/impala-java-client'
p19
tp20
a(S'concrete'
p21
S'hltcoe'
p22
S'hltcoe/concrete'
p23
tp24
a(S'galaxy-thrift-api'
p25
S'XiaoMi'
p26
S'XiaoMi/galaxy-thrift-api'
p27
tp28
a(S'scribe-go'
p29
S'cloudaice'
p30
S'cloudaice/scribe-go'
p31
tp32
a(S'impalathing'
p33
S'koblas'
p34
S'koblas/impalathing'
p35
tp36
a(S'ezbake-thrift'
p37
S'ezbake'
p38
S'ezbake/ezbake-thrift'
p39
tp40
a(S'LineProtocol'
p41
S'NitroXenon'
p42
S'NitroXenon/LineProtocol'
p43
tp44
a(S'gidl'
p45
S'gidl'
p46
S'gidl/gidl'
p47
tp48
a(S'humbug'
p49
S'CommBank'
p50
S'CommBank/humbug'
p51
tp52
a(S'boost.app.cmake'
p53
S'snikulov'
p54
S'snikulov/boost.app.cmake'
p55
tp56
a(S'nerf-multiservice'
p57
S'kawu'
p58
S'kawu/nerf-multiservice'
p59
tp60
a(S'scribe_client'
p61
S'soprea'
p62
S'soprea/scribe_client'
p63
tp64
a(S'thrift-learn'
p65
S'heimonsy'
p66
S'heimonsy/thrift-learn'
p67
tp68
a(S'EmpowerByDistribution'
p69
S'DReckoning'
p70
S'DReckoning/EmpowerByDistribution'
p71
tp72
a(S'line-protocol'
p73
S'marlboromoo'
p74
S'marlboromoo/line-protocol'
p75
tp76
a(S'thrift-demo'
p77
S'zhuangya'
p78
S'zhuangya/thrift-demo'
p79
tp80
a(S'skywalker.thrift'
p81
S'iPlantCollaborativeOpenSource'
p82
S'iPlantCollaborativeOpenSource/skywalker.thrift'
p83
tp84
a(S'rtm'
p85
S'funkygao'
p86
S'funkygao/rtm'
p87
tp88
a(S'elf'
p89
S'361302747'
p90
S'361302747/elf'
p91
tp92
a(S'wrap-jedis'
p93
S'sosop'
p94
S'sosop/wrap-jedis'
p95
tp96
a(S'taxi-thrift'
p97
S'commandus'
p98
S'commandus/taxi-thrift'
p99
tp100
a(S'tchannel'
p101
S'uber'
p102
S'uber/tchannel'
p103
tp104
a(S'herringbone'
p105
S'stripe'
p106
S'stripe/herringbone'
p107
tp108
a(S'thrift-missing-guide'
p109
S'diwakergupta'
p110
S'diwakergupta/thrift-missing-guide'
p111
tp112
a(S'LINE-instant-messenger-protocol'
p113
S'cslinmiso'
p114
S'cslinmiso/LINE-instant-messenger-protocol'
p115
tp116
a(S'impala-java-client'
p117
S'pauldeschacht'
p118
S'pauldeschacht/impala-java-client'
p119
tp120
a(S'concrete'
p121
S'hltcoe'
p122
S'hltcoe/concrete'
p123
tp124
a(S'galaxy-thrift-api'
p125
S'XiaoMi'
p126
S'XiaoMi/galaxy-thrift-api'
p127
tp128
a(S'scribe-go'
p129
S'cloudaice'
p130
S'cloudaice/scribe-go'
p131
tp132
a(S'impalathing'
p133
S'koblas'
p134
S'koblas/impalathing'
p135
tp136
a(S'ezbake-thrift'
p137
S'ezbake'
p138
S'ezbake/ezbake-thrift'
p139
tp140
a(S'LineProtocol'
p141
S'NitroXenon'
p142
S'NitroXenon/LineProtocol'
p143
tp144
a(S'gidl'
p145
S'gidl'
p146
S'gidl/gidl'
p147
tp148
a(S'humbug'
p149
S'CommBank'
p150
S'CommBank/humbug'
p151
tp152
a(S'boost.app.cmake'
p153
S'snikulov'
p154
S'snikulov/boost.app.cmake'
p155
tp156
a(S'nerf-multiservice'
p157
S'kawu'
p158
S'kawu/nerf-multiservice'
p159
tp160
a(S'scribe_client'
p161
S'soprea'
p162
S'soprea/scribe_client'
p163
tp164
a(S'thrift-learn'
p165
S'heimonsy'
p166
S'heimonsy/thrift-learn'
p167
tp168
a(S'EmpowerByDistribution'
p169
S'DReckoning'
p170
S'DReckoning/EmpowerByDistribution'
p171
tp172
a(S'line-protocol'
p173
S'marlboromoo'
p174
S'marlboromoo/line-protocol'
p175
tp176
a(S'thrift-demo'
p177
S'zhuangya'
p178
S'zhuangya/thrift-demo'
p179
tp180
a(S'skywalker.thrift'
p181
S'iPlantCollaborativeOpenSource'
p182
S'iPlantCollaborativeOpenSource/skywalker.thrift'
p183
tp184
a(S'rtm'
p185
S'funkygao'
p186
S'funkygao/rtm'
p187
tp188
a(S'elf'
p189
S'361302747'
p190
S'361302747/elf'
p191
tp192
a(S'wrap-jedis'
p193
S'sosop'
p194
S'sosop/wrap-jedis'
p195
tp196
a(S'taxi-thrift'
p197
S'commandus'
p198
S'commandus/taxi-thrift'
p199
tp200
a(S'tchannel'
p201
S'uber'
p202
S'uber/tchannel'
p203
tp204
a(S'herringbone'
p205
S'stripe'
p206
S'stripe/herringbone'
p207
tp208
a(S'thrift-missing-guide'
p209
S'diwakergupta'
p210
S'diwakergupta/thrift-missing-guide'
p211
tp212
a(S'LINE-instant-messenger-protocol'
p213
S'cslinmiso'
p214
S'cslinmiso/LINE-instant-messenger-protocol'
p215
tp216
a(S'impala-java-client'
p217
S'pauldeschacht'
p218
S'pauldeschacht/impala-java-client'
p219
tp220
a(S'concrete'
p221
S'hltcoe'
p222
S'hltcoe/concrete'
p223
tp224
a(S'galaxy-thrift-api'
p225
S'XiaoMi'
p226
S'XiaoMi/galaxy-thrift-api'
p227
tp228
a(S'scribe-go'
p229
S'cloudaice'
p230
S'cloudaice/scribe-go'
p231
tp232
a(S'impalathing'
p233
S'koblas'
p234
S'koblas/impalathing'
p235
tp236
a(S'ezbake-thrift'
p237
S'ezbake'
p238
S'ezbake/ezbake-thrift'
p239
tp240
a(S'LineProtocol'
p241
S'NitroXenon'
p242
S'NitroXenon/LineProtocol'
p243
tp244
a(S'gidl'
p245
S'gidl'
p246
S'gidl/gidl'
p247
tp248
a(S'humbug'
p249
S'CommBank'
p250
S'CommBank/humbug'
p251
tp252
a(S'boost.app.cmake'
p253
S'snikulov'
p254
S'snikulov/boost.app.cmake'
p255
tp256
a(S'nerf-multiservice'
p257
S'kawu'
p258
S'kawu/nerf-multiservice'
p259
tp260
a(S'scribe_client'
p261
S'soprea'
p262
S'soprea/scribe_client'
p263
tp264
a(S'thrift-learn'
p265
S'heimonsy'
p266
S'heimonsy/thrift-learn'
p267
tp268
a(S'EmpowerByDistribution'
p269
S'DReckoning'
p270
S'DReckoning/EmpowerByDistribution'
p271
tp272
a(S'line-protocol'
p273
S'marlboromoo'
p274
S'marlboromoo/line-protocol'
p275
tp276
a(S'thrift-demo'
p277
S'zhuangya'
p278
S'zhuangya/thrift-demo'
p279
tp280
a(S'skywalker.thrift'
p281
S'iPlantCollaborativeOpenSource'
p282
S'iPlantCollaborativeOpenSource/skywalker.thrift'
p283
tp284
a(S'rtm'
p285
S'funkygao'
p286
S'funkygao/rtm'
p287
tp288
a(S'elf'
p289
S'361302747'
p290
S'361302747/elf'
p291
tp292
a(S'wrap-jedis'
p293
S'sosop'
p294
S'sosop/wrap-jedis'
p295
tp296
a(S'taxi-thrift'
p297
S'commandus'
p298
S'commandus/taxi-thrift'
p299
tp300
a.