(lp0
(S'parrot-linear-algebra'
p1
S'Whiteknight'
p2
S'Whiteknight/parrot-linear-algebra'
p3
tp4
a(S'RCurl'
p5
S'omegahat'
p6
S'omegahat/RCurl'
p7
tp8
a(S'RBrowserPlugin'
p9
S'gmbecker'
p10
S'gmbecker/RBrowserPlugin'
p11
tp12
a(S'XML'
p13
S'omegahat'
p14
S'omegahat/XML'
p15
tp16
a(S'Rcompression'
p17
S'omegahat'
p18
S'omegahat/Rcompression'
p19
tp20
a(S'wmlscript'
p21
S'fperrad'
p22
S'fperrad/wmlscript'
p23
tp24
a(S'RCUDA'
p25
S'duncantl'
p26
S'duncantl/RCUDA'
p27
tp28
a(S'Pacman'
p29
S'Zathki'
p30
S'Zathki/Pacman'
p31
tp32
a(S'RClangSimple'
p33
S'omegahat'
p34
S'omegahat/RClangSimple'
p35
tp36
a(S'GeoIP'
p37
S'omegahat'
p38
S'omegahat/GeoIP'
p39
tp40
a(S'Rllvm'
p41
S'vsbuffalo'
p42
S'vsbuffalo/Rllvm'
p43
tp44
a(S'gcc_py_introspector'
p45
S'jmdupont'
p46
S'jmdupont/gcc_py_introspector'
p47
tp48
a(S'Rosella'
p49
S'nol888'
p50
S'nol888/Rosella'
p51
tp52
a(S'parrot-linear-algebra'
p53
S'jashwanth9'
p54
S'jashwanth9/parrot-linear-algebra'
p55
tp56
a(S'Rosella'
p57
S'trishume'
p58
S'trishume/Rosella'
p59
tp60
a(S'PolyCreate'
p61
S'tonyzou'
p62
S'tonyzou/PolyCreate'
p63
tp64
a(S'cartographer'
p65
S'calebthompson'
p66
S'calebthompson/cartographer'
p67
tp68
a(S'jiffy'
p69
S'tapvt'
p70
S'tapvt/jiffy'
p71
tp72
a(S'TuringInTuring'
p73
S'trishume'
p74
S'trishume/TuringInTuring'
p75
tp76
a(S'jiffy'
p77
S'khellan'
p78
S'khellan/jiffy'
p79
tp80
a(S'RGCCTUFFI'
p81
S'omegahat'
p82
S'omegahat/RGCCTUFFI'
p83
tp84
a(S'RGraphicsDevice'
p85
S'omegahat'
p86
S'omegahat/RGraphicsDevice'
p87
tp88
a(S'RGCCTranslationUnit'
p89
S'omegahat'
p90
S'omegahat/RGCCTranslationUnit'
p91
tp92
a(S'jiffy'
p93
S'rflynn93'
p94
S'rflynn93/jiffy'
p95
tp96
a(S'MapleTuring'
p97
S'SunnyLi'
p98
S'SunnyLi/MapleTuring'
p99
tp100
a(S'parrot-linear-algebra'
p101
S'Whiteknight'
p102
S'Whiteknight/parrot-linear-algebra'
p103
tp104
a(S'RCurl'
p105
S'omegahat'
p106
S'omegahat/RCurl'
p107
tp108
a(S'RBrowserPlugin'
p109
S'gmbecker'
p110
S'gmbecker/RBrowserPlugin'
p111
tp112
a(S'XML'
p113
S'omegahat'
p114
S'omegahat/XML'
p115
tp116
a(S'Rcompression'
p117
S'omegahat'
p118
S'omegahat/Rcompression'
p119
tp120
a(S'wmlscript'
p121
S'fperrad'
p122
S'fperrad/wmlscript'
p123
tp124
a(S'RCUDA'
p125
S'duncantl'
p126
S'duncantl/RCUDA'
p127
tp128
a(S'Pacman'
p129
S'Zathki'
p130
S'Zathki/Pacman'
p131
tp132
a(S'RClangSimple'
p133
S'omegahat'
p134
S'omegahat/RClangSimple'
p135
tp136
a(S'GeoIP'
p137
S'omegahat'
p138
S'omegahat/GeoIP'
p139
tp140
a(S'Rllvm'
p141
S'vsbuffalo'
p142
S'vsbuffalo/Rllvm'
p143
tp144
a(S'gcc_py_introspector'
p145
S'jmdupont'
p146
S'jmdupont/gcc_py_introspector'
p147
tp148
a(S'Rosella'
p149
S'nol888'
p150
S'nol888/Rosella'
p151
tp152
a(S'parrot-linear-algebra'
p153
S'jashwanth9'
p154
S'jashwanth9/parrot-linear-algebra'
p155
tp156
a(S'Rosella'
p157
S'trishume'
p158
S'trishume/Rosella'
p159
tp160
a(S'PolyCreate'
p161
S'tonyzou'
p162
S'tonyzou/PolyCreate'
p163
tp164
a(S'cartographer'
p165
S'calebthompson'
p166
S'calebthompson/cartographer'
p167
tp168
a(S'jiffy'
p169
S'tapvt'
p170
S'tapvt/jiffy'
p171
tp172
a(S'TuringInTuring'
p173
S'trishume'
p174
S'trishume/TuringInTuring'
p175
tp176
a(S'jiffy'
p177
S'khellan'
p178
S'khellan/jiffy'
p179
tp180
a(S'RGCCTUFFI'
p181
S'omegahat'
p182
S'omegahat/RGCCTUFFI'
p183
tp184
a(S'RGraphicsDevice'
p185
S'omegahat'
p186
S'omegahat/RGraphicsDevice'
p187
tp188
a(S'RGCCTranslationUnit'
p189
S'omegahat'
p190
S'omegahat/RGCCTranslationUnit'
p191
tp192
a(S'jiffy'
p193
S'rflynn93'
p194
S'rflynn93/jiffy'
p195
tp196
a(S'MapleTuring'
p197
S'SunnyLi'
p198
S'SunnyLi/MapleTuring'
p199
tp200
a(S'parrot-linear-algebra'
p201
S'Whiteknight'
p202
S'Whiteknight/parrot-linear-algebra'
p203
tp204
a(S'RCurl'
p205
S'omegahat'
p206
S'omegahat/RCurl'
p207
tp208
a(S'RBrowserPlugin'
p209
S'gmbecker'
p210
S'gmbecker/RBrowserPlugin'
p211
tp212
a(S'XML'
p213
S'omegahat'
p214
S'omegahat/XML'
p215
tp216
a(S'Rcompression'
p217
S'omegahat'
p218
S'omegahat/Rcompression'
p219
tp220
a(S'wmlscript'
p221
S'fperrad'
p222
S'fperrad/wmlscript'
p223
tp224
a(S'RCUDA'
p225
S'duncantl'
p226
S'duncantl/RCUDA'
p227
tp228
a(S'Pacman'
p229
S'Zathki'
p230
S'Zathki/Pacman'
p231
tp232
a(S'RClangSimple'
p233
S'omegahat'
p234
S'omegahat/RClangSimple'
p235
tp236
a(S'GeoIP'
p237
S'omegahat'
p238
S'omegahat/GeoIP'
p239
tp240
a(S'Rllvm'
p241
S'vsbuffalo'
p242
S'vsbuffalo/Rllvm'
p243
tp244
a(S'gcc_py_introspector'
p245
S'jmdupont'
p246
S'jmdupont/gcc_py_introspector'
p247
tp248
a(S'Rosella'
p249
S'nol888'
p250
S'nol888/Rosella'
p251
tp252
a(S'parrot-linear-algebra'
p253
S'jashwanth9'
p254
S'jashwanth9/parrot-linear-algebra'
p255
tp256
a(S'Rosella'
p257
S'trishume'
p258
S'trishume/Rosella'
p259
tp260
a(S'PolyCreate'
p261
S'tonyzou'
p262
S'tonyzou/PolyCreate'
p263
tp264
a(S'cartographer'
p265
S'calebthompson'
p266
S'calebthompson/cartographer'
p267
tp268
a(S'jiffy'
p269
S'tapvt'
p270
S'tapvt/jiffy'
p271
tp272
a(S'TuringInTuring'
p273
S'trishume'
p274
S'trishume/TuringInTuring'
p275
tp276
a(S'jiffy'
p277
S'khellan'
p278
S'khellan/jiffy'
p279
tp280
a(S'RGCCTUFFI'
p281
S'omegahat'
p282
S'omegahat/RGCCTUFFI'
p283
tp284
a(S'RGraphicsDevice'
p285
S'omegahat'
p286
S'omegahat/RGraphicsDevice'
p287
tp288
a(S'RGCCTranslationUnit'
p289
S'omegahat'
p290
S'omegahat/RGCCTranslationUnit'
p291
tp292
a(S'jiffy'
p293
S'rflynn93'
p294
S'rflynn93/jiffy'
p295
tp296
a(S'MapleTuring'
p297
S'SunnyLi'
p298
S'SunnyLi/MapleTuring'
p299
tp300
a.