(lp0
(S'sourcesource'
p1
S'drsimonmiles'
p2
S'drsimonmiles/sourcesource'
p3
tp4
a(S'WBDProjekt'
p5
S'jamiepg1'
p6
S'jamiepg1/WBDProjekt'
p7
tp8
a(S'Boo2Cs'
p9
S'ladace'
p10
S'ladace/Boo2Cs'
p11
tp12
a(S'sourcesource'
p13
S'jamiepg1'
p14
S'jamiepg1/sourcesource'
p15
tp16
a(S'WBD'
p17
S'Tomasz93'
p18
S'Tomasz93/WBD'
p19
tp20
a(S'Asn4'
p21
S'CMPT-470'
p22
S'CMPT-470/Asn4'
p23
tp24
a(S'Pinboard'
p25
S'vbogdana'
p26
S'vbogdana/Pinboard'
p27
tp28
a(S'breadboard'
p29
S'cjlavigne'
p30
S'cjlavigne/breadboard'
p31
tp32
a(S'sourcesource'
p33
S'drsimonmiles'
p34
S'drsimonmiles/sourcesource'
p35
tp36
a(S'WBDProjekt'
p37
S'jamiepg1'
p38
S'jamiepg1/WBDProjekt'
p39
tp40
a(S'Boo2Cs'
p41
S'ladace'
p42
S'ladace/Boo2Cs'
p43
tp44
a(S'sourcesource'
p45
S'jamiepg1'
p46
S'jamiepg1/sourcesource'
p47
tp48
a(S'WBD'
p49
S'Tomasz93'
p50
S'Tomasz93/WBD'
p51
tp52
a(S'Asn4'
p53
S'CMPT-470'
p54
S'CMPT-470/Asn4'
p55
tp56
a(S'Pinboard'
p57
S'vbogdana'
p58
S'vbogdana/Pinboard'
p59
tp60
a(S'breadboard'
p61
S'cjlavigne'
p62
S'cjlavigne/breadboard'
p63
tp64
a(S'sourcesource'
p65
S'drsimonmiles'
p66
S'drsimonmiles/sourcesource'
p67
tp68
a(S'WBDProjekt'
p69
S'jamiepg1'
p70
S'jamiepg1/WBDProjekt'
p71
tp72
a(S'Boo2Cs'
p73
S'ladace'
p74
S'ladace/Boo2Cs'
p75
tp76
a(S'sourcesource'
p77
S'jamiepg1'
p78
S'jamiepg1/sourcesource'
p79
tp80
a(S'WBD'
p81
S'Tomasz93'
p82
S'Tomasz93/WBD'
p83
tp84
a(S'Asn4'
p85
S'CMPT-470'
p86
S'CMPT-470/Asn4'
p87
tp88
a(S'Pinboard'
p89
S'vbogdana'
p90
S'vbogdana/Pinboard'
p91
tp92
a(S'breadboard'
p93
S'cjlavigne'
p94
S'cjlavigne/breadboard'
p95
tp96
a.