(lp0
(S'code-push'
p1
S'Microsoft'
p2
S'Microsoft/code-push'
p3
tp4
a(S'angular'
p5
S'angular'
p6
S'angular/angular'
p7
tp8
a(S'TypeScript'
p9
S'Microsoft'
p10
S'Microsoft/TypeScript'
p11
tp12
a(S'DefinitelyTyped'
p13
S'borisyankov'
p14
S'borisyankov/DefinitelyTyped'
p15
tp16
a(S'NativeScript'
p17
S'NativeScript'
p18
S'NativeScript/NativeScript'
p19
tp20
a(S'plottable'
p21
S'palantir'
p22
S'palantir/plottable'
p23
tp24
a(S'TACO'
p25
S'Microsoft'
p26
S'Microsoft/TACO'
p27
tp28
a(S'omnisharp-atom'
p29
S'OmniSharp'
p30
S'OmniSharp/omnisharp-atom'
p31
tp32
a(S'nativescript-cli'
p33
S'NativeScript'
p34
S'NativeScript/nativescript-cli'
p35
tp36
a(S'black-screen'
p37
S'black-screen'
p38
S'black-screen/black-screen'
p39
tp40
a(S'winjs'
p41
S'winjs'
p42
S'winjs/winjs'
p43
tp44
a(S'shumway'
p45
S'mozilla'
p46
S'mozilla/shumway'
p47
tp48
a(S'turbulenz_engine'
p49
S'turbulenz'
p50
S'turbulenz/turbulenz_engine'
p51
tp52
a(S'Vorlonjs'
p53
S'MicrosoftDX'
p54
S'MicrosoftDX/Vorlonjs'
p55
tp56
a(S'Eve'
p57
S'witheve'
p58
S'witheve/Eve'
p59
tp60
a(S'TouchDevelop'
p61
S'Microsoft'
p62
S'Microsoft/TouchDevelop'
p63
tp64
a(S'tessera'
p65
S'urbanairship'
p66
S'urbanairship/tessera'
p67
tp68
a(S'doppio'
p69
S'plasma-umass'
p70
S'plasma-umass/doppio'
p71
tp72
a(S'tsd'
p73
S'DefinitelyTyped'
p74
S'DefinitelyTyped/tsd'
p75
tp76
a(S'TypeScriptSamples'
p77
S'Microsoft'
p78
S'Microsoft/TypeScriptSamples'
p79
tp80
a(S'tslint'
p81
S'palantir'
p82
S'palantir/tslint'
p83
tp84
a(S'FullScreenMario'
p85
S'FullScreenShenanigans'
p86
S'FullScreenShenanigans/FullScreenMario'
p87
tp88
a(S'atom-typescript'
p89
S'TypeStrong'
p90
S'TypeStrong/atom-typescript'
p91
tp92
a(S'angular2-seed'
p93
S'mgechev'
p94
S'mgechev/angular2-seed'
p95
tp96
a(S'PowerBI-visuals'
p97
S'Microsoft'
p98
S'Microsoft/PowerBI-visuals'
p99
tp100
a(S'code-push'
p101
S'Microsoft'
p102
S'Microsoft/code-push'
p103
tp104
a(S'angular'
p105
S'angular'
p106
S'angular/angular'
p107
tp108
a(S'TypeScript'
p109
S'Microsoft'
p110
S'Microsoft/TypeScript'
p111
tp112
a(S'DefinitelyTyped'
p113
S'borisyankov'
p114
S'borisyankov/DefinitelyTyped'
p115
tp116
a(S'black-screen'
p117
S'black-screen'
p118
S'black-screen/black-screen'
p119
tp120
a(S'NativeScript'
p121
S'NativeScript'
p122
S'NativeScript/NativeScript'
p123
tp124
a(S'ionic2'
p125
S'driftyco'
p126
S'driftyco/ionic2'
p127
tp128
a(S'angular2-universal-starter'
p129
S'angular-class'
p130
S'angular-class/angular2-universal-starter'
p131
tp132
a(S'monapt'
p133
S'jiaweihli'
p134
S'jiaweihli/monapt'
p135
tp136
a(S'angular2-seed'
p137
S'mgechev'
p138
S'mgechev/angular2-seed'
p139
tp140
a(S'ng2-test-seed'
p141
S'juliemr'
p142
S'juliemr/ng2-test-seed'
p143
tp144
a(S'pivot'
p145
S'implydata'
p146
S'implydata/pivot'
p147
tp148
a(S'PowerBI-visuals'
p149
S'Microsoft'
p150
S'Microsoft/PowerBI-visuals'
p151
tp152
a(S'Shiba'
p153
S'rhysd'
p154
S'rhysd/Shiba'
p155
tp156
a(S'clock'
p157
S'nikital'
p158
S'nikital/clock'
p159
tp160
a(S'Eve'
p161
S'witheve'
p162
S'witheve/Eve'
p163
tp164
a(S'universal'
p165
S'angular'
p166
S'angular/universal'
p167
tp168
a(S'Vorlonjs'
p169
S'MicrosoftDX'
p170
S'MicrosoftDX/Vorlonjs'
p171
tp172
a(S'TypeScriptSamples'
p173
S'Microsoft'
p174
S'Microsoft/TypeScriptSamples'
p175
tp176
a(S'atom-typescript'
p177
S'TypeStrong'
p178
S'TypeStrong/atom-typescript'
p179
tp180
a(S'tsd'
p181
S'DefinitelyTyped'
p182
S'DefinitelyTyped/tsd'
p183
tp184
a(S'plottable'
p185
S'palantir'
p186
S'palantir/plottable'
p187
tp188
a(S'ng2-bootstrap'
p189
S'valor-software'
p190
S'valor-software/ng2-bootstrap'
p191
tp192
a(S'tslint'
p193
S'palantir'
p194
S'palantir/tslint'
p195
tp196
a(S'angular2-tour-of-heroes'
p197
S'johnpapa'
p198
S'johnpapa/angular2-tour-of-heroes'
p199
tp200
a(S'angular'
p201
S'angular'
p202
S'angular/angular'
p203
tp204
a(S'black-screen'
p205
S'black-screen'
p206
S'black-screen/black-screen'
p207
tp208
a(S'TypeScript'
p209
S'Microsoft'
p210
S'Microsoft/TypeScript'
p211
tp212
a(S'DefinitelyTyped'
p213
S'borisyankov'
p214
S'borisyankov/DefinitelyTyped'
p215
tp216
a(S'code-push'
p217
S'Microsoft'
p218
S'Microsoft/code-push'
p219
tp220
a(S'NativeScript'
p221
S'NativeScript'
p222
S'NativeScript/NativeScript'
p223
tp224
a(S'angular2-seed'
p225
S'mgechev'
p226
S'mgechev/angular2-seed'
p227
tp228
a(S'Eve'
p229
S'witheve'
p230
S'witheve/Eve'
p231
tp232
a(S'tsd'
p233
S'DefinitelyTyped'
p234
S'DefinitelyTyped/tsd'
p235
tp236
a(S'TypeScriptSamples'
p237
S'Microsoft'
p238
S'Microsoft/TypeScriptSamples'
p239
tp240
a(S'Vorlonjs'
p241
S'MicrosoftDX'
p242
S'MicrosoftDX/Vorlonjs'
p243
tp244
a(S'ionic2'
p245
S'driftyco'
p246
S'driftyco/ionic2'
p247
tp248
a(S'angular2-universal-starter'
p249
S'angular-class'
p250
S'angular-class/angular2-universal-starter'
p251
tp252
a(S'PowerBI-visuals'
p253
S'Microsoft'
p254
S'Microsoft/PowerBI-visuals'
p255
tp256
a(S'TACO'
p257
S'Microsoft'
p258
S'Microsoft/TACO'
p259
tp260
a(S'plottable'
p261
S'palantir'
p262
S'palantir/plottable'
p263
tp264
a(S'pivot'
p265
S'implydata'
p266
S'implydata/pivot'
p267
tp268
a(S'tslint'
p269
S'palantir'
p270
S'palantir/tslint'
p271
tp272
a(S'Shiba'
p273
S'rhysd'
p274
S'rhysd/Shiba'
p275
tp276
a(S'atom-typescript'
p277
S'TypeStrong'
p278
S'TypeStrong/atom-typescript'
p279
tp280
a(S'angular2-rxjs-chat'
p281
S'ng-book'
p282
S'ng-book/angular2-rxjs-chat'
p283
tp284
a(S'uproxy'
p285
S'uProxy'
p286
S'uProxy/uproxy'
p287
tp288
a(S'monapt'
p289
S'jiaweihli'
p290
S'jiaweihli/monapt'
p291
tp292
a(S'universal'
p293
S'angular'
p294
S'angular/universal'
p295
tp296
a(S'FullScreenMario'
p297
S'FullScreenShenanigans'
p298
S'FullScreenShenanigans/FullScreenMario'
p299
tp300
a.