(lp0
(S'TitanRPG'
p1
S'pdinklag'
p2
S'pdinklag/TitanRPG'
p3
tp4
a(S'Forms'
p5
S'EliotVU'
p6
S'EliotVU/Forms'
p7
tp8
a(S'udkosc'
p9
S'robertkhamilton'
p10
S'robertkhamilton/udkosc'
p11
tp12
a(S'Alone'
p13
S'Speedy37'
p14
S'Speedy37/Alone'
p15
tp16
a(S'UT99'
p17
S'Slipyx'
p18
S'Slipyx/UT99'
p19
tp20
a(S'powerbasic-to-cpp'
p21
S'uCalc'
p22
S'uCalc/powerbasic-to-cpp'
p23
tp24
a(S'UTCompCTF'
p25
S'dcramps'
p26
S'dcramps/UTCompCTF'
p27
tp28
a(S'hartbeat'
p29
S'Alvin-Vuong'
p30
S'Alvin-Vuong/hartbeat'
p31
tp32
a(S'EmberUDK'
p33
S'welaughindoors'
p34
S'welaughindoors/EmberUDK'
p35
tp36
a(S'HospitalPanic'
p37
S'Magnilucent'
p38
S'Magnilucent/HospitalPanic'
p39
tp40
a(S'SuperZombieMut'
p41
S'scaryghost'
p42
S'scaryghost/SuperZombieMut'
p43
tp44
a(S'ServerAchievements'
p45
S'scaryghost'
p46
S'scaryghost/ServerAchievements'
p47
tp48
a(S'elite'
p49
S'elitemod'
p50
S'elitemod/elite'
p51
tp52
a(S'chivalry-instagib'
p53
S'BradyBrenot'
p54
S'BradyBrenot/chivalry-instagib'
p55
tp56
a(S'GA3331'
p57
S'kmiron'
p58
S'kmiron/GA3331'
p59
tp60
a(S'wsol'
p61
S'Sakknekedro'
p62
S'Sakknekedro/wsol'
p63
tp64
a(S'LudicrousInstagib'
p65
S'SiPlus'
p66
S'SiPlus/LudicrousInstagib'
p67
tp68
a(S'tendrils'
p69
S'dreamycactus'
p70
S'dreamycactus/tendrils'
p71
tp72
a(S'UDKTutorialGame'
p73
S'BonnyShen'
p74
S'BonnyShen/UDKTutorialGame'
p75
tp76
a(S'SpectatorUI'
p77
S'WGH-'
p78
S'WGH-/SpectatorUI'
p79
tp80
a(S'KFStatsX'
p81
S'scaryghost'
p82
S'scaryghost/KFStatsX'
p83
tp84
a(S'SpecimenHPConfig'
p85
S'scaryghost'
p86
S'scaryghost/SpecimenHPConfig'
p87
tp88
a(S'BamGame'
p89
S'BamFtw'
p90
S'BamFtw/BamGame'
p91
tp92
a(S'ChargeUp-Legacy'
p93
S'monokrome'
p94
S'monokrome/ChargeUp-Legacy'
p95
tp96
a(S'Ghost-Herders-UDK'
p97
S'talklittle'
p98
S'talklittle/Ghost-Herders-UDK'
p99
tp100
a(S'TitanRPG'
p101
S'pdinklag'
p102
S'pdinklag/TitanRPG'
p103
tp104
a(S'Forms'
p105
S'EliotVU'
p106
S'EliotVU/Forms'
p107
tp108
a(S'udkosc'
p109
S'robertkhamilton'
p110
S'robertkhamilton/udkosc'
p111
tp112
a(S'Alone'
p113
S'Speedy37'
p114
S'Speedy37/Alone'
p115
tp116
a(S'UT99'
p117
S'Slipyx'
p118
S'Slipyx/UT99'
p119
tp120
a(S'powerbasic-to-cpp'
p121
S'uCalc'
p122
S'uCalc/powerbasic-to-cpp'
p123
tp124
a(S'UTCompCTF'
p125
S'dcramps'
p126
S'dcramps/UTCompCTF'
p127
tp128
a(S'hartbeat'
p129
S'Alvin-Vuong'
p130
S'Alvin-Vuong/hartbeat'
p131
tp132
a(S'EmberUDK'
p133
S'welaughindoors'
p134
S'welaughindoors/EmberUDK'
p135
tp136
a(S'HospitalPanic'
p137
S'Magnilucent'
p138
S'Magnilucent/HospitalPanic'
p139
tp140
a(S'SuperZombieMut'
p141
S'scaryghost'
p142
S'scaryghost/SuperZombieMut'
p143
tp144
a(S'ServerAchievements'
p145
S'scaryghost'
p146
S'scaryghost/ServerAchievements'
p147
tp148
a(S'elite'
p149
S'elitemod'
p150
S'elitemod/elite'
p151
tp152
a(S'chivalry-instagib'
p153
S'BradyBrenot'
p154
S'BradyBrenot/chivalry-instagib'
p155
tp156
a(S'GA3331'
p157
S'kmiron'
p158
S'kmiron/GA3331'
p159
tp160
a(S'wsol'
p161
S'Sakknekedro'
p162
S'Sakknekedro/wsol'
p163
tp164
a(S'LudicrousInstagib'
p165
S'SiPlus'
p166
S'SiPlus/LudicrousInstagib'
p167
tp168
a(S'tendrils'
p169
S'dreamycactus'
p170
S'dreamycactus/tendrils'
p171
tp172
a(S'UDKTutorialGame'
p173
S'BonnyShen'
p174
S'BonnyShen/UDKTutorialGame'
p175
tp176
a(S'SpectatorUI'
p177
S'WGH-'
p178
S'WGH-/SpectatorUI'
p179
tp180
a(S'KFStatsX'
p181
S'scaryghost'
p182
S'scaryghost/KFStatsX'
p183
tp184
a(S'SpecimenHPConfig'
p185
S'scaryghost'
p186
S'scaryghost/SpecimenHPConfig'
p187
tp188
a(S'BamGame'
p189
S'BamFtw'
p190
S'BamFtw/BamGame'
p191
tp192
a(S'ChargeUp-Legacy'
p193
S'monokrome'
p194
S'monokrome/ChargeUp-Legacy'
p195
tp196
a(S'Ghost-Herders-UDK'
p197
S'talklittle'
p198
S'talklittle/Ghost-Herders-UDK'
p199
tp200
a(S'TitanRPG'
p201
S'pdinklag'
p202
S'pdinklag/TitanRPG'
p203
tp204
a(S'Forms'
p205
S'EliotVU'
p206
S'EliotVU/Forms'
p207
tp208
a(S'udkosc'
p209
S'robertkhamilton'
p210
S'robertkhamilton/udkosc'
p211
tp212
a(S'Alone'
p213
S'Speedy37'
p214
S'Speedy37/Alone'
p215
tp216
a(S'UT99'
p217
S'Slipyx'
p218
S'Slipyx/UT99'
p219
tp220
a(S'powerbasic-to-cpp'
p221
S'uCalc'
p222
S'uCalc/powerbasic-to-cpp'
p223
tp224
a(S'UTCompCTF'
p225
S'dcramps'
p226
S'dcramps/UTCompCTF'
p227
tp228
a(S'hartbeat'
p229
S'Alvin-Vuong'
p230
S'Alvin-Vuong/hartbeat'
p231
tp232
a(S'EmberUDK'
p233
S'welaughindoors'
p234
S'welaughindoors/EmberUDK'
p235
tp236
a(S'HospitalPanic'
p237
S'Magnilucent'
p238
S'Magnilucent/HospitalPanic'
p239
tp240
a(S'SuperZombieMut'
p241
S'scaryghost'
p242
S'scaryghost/SuperZombieMut'
p243
tp244
a(S'ServerAchievements'
p245
S'scaryghost'
p246
S'scaryghost/ServerAchievements'
p247
tp248
a(S'elite'
p249
S'elitemod'
p250
S'elitemod/elite'
p251
tp252
a(S'chivalry-instagib'
p253
S'BradyBrenot'
p254
S'BradyBrenot/chivalry-instagib'
p255
tp256
a(S'GA3331'
p257
S'kmiron'
p258
S'kmiron/GA3331'
p259
tp260
a(S'wsol'
p261
S'Sakknekedro'
p262
S'Sakknekedro/wsol'
p263
tp264
a(S'LudicrousInstagib'
p265
S'SiPlus'
p266
S'SiPlus/LudicrousInstagib'
p267
tp268
a(S'tendrils'
p269
S'dreamycactus'
p270
S'dreamycactus/tendrils'
p271
tp272
a(S'UDKTutorialGame'
p273
S'BonnyShen'
p274
S'BonnyShen/UDKTutorialGame'
p275
tp276
a(S'SpectatorUI'
p277
S'WGH-'
p278
S'WGH-/SpectatorUI'
p279
tp280
a(S'KFStatsX'
p281
S'scaryghost'
p282
S'scaryghost/KFStatsX'
p283
tp284
a(S'SpecimenHPConfig'
p285
S'scaryghost'
p286
S'scaryghost/SpecimenHPConfig'
p287
tp288
a(S'BamGame'
p289
S'BamFtw'
p290
S'BamFtw/BamGame'
p291
tp292
a(S'ChargeUp-Legacy'
p293
S'monokrome'
p294
S'monokrome/ChargeUp-Legacy'
p295
tp296
a(S'Ghost-Herders-UDK'
p297
S'talklittle'
p298
S'talklittle/Ghost-Herders-UDK'
p299
tp300
a.