(lp0
(S'finalterm'
p1
S'p-e-w'
p2
S'p-e-w/finalterm'
p3
tp4
a(S'budgie-desktop'
p5
S'solus-project'
p6
S'solus-project/budgie-desktop'
p7
tp8
a(S'corebird'
p9
S'baedert'
p10
S'baedert/corebird'
p11
tp12
a(S'gnome-pomodoro'
p13
S'codito'
p14
S'codito/gnome-pomodoro'
p15
tp16
a(S'Venom'
p17
S'naxuroqa'
p18
S'naxuroqa/Venom'
p19
tp20
a(S'pdfpc'
p21
S'davvil'
p22
S'davvil/pdfpc'
p23
tp24
a(S'gitg'
p25
S'jessevdk'
p26
S'jessevdk/gitg'
p27
tp28
a(S'Go-For-It'
p29
S'mank319'
p30
S'mank319/Go-For-It'
p31
tp32
a(S'Gnome-Pie'
p33
S'Simmesimme'
p34
S'Simmesimme/Gnome-Pie'
p35
tp36
a(S'nuntius-linux'
p37
S'holylobster'
p38
S'holylobster/nuntius-linux'
p39
tp40
a(S'valama'
p41
S'Valama'
p42
S'Valama/valama'
p43
tp44
a(S'vala'
p45
S'GNOME'
p46
S'GNOME/vala'
p47
tp48
a(S'submarine'
p49
S'blaztinn'
p50
S'blaztinn/submarine'
p51
tp52
a(S'nuvolaplayer'
p53
S'tiliado'
p54
S'tiliado/nuvolaplayer'
p55
tp56
a(S'rdio'
p57
S'sgringwe'
p58
S'sgringwe/rdio'
p59
tp60
a(S'valum'
p61
S'valum-framework'
p62
S'valum-framework/valum'
p63
tp64
a(S'geary'
p65
S'GNOME'
p66
S'GNOME/geary'
p67
tp68
a(S'Pdf-Presenter-Console'
p69
S'jakobwesthoff'
p70
S'jakobwesthoff/Pdf-Presenter-Console'
p71
tp72
a(S'pdfpc'
p73
S'pdfpc'
p74
S'pdfpc/pdfpc'
p75
tp76
a(S'autovala'
p77
S'rastersoft'
p78
S'rastersoft/autovala'
p79
tp80
a(S'MarkMyWords'
p81
S'voldyman'
p82
S'voldyman/MarkMyWords'
p83
tp84
a(S'Editor-GTK'
p85
S'EasyRPG'
p86
S'EasyRPG/Editor-GTK'
p87
tp88
a(S'AltYo'
p89
S'linvinus'
p90
S'linvinus/AltYo'
p91
tp92
a(S'gnome-globalmenu'
p93
S'gnome-globalmenu'
p94
S'gnome-globalmenu/gnome-globalmenu'
p95
tp96
a(S'gtk-theme-config'
p97
S'satya164'
p98
S'satya164/gtk-theme-config'
p99
tp100
a(S'Go-For-It'
p101
S'mank319'
p102
S'mank319/Go-For-It'
p103
tp104
a(S'corebird'
p105
S'baedert'
p106
S'baedert/corebird'
p107
tp108
a(S'geary'
p109
S'GNOME'
p110
S'GNOME/geary'
p111
tp112
a(S'finalterm'
p113
S'p-e-w'
p114
S'p-e-w/finalterm'
p115
tp116
a(S'budgie-desktop'
p117
S'solus-project'
p118
S'solus-project/budgie-desktop'
p119
tp120
a(S'gnome-pomodoro'
p121
S'codito'
p122
S'codito/gnome-pomodoro'
p123
tp124
a(S'Venom'
p125
S'naxuroqa'
p126
S'naxuroqa/Venom'
p127
tp128
a(S'pdfpc'
p129
S'davvil'
p130
S'davvil/pdfpc'
p131
tp132
a(S'gitg'
p133
S'jessevdk'
p134
S'jessevdk/gitg'
p135
tp136
a(S'Gnome-Pie'
p137
S'Simmesimme'
p138
S'Simmesimme/Gnome-Pie'
p139
tp140
a(S'nuntius-linux'
p141
S'holylobster'
p142
S'holylobster/nuntius-linux'
p143
tp144
a(S'valama'
p145
S'Valama'
p146
S'Valama/valama'
p147
tp148
a(S'vala'
p149
S'GNOME'
p150
S'GNOME/vala'
p151
tp152
a(S'submarine'
p153
S'blaztinn'
p154
S'blaztinn/submarine'
p155
tp156
a(S'nuvolaplayer'
p157
S'tiliado'
p158
S'tiliado/nuvolaplayer'
p159
tp160
a(S'rdio'
p161
S'sgringwe'
p162
S'sgringwe/rdio'
p163
tp164
a(S'valum'
p165
S'valum-framework'
p166
S'valum-framework/valum'
p167
tp168
a(S'Pdf-Presenter-Console'
p169
S'jakobwesthoff'
p170
S'jakobwesthoff/Pdf-Presenter-Console'
p171
tp172
a(S'pdfpc'
p173
S'pdfpc'
p174
S'pdfpc/pdfpc'
p175
tp176
a(S'autovala'
p177
S'rastersoft'
p178
S'rastersoft/autovala'
p179
tp180
a(S'MarkMyWords'
p181
S'voldyman'
p182
S'voldyman/MarkMyWords'
p183
tp184
a(S'Editor-GTK'
p185
S'EasyRPG'
p186
S'EasyRPG/Editor-GTK'
p187
tp188
a(S'AltYo'
p189
S'linvinus'
p190
S'linvinus/AltYo'
p191
tp192
a(S'gnome-globalmenu'
p193
S'gnome-globalmenu'
p194
S'gnome-globalmenu/gnome-globalmenu'
p195
tp196
a(S'rainbow-lollipop'
p197
S'grindhold'
p198
S'grindhold/rainbow-lollipop'
p199
tp200
a(S'Go-For-It'
p201
S'mank319'
p202
S'mank319/Go-For-It'
p203
tp204
a(S'corebird'
p205
S'baedert'
p206
S'baedert/corebird'
p207
tp208
a(S'pdfpc'
p209
S'pdfpc'
p210
S'pdfpc/pdfpc'
p211
tp212
a(S'birdfont'
p213
S'johanmattssonm'
p214
S'johanmattssonm/birdfont'
p215
tp216
a(S'Gnome-Pie'
p217
S'Simmesimme'
p218
S'Simmesimme/Gnome-Pie'
p219
tp220
a(S'finalterm'
p221
S'p-e-w'
p222
S'p-e-w/finalterm'
p223
tp224
a(S'budgie-desktop'
p225
S'solus-project'
p226
S'solus-project/budgie-desktop'
p227
tp228
a(S'gnome-pomodoro'
p229
S'codito'
p230
S'codito/gnome-pomodoro'
p231
tp232
a(S'Venom'
p233
S'naxuroqa'
p234
S'naxuroqa/Venom'
p235
tp236
a(S'pdfpc'
p237
S'davvil'
p238
S'davvil/pdfpc'
p239
tp240
a(S'gitg'
p241
S'jessevdk'
p242
S'jessevdk/gitg'
p243
tp244
a(S'nuntius-linux'
p245
S'holylobster'
p246
S'holylobster/nuntius-linux'
p247
tp248
a(S'valama'
p249
S'Valama'
p250
S'Valama/valama'
p251
tp252
a(S'vala'
p253
S'GNOME'
p254
S'GNOME/vala'
p255
tp256
a(S'submarine'
p257
S'blaztinn'
p258
S'blaztinn/submarine'
p259
tp260
a(S'nuvolaplayer'
p261
S'tiliado'
p262
S'tiliado/nuvolaplayer'
p263
tp264
a(S'rdio'
p265
S'sgringwe'
p266
S'sgringwe/rdio'
p267
tp268
a(S'valum'
p269
S'valum-framework'
p270
S'valum-framework/valum'
p271
tp272
a(S'geary'
p273
S'GNOME'
p274
S'GNOME/geary'
p275
tp276
a(S'Pdf-Presenter-Console'
p277
S'jakobwesthoff'
p278
S'jakobwesthoff/Pdf-Presenter-Console'
p279
tp280
a(S'autovala'
p281
S'rastersoft'
p282
S'rastersoft/autovala'
p283
tp284
a(S'MarkMyWords'
p285
S'voldyman'
p286
S'voldyman/MarkMyWords'
p287
tp288
a(S'Editor-GTK'
p289
S'EasyRPG'
p290
S'EasyRPG/Editor-GTK'
p291
tp292
a(S'AltYo'
p293
S'linvinus'
p294
S'linvinus/AltYo'
p295
tp296
a(S'gnome-globalmenu'
p297
S'gnome-globalmenu'
p298
S'gnome-globalmenu/gnome-globalmenu'
p299
tp300
a.