(lp0
(S'varnish-nginx-wordpress'
p1
S'nicolargo'
p2
S'nicolargo/varnish-nginx-wordpress'
p3
tp4
a(S'security.vcl'
p5
S'comotion'
p6
S'comotion/security.vcl'
p7
tp8
a(S'varnish-docker'
p9
S'jacksoncage'
p10
S'jacksoncage/varnish-docker'
p11
tp12
a(S'varnish-for-drupal'
p13
S'halcyonCorsair'
p14
S'halcyonCorsair/varnish-for-drupal'
p15
tp16
a(S'varnish'
p17
S'Lullabot'
p18
S'Lullabot/varnish'
p19
tp20
a(S'libvmod-3scale'
p21
S'3scale'
p22
S'3scale/libvmod-3scale'
p23
tp24
a(S'ansible-magento-lamp-single'
p25
S'CajuCLC'
p26
S'CajuCLC/ansible-magento-lamp-single'
p27
tp28
a(S'openshift-cartridge-varnish'
p29
S'devop-mmcgrath'
p30
S'devop-mmcgrath/openshift-cartridge-varnish'
p31
tp32
a(S'Symfony2-Nginx-Varnish-config'
p33
S'egils'
p34
S'egils/Symfony2-Nginx-Varnish-config'
p35
tp36
a(S'security.vcl'
p37
S'ssm'
p38
S'ssm/security.vcl'
p39
tp40
a(S'security.vcl'
p41
S'loveshell'
p42
S'loveshell/security.vcl'
p43
tp44
a(S'chef-magento_varnish'
p45
S'EcomDev'
p46
S'EcomDev/chef-magento_varnish'
p47
tp48
a(S'docker-wordpress-nginx-hhvm-varnish'
p49
S'mattrw89'
p50
S'mattrw89/docker-wordpress-nginx-hhvm-varnish'
p51
tp52
a(S'ansible-deploy'
p53
S'hummingbird-me'
p54
S'hummingbird-me/ansible-deploy'
p55
tp56
a(S'varnish-config'
p57
S'Kunstmaan'
p58
S'Kunstmaan/varnish-config'
p59
tp60
a(S'ding-deploy'
p61
S'kdb'
p62
S'kdb/ding-deploy'
p63
tp64
a(S'ansible-rax-magento-lamp-single'
p65
S'CajuCLC'
p66
S'CajuCLC/ansible-rax-magento-lamp-single'
p67
tp68
a(S'security.vcl'
p69
S'tzuryby'
p70
S'tzuryby/security.vcl'
p71
tp72
a(S'ding2'
p73
S'ding2tal'
p74
S'ding2tal/ding2'
p75
tp76
a(S'Magento-Ansible'
p77
S'ecoprojects'
p78
S'ecoprojects/Magento-Ansible'
p79
tp80
a(S'ding-deploy'
p81
S'Roedovre-Bibliotekerne'
p82
S'Roedovre-Bibliotekerne/ding-deploy'
p83
tp84
a(S'docker-varnish'
p85
S'paul91'
p86
S'paul91/docker-varnish'
p87
tp88
a(S'asm-provisioning'
p89
S'austinsmorris'
p90
S'austinsmorris/asm-provisioning'
p91
tp92
a(S'security.vcl'
p93
S'xcir'
p94
S'xcir/security.vcl'
p95
tp96
a(S'custom-lamp'
p97
S'bdelbono'
p98
S'bdelbono/custom-lamp'
p99
tp100
a(S'varnish-nginx-wordpress'
p101
S'nicolargo'
p102
S'nicolargo/varnish-nginx-wordpress'
p103
tp104
a(S'security.vcl'
p105
S'comotion'
p106
S'comotion/security.vcl'
p107
tp108
a(S'varnish-docker'
p109
S'jacksoncage'
p110
S'jacksoncage/varnish-docker'
p111
tp112
a(S'varnish-for-drupal'
p113
S'halcyonCorsair'
p114
S'halcyonCorsair/varnish-for-drupal'
p115
tp116
a(S'varnish'
p117
S'Lullabot'
p118
S'Lullabot/varnish'
p119
tp120
a(S'libvmod-3scale'
p121
S'3scale'
p122
S'3scale/libvmod-3scale'
p123
tp124
a(S'ansible-magento-lamp-single'
p125
S'CajuCLC'
p126
S'CajuCLC/ansible-magento-lamp-single'
p127
tp128
a(S'openshift-cartridge-varnish'
p129
S'devop-mmcgrath'
p130
S'devop-mmcgrath/openshift-cartridge-varnish'
p131
tp132
a(S'Symfony2-Nginx-Varnish-config'
p133
S'egils'
p134
S'egils/Symfony2-Nginx-Varnish-config'
p135
tp136
a(S'security.vcl'
p137
S'ssm'
p138
S'ssm/security.vcl'
p139
tp140
a(S'security.vcl'
p141
S'loveshell'
p142
S'loveshell/security.vcl'
p143
tp144
a(S'chef-magento_varnish'
p145
S'EcomDev'
p146
S'EcomDev/chef-magento_varnish'
p147
tp148
a(S'docker-wordpress-nginx-hhvm-varnish'
p149
S'mattrw89'
p150
S'mattrw89/docker-wordpress-nginx-hhvm-varnish'
p151
tp152
a(S'ansible-deploy'
p153
S'hummingbird-me'
p154
S'hummingbird-me/ansible-deploy'
p155
tp156
a(S'varnish-config'
p157
S'Kunstmaan'
p158
S'Kunstmaan/varnish-config'
p159
tp160
a(S'ding-deploy'
p161
S'kdb'
p162
S'kdb/ding-deploy'
p163
tp164
a(S'ansible-rax-magento-lamp-single'
p165
S'CajuCLC'
p166
S'CajuCLC/ansible-rax-magento-lamp-single'
p167
tp168
a(S'security.vcl'
p169
S'tzuryby'
p170
S'tzuryby/security.vcl'
p171
tp172
a(S'ding2'
p173
S'ding2tal'
p174
S'ding2tal/ding2'
p175
tp176
a(S'Magento-Ansible'
p177
S'ecoprojects'
p178
S'ecoprojects/Magento-Ansible'
p179
tp180
a(S'ding-deploy'
p181
S'Roedovre-Bibliotekerne'
p182
S'Roedovre-Bibliotekerne/ding-deploy'
p183
tp184
a(S'docker-varnish'
p185
S'paul91'
p186
S'paul91/docker-varnish'
p187
tp188
a(S'asm-provisioning'
p189
S'austinsmorris'
p190
S'austinsmorris/asm-provisioning'
p191
tp192
a(S'security.vcl'
p193
S'xcir'
p194
S'xcir/security.vcl'
p195
tp196
a(S'custom-lamp'
p197
S'bdelbono'
p198
S'bdelbono/custom-lamp'
p199
tp200
a(S'varnish-nginx-wordpress'
p201
S'nicolargo'
p202
S'nicolargo/varnish-nginx-wordpress'
p203
tp204
a(S'security.vcl'
p205
S'comotion'
p206
S'comotion/security.vcl'
p207
tp208
a(S'varnish-docker'
p209
S'jacksoncage'
p210
S'jacksoncage/varnish-docker'
p211
tp212
a(S'varnish-for-drupal'
p213
S'halcyonCorsair'
p214
S'halcyonCorsair/varnish-for-drupal'
p215
tp216
a(S'varnish'
p217
S'Lullabot'
p218
S'Lullabot/varnish'
p219
tp220
a(S'libvmod-3scale'
p221
S'3scale'
p222
S'3scale/libvmod-3scale'
p223
tp224
a(S'ansible-magento-lamp-single'
p225
S'CajuCLC'
p226
S'CajuCLC/ansible-magento-lamp-single'
p227
tp228
a(S'openshift-cartridge-varnish'
p229
S'devop-mmcgrath'
p230
S'devop-mmcgrath/openshift-cartridge-varnish'
p231
tp232
a(S'Symfony2-Nginx-Varnish-config'
p233
S'egils'
p234
S'egils/Symfony2-Nginx-Varnish-config'
p235
tp236
a(S'security.vcl'
p237
S'ssm'
p238
S'ssm/security.vcl'
p239
tp240
a(S'security.vcl'
p241
S'loveshell'
p242
S'loveshell/security.vcl'
p243
tp244
a(S'chef-magento_varnish'
p245
S'EcomDev'
p246
S'EcomDev/chef-magento_varnish'
p247
tp248
a(S'docker-wordpress-nginx-hhvm-varnish'
p249
S'mattrw89'
p250
S'mattrw89/docker-wordpress-nginx-hhvm-varnish'
p251
tp252
a(S'ansible-deploy'
p253
S'hummingbird-me'
p254
S'hummingbird-me/ansible-deploy'
p255
tp256
a(S'varnish-config'
p257
S'Kunstmaan'
p258
S'Kunstmaan/varnish-config'
p259
tp260
a(S'ding-deploy'
p261
S'kdb'
p262
S'kdb/ding-deploy'
p263
tp264
a(S'ansible-rax-magento-lamp-single'
p265
S'CajuCLC'
p266
S'CajuCLC/ansible-rax-magento-lamp-single'
p267
tp268
a(S'security.vcl'
p269
S'tzuryby'
p270
S'tzuryby/security.vcl'
p271
tp272
a(S'ding2'
p273
S'ding2tal'
p274
S'ding2tal/ding2'
p275
tp276
a(S'Magento-Ansible'
p277
S'ecoprojects'
p278
S'ecoprojects/Magento-Ansible'
p279
tp280
a(S'ding-deploy'
p281
S'Roedovre-Bibliotekerne'
p282
S'Roedovre-Bibliotekerne/ding-deploy'
p283
tp284
a(S'docker-varnish'
p285
S'paul91'
p286
S'paul91/docker-varnish'
p287
tp288
a(S'asm-provisioning'
p289
S'austinsmorris'
p290
S'austinsmorris/asm-provisioning'
p291
tp292
a(S'security.vcl'
p293
S'xcir'
p294
S'xcir/security.vcl'
p295
tp296
a(S'custom-lamp'
p297
S'bdelbono'
p298
S'bdelbono/custom-lamp'
p299
tp300
a.