(lp0
(S'hdl'
p1
S'analogdevicesinc'
p2
S'analogdevicesinc/hdl'
p3
tp4
a(S'miaow'
p5
S'VerticalResearchGroup'
p6
S'VerticalResearchGroup/miaow'
p7
tp8
a(S'FPGA-Litecoin-Miner'
p9
S'kramble'
p10
S'kramble/FPGA-Litecoin-Miner'
p11
tp12
a(S'ez8'
p13
S'zhemao'
p14
S'zhemao/ez8'
p15
tp16
a(S'Reduceron'
p17
S'tommythorn'
p18
S'tommythorn/Reduceron'
p19
tp20
a(S'zet'
p21
S'marmolejo'
p22
S'marmolejo/zet'
p23
tp24
a(S'milkymist'
p25
S'm-labs'
p26
S'm-labs/milkymist'
p27
tp28
a(S'mor1kx'
p29
S'openrisc'
p30
S'openrisc/mor1kx'
p31
tp32
a(S'netfpga'
p33
S'NetFPGA'
p34
S'NetFPGA/netfpga'
p35
tp36
a(S'dsi-shield'
p37
S'twlostow'
p38
S'twlostow/dsi-shield'
p39
tp40
a(S'Icarus'
p41
S'ngzhang'
p42
S'ngzhang/Icarus'
p43
tp44
a(S'verilog-6502'
p45
S'Arlet'
p46
S'Arlet/verilog-6502'
p47
tp48
a(S'fpga_nes'
p49
S'brianbennett'
p50
S'brianbennett/fpga_nes'
p51
tp52
a(S'Homotopy'
p53
S'andrejbauer'
p54
S'andrejbauer/Homotopy'
p55
tp56
a(S'Xilinx-Serial-Miner'
p57
S'teknohog'
p58
S'teknohog/Xilinx-Serial-Miner'
p59
tp60
a(S'orpsoc-cores'
p61
S'openrisc'
p62
S'openrisc/orpsoc-cores'
p63
tp64
a(S'oldland-cpu'
p65
S'jamieiles'
p66
S'jamieiles/oldland-cpu'
p67
tp68
a(S'mips-cpu'
p69
S'jmahler'
p70
S'jmahler/mips-cpu'
p71
tp72
a(S'ORGFXSoC'
p73
S'maidenone'
p74
S'maidenone/ORGFXSoC'
p75
tp76
a(S'lm32'
p77
S'm-labs'
p78
S'm-labs/lm32'
p79
tp80
a(S'dcpu16'
p81
S'sybreon'
p82
S'sybreon/dcpu16'
p83
tp84
a(S'soc'
p85
S'combinatorylogic'
p86
S'combinatorylogic/soc'
p87
tp88
a(S'verilog-mode'
p89
S'veripool'
p90
S'veripool/verilog-mode'
p91
tp92
a(S'fpganes'
p93
S'strigeus'
p94
S'strigeus/fpganes'
p95
tp96
a(S'ao68000'
p97
S'alfikpl'
p98
S'alfikpl/ao68000'
p99
tp100
a(S'miaow'
p101
S'VerticalResearchGroup'
p102
S'VerticalResearchGroup/miaow'
p103
tp104
a(S'FPGA-Litecoin-Miner'
p105
S'kramble'
p106
S'kramble/FPGA-Litecoin-Miner'
p107
tp108
a(S'ez8'
p109
S'zhemao'
p110
S'zhemao/ez8'
p111
tp112
a(S'Reduceron'
p113
S'tommythorn'
p114
S'tommythorn/Reduceron'
p115
tp116
a(S'zet'
p117
S'marmolejo'
p118
S'marmolejo/zet'
p119
tp120
a(S'milkymist'
p121
S'm-labs'
p122
S'm-labs/milkymist'
p123
tp124
a(S'mor1kx'
p125
S'openrisc'
p126
S'openrisc/mor1kx'
p127
tp128
a(S'netfpga'
p129
S'NetFPGA'
p130
S'NetFPGA/netfpga'
p131
tp132
a(S'dsi-shield'
p133
S'twlostow'
p134
S'twlostow/dsi-shield'
p135
tp136
a(S'Icarus'
p137
S'ngzhang'
p138
S'ngzhang/Icarus'
p139
tp140
a(S'verilog-6502'
p141
S'Arlet'
p142
S'Arlet/verilog-6502'
p143
tp144
a(S'fpga_nes'
p145
S'brianbennett'
p146
S'brianbennett/fpga_nes'
p147
tp148
a(S'Homotopy'
p149
S'andrejbauer'
p150
S'andrejbauer/Homotopy'
p151
tp152
a(S'Xilinx-Serial-Miner'
p153
S'teknohog'
p154
S'teknohog/Xilinx-Serial-Miner'
p155
tp156
a(S'mips-cpu'
p157
S'jmahler'
p158
S'jmahler/mips-cpu'
p159
tp160
a(S'orpsoc-cores'
p161
S'openrisc'
p162
S'openrisc/orpsoc-cores'
p163
tp164
a(S'hdl'
p165
S'analogdevicesinc'
p166
S'analogdevicesinc/hdl'
p167
tp168
a(S'oldland-cpu'
p169
S'jamieiles'
p170
S'jamieiles/oldland-cpu'
p171
tp172
a(S'ORGFXSoC'
p173
S'maidenone'
p174
S'maidenone/ORGFXSoC'
p175
tp176
a(S'lm32'
p177
S'm-labs'
p178
S'm-labs/lm32'
p179
tp180
a(S'dcpu16'
p181
S'sybreon'
p182
S'sybreon/dcpu16'
p183
tp184
a(S'soc'
p185
S'combinatorylogic'
p186
S'combinatorylogic/soc'
p187
tp188
a(S'verilog-mode'
p189
S'veripool'
p190
S'veripool/verilog-mode'
p191
tp192
a(S'fpganes'
p193
S'strigeus'
p194
S'strigeus/fpganes'
p195
tp196
a(S'ao68000'
p197
S'alfikpl'
p198
S'alfikpl/ao68000'
p199
tp200
a(S'miaow'
p201
S'VerticalResearchGroup'
p202
S'VerticalResearchGroup/miaow'
p203
tp204
a(S'verilog-mode'
p205
S'veripool'
p206
S'veripool/verilog-mode'
p207
tp208
a(S'FPGA-Litecoin-Miner'
p209
S'kramble'
p210
S'kramble/FPGA-Litecoin-Miner'
p211
tp212
a(S'ez8'
p213
S'zhemao'
p214
S'zhemao/ez8'
p215
tp216
a(S'Reduceron'
p217
S'tommythorn'
p218
S'tommythorn/Reduceron'
p219
tp220
a(S'zet'
p221
S'marmolejo'
p222
S'marmolejo/zet'
p223
tp224
a(S'milkymist'
p225
S'm-labs'
p226
S'm-labs/milkymist'
p227
tp228
a(S'mor1kx'
p229
S'openrisc'
p230
S'openrisc/mor1kx'
p231
tp232
a(S'netfpga'
p233
S'NetFPGA'
p234
S'NetFPGA/netfpga'
p235
tp236
a(S'dsi-shield'
p237
S'twlostow'
p238
S'twlostow/dsi-shield'
p239
tp240
a(S'Icarus'
p241
S'ngzhang'
p242
S'ngzhang/Icarus'
p243
tp244
a(S'verilog-6502'
p245
S'Arlet'
p246
S'Arlet/verilog-6502'
p247
tp248
a(S'fpga_nes'
p249
S'brianbennett'
p250
S'brianbennett/fpga_nes'
p251
tp252
a(S'Homotopy'
p253
S'andrejbauer'
p254
S'andrejbauer/Homotopy'
p255
tp256
a(S'Xilinx-Serial-Miner'
p257
S'teknohog'
p258
S'teknohog/Xilinx-Serial-Miner'
p259
tp260
a(S'oldland-cpu'
p261
S'jamieiles'
p262
S'jamieiles/oldland-cpu'
p263
tp264
a(S'orpsoc-cores'
p265
S'openrisc'
p266
S'openrisc/orpsoc-cores'
p267
tp268
a(S'mips-cpu'
p269
S'jmahler'
p270
S'jmahler/mips-cpu'
p271
tp272
a(S'hdl'
p273
S'analogdevicesinc'
p274
S'analogdevicesinc/hdl'
p275
tp276
a(S'ORGFXSoC'
p277
S'maidenone'
p278
S'maidenone/ORGFXSoC'
p279
tp280
a(S'lm32'
p281
S'm-labs'
p282
S'm-labs/lm32'
p283
tp284
a(S'dcpu16'
p285
S'sybreon'
p286
S'sybreon/dcpu16'
p287
tp288
a(S'soc'
p289
S'combinatorylogic'
p290
S'combinatorylogic/soc'
p291
tp292
a(S'FPGA-Imaging-Library'
p293
S'dtysky'
p294
S'dtysky/FPGA-Imaging-Library'
p295
tp296
a(S'fpganes'
p297
S'strigeus'
p298
S'strigeus/fpganes'
p299
tp300
a.