(lp0
(S'Open-Source-FPGA-Bitcoin-Miner'
p1
S'progranism'
p2
S'progranism/Open-Source-FPGA-Bitcoin-Miner'
p3
tp4
a(S'parallella-hw'
p5
S'parallella'
p6
S'parallella/parallella-hw'
p7
tp8
a(S'gplgpu'
p9
S'asicguy'
p10
S'asicguy/gplgpu'
p11
tp12
a(S'parallella-examples'
p13
S'parallella'
p14
S'parallella/parallella-examples'
p15
tp16
a(S'Open-Source-FPGA-Bitcoin-Miner'
p17
S'fpgaminer'
p18
S'fpgaminer/Open-Source-FPGA-Bitcoin-Miner'
p19
tp20
a(S'HDMI2USB'
p21
S'timvideos'
p22
S'timvideos/HDMI2USB'
p23
tp24
a(S'c65gs'
p25
S'gardners'
p26
S'gardners/c65gs'
p27
tp28
a(S'yafc'
p29
S'inforichland'
p30
S'inforichland/yafc'
p31
tp32
a(S'freezing-spice'
p33
S'inforichland'
p34
S'inforichland/freezing-spice'
p35
tp36
a(S'neppielight'
p37
S'drxzcl'
p38
S'drxzcl/neppielight'
p39
tp40
a(S'gcvideo'
p41
S'ikorb'
p42
S'ikorb/gcvideo'
p43
tp44
a(S'ZPUino-HDL'
p45
S'alvieboy'
p46
S'alvieboy/ZPUino-HDL'
p47
tp48
a(S'vunit'
p49
S'LarsAsplund'
p50
S'LarsAsplund/vunit'
p51
tp52
a(S'FPGA_DisplayPort'
p53
S'hamsternz'
p54
S'hamsternz/FPGA_DisplayPort'
p55
tp56
a(S'Arduino-Soft-Core'
p57
S'GadgetFactory'
p58
S'GadgetFactory/Arduino-Soft-Core'
p59
tp60
a(S'libv'
p61
S'martinjthompson'
p62
S'martinjthompson/libv'
p63
tp64
a(S'hard-cv'
p65
S'jpiat'
p66
S'jpiat/hard-cv'
p67
tp68
a(S'ZynqBTC'
p69
S'stiggy87'
p70
S'stiggy87/ZynqBTC'
p71
tp72
a(S'logi-projects'
p73
S'fpga-logi'
p74
S'fpga-logi/logi-projects'
p75
tp76
a(S'FpgasNowWhat'
p77
S'xesscorp'
p78
S'xesscorp/FpgasNowWhat'
p79
tp80
a(S'Open-Source-FPGA-Bitcoin-Miner'
p81
S'teknohog'
p82
S'teknohog/Open-Source-FPGA-Bitcoin-Miner'
p83
tp84
a(S'Papilio-Arcade'
p85
S'GadgetFactory'
p86
S'GadgetFactory/Papilio-Arcade'
p87
tp88
a(S'blockmon'
p89
S'blockmon'
p90
S'blockmon/blockmon'
p91
tp92
a(S'zpu'
p93
S'zylin'
p94
S'zylin/zpu'
p95
tp96
a(S'lemberg'
p97
S'jeuneS2'
p98
S'jeuneS2/lemberg'
p99
tp100
a(S'Open-Source-FPGA-Bitcoin-Miner'
p101
S'progranism'
p102
S'progranism/Open-Source-FPGA-Bitcoin-Miner'
p103
tp104
a(S'parallella-hw'
p105
S'parallella'
p106
S'parallella/parallella-hw'
p107
tp108
a(S'gplgpu'
p109
S'asicguy'
p110
S'asicguy/gplgpu'
p111
tp112
a(S'parallella-examples'
p113
S'parallella'
p114
S'parallella/parallella-examples'
p115
tp116
a(S'Open-Source-FPGA-Bitcoin-Miner'
p117
S'fpgaminer'
p118
S'fpgaminer/Open-Source-FPGA-Bitcoin-Miner'
p119
tp120
a(S'HDMI2USB'
p121
S'timvideos'
p122
S'timvideos/HDMI2USB'
p123
tp124
a(S'c65gs'
p125
S'gardners'
p126
S'gardners/c65gs'
p127
tp128
a(S'yafc'
p129
S'inforichland'
p130
S'inforichland/yafc'
p131
tp132
a(S'freezing-spice'
p133
S'inforichland'
p134
S'inforichland/freezing-spice'
p135
tp136
a(S'neppielight'
p137
S'drxzcl'
p138
S'drxzcl/neppielight'
p139
tp140
a(S'gcvideo'
p141
S'ikorb'
p142
S'ikorb/gcvideo'
p143
tp144
a(S'ZPUino-HDL'
p145
S'alvieboy'
p146
S'alvieboy/ZPUino-HDL'
p147
tp148
a(S'vunit'
p149
S'LarsAsplund'
p150
S'LarsAsplund/vunit'
p151
tp152
a(S'FPGA_DisplayPort'
p153
S'hamsternz'
p154
S'hamsternz/FPGA_DisplayPort'
p155
tp156
a(S'Arduino-Soft-Core'
p157
S'GadgetFactory'
p158
S'GadgetFactory/Arduino-Soft-Core'
p159
tp160
a(S'libv'
p161
S'martinjthompson'
p162
S'martinjthompson/libv'
p163
tp164
a(S'hard-cv'
p165
S'jpiat'
p166
S'jpiat/hard-cv'
p167
tp168
a(S'ZynqBTC'
p169
S'stiggy87'
p170
S'stiggy87/ZynqBTC'
p171
tp172
a(S'logi-projects'
p173
S'fpga-logi'
p174
S'fpga-logi/logi-projects'
p175
tp176
a(S'FpgasNowWhat'
p177
S'xesscorp'
p178
S'xesscorp/FpgasNowWhat'
p179
tp180
a(S'Open-Source-FPGA-Bitcoin-Miner'
p181
S'teknohog'
p182
S'teknohog/Open-Source-FPGA-Bitcoin-Miner'
p183
tp184
a(S'Papilio-Arcade'
p185
S'GadgetFactory'
p186
S'GadgetFactory/Papilio-Arcade'
p187
tp188
a(S'blockmon'
p189
S'blockmon'
p190
S'blockmon/blockmon'
p191
tp192
a(S'zpu'
p193
S'zylin'
p194
S'zylin/zpu'
p195
tp196
a(S'lemberg'
p197
S'jeuneS2'
p198
S'jeuneS2/lemberg'
p199
tp200
a(S'FPGA_DisplayPort'
p201
S'hamsternz'
p202
S'hamsternz/FPGA_DisplayPort'
p203
tp204
a(S'vunit'
p205
S'LarsAsplund'
p206
S'LarsAsplund/vunit'
p207
tp208
a(S'c65gs'
p209
S'gardners'
p210
S'gardners/c65gs'
p211
tp212
a(S'Open-Source-FPGA-Bitcoin-Miner'
p213
S'progranism'
p214
S'progranism/Open-Source-FPGA-Bitcoin-Miner'
p215
tp216
a(S'parallella-hw'
p217
S'parallella'
p218
S'parallella/parallella-hw'
p219
tp220
a(S'gplgpu'
p221
S'asicguy'
p222
S'asicguy/gplgpu'
p223
tp224
a(S'parallella-examples'
p225
S'parallella'
p226
S'parallella/parallella-examples'
p227
tp228
a(S'Open-Source-FPGA-Bitcoin-Miner'
p229
S'fpgaminer'
p230
S'fpgaminer/Open-Source-FPGA-Bitcoin-Miner'
p231
tp232
a(S'HDMI2USB'
p233
S'timvideos'
p234
S'timvideos/HDMI2USB'
p235
tp236
a(S'yafc'
p237
S'inforichland'
p238
S'inforichland/yafc'
p239
tp240
a(S'freezing-spice'
p241
S'inforichland'
p242
S'inforichland/freezing-spice'
p243
tp244
a(S'neppielight'
p245
S'drxzcl'
p246
S'drxzcl/neppielight'
p247
tp248
a(S'gcvideo'
p249
S'ikorb'
p250
S'ikorb/gcvideo'
p251
tp252
a(S'ZPUino-HDL'
p253
S'alvieboy'
p254
S'alvieboy/ZPUino-HDL'
p255
tp256
a(S'Arduino-Soft-Core'
p257
S'GadgetFactory'
p258
S'GadgetFactory/Arduino-Soft-Core'
p259
tp260
a(S'libv'
p261
S'martinjthompson'
p262
S'martinjthompson/libv'
p263
tp264
a(S'hard-cv'
p265
S'jpiat'
p266
S'jpiat/hard-cv'
p267
tp268
a(S'logi-projects'
p269
S'fpga-logi'
p270
S'fpga-logi/logi-projects'
p271
tp272
a(S'ZynqBTC'
p273
S'stiggy87'
p274
S'stiggy87/ZynqBTC'
p275
tp276
a(S'FpgasNowWhat'
p277
S'xesscorp'
p278
S'xesscorp/FpgasNowWhat'
p279
tp280
a(S'Open-Source-FPGA-Bitcoin-Miner'
p281
S'teknohog'
p282
S'teknohog/Open-Source-FPGA-Bitcoin-Miner'
p283
tp284
a(S'Papilio-Arcade'
p285
S'GadgetFactory'
p286
S'GadgetFactory/Papilio-Arcade'
p287
tp288
a(S'blockmon'
p289
S'blockmon'
p290
S'blockmon/blockmon'
p291
tp292
a(S'zpu'
p293
S'zylin'
p294
S'zylin/zpu'
p295
tp296
a(S'XuLA'
p297
S'xesscorp'
p298
S'xesscorp/XuLA'
p299
tp300
a.