(lp0
(S'vim-troll-stopper'
p1
S'vim-utils'
p2
S'vim-utils/vim-troll-stopper'
p3
tp4
a(S'neovim'
p5
S'neovim'
p6
S'neovim/neovim'
p7
tp8
a(S'dotfiles'
p9
S'mathiasbynens'
p10
S'mathiasbynens/dotfiles'
p11
tp12
a(S'Vundle.vim'
p13
S'VundleVim'
p14
S'VundleVim/Vundle.vim'
p15
tp16
a(S'haskell-vim-now'
p17
S'begriffs'
p18
S'begriffs/haskell-vim-now'
p19
tp20
a(S'vim-airline'
p21
S'bling'
p22
S'bling/vim-airline'
p23
tp24
a(S'syntastic'
p25
S'scrooloose'
p26
S'scrooloose/syntastic'
p27
tp28
a(S'dotfiles'
p29
S'dylanaraps'
p30
S'dylanaraps/dotfiles'
p31
tp32
a(S'vim-go'
p33
S'fatih'
p34
S'fatih/vim-go'
p35
tp36
a(S'vim-plug'
p37
S'junegunn'
p38
S'junegunn/vim-plug'
p39
tp40
a(S'vim-cpp'
p41
S'vim-jp'
p42
S'vim-jp/vim-cpp'
p43
tp44
a(S'html5.vim'
p45
S'othree'
p46
S'othree/html5.vim'
p47
tp48
a(S'vim-glsl'
p49
S'tikhomirov'
p50
S'tikhomirov/vim-glsl'
p51
tp52
a(S'vim-jst'
p53
S'briancollins'
p54
S'briancollins/vim-jst'
p55
tp56
a(S'css.vim'
p57
S'JulesWang'
p58
S'JulesWang/css.vim'
p59
tp60
a(S'vim-clojure-static'
p61
S'guns'
p62
S'guns/vim-clojure-static'
p63
tp64
a(S'vim-mustache-handlebars'
p65
S'mustache'
p66
S'mustache/vim-mustache-handlebars'
p67
tp68
a(S'vim-cpp-enhanced-highlight'
p69
S'octol'
p70
S'octol/vim-cpp-enhanced-highlight'
p71
tp72
a(S'vim-blade'
p73
S'jwalton512'
p74
S'jwalton512/vim-blade'
p75
tp76
a(S'vim-arduino-syntax'
p77
S'sudar'
p78
S'sudar/vim-arduino-syntax'
p79
tp80
a(S'vital.vim'
p81
S'vim-jp'
p82
S'vim-jp/vital.vim'
p83
tp84
a(S'vim-template'
p85
S'aperezdc'
p86
S'aperezdc/vim-template'
p87
tp88
a(S'vimproc.vim'
p89
S'Shougo'
p90
S'Shougo/vimproc.vim'
p91
tp92
a(S'vim-clang'
p93
S'justmao945'
p94
S'justmao945/vim-clang'
p95
tp96
a(S'vader.vim'
p97
S'junegunn'
p98
S'junegunn/vader.vim'
p99
tp100
a(S'neovim'
p101
S'neovim'
p102
S'neovim/neovim'
p103
tp104
a(S'Vundle.vim'
p105
S'VundleVim'
p106
S'VundleVim/Vundle.vim'
p107
tp108
a(S'dotfiles'
p109
S'mathiasbynens'
p110
S'mathiasbynens/dotfiles'
p111
tp112
a(S'vim-troll-stopper'
p113
S'vim-utils'
p114
S'vim-utils/vim-troll-stopper'
p115
tp116
a(S'haskell-vim-now'
p117
S'begriffs'
p118
S'begriffs/haskell-vim-now'
p119
tp120
a(S'vimrc'
p121
S'amix'
p122
S'amix/vimrc'
p123
tp124
a(S'vim-plug'
p125
S'junegunn'
p126
S'junegunn/vim-plug'
p127
tp128
a(S'vim-airline'
p129
S'bling'
p130
S'bling/vim-airline'
p131
tp132
a(S'vim-fugitive'
p133
S'tpope'
p134
S'tpope/vim-fugitive'
p135
tp136
a(S'vim-go'
p137
S'fatih'
p138
S'fatih/vim-go'
p139
tp140
a(S'k-vim'
p141
S'wklken'
p142
S'wklken/k-vim'
p143
tp144
a(S'syntastic'
p145
S'scrooloose'
p146
S'scrooloose/syntastic'
p147
tp148
a(S'dotfiles'
p149
S'paulirish'
p150
S'paulirish/dotfiles'
p151
tp152
a(S'vimtex'
p153
S'lervag'
p154
S'lervag/vimtex'
p155
tp156
a(S'vim-gitgutter'
p157
S'airblade'
p158
S'airblade/vim-gitgutter'
p159
tp160
a(S'committia.vim'
p161
S'rhysd'
p162
S'rhysd/committia.vim'
p163
tp164
a(S'molokai'
p165
S'tomasr'
p166
S'tomasr/molokai'
p167
tp168
a(S'neobundle.vim'
p169
S'Shougo'
p170
S'Shougo/neobundle.vim'
p171
tp172
a(S'vim-tmux-navigator'
p173
S'christoomey'
p174
S'christoomey/vim-tmux-navigator'
p175
tp176
a(S'neocomplete.vim'
p177
S'Shougo'
p178
S'Shougo/neocomplete.vim'
p179
tp180
a(S'dotfiles'
p181
S'junegunn'
p182
S'junegunn/dotfiles'
p183
tp184
a(S'unite.vim'
p185
S'Shougo'
p186
S'Shougo/unite.vim'
p187
tp188
a(S'emmet-vim'
p189
S'mattn'
p190
S'mattn/emmet-vim'
p191
tp192
a(S'swift.vim'
p193
S'keith'
p194
S'keith/swift.vim'
p195
tp196
a(S'vim-rails'
p197
S'tpope'
p198
S'tpope/vim-rails'
p199
tp200
a(S'vim-go'
p201
S'fatih'
p202
S'fatih/vim-go'
p203
tp204
a(S'neovim'
p205
S'neovim'
p206
S'neovim/neovim'
p207
tp208
a(S'dotfiles'
p209
S'mathiasbynens'
p210
S'mathiasbynens/dotfiles'
p211
tp212
a(S'Vundle.vim'
p213
S'VundleVim'
p214
S'VundleVim/Vundle.vim'
p215
tp216
a(S'dotfiles'
p217
S'paulirish'
p218
S'paulirish/dotfiles'
p219
tp220
a(S'vimrc'
p221
S'amix'
p222
S'amix/vimrc'
p223
tp224
a(S'vim-airline'
p225
S'bling'
p226
S'bling/vim-airline'
p227
tp228
a(S'vim-plug'
p229
S'junegunn'
p230
S'junegunn/vim-plug'
p231
tp232
a(S'vim-fugitive'
p233
S'tpope'
p234
S'tpope/vim-fugitive'
p235
tp236
a(S'syntastic'
p237
S'scrooloose'
p238
S'scrooloose/syntastic'
p239
tp240
a(S'k-vim'
p241
S'wklken'
p242
S'wklken/k-vim'
p243
tp244
a(S'molokai'
p245
S'tomasr'
p246
S'tomasr/molokai'
p247
tp248
a(S'vim-gitgutter'
p249
S'airblade'
p250
S'airblade/vim-gitgutter'
p251
tp252
a(S'haskell-vim-now'
p253
S'begriffs'
p254
S'begriffs/haskell-vim-now'
p255
tp256
a(S'emmet-vim'
p257
S'mattn'
p258
S'mattn/emmet-vim'
p259
tp260
a(S'neobundle.vim'
p261
S'Shougo'
p262
S'Shougo/neobundle.vim'
p263
tp264
a(S'vim-troll-stopper'
p265
S'vim-utils'
p266
S'vim-utils/vim-troll-stopper'
p267
tp268
a(S'neocomplete.vim'
p269
S'Shougo'
p270
S'Shougo/neocomplete.vim'
p271
tp272
a(S'jedi-vim'
p273
S'davidhalter'
p274
S'davidhalter/jedi-vim'
p275
tp276
a(S'vim-tmux-navigator'
p277
S'christoomey'
p278
S'christoomey/vim-tmux-navigator'
p279
tp280
a(S'vimtex'
p281
S'lervag'
p282
S'lervag/vimtex'
p283
tp284
a(S'unite.vim'
p285
S'Shougo'
p286
S'Shougo/unite.vim'
p287
tp288
a(S'dotfiles'
p289
S'nicknisi'
p290
S'nicknisi/dotfiles'
p291
tp292
a(S'vim-rails'
p293
S'tpope'
p294
S'tpope/vim-rails'
p295
tp296
a(S'nerdtree-git-plugin'
p297
S'Xuyuanp'
p298
S'Xuyuanp/nerdtree-git-plugin'
p299
tp300
a.