(lp0
(S'butter'
p1
S'butterproject'
p2
S'butterproject/butter'
p3
tp4
a(S'mimic'
p5
S'reinderien'
p6
S'reinderien/mimic'
p7
tp8
a(S'zxcvbn'
p9
S'dropbox'
p10
S'dropbox/zxcvbn'
p11
tp12
a(S'awesome-osx-command-line'
p13
S'herrbischoff'
p14
S'herrbischoff/awesome-osx-command-line'
p15
tp16
a(S'devd'
p17
S'cortesi'
p18
S'cortesi/devd'
p19
tp20
a(S'FreeCodeCamp'
p21
S'FreeCodeCamp'
p22
S'FreeCodeCamp/FreeCodeCamp'
p23
tp24
a(S'javascript-path'
p25
S'javascript-society'
p26
S'javascript-society/javascript-path'
p27
tp28
a(S'trix'
p29
S'basecamp'
p30
S'basecamp/trix'
p31
tp32
a(S'ProgrammingAssignment2'
p33
S'rdpeng'
p34
S'rdpeng/ProgrammingAssignment2'
p35
tp36
a(S'jquery-tips-everyone-should-know'
p37
S'AllThingsSmitty'
p38
S'AllThingsSmitty/jquery-tips-everyone-should-know'
p39
tp40
a(S'StarWars.iOS'
p41
S'Yalantis'
p42
S'Yalantis/StarWars.iOS'
p43
tp44
a(S'rollup'
p45
S'rollup'
p46
S'rollup/rollup'
p47
tp48
a(S'metabase'
p49
S'metabase'
p50
S'metabase/metabase'
p51
tp52
a(S'style-guides'
p53
S'Khan'
p54
S'Khan/style-guides'
p55
tp56
a(S'server'
p57
S'ipfspics'
p58
S'ipfspics/server'
p59
tp60
a(S'valid.js'
p61
S'dleitee'
p62
S'dleitee/valid.js'
p63
tp64
a(S'N1'
p65
S'nylas'
p66
S'nylas/N1'
p67
tp68
a(S'nightmare'
p69
S'segmentio'
p70
S'segmentio/nightmare'
p71
tp72
a(S'photon'
p73
S'connors'
p74
S'connors/photon'
p75
tp76
a(S'material-ui'
p77
S'callemall'
p78
S'callemall/material-ui'
p79
tp80
a(S'react-dom-stream'
p81
S'aickin'
p82
S'aickin/react-dom-stream'
p83
tp84
a(S'smartcrop.js'
p85
S'jwagner'
p86
S'jwagner/smartcrop.js'
p87
tp88
a(S'ViewInspector'
p89
S'xfumihiro'
p90
S'xfumihiro/ViewInspector'
p91
tp92
a(S'letsencrypt'
p93
S'letsencrypt'
p94
S'letsencrypt/letsencrypt'
p95
tp96
a(S'code-push'
p97
S'Microsoft'
p98
S'Microsoft/code-push'
p99
tp100
a(S'PhotoDemon'
p101
S'tannerhelland'
p102
S'tannerhelland/PhotoDemon'
p103
tp104
a(S'mRemoteNG'
p105
S'rmcardle'
p106
S'rmcardle/mRemoteNG'
p107
tp108
a(S'VBA-Web'
p109
S'VBA-tools'
p110
S'VBA-tools/VBA-Web'
p111
tp112
a(S'vibreoffice'
p113
S'seanyeh'
p114
S'seanyeh/vibreoffice'
p115
tp116
a(S'MetroSteamSettings'
p117
S'SoapyHamHocks'
p118
S'SoapyHamHocks/MetroSteamSettings'
p119
tp120
a(S'Ember-MM'
p121
S'bodrick'
p122
S'bodrick/Ember-MM'
p123
tp124
a(S'RemoteControlServer'
p125
S'Steppschuh'
p126
S'Steppschuh/RemoteControlServer'
p127
tp128
a(S'SteamCMD-GUI'
p129
S'DioJoestar'
p130
S'DioJoestar/SteamCMD-GUI'
p131
tp132
a(S'ts_block'
p133
S'EvanAnderson'
p134
S'EvanAnderson/ts_block'
p135
tp136
a(S'vbaDeveloper'
p137
S'hilkoc'
p138
S'hilkoc/vbaDeveloper'
p139
tp140
a(S'fbc'
p141
S'freebasic'
p142
S'freebasic/fbc'
p143
tp144
a(S'coreos-devenv'
p145
S'EpocSquadron'
p146
S'EpocSquadron/coreos-devenv'
p147
tp148
a(S'sn0wbreeze'
p149
S'iH8sn0w'
p150
S'iH8sn0w/sn0wbreeze'
p151
tp152
a(S'DotNetAnalyzers'
p153
S'DotNetAnalyzers'
p154
S'DotNetAnalyzers/DotNetAnalyzers'
p155
tp156
a(S'tkinter-designer'
p157
S'cdhigh'
p158
S'cdhigh/tkinter-designer'
p159
tp160
a(S'uacscript'
p161
S'Vozzie'
p162
S'Vozzie/uacscript'
p163
tp164
a(S'Ember-MM-Newscraper'
p165
S'DanCooper'
p166
S'DanCooper/Ember-MM-Newscraper'
p167
tp168
a(S'IDACompare'
p169
S'dzzie'
p170
S'dzzie/IDACompare'
p171
tp172
a(S'staxrip'
p173
S'stax76'
p174
S'stax76/staxrip'
p175
tp176
a(S'Desktop-Ponies'
p177
S'RoosterDragon'
p178
S'RoosterDragon/Desktop-Ponies'
p179
tp180
a(S'Ariawase'
p181
S'vbaidiot'
p182
S'vbaidiot/Ariawase'
p183
tp184
a(S'Excel-VBA-Productivity-Libraries'
p185
S'emilefyon'
p186
S'emilefyon/Excel-VBA-Productivity-Libraries'
p187
tp188
a(S'ExpandAnimations'
p189
S'monperrus'
p190
S'monperrus/ExpandAnimations'
p191
tp192
a(S'VBA-JSON'
p193
S'VBA-tools'
p194
S'VBA-tools/VBA-JSON'
p195
tp196
a(S'Arsenal-Image-Mounter'
p197
S'ArsenalRecon'
p198
S'ArsenalRecon/Arsenal-Image-Mounter'
p199
tp200
a(S'fbc'
p201
S'freebasic'
p202
S'freebasic/fbc'
p203
tp204
a(S'Ember-MM-Newscraper'
p205
S'DanCooper'
p206
S'DanCooper/Ember-MM-Newscraper'
p207
tp208
a(S'mRemoteNG'
p209
S'rmcardle'
p210
S'rmcardle/mRemoteNG'
p211
tp212
a(S'VBA-Web'
p213
S'VBA-tools'
p214
S'VBA-tools/VBA-Web'
p215
tp216
a(S'vibreoffice'
p217
S'seanyeh'
p218
S'seanyeh/vibreoffice'
p219
tp220
a(S'MetroSteamSettings'
p221
S'SoapyHamHocks'
p222
S'SoapyHamHocks/MetroSteamSettings'
p223
tp224
a(S'Ember-MM'
p225
S'bodrick'
p226
S'bodrick/Ember-MM'
p227
tp228
a(S'RemoteControlServer'
p229
S'Steppschuh'
p230
S'Steppschuh/RemoteControlServer'
p231
tp232
a(S'SteamCMD-GUI'
p233
S'DioJoestar'
p234
S'DioJoestar/SteamCMD-GUI'
p235
tp236
a(S'ts_block'
p237
S'EvanAnderson'
p238
S'EvanAnderson/ts_block'
p239
tp240
a(S'vbaDeveloper'
p241
S'hilkoc'
p242
S'hilkoc/vbaDeveloper'
p243
tp244
a(S'coreos-devenv'
p245
S'EpocSquadron'
p246
S'EpocSquadron/coreos-devenv'
p247
tp248
a(S'sn0wbreeze'
p249
S'iH8sn0w'
p250
S'iH8sn0w/sn0wbreeze'
p251
tp252
a(S'DotNetAnalyzers'
p253
S'DotNetAnalyzers'
p254
S'DotNetAnalyzers/DotNetAnalyzers'
p255
tp256
a(S'tkinter-designer'
p257
S'cdhigh'
p258
S'cdhigh/tkinter-designer'
p259
tp260
a(S'PhotoDemon'
p261
S'tannerhelland'
p262
S'tannerhelland/PhotoDemon'
p263
tp264
a(S'uacscript'
p265
S'Vozzie'
p266
S'Vozzie/uacscript'
p267
tp268
a(S'IDACompare'
p269
S'dzzie'
p270
S'dzzie/IDACompare'
p271
tp272
a(S'staxrip'
p273
S'stax76'
p274
S'stax76/staxrip'
p275
tp276
a(S'Desktop-Ponies'
p277
S'RoosterDragon'
p278
S'RoosterDragon/Desktop-Ponies'
p279
tp280
a(S'Ariawase'
p281
S'vbaidiot'
p282
S'vbaidiot/Ariawase'
p283
tp284
a(S'Excel-VBA-Productivity-Libraries'
p285
S'emilefyon'
p286
S'emilefyon/Excel-VBA-Productivity-Libraries'
p287
tp288
a(S'ExpandAnimations'
p289
S'monperrus'
p290
S'monperrus/ExpandAnimations'
p291
tp292
a(S'VBA-JSON'
p293
S'VBA-tools'
p294
S'VBA-tools/VBA-JSON'
p295
tp296
a(S'Arsenal-Image-Mounter'
p297
S'ArsenalRecon'
p298
S'ArsenalRecon/Arsenal-Image-Mounter'
p299
tp300
a.