(lp0
(S'dasshy'
p1
S'phalcon'
p2
S'phalcon/dasshy'
p3
tp4
a(S'Watt'
p5
S'VoltLang'
p6
S'VoltLang/Watt'
p7
tp8
a(S'VoltInVolt'
p9
S'VoltLang'
p10
S'VoltLang/VoltInVolt'
p11
tp12
a(S'alpha'
p13
S'phanbook'
p14
S'phanbook/alpha'
p15
tp16
a(S'Tesla'
p17
S'VoltLang'
p18
S'VoltLang/Tesla'
p19
tp20
a(S'Watt'
p21
S'jamiepg1'
p22
S'jamiepg1/Watt'
p23
tp24
a(S'Tesla'
p25
S'jamiepg1'
p26
S'jamiepg1/Tesla'
p27
tp28
a(S'VoltInVolt'
p29
S'jamiepg1'
p30
S'jamiepg1/VoltInVolt'
p31
tp32
a(S'SCP'
p33
S'jamiepg1'
p34
S'jamiepg1/SCP'
p35
tp36
a(S'giselle'
p37
S'jamiepg1'
p38
S'jamiepg1/giselle'
p39
tp40
a(S'admin'
p41
S'dreamsxin'
p42
S'dreamsxin/admin'
p43
tp44
a(S'Monitoring'
p45
S'melz'
p46
S'melz/Monitoring'
p47
tp48
a(S'sceletone-phalcon-modular'
p49
S'pendalff'
p50
S'pendalff/sceletone-phalcon-modular'
p51
tp52
a(S'Monitoring'
p53
S'qrwteyrutiyoup'
p54
S'qrwteyrutiyoup/Monitoring'
p55
tp56
a(S'giselle'
p57
S'innermond'
p58
S'innermond/giselle'
p59
tp60
a(S'Charge'
p61
S'VoltLang'
p62
S'VoltLang/Charge'
p63
tp64
a(S'SCP'
p65
S'HaiDesu'
p66
S'HaiDesu/SCP'
p67
tp68
a(S'admin'
p69
S'instcar'
p70
S'instcar/admin'
p71
tp72
a(S'dark_moon_Phalcon'
p73
S'rsocarras'
p74
S'rsocarras/dark_moon_Phalcon'
p75
tp76
a(S'Phalcon-With-AdminLTE'
p77
S'Lao-liu'
p78
S'Lao-liu/Phalcon-With-AdminLTE'
p79
tp80
a(S'Monitoring'
p81
S'nhocconan'
p82
S'nhocconan/Monitoring'
p83
tp84
a(S'user-testing-suite-phalcon'
p85
S'SeeWatson'
p86
S'SeeWatson/user-testing-suite-phalcon'
p87
tp88
a(S'Amp'
p89
S'VoltLang'
p90
S'VoltLang/Amp'
p91
tp92
a(S'Phalcon-With-AdminLTE'
p93
S'Alexandr-Penkin'
p94
S'Alexandr-Penkin/Phalcon-With-AdminLTE'
p95
tp96
a(S'VoltImage'
p97
S'bhelyer'
p98
S'bhelyer/VoltImage'
p99
tp100
a(S'dasshy'
p101
S'phalcon'
p102
S'phalcon/dasshy'
p103
tp104
a(S'Watt'
p105
S'VoltLang'
p106
S'VoltLang/Watt'
p107
tp108
a(S'VoltInVolt'
p109
S'VoltLang'
p110
S'VoltLang/VoltInVolt'
p111
tp112
a(S'alpha'
p113
S'phanbook'
p114
S'phanbook/alpha'
p115
tp116
a(S'Tesla'
p117
S'VoltLang'
p118
S'VoltLang/Tesla'
p119
tp120
a(S'Watt'
p121
S'jamiepg1'
p122
S'jamiepg1/Watt'
p123
tp124
a(S'Tesla'
p125
S'jamiepg1'
p126
S'jamiepg1/Tesla'
p127
tp128
a(S'VoltInVolt'
p129
S'jamiepg1'
p130
S'jamiepg1/VoltInVolt'
p131
tp132
a(S'SCP'
p133
S'jamiepg1'
p134
S'jamiepg1/SCP'
p135
tp136
a(S'giselle'
p137
S'jamiepg1'
p138
S'jamiepg1/giselle'
p139
tp140
a(S'admin'
p141
S'dreamsxin'
p142
S'dreamsxin/admin'
p143
tp144
a(S'Monitoring'
p145
S'melz'
p146
S'melz/Monitoring'
p147
tp148
a(S'sceletone-phalcon-modular'
p149
S'pendalff'
p150
S'pendalff/sceletone-phalcon-modular'
p151
tp152
a(S'Monitoring'
p153
S'qrwteyrutiyoup'
p154
S'qrwteyrutiyoup/Monitoring'
p155
tp156
a(S'giselle'
p157
S'innermond'
p158
S'innermond/giselle'
p159
tp160
a(S'Charge'
p161
S'VoltLang'
p162
S'VoltLang/Charge'
p163
tp164
a(S'SCP'
p165
S'HaiDesu'
p166
S'HaiDesu/SCP'
p167
tp168
a(S'admin'
p169
S'instcar'
p170
S'instcar/admin'
p171
tp172
a(S'dark_moon_Phalcon'
p173
S'rsocarras'
p174
S'rsocarras/dark_moon_Phalcon'
p175
tp176
a(S'Phalcon-With-AdminLTE'
p177
S'Lao-liu'
p178
S'Lao-liu/Phalcon-With-AdminLTE'
p179
tp180
a(S'Monitoring'
p181
S'nhocconan'
p182
S'nhocconan/Monitoring'
p183
tp184
a(S'user-testing-suite-phalcon'
p185
S'SeeWatson'
p186
S'SeeWatson/user-testing-suite-phalcon'
p187
tp188
a(S'Amp'
p189
S'VoltLang'
p190
S'VoltLang/Amp'
p191
tp192
a(S'Phalcon-With-AdminLTE'
p193
S'Alexandr-Penkin'
p194
S'Alexandr-Penkin/Phalcon-With-AdminLTE'
p195
tp196
a(S'VoltImage'
p197
S'bhelyer'
p198
S'bhelyer/VoltImage'
p199
tp200
a(S'dasshy'
p201
S'phalcon'
p202
S'phalcon/dasshy'
p203
tp204
a(S'Watt'
p205
S'VoltLang'
p206
S'VoltLang/Watt'
p207
tp208
a(S'VoltInVolt'
p209
S'VoltLang'
p210
S'VoltLang/VoltInVolt'
p211
tp212
a(S'alpha'
p213
S'phanbook'
p214
S'phanbook/alpha'
p215
tp216
a(S'Tesla'
p217
S'VoltLang'
p218
S'VoltLang/Tesla'
p219
tp220
a(S'Watt'
p221
S'jamiepg1'
p222
S'jamiepg1/Watt'
p223
tp224
a(S'Tesla'
p225
S'jamiepg1'
p226
S'jamiepg1/Tesla'
p227
tp228
a(S'VoltInVolt'
p229
S'jamiepg1'
p230
S'jamiepg1/VoltInVolt'
p231
tp232
a(S'SCP'
p233
S'jamiepg1'
p234
S'jamiepg1/SCP'
p235
tp236
a(S'giselle'
p237
S'jamiepg1'
p238
S'jamiepg1/giselle'
p239
tp240
a(S'admin'
p241
S'dreamsxin'
p242
S'dreamsxin/admin'
p243
tp244
a(S'Monitoring'
p245
S'melz'
p246
S'melz/Monitoring'
p247
tp248
a(S'sceletone-phalcon-modular'
p249
S'pendalff'
p250
S'pendalff/sceletone-phalcon-modular'
p251
tp252
a(S'Monitoring'
p253
S'qrwteyrutiyoup'
p254
S'qrwteyrutiyoup/Monitoring'
p255
tp256
a(S'giselle'
p257
S'innermond'
p258
S'innermond/giselle'
p259
tp260
a(S'Charge'
p261
S'VoltLang'
p262
S'VoltLang/Charge'
p263
tp264
a(S'SCP'
p265
S'HaiDesu'
p266
S'HaiDesu/SCP'
p267
tp268
a(S'admin'
p269
S'instcar'
p270
S'instcar/admin'
p271
tp272
a(S'dark_moon_Phalcon'
p273
S'rsocarras'
p274
S'rsocarras/dark_moon_Phalcon'
p275
tp276
a(S'Phalcon-With-AdminLTE'
p277
S'Lao-liu'
p278
S'Lao-liu/Phalcon-With-AdminLTE'
p279
tp280
a(S'Monitoring'
p281
S'nhocconan'
p282
S'nhocconan/Monitoring'
p283
tp284
a(S'user-testing-suite-phalcon'
p285
S'SeeWatson'
p286
S'SeeWatson/user-testing-suite-phalcon'
p287
tp288
a(S'Amp'
p289
S'VoltLang'
p290
S'VoltLang/Amp'
p291
tp292
a(S'Phalcon-With-AdminLTE'
p293
S'Alexandr-Penkin'
p294
S'Alexandr-Penkin/Phalcon-With-AdminLTE'
p295
tp296
a(S'VoltImage'
p297
S'bhelyer'
p298
S'bhelyer/VoltImage'
p299
tp300
a.