(lp0
(S'vue-hackernews'
p1
S'vuejs'
p2
S'vuejs/vue-hackernews'
p3
tp4
a(S'qingcheng'
p5
S'zerqu'
p6
S'zerqu/qingcheng'
p7
tp8
a(S'vue-loader-example'
p9
S'vuejs'
p10
S'vuejs/vue-loader-example'
p11
tp12
a(S'vueify-example'
p13
S'vuejs'
p14
S'vuejs/vueify-example'
p15
tp16
a(S'game-app'
p17
S'OpenSISE'
p18
S'OpenSISE/game-app'
p19
tp20
a(S'Absolute-Grid'
p21
S'ihanyang'
p22
S'ihanyang/Absolute-Grid'
p23
tp24
a(S'my-first-vue-router'
p25
S'hazumu'
p26
S'hazumu/my-first-vue-router'
p27
tp28
a(S'asd-and-Rizzo.github.io'
p29
S'asd-and-Rizzo'
p30
S'asd-and-Rizzo/asd-and-Rizzo.github.io'
p31
tp32
a(S'amazeui-vue'
p33
S'zcoding'
p34
S'zcoding/amazeui-vue'
p35
tp36
a(S'udata-admin'
p37
S'etalab'
p38
S'etalab/udata-admin'
p39
tp40
a(S'xingzhi'
p41
S'ahbing'
p42
S'ahbing/xingzhi'
p43
tp44
a(S'obs-models'
p45
S'Semantic-Observations'
p46
S'Semantic-Observations/obs-models'
p47
tp48
a(S'vue-todo'
p49
S'greyby'
p50
S'greyby/vue-todo'
p51
tp52
a(S'vue-webpack-example'
p53
S'zhuangtongfa'
p54
S'zhuangtongfa/vue-webpack-example'
p55
tp56
a(S'YAE-VueTemplate'
p57
S'baisusua'
p58
S'baisusua/YAE-VueTemplate'
p59
tp60
a(S'VueGulp'
p61
S'baisusua'
p62
S'baisusua/VueGulp'
p63
tp64
a(S'vue-vueRouter-webpack'
p65
S'vingojw'
p66
S'vingojw/vue-vueRouter-webpack'
p67
tp68
a(S'note2'
p69
S'mattymil'
p70
S'mattymil/note2'
p71
tp72
a(S'vueTest'
p73
S'baisusua'
p74
S'baisusua/vueTest'
p75
tp76
a(S'vuejs-webpack-intro'
p77
S'dewey92'
p78
S'dewey92/vuejs-webpack-intro'
p79
tp80
a(S'vue-todomvc'
p81
S'taoche'
p82
S'taoche/vue-todomvc'
p83
tp84
a(S'ChuuboResources'
p85
S'HughG'
p86
S'HughG/ChuuboResources'
p87
tp88
a(S'vue-demo'
p89
S'oryx2'
p90
S'oryx2/vue-demo'
p91
tp92
a(S'mis2-vue'
p93
S'baiyushiwhite'
p94
S'baiyushiwhite/mis2-vue'
p95
tp96
a(S'vue-starter'
p97
S'raultm'
p98
S'raultm/vue-starter'
p99
tp100
a(S'vue-hackernews'
p101
S'vuejs'
p102
S'vuejs/vue-hackernews'
p103
tp104
a(S'vueify-example'
p105
S'vuejs'
p106
S'vuejs/vueify-example'
p107
tp108
a(S'qingcheng'
p109
S'zerqu'
p110
S'zerqu/qingcheng'
p111
tp112
a(S'vue-loader-example'
p113
S'vuejs'
p114
S'vuejs/vue-loader-example'
p115
tp116
a(S'game-app'
p117
S'OpenSISE'
p118
S'OpenSISE/game-app'
p119
tp120
a(S'Absolute-Grid'
p121
S'ihanyang'
p122
S'ihanyang/Absolute-Grid'
p123
tp124
a(S'my-first-vue-router'
p125
S'hazumu'
p126
S'hazumu/my-first-vue-router'
p127
tp128
a(S'asd-and-Rizzo.github.io'
p129
S'asd-and-Rizzo'
p130
S'asd-and-Rizzo/asd-and-Rizzo.github.io'
p131
tp132
a(S'amazeui-vue'
p133
S'zcoding'
p134
S'zcoding/amazeui-vue'
p135
tp136
a(S'udata-admin'
p137
S'etalab'
p138
S'etalab/udata-admin'
p139
tp140
a(S'xingzhi'
p141
S'ahbing'
p142
S'ahbing/xingzhi'
p143
tp144
a(S'obs-models'
p145
S'Semantic-Observations'
p146
S'Semantic-Observations/obs-models'
p147
tp148
a(S'componentByVue'
p149
S'fattydevelop'
p150
S'fattydevelop/componentByVue'
p151
tp152
a(S'YAE-VueTemplate'
p153
S'baisusua'
p154
S'baisusua/YAE-VueTemplate'
p155
tp156
a(S'vue-webpack-example'
p157
S'zhuangtongfa'
p158
S'zhuangtongfa/vue-webpack-example'
p159
tp160
a(S'vue-todo'
p161
S'greyby'
p162
S'greyby/vue-todo'
p163
tp164
a(S'SyncWork'
p165
S'lzcers'
p166
S'lzcers/SyncWork'
p167
tp168
a(S'VueGulp'
p169
S'baisusua'
p170
S'baisusua/VueGulp'
p171
tp172
a(S'vue-vueRouter-webpack'
p173
S'vingojw'
p174
S'vingojw/vue-vueRouter-webpack'
p175
tp176
a(S'note2'
p177
S'mattymil'
p178
S'mattymil/note2'
p179
tp180
a(S'vue-starter'
p181
S'raultm'
p182
S'raultm/vue-starter'
p183
tp184
a(S'workout-site-front-end'
p185
S'seashaw'
p186
S'seashaw/workout-site-front-end'
p187
tp188
a(S'mis2-vue'
p189
S'baiyushiwhite'
p190
S'baiyushiwhite/mis2-vue'
p191
tp192
a(S'vue-demo'
p193
S'oryx2'
p194
S'oryx2/vue-demo'
p195
tp196
a(S'ChuuboResources'
p197
S'HughG'
p198
S'HughG/ChuuboResources'
p199
tp200
a(S'vue-hackernews'
p201
S'vuejs'
p202
S'vuejs/vue-hackernews'
p203
tp204
a(S'qingcheng'
p205
S'zerqu'
p206
S'zerqu/qingcheng'
p207
tp208
a(S'vue-loader-example'
p209
S'vuejs'
p210
S'vuejs/vue-loader-example'
p211
tp212
a(S'vueify-example'
p213
S'vuejs'
p214
S'vuejs/vueify-example'
p215
tp216
a(S'game-app'
p217
S'OpenSISE'
p218
S'OpenSISE/game-app'
p219
tp220
a(S'Absolute-Grid'
p221
S'ihanyang'
p222
S'ihanyang/Absolute-Grid'
p223
tp224
a(S'my-first-vue-router'
p225
S'hazumu'
p226
S'hazumu/my-first-vue-router'
p227
tp228
a(S'amazeui-vue'
p229
S'zcoding'
p230
S'zcoding/amazeui-vue'
p231
tp232
a(S'udata-admin'
p233
S'etalab'
p234
S'etalab/udata-admin'
p235
tp236
a(S'asd-and-Rizzo.github.io'
p237
S'asd-and-Rizzo'
p238
S'asd-and-Rizzo/asd-and-Rizzo.github.io'
p239
tp240
a(S'obs-models'
p241
S'Semantic-Observations'
p242
S'Semantic-Observations/obs-models'
p243
tp244
a(S'xingzhi'
p245
S'ahbing'
p246
S'ahbing/xingzhi'
p247
tp248
a(S'YAE-VueTemplate'
p249
S'baisusua'
p250
S'baisusua/YAE-VueTemplate'
p251
tp252
a(S'vue-webpack-example'
p253
S'zhuangtongfa'
p254
S'zhuangtongfa/vue-webpack-example'
p255
tp256
a(S'vue-todo'
p257
S'greyby'
p258
S'greyby/vue-todo'
p259
tp260
a(S'SyncWork'
p261
S'lzcers'
p262
S'lzcers/SyncWork'
p263
tp264
a(S'componentByVue'
p265
S'fattydevelop'
p266
S'fattydevelop/componentByVue'
p267
tp268
a(S'app'
p269
S'akralj'
p270
S'akralj/app'
p271
tp272
a(S'VueGulp'
p273
S'baisusua'
p274
S'baisusua/VueGulp'
p275
tp276
a(S'vue-vueRouter-webpack'
p277
S'vingojw'
p278
S'vingojw/vue-vueRouter-webpack'
p279
tp280
a(S'vue-starter'
p281
S'raultm'
p282
S'raultm/vue-starter'
p283
tp284
a(S'workout-site-front-end'
p285
S'seashaw'
p286
S'seashaw/workout-site-front-end'
p287
tp288
a(S'mis2-vue'
p289
S'baiyushiwhite'
p290
S'baiyushiwhite/mis2-vue'
p291
tp292
a(S'vue-demo'
p293
S'oryx2'
p294
S'oryx2/vue-demo'
p295
tp296
a(S'ChuuboResources'
p297
S'HughG'
p298
S'HughG/ChuuboResources'
p299
tp300
a.