(lp0
(S'pellet'
p1
S'Complexible'
p2
S'Complexible/pellet'
p3
tp4
a(S'extraction-framework'
p5
S'dbpedia'
p6
S'dbpedia/extraction-framework'
p7
tp8
a(S'schema-generator'
p9
S'api-platform'
p10
S'api-platform/schema-generator'
p11
tp12
a(S'geoportal-server'
p13
S'Esri'
p14
S'Esri/geoportal-server'
p15
tp16
a(S'ontop'
p17
S'ontop'
p18
S'ontop/ontop'
p19
tp20
a(S'VIVO'
p21
S'vivo-project'
p22
S'vivo-project/VIVO'
p23
tp24
a(S'DL-Learner'
p25
S'AKSW'
p26
S'AKSW/DL-Learner'
p27
tp28
a(S'RDFUnit'
p29
S'AKSW'
p30
S'AKSW/RDFUnit'
p31
tp32
a(S'dams'
p33
S'ucsdlib'
p34
S'ucsdlib/dams'
p35
tp36
a(S'eol-globi-data'
p37
S'jhpoelen'
p38
S'jhpoelen/eol-globi-data'
p39
tp40
a(S'FuXi'
p41
S'RDFLib'
p42
S'RDFLib/FuXi'
p43
tp44
a(S'wot'
p45
S'w3c'
p46
S'w3c/wot'
p47
tp48
a(S'cecog'
p49
S'CellCognition'
p50
S'CellCognition/cecog'
p51
tp52
a(S'uberon'
p53
S'obophenotype'
p54
S'obophenotype/uberon'
p55
tp56
a(S'Racer'
p57
S'ha-mo-we'
p58
S'ha-mo-we/Racer'
p59
tp60
a(S'owltools'
p61
S'owlcollab'
p62
S'owlcollab/owltools'
p63
tp64
a(S'LodView'
p65
S'dvcama'
p66
S'dvcama/LodView'
p67
tp68
a(S'distributed-extraction-framework'
p69
S'dbpedia'
p70
S'dbpedia/distributed-extraction-framework'
p71
tp72
a(S'Bibliographic-Ontology-BIBO'
p73
S'structureddynamics'
p74
S'structureddynamics/Bibliographic-Ontology-BIBO'
p75
tp76
a(S'edamontology'
p77
S'edamontology'
p78
S'edamontology/edamontology'
p79
tp80
a(S'knowrob'
p81
S'knowrob'
p82
S'knowrob/knowrob'
p83
tp84
a(S'semantic-web'
p85
S'taurenshaman'
p86
S'taurenshaman/semantic-web'
p87
tp88
a(S'RightField'
p89
S'myGrid'
p90
S'myGrid/RightField'
p91
tp92
a(S'OpenGravestones'
p93
S'OpenGravestones'
p94
S'OpenGravestones/OpenGravestones'
p95
tp96
a(S'VFB'
p97
S'VirtualFlyBrain'
p98
S'VirtualFlyBrain/VFB'
p99
tp100
a(S'ontop'
p101
S'ontop'
p102
S'ontop/ontop'
p103
tp104
a(S'wot'
p105
S'w3c'
p106
S'w3c/wot'
p107
tp108
a(S'schema-generator'
p109
S'api-platform'
p110
S'api-platform/schema-generator'
p111
tp112
a(S'extraction-framework'
p113
S'dbpedia'
p114
S'dbpedia/extraction-framework'
p115
tp116
a(S'geoportal-server'
p117
S'Esri'
p118
S'Esri/geoportal-server'
p119
tp120
a(S'pellet'
p121
S'Complexible'
p122
S'Complexible/pellet'
p123
tp124
a(S'VIVO'
p125
S'vivo-project'
p126
S'vivo-project/VIVO'
p127
tp128
a(S'DL-Learner'
p129
S'AKSW'
p130
S'AKSW/DL-Learner'
p131
tp132
a(S'RDFUnit'
p133
S'AKSW'
p134
S'AKSW/RDFUnit'
p135
tp136
a(S'dams'
p137
S'ucsdlib'
p138
S'ucsdlib/dams'
p139
tp140
a(S'FuXi'
p141
S'RDFLib'
p142
S'RDFLib/FuXi'
p143
tp144
a(S'eol-globi-data'
p145
S'jhpoelen'
p146
S'jhpoelen/eol-globi-data'
p147
tp148
a(S'cecog'
p149
S'CellCognition'
p150
S'CellCognition/cecog'
p151
tp152
a(S'uberon'
p153
S'obophenotype'
p154
S'obophenotype/uberon'
p155
tp156
a(S'Racer'
p157
S'ha-mo-we'
p158
S'ha-mo-we/Racer'
p159
tp160
a(S'owltools'
p161
S'owlcollab'
p162
S'owlcollab/owltools'
p163
tp164
a(S'LodView'
p165
S'dvcama'
p166
S'dvcama/LodView'
p167
tp168
a(S'Bibliographic-Ontology-BIBO'
p169
S'structureddynamics'
p170
S'structureddynamics/Bibliographic-Ontology-BIBO'
p171
tp172
a(S'distributed-extraction-framework'
p173
S'dbpedia'
p174
S'dbpedia/distributed-extraction-framework'
p175
tp176
a(S'edamontology'
p177
S'edamontology'
p178
S'edamontology/edamontology'
p179
tp180
a(S'knowrob'
p181
S'knowrob'
p182
S'knowrob/knowrob'
p183
tp184
a(S'semantic-web'
p185
S'taurenshaman'
p186
S'taurenshaman/semantic-web'
p187
tp188
a(S'VFB'
p189
S'VirtualFlyBrain'
p190
S'VirtualFlyBrain/VFB'
p191
tp192
a(S'OpenGravestones'
p193
S'OpenGravestones'
p194
S'OpenGravestones/OpenGravestones'
p195
tp196
a(S'RightField'
p197
S'myGrid'
p198
S'myGrid/RightField'
p199
tp200
a(S'pellet'
p201
S'Complexible'
p202
S'Complexible/pellet'
p203
tp204
a(S'extraction-framework'
p205
S'dbpedia'
p206
S'dbpedia/extraction-framework'
p207
tp208
a(S'schema-generator'
p209
S'api-platform'
p210
S'api-platform/schema-generator'
p211
tp212
a(S'geoportal-server'
p213
S'Esri'
p214
S'Esri/geoportal-server'
p215
tp216
a(S'ontop'
p217
S'ontop'
p218
S'ontop/ontop'
p219
tp220
a(S'VIVO'
p221
S'vivo-project'
p222
S'vivo-project/VIVO'
p223
tp224
a(S'DL-Learner'
p225
S'AKSW'
p226
S'AKSW/DL-Learner'
p227
tp228
a(S'RDFUnit'
p229
S'AKSW'
p230
S'AKSW/RDFUnit'
p231
tp232
a(S'dams'
p233
S'ucsdlib'
p234
S'ucsdlib/dams'
p235
tp236
a(S'eol-globi-data'
p237
S'jhpoelen'
p238
S'jhpoelen/eol-globi-data'
p239
tp240
a(S'FuXi'
p241
S'RDFLib'
p242
S'RDFLib/FuXi'
p243
tp244
a(S'wot'
p245
S'w3c'
p246
S'w3c/wot'
p247
tp248
a(S'cecog'
p249
S'CellCognition'
p250
S'CellCognition/cecog'
p251
tp252
a(S'uberon'
p253
S'obophenotype'
p254
S'obophenotype/uberon'
p255
tp256
a(S'Racer'
p257
S'ha-mo-we'
p258
S'ha-mo-we/Racer'
p259
tp260
a(S'owltools'
p261
S'owlcollab'
p262
S'owlcollab/owltools'
p263
tp264
a(S'LodView'
p265
S'dvcama'
p266
S'dvcama/LodView'
p267
tp268
a(S'distributed-extraction-framework'
p269
S'dbpedia'
p270
S'dbpedia/distributed-extraction-framework'
p271
tp272
a(S'Bibliographic-Ontology-BIBO'
p273
S'structureddynamics'
p274
S'structureddynamics/Bibliographic-Ontology-BIBO'
p275
tp276
a(S'edamontology'
p277
S'edamontology'
p278
S'edamontology/edamontology'
p279
tp280
a(S'knowrob'
p281
S'knowrob'
p282
S'knowrob/knowrob'
p283
tp284
a(S'semantic-web'
p285
S'taurenshaman'
p286
S'taurenshaman/semantic-web'
p287
tp288
a(S'VFB'
p289
S'VirtualFlyBrain'
p290
S'VirtualFlyBrain/VFB'
p291
tp292
a(S'OpenGravestones'
p293
S'OpenGravestones'
p294
S'OpenGravestones/OpenGravestones'
p295
tp296
a(S'RightField'
p297
S'myGrid'
p298
S'myGrid/RightField'
p299
tp300
a.