(lp0
(S'html-externs'
p1
S'fponticelli'
p2
S'fponticelli/html-externs'
p3
tp4
a(S'webidl-externs'
p5
S'aduros'
p6
S'aduros/webidl-externs'
p7
tp8
a(S'presentation-api'
p9
S'ginayeh'
p10
S'ginayeh/presentation-api'
p11
tp12
a(S'html-externs'
p13
S'fponticelli'
p14
S'fponticelli/html-externs'
p15
tp16
a(S'webidl-externs'
p17
S'aduros'
p18
S'aduros/webidl-externs'
p19
tp20
a(S'presentation-api'
p21
S'ginayeh'
p22
S'ginayeh/presentation-api'
p23
tp24
a(S'html-externs'
p25
S'fponticelli'
p26
S'fponticelli/html-externs'
p27
tp28
a(S'webidl-externs'
p29
S'aduros'
p30
S'aduros/webidl-externs'
p31
tp32
a(S'presentation-api'
p33
S'ginayeh'
p34
S'ginayeh/presentation-api'
p35
tp36
a.