(lp0
(S'wisp'
p1
S'Gozala'
p2
S'Gozala/wisp'
p3
tp4
a(S'hu'
p5
S'h2non'
p6
S'h2non/hu'
p7
tp8
a(S'fw'
p9
S'h2non'
p10
S'h2non/fw'
p11
tp12
a(S'injecty'
p13
S'h2non'
p14
S'h2non/injecty'
p15
tp16
a(S'wisp'
p17
S'rcarmo'
p18
S'rcarmo/wisp'
p19
tp20
a(S'wisp'
p21
S'peterwestmacott'
p22
S'peterwestmacott/wisp'
p23
tp24
a(S'promitto'
p25
S'h2non'
p26
S'h2non/promitto'
p27
tp28
a(S'http-proxy-server'
p29
S'leizongmin'
p30
S'leizongmin/http-proxy-server'
p31
tp32
a(S'wispc'
p33
S'JeremS'
p34
S'JeremS/wispc'
p35
tp36
a(S'wisp-playground'
p37
S'wynemo'
p38
S'wynemo/wisp-playground'
p39
tp40
a(S'wisp'
p41
S'Johnicholas'
p42
S'Johnicholas/wisp'
p43
tp44
a(S'wisp'
p45
S'bamboo'
p46
S'bamboo/wisp'
p47
tp48
a(S'wisp'
p49
S'johnmorreli'
p50
S'johnmorreli/wisp'
p51
tp52
a(S'wisp'
p53
S'jacereda'
p54
S'jacereda/wisp'
p55
tp56
a(S'http-proxy-server'
p57
S'jamiepg1'
p58
S'jamiepg1/http-proxy-server'
p59
tp60
a(S'wisp-playground'
p61
S'jamiepg1'
p62
S'jamiepg1/wisp-playground'
p63
tp64
a(S'wisp'
p65
S'didhe'
p66
S'didhe/wisp'
p67
tp68
a(S'wisp'
p69
S'thehydroimpulse'
p70
S'thehydroimpulse/wisp'
p71
tp72
a(S'wisp'
p73
S'bwhmather'
p74
S'bwhmather/wisp'
p75
tp76
a(S'wisp'
p77
S'spion'
p78
S'spion/wisp'
p79
tp80
a(S'wispc'
p81
S'jamiepg1'
p82
S'jamiepg1/wispc'
p83
tp84
a(S'zitao.ca'
p85
S'jamiepg1'
p86
S'jamiepg1/zitao.ca'
p87
tp88
a(S'wisp'
p89
S'jamiepg1'
p90
S'jamiepg1/wisp'
p91
tp92
a(S'wisp'
p93
S'bertrandk'
p94
S'bertrandk/wisp'
p95
tp96
a(S'hu'
p97
S'rafinskipg'
p98
S'rafinskipg/hu'
p99
tp100
a(S'wisp'
p101
S'Gozala'
p102
S'Gozala/wisp'
p103
tp104
a(S'hu'
p105
S'h2non'
p106
S'h2non/hu'
p107
tp108
a(S'fw'
p109
S'h2non'
p110
S'h2non/fw'
p111
tp112
a(S'injecty'
p113
S'h2non'
p114
S'h2non/injecty'
p115
tp116
a(S'wisp'
p117
S'rcarmo'
p118
S'rcarmo/wisp'
p119
tp120
a(S'wisp'
p121
S'peterwestmacott'
p122
S'peterwestmacott/wisp'
p123
tp124
a(S'promitto'
p125
S'h2non'
p126
S'h2non/promitto'
p127
tp128
a(S'http-proxy-server'
p129
S'leizongmin'
p130
S'leizongmin/http-proxy-server'
p131
tp132
a(S'wispc'
p133
S'JeremS'
p134
S'JeremS/wispc'
p135
tp136
a(S'wisp-playground'
p137
S'wynemo'
p138
S'wynemo/wisp-playground'
p139
tp140
a(S'wisp'
p141
S'Johnicholas'
p142
S'Johnicholas/wisp'
p143
tp144
a(S'wisp'
p145
S'bamboo'
p146
S'bamboo/wisp'
p147
tp148
a(S'wisp'
p149
S'johnmorreli'
p150
S'johnmorreli/wisp'
p151
tp152
a(S'wisp'
p153
S'jacereda'
p154
S'jacereda/wisp'
p155
tp156
a(S'http-proxy-server'
p157
S'jamiepg1'
p158
S'jamiepg1/http-proxy-server'
p159
tp160
a(S'wisp-playground'
p161
S'jamiepg1'
p162
S'jamiepg1/wisp-playground'
p163
tp164
a(S'wisp'
p165
S'didhe'
p166
S'didhe/wisp'
p167
tp168
a(S'wisp'
p169
S'thehydroimpulse'
p170
S'thehydroimpulse/wisp'
p171
tp172
a(S'wisp'
p173
S'bwhmather'
p174
S'bwhmather/wisp'
p175
tp176
a(S'wisp'
p177
S'spion'
p178
S'spion/wisp'
p179
tp180
a(S'wispc'
p181
S'jamiepg1'
p182
S'jamiepg1/wispc'
p183
tp184
a(S'zitao.ca'
p185
S'jamiepg1'
p186
S'jamiepg1/zitao.ca'
p187
tp188
a(S'wisp'
p189
S'jamiepg1'
p190
S'jamiepg1/wisp'
p191
tp192
a(S'wisp'
p193
S'bertrandk'
p194
S'bertrandk/wisp'
p195
tp196
a(S'hu'
p197
S'rafinskipg'
p198
S'rafinskipg/hu'
p199
tp200
a(S'wisp'
p201
S'Gozala'
p202
S'Gozala/wisp'
p203
tp204
a(S'hu'
p205
S'h2non'
p206
S'h2non/hu'
p207
tp208
a(S'fw'
p209
S'h2non'
p210
S'h2non/fw'
p211
tp212
a(S'injecty'
p213
S'h2non'
p214
S'h2non/injecty'
p215
tp216
a(S'wisp'
p217
S'rcarmo'
p218
S'rcarmo/wisp'
p219
tp220
a(S'wisp'
p221
S'peterwestmacott'
p222
S'peterwestmacott/wisp'
p223
tp224
a(S'promitto'
p225
S'h2non'
p226
S'h2non/promitto'
p227
tp228
a(S'http-proxy-server'
p229
S'leizongmin'
p230
S'leizongmin/http-proxy-server'
p231
tp232
a(S'wispc'
p233
S'JeremS'
p234
S'JeremS/wispc'
p235
tp236
a(S'wisp-playground'
p237
S'wynemo'
p238
S'wynemo/wisp-playground'
p239
tp240
a(S'wisp'
p241
S'Johnicholas'
p242
S'Johnicholas/wisp'
p243
tp244
a(S'wisp'
p245
S'bamboo'
p246
S'bamboo/wisp'
p247
tp248
a(S'wisp'
p249
S'johnmorreli'
p250
S'johnmorreli/wisp'
p251
tp252
a(S'wisp'
p253
S'jacereda'
p254
S'jacereda/wisp'
p255
tp256
a(S'http-proxy-server'
p257
S'jamiepg1'
p258
S'jamiepg1/http-proxy-server'
p259
tp260
a(S'wisp-playground'
p261
S'jamiepg1'
p262
S'jamiepg1/wisp-playground'
p263
tp264
a(S'wisp'
p265
S'didhe'
p266
S'didhe/wisp'
p267
tp268
a(S'wisp'
p269
S'thehydroimpulse'
p270
S'thehydroimpulse/wisp'
p271
tp272
a(S'wisp'
p273
S'bwhmather'
p274
S'bwhmather/wisp'
p275
tp276
a(S'wisp'
p277
S'spion'
p278
S'spion/wisp'
p279
tp280
a(S'wispc'
p281
S'jamiepg1'
p282
S'jamiepg1/wispc'
p283
tp284
a(S'zitao.ca'
p285
S'jamiepg1'
p286
S'jamiepg1/zitao.ca'
p287
tp288
a(S'wisp'
p289
S'jamiepg1'
p290
S'jamiepg1/wisp'
p291
tp292
a(S'wisp'
p293
S'bertrandk'
p294
S'bertrandk/wisp'
p295
tp296
a(S'hu'
p297
S'rafinskipg'
p298
S'rafinskipg/hu'
p299
tp300
a.