(lp0
(S'x10'
p1
S'x10-lang'
p2
S'x10-lang/x10'
p3
tp4
a(S'anuchem'
p5
S'milthorpe'
p6
S'milthorpe/anuchem'
p7
tp8
a(S'CSP-X10'
p9
S'dannymrock'
p10
S'dannymrock/CSP-X10'
p11
tp12
a(S'x10-benchmarks'
p13
S'x10-lang'
p14
S'x10-lang/x10-benchmarks'
p15
tp16
a(S'scalegraph'
p17
S'toshi-github'
p18
S'toshi-github/scalegraph'
p19
tp20
a(S'anuchem'
p21
S'konsP'
p22
S'konsP/anuchem'
p23
tp24
a(S'x10'
p25
S'shamouda'
p26
S'shamouda/x10'
p27
tp28
a(S'x10'
p29
S'x10-lang'
p30
S'x10-lang/x10'
p31
tp32
a(S'anuchem'
p33
S'milthorpe'
p34
S'milthorpe/anuchem'
p35
tp36
a(S'CSP-X10'
p37
S'dannymrock'
p38
S'dannymrock/CSP-X10'
p39
tp40
a(S'x10-benchmarks'
p41
S'x10-lang'
p42
S'x10-lang/x10-benchmarks'
p43
tp44
a(S'scalegraph'
p45
S'toshi-github'
p46
S'toshi-github/scalegraph'
p47
tp48
a(S'anuchem'
p49
S'konsP'
p50
S'konsP/anuchem'
p51
tp52
a(S'x10'
p53
S'shamouda'
p54
S'shamouda/x10'
p55
tp56
a(S'x10'
p57
S'x10-lang'
p58
S'x10-lang/x10'
p59
tp60
a(S'anuchem'
p61
S'milthorpe'
p62
S'milthorpe/anuchem'
p63
tp64
a(S'CSP-X10'
p65
S'dannymrock'
p66
S'dannymrock/CSP-X10'
p67
tp68
a(S'x10-benchmarks'
p69
S'x10-lang'
p70
S'x10-lang/x10-benchmarks'
p71
tp72
a(S'scalegraph'
p73
S'toshi-github'
p74
S'toshi-github/scalegraph'
p75
tp76
a(S'anuchem'
p77
S'konsP'
p78
S'konsP/anuchem'
p79
tp80
a(S'x10'
p81
S'shamouda'
p82
S'shamouda/x10'
p83
tp84
a.