(lp0
(S'wwDotnetBridge'
p1
S'RickStrahl'
p2
S'RickStrahl/wwDotnetBridge'
p3
tp4
a(S'JSON-ADVPL'
p5
S'imsys'
p6
S'imsys/JSON-ADVPL'
p7
tp8
a(S'BlackTDN'
p9
S'NaldoDj'
p10
S'NaldoDj/BlackTDN'
p11
tp12
a(S'sepa'
p13
S'QuimFerrer'
p14
S'QuimFerrer/sepa'
p15
tp16
a(S'siscan'
p17
S'osantana'
p18
S'osantana/siscan'
p19
tp20
a(S'vfpjson'
p21
S'sait'
p22
S'sait/vfpjson'
p23
tp24
a(S'envLib'
p25
S'StevenBlack'
p26
S'StevenBlack/envLib'
p27
tp28
a(S'tBigNumber'
p29
S'NaldoDj'
p30
S'NaldoDj/tBigNumber'
p31
tp32
a(S'fw-moodle'
p33
S'ket-ed'
p34
S'ket-ed/fw-moodle'
p35
tp36
a(S'advpl-debugger'
p37
S'haskellcamargo'
p38
S'haskellcamargo/advpl-debugger'
p39
tp40
a(S'vfp-git-utils'
p41
S'mikepotjer'
p42
S'mikepotjer/vfp-git-utils'
p43
tp44
a(S'prelude-advpl'
p45
S'haskellcamargo'
p46
S'haskellcamargo/prelude-advpl'
p47
tp48
a(S'cims'
p49
S'hbcdev'
p50
S'hbcdev/cims'
p51
tp52
a(S'FoxInCloud-AB'
p53
S'FoxInCloud'
p54
S'FoxInCloud/FoxInCloud-AB'
p55
tp56
a(S'h4aFirstApp'
p57
S'alkresin'
p58
S'alkresin/h4aFirstApp'
p59
tp60
a(S'adordd'
p61
S'AHFERREIRA'
p62
S'AHFERREIRA/adordd'
p63
tp64
a(S'foxbin2prg'
p65
S'fdbozzo'
p66
S'fdbozzo/foxbin2prg'
p67
tp68
a(S'div_games_studio'
p69
S'obduk'
p70
S'obduk/div_games_studio'
p71
tp72
a(S'cursor2xlsx'
p73
S'cakyus'
p74
S'cakyus/cursor2xlsx'
p75
tp76
a(S'gesto'
p77
S'superbloc'
p78
S'superbloc/gesto'
p79
tp80
a(S'prelude-docs'
p81
S'haskellcamargo'
p82
S'haskellcamargo/prelude-docs'
p83
tp84
a(S'fenix'
p85
S'lynx68'
p86
S'lynx68/fenix'
p87
tp88
a(S'guithread'
p89
S'RickCHodgin'
p90
S'RickCHodgin/guithread'
p91
tp92
a(S'initialized'
p93
S'asalim'
p94
S'asalim/initialized'
p95
tp96
a(S'kalk'
p97
S'bringout-fmk'
p98
S'bringout-fmk/kalk'
p99
tp100
a(S'wwDotnetBridge'
p101
S'RickStrahl'
p102
S'RickStrahl/wwDotnetBridge'
p103
tp104
a(S'JSON-ADVPL'
p105
S'imsys'
p106
S'imsys/JSON-ADVPL'
p107
tp108
a(S'BlackTDN'
p109
S'NaldoDj'
p110
S'NaldoDj/BlackTDN'
p111
tp112
a(S'sepa'
p113
S'QuimFerrer'
p114
S'QuimFerrer/sepa'
p115
tp116
a(S'siscan'
p117
S'osantana'
p118
S'osantana/siscan'
p119
tp120
a(S'vfpjson'
p121
S'sait'
p122
S'sait/vfpjson'
p123
tp124
a(S'envLib'
p125
S'StevenBlack'
p126
S'StevenBlack/envLib'
p127
tp128
a(S'tBigNumber'
p129
S'NaldoDj'
p130
S'NaldoDj/tBigNumber'
p131
tp132
a(S'fw-moodle'
p133
S'ket-ed'
p134
S'ket-ed/fw-moodle'
p135
tp136
a(S'advpl-debugger'
p137
S'haskellcamargo'
p138
S'haskellcamargo/advpl-debugger'
p139
tp140
a(S'vfp-git-utils'
p141
S'mikepotjer'
p142
S'mikepotjer/vfp-git-utils'
p143
tp144
a(S'prelude-advpl'
p145
S'haskellcamargo'
p146
S'haskellcamargo/prelude-advpl'
p147
tp148
a(S'cims'
p149
S'hbcdev'
p150
S'hbcdev/cims'
p151
tp152
a(S'FoxInCloud-AB'
p153
S'FoxInCloud'
p154
S'FoxInCloud/FoxInCloud-AB'
p155
tp156
a(S'h4aFirstApp'
p157
S'alkresin'
p158
S'alkresin/h4aFirstApp'
p159
tp160
a(S'adordd'
p161
S'AHFERREIRA'
p162
S'AHFERREIRA/adordd'
p163
tp164
a(S'foxbin2prg'
p165
S'fdbozzo'
p166
S'fdbozzo/foxbin2prg'
p167
tp168
a(S'div_games_studio'
p169
S'obduk'
p170
S'obduk/div_games_studio'
p171
tp172
a(S'cursor2xlsx'
p173
S'cakyus'
p174
S'cakyus/cursor2xlsx'
p175
tp176
a(S'gesto'
p177
S'superbloc'
p178
S'superbloc/gesto'
p179
tp180
a(S'prelude-docs'
p181
S'haskellcamargo'
p182
S'haskellcamargo/prelude-docs'
p183
tp184
a(S'fenix'
p185
S'lynx68'
p186
S'lynx68/fenix'
p187
tp188
a(S'guithread'
p189
S'RickCHodgin'
p190
S'RickCHodgin/guithread'
p191
tp192
a(S'initialized'
p193
S'asalim'
p194
S'asalim/initialized'
p195
tp196
a(S'kalk'
p197
S'bringout-fmk'
p198
S'bringout-fmk/kalk'
p199
tp200
a(S'wwDotnetBridge'
p201
S'RickStrahl'
p202
S'RickStrahl/wwDotnetBridge'
p203
tp204
a(S'JSON-ADVPL'
p205
S'imsys'
p206
S'imsys/JSON-ADVPL'
p207
tp208
a(S'BlackTDN'
p209
S'NaldoDj'
p210
S'NaldoDj/BlackTDN'
p211
tp212
a(S'sepa'
p213
S'QuimFerrer'
p214
S'QuimFerrer/sepa'
p215
tp216
a(S'siscan'
p217
S'osantana'
p218
S'osantana/siscan'
p219
tp220
a(S'vfpjson'
p221
S'sait'
p222
S'sait/vfpjson'
p223
tp224
a(S'envLib'
p225
S'StevenBlack'
p226
S'StevenBlack/envLib'
p227
tp228
a(S'tBigNumber'
p229
S'NaldoDj'
p230
S'NaldoDj/tBigNumber'
p231
tp232
a(S'fw-moodle'
p233
S'ket-ed'
p234
S'ket-ed/fw-moodle'
p235
tp236
a(S'advpl-debugger'
p237
S'haskellcamargo'
p238
S'haskellcamargo/advpl-debugger'
p239
tp240
a(S'vfp-git-utils'
p241
S'mikepotjer'
p242
S'mikepotjer/vfp-git-utils'
p243
tp244
a(S'prelude-advpl'
p245
S'haskellcamargo'
p246
S'haskellcamargo/prelude-advpl'
p247
tp248
a(S'cims'
p249
S'hbcdev'
p250
S'hbcdev/cims'
p251
tp252
a(S'FoxInCloud-AB'
p253
S'FoxInCloud'
p254
S'FoxInCloud/FoxInCloud-AB'
p255
tp256
a(S'h4aFirstApp'
p257
S'alkresin'
p258
S'alkresin/h4aFirstApp'
p259
tp260
a(S'adordd'
p261
S'AHFERREIRA'
p262
S'AHFERREIRA/adordd'
p263
tp264
a(S'foxbin2prg'
p265
S'fdbozzo'
p266
S'fdbozzo/foxbin2prg'
p267
tp268
a(S'div_games_studio'
p269
S'obduk'
p270
S'obduk/div_games_studio'
p271
tp272
a(S'cursor2xlsx'
p273
S'cakyus'
p274
S'cakyus/cursor2xlsx'
p275
tp276
a(S'gesto'
p277
S'superbloc'
p278
S'superbloc/gesto'
p279
tp280
a(S'prelude-docs'
p281
S'haskellcamargo'
p282
S'haskellcamargo/prelude-docs'
p283
tp284
a(S'fenix'
p285
S'lynx68'
p286
S'lynx68/fenix'
p287
tp288
a(S'guithread'
p289
S'RickCHodgin'
p290
S'RickCHodgin/guithread'
p291
tp292
a(S'initialized'
p293
S'asalim'
p294
S'asalim/initialized'
p295
tp296
a(S'kalk'
p297
S'bringout-fmk'
p298
S'bringout-fmk/kalk'
p299
tp300
a.