(lp0
(S'sc_ethernet'
p1
S'xcore'
p2
S'xcore/sc_ethernet'
p3
tp4
a(S'sc_i2c'
p5
S'xcore'
p6
S'xcore/sc_i2c'
p7
tp8
a(S'sc_spi'
p9
S'xcore'
p10
S'xcore/sc_spi'
p11
tp12
a(S'sc_dsp_filters'
p13
S'xcore'
p14
S'xcore/sc_dsp_filters'
p15
tp16
a(S'sc_pwm'
p17
S'xcore'
p18
S'xcore/sc_pwm'
p19
tp20
a(S'WOTTankRanges'
p21
S'Omegaice'
p22
S'Omegaice/WOTTankRanges'
p23
tp24
a(S'sc_i2s'
p25
S'xcore'
p26
S'xcore/sc_i2s'
p27
tp28
a(S'sc_jtag'
p29
S'xcore'
p30
S'xcore/sc_jtag'
p31
tp32
a(S'sw_audio_analyzer'
p33
S'xcore'
p34
S'xcore/sw_audio_analyzer'
p35
tp36
a(S'sc_capacitive_sensing'
p37
S'xcore'
p38
S'xcore/sc_capacitive_sensing'
p39
tp40
a(S'sw_display_controller'
p41
S'xcore'
p42
S'xcore/sw_display_controller'
p43
tp44
a(S'sc_can'
p45
S'xcore'
p46
S'xcore/sc_can'
p47
tp48
a(S'sc_adat'
p49
S'xcore'
p50
S'xcore/sc_adat'
p51
tp52
a(S'doc_tips_and_tricks'
p53
S'xcore'
p54
S'xcore/doc_tips_and_tricks'
p55
tp56
a(S'sc_crypto'
p57
S'xcore'
p58
S'xcore/sc_crypto'
p59
tp60
a(S'wot-mods'
p61
S'clsv'
p62
S'clsv/wot-mods'
p63
tp64
a(S'sw_swallow_etherboot'
p65
S'stevekerrison'
p66
S'stevekerrison/sw_swallow_etherboot'
p67
tp68
a(S'sc_modbus_rtu'
p69
S'xcore'
p70
S'xcore/sc_modbus_rtu'
p71
tp72
a(S'xcore_neopixel_buffered'
p73
S'teachop'
p74
S'teachop/xcore_neopixel_buffered'
p75
tp76
a(S'hw_slicekit_system'
p77
S'xcore'
p78
S'xcore/hw_slicekit_system'
p79
tp80
a(S'sc_audio_mixer'
p81
S'xcore'
p82
S'xcore/sc_audio_mixer'
p83
tp84
a(S'sc_sncn_motorcontrol'
p85
S'synapticon'
p86
S'synapticon/sc_sncn_motorcontrol'
p87
tp88
a(S'XMOS-Fast-Shutter-Control'
p89
S'SuperSTEM'
p90
S'SuperSTEM/XMOS-Fast-Shutter-Control'
p91
tp92
a(S'sc_dsp_transforms'
p93
S'xcore'
p94
S'xcore/sc_dsp_transforms'
p95
tp96
a(S'xmos-synthesizer'
p97
S'blazejkotowski'
p98
S'blazejkotowski/xmos-synthesizer'
p99
tp100
a(S'sc_ethernet'
p101
S'xcore'
p102
S'xcore/sc_ethernet'
p103
tp104
a(S'sc_i2c'
p105
S'xcore'
p106
S'xcore/sc_i2c'
p107
tp108
a(S'sc_spi'
p109
S'xcore'
p110
S'xcore/sc_spi'
p111
tp112
a(S'sc_dsp_filters'
p113
S'xcore'
p114
S'xcore/sc_dsp_filters'
p115
tp116
a(S'sc_pwm'
p117
S'xcore'
p118
S'xcore/sc_pwm'
p119
tp120
a(S'WOTTankRanges'
p121
S'Omegaice'
p122
S'Omegaice/WOTTankRanges'
p123
tp124
a(S'sc_i2s'
p125
S'xcore'
p126
S'xcore/sc_i2s'
p127
tp128
a(S'sc_jtag'
p129
S'xcore'
p130
S'xcore/sc_jtag'
p131
tp132
a(S'sw_audio_analyzer'
p133
S'xcore'
p134
S'xcore/sw_audio_analyzer'
p135
tp136
a(S'sc_capacitive_sensing'
p137
S'xcore'
p138
S'xcore/sc_capacitive_sensing'
p139
tp140
a(S'sw_display_controller'
p141
S'xcore'
p142
S'xcore/sw_display_controller'
p143
tp144
a(S'sc_can'
p145
S'xcore'
p146
S'xcore/sc_can'
p147
tp148
a(S'sc_adat'
p149
S'xcore'
p150
S'xcore/sc_adat'
p151
tp152
a(S'doc_tips_and_tricks'
p153
S'xcore'
p154
S'xcore/doc_tips_and_tricks'
p155
tp156
a(S'sc_crypto'
p157
S'xcore'
p158
S'xcore/sc_crypto'
p159
tp160
a(S'wot-mods'
p161
S'clsv'
p162
S'clsv/wot-mods'
p163
tp164
a(S'sw_swallow_etherboot'
p165
S'stevekerrison'
p166
S'stevekerrison/sw_swallow_etherboot'
p167
tp168
a(S'sc_modbus_rtu'
p169
S'xcore'
p170
S'xcore/sc_modbus_rtu'
p171
tp172
a(S'xcore_neopixel_buffered'
p173
S'teachop'
p174
S'teachop/xcore_neopixel_buffered'
p175
tp176
a(S'hw_slicekit_system'
p177
S'xcore'
p178
S'xcore/hw_slicekit_system'
p179
tp180
a(S'sc_audio_mixer'
p181
S'xcore'
p182
S'xcore/sc_audio_mixer'
p183
tp184
a(S'sc_sncn_motorcontrol'
p185
S'synapticon'
p186
S'synapticon/sc_sncn_motorcontrol'
p187
tp188
a(S'XMOS-Fast-Shutter-Control'
p189
S'SuperSTEM'
p190
S'SuperSTEM/XMOS-Fast-Shutter-Control'
p191
tp192
a(S'sc_dsp_transforms'
p193
S'xcore'
p194
S'xcore/sc_dsp_transforms'
p195
tp196
a(S'xmos-synthesizer'
p197
S'blazejkotowski'
p198
S'blazejkotowski/xmos-synthesizer'
p199
tp200
a(S'sc_ethernet'
p201
S'xcore'
p202
S'xcore/sc_ethernet'
p203
tp204
a(S'sc_i2c'
p205
S'xcore'
p206
S'xcore/sc_i2c'
p207
tp208
a(S'sc_spi'
p209
S'xcore'
p210
S'xcore/sc_spi'
p211
tp212
a(S'sc_dsp_filters'
p213
S'xcore'
p214
S'xcore/sc_dsp_filters'
p215
tp216
a(S'sc_pwm'
p217
S'xcore'
p218
S'xcore/sc_pwm'
p219
tp220
a(S'WOTTankRanges'
p221
S'Omegaice'
p222
S'Omegaice/WOTTankRanges'
p223
tp224
a(S'sc_i2s'
p225
S'xcore'
p226
S'xcore/sc_i2s'
p227
tp228
a(S'sc_jtag'
p229
S'xcore'
p230
S'xcore/sc_jtag'
p231
tp232
a(S'sw_audio_analyzer'
p233
S'xcore'
p234
S'xcore/sw_audio_analyzer'
p235
tp236
a(S'sc_capacitive_sensing'
p237
S'xcore'
p238
S'xcore/sc_capacitive_sensing'
p239
tp240
a(S'sw_display_controller'
p241
S'xcore'
p242
S'xcore/sw_display_controller'
p243
tp244
a(S'sc_can'
p245
S'xcore'
p246
S'xcore/sc_can'
p247
tp248
a(S'sc_adat'
p249
S'xcore'
p250
S'xcore/sc_adat'
p251
tp252
a(S'doc_tips_and_tricks'
p253
S'xcore'
p254
S'xcore/doc_tips_and_tricks'
p255
tp256
a(S'sc_crypto'
p257
S'xcore'
p258
S'xcore/sc_crypto'
p259
tp260
a(S'wot-mods'
p261
S'clsv'
p262
S'clsv/wot-mods'
p263
tp264
a(S'sw_swallow_etherboot'
p265
S'stevekerrison'
p266
S'stevekerrison/sw_swallow_etherboot'
p267
tp268
a(S'sc_modbus_rtu'
p269
S'xcore'
p270
S'xcore/sc_modbus_rtu'
p271
tp272
a(S'xcore_neopixel_buffered'
p273
S'teachop'
p274
S'teachop/xcore_neopixel_buffered'
p275
tp276
a(S'hw_slicekit_system'
p277
S'xcore'
p278
S'xcore/hw_slicekit_system'
p279
tp280
a(S'sc_audio_mixer'
p281
S'xcore'
p282
S'xcore/sc_audio_mixer'
p283
tp284
a(S'sc_sncn_motorcontrol'
p285
S'synapticon'
p286
S'synapticon/sc_sncn_motorcontrol'
p287
tp288
a(S'XMOS-Fast-Shutter-Control'
p289
S'SuperSTEM'
p290
S'SuperSTEM/XMOS-Fast-Shutter-Control'
p291
tp292
a(S'sc_dsp_transforms'
p293
S'xcore'
p294
S'xcore/sc_dsp_transforms'
p295
tp296
a(S'xmos-synthesizer'
p297
S'blazejkotowski'
p298
S'blazejkotowski/xmos-synthesizer'
p299
tp300
a.