(lp0
(S'dracula-theme'
p1
S'zenorocha'
p2
S'zenorocha/dracula-theme'
p3
tp4
a(S'FragmentTransactionExtended'
p5
S'DesarrolloAntonio'
p6
S'DesarrolloAntonio/FragmentTransactionExtended'
p7
tp8
a(S'jquery-tmbundle'
p9
S'kswedberg'
p10
S'kswedberg/jquery-tmbundle'
p11
tp12
a(S'google-music-mock'
p13
S'jimulabs'
p14
S'jimulabs/google-music-mock'
p15
tp16
a(S'smooks'
p17
S'smooks'
p18
S'smooks/smooks'
p19
tp20
a(S'wp-flex'
p21
S'grayghostvisuals'
p22
S'grayghostvisuals/wp-flex'
p23
tp24
a(S'LinqToQuerystring'
p25
S'beyond-code-github'
p26
S'beyond-code-github/LinqToQuerystring'
p27
tp28
a(S'RobotoViews'
p29
S'eeVoskos'
p30
S'eeVoskos/RobotoViews'
p31
tp32
a(S'Core'
p33
S'MvcExtensions'
p34
S'MvcExtensions/Core'
p35
tp36
a(S'msm-sample-webapp'
p37
S'magro'
p38
S'magro/msm-sample-webapp'
p39
tp40
a(S'SublimeLove'
p41
S'minism'
p42
S'minism/SublimeLove'
p43
tp44
a(S'gradlectric'
p45
S'marcoRS'
p46
S'marcoRS/gradlectric'
p47
tp48
a(S'netty-book'
p49
S'netty'
p50
S'netty/netty-book'
p51
tp52
a(S'markitdown.medusis.com'
p53
S'bambax'
p54
S'bambax/markitdown.medusis.com'
p55
tp56
a(S'MMD-Support'
p57
S'fletcher'
p58
S'fletcher/MMD-Support'
p59
tp60
a(S'xamarin-ci-sample'
p61
S'gshackles'
p62
S'gshackles/xamarin-ci-sample'
p63
tp64
a(S'linked-csv'
p65
S'JeniT'
p66
S'JeniT/linked-csv'
p67
tp68
a(S'webarch'
p69
S'w3ctag'
p70
S'w3ctag/webarch'
p71
tp72
a(S'book-old'
p73
S'nlpwp'
p74
S'nlpwp/book-old'
p75
tp76
a(S'emotion-detection'
p77
S'liy9393'
p78
S'liy9393/emotion-detection'
p79
tp80
a(S'spring-net-social-twitter'
p81
S'spring-projects'
p82
S'spring-projects/spring-net-social-twitter'
p83
tp84
a(S'tronCircles'
p85
S'lab101'
p86
S'lab101/tronCircles'
p87
tp88
a(S'mapbox-studio-picture-book.tm2'
p89
S'mapbox'
p90
S'mapbox/mapbox-studio-picture-book.tm2'
p91
tp92
a(S'kiwi-mac-demo'
p93
S'shepting'
p94
S'shepting/kiwi-mac-demo'
p95
tp96
a(S'StackExchangeSolrIndexing'
p97
S'o19s'
p98
S'o19s/StackExchangeSolrIndexing'
p99
tp100
a(S'smooks'
p101
S'smooks'
p102
S'smooks/smooks'
p103
tp104
a(S'dracula-theme'
p105
S'zenorocha'
p106
S'zenorocha/dracula-theme'
p107
tp108
a(S'FragmentTransactionExtended'
p109
S'DesarrolloAntonio'
p110
S'DesarrolloAntonio/FragmentTransactionExtended'
p111
tp112
a(S'jquery-tmbundle'
p113
S'kswedberg'
p114
S'kswedberg/jquery-tmbundle'
p115
tp116
a(S'google-music-mock'
p117
S'jimulabs'
p118
S'jimulabs/google-music-mock'
p119
tp120
a(S'wp-flex'
p121
S'grayghostvisuals'
p122
S'grayghostvisuals/wp-flex'
p123
tp124
a(S'LinqToQuerystring'
p125
S'beyond-code-github'
p126
S'beyond-code-github/LinqToQuerystring'
p127
tp128
a(S'RobotoViews'
p129
S'eeVoskos'
p130
S'eeVoskos/RobotoViews'
p131
tp132
a(S'Core'
p133
S'MvcExtensions'
p134
S'MvcExtensions/Core'
p135
tp136
a(S'msm-sample-webapp'
p137
S'magro'
p138
S'magro/msm-sample-webapp'
p139
tp140
a(S'SublimeLove'
p141
S'minism'
p142
S'minism/SublimeLove'
p143
tp144
a(S'gradlectric'
p145
S'marcoRS'
p146
S'marcoRS/gradlectric'
p147
tp148
a(S'netty-book'
p149
S'netty'
p150
S'netty/netty-book'
p151
tp152
a(S'markitdown.medusis.com'
p153
S'bambax'
p154
S'bambax/markitdown.medusis.com'
p155
tp156
a(S'MMD-Support'
p157
S'fletcher'
p158
S'fletcher/MMD-Support'
p159
tp160
a(S'xamarin-ci-sample'
p161
S'gshackles'
p162
S'gshackles/xamarin-ci-sample'
p163
tp164
a(S'linked-csv'
p165
S'JeniT'
p166
S'JeniT/linked-csv'
p167
tp168
a(S'webarch'
p169
S'w3ctag'
p170
S'w3ctag/webarch'
p171
tp172
a(S'book-old'
p173
S'nlpwp'
p174
S'nlpwp/book-old'
p175
tp176
a(S'emotion-detection'
p177
S'liy9393'
p178
S'liy9393/emotion-detection'
p179
tp180
a(S'tronCircles'
p181
S'lab101'
p182
S'lab101/tronCircles'
p183
tp184
a(S'spring-net-social-twitter'
p185
S'spring-projects'
p186
S'spring-projects/spring-net-social-twitter'
p187
tp188
a(S'mapbox-studio-picture-book.tm2'
p189
S'mapbox'
p190
S'mapbox/mapbox-studio-picture-book.tm2'
p191
tp192
a(S'kiwi-mac-demo'
p193
S'shepting'
p194
S'shepting/kiwi-mac-demo'
p195
tp196
a(S'StackExchangeSolrIndexing'
p197
S'o19s'
p198
S'o19s/StackExchangeSolrIndexing'
p199
tp200
a(S'dracula-theme'
p201
S'zenorocha'
p202
S'zenorocha/dracula-theme'
p203
tp204
a(S'FragmentTransactionExtended'
p205
S'DesarrolloAntonio'
p206
S'DesarrolloAntonio/FragmentTransactionExtended'
p207
tp208
a(S'jquery-tmbundle'
p209
S'kswedberg'
p210
S'kswedberg/jquery-tmbundle'
p211
tp212
a(S'google-music-mock'
p213
S'jimulabs'
p214
S'jimulabs/google-music-mock'
p215
tp216
a(S'smooks'
p217
S'smooks'
p218
S'smooks/smooks'
p219
tp220
a(S'wp-flex'
p221
S'grayghostvisuals'
p222
S'grayghostvisuals/wp-flex'
p223
tp224
a(S'LinqToQuerystring'
p225
S'beyond-code-github'
p226
S'beyond-code-github/LinqToQuerystring'
p227
tp228
a(S'RobotoViews'
p229
S'eeVoskos'
p230
S'eeVoskos/RobotoViews'
p231
tp232
a(S'Core'
p233
S'MvcExtensions'
p234
S'MvcExtensions/Core'
p235
tp236
a(S'msm-sample-webapp'
p237
S'magro'
p238
S'magro/msm-sample-webapp'
p239
tp240
a(S'SublimeLove'
p241
S'minism'
p242
S'minism/SublimeLove'
p243
tp244
a(S'gradlectric'
p245
S'marcoRS'
p246
S'marcoRS/gradlectric'
p247
tp248
a(S'netty-book'
p249
S'netty'
p250
S'netty/netty-book'
p251
tp252
a(S'markitdown.medusis.com'
p253
S'bambax'
p254
S'bambax/markitdown.medusis.com'
p255
tp256
a(S'MMD-Support'
p257
S'fletcher'
p258
S'fletcher/MMD-Support'
p259
tp260
a(S'xamarin-ci-sample'
p261
S'gshackles'
p262
S'gshackles/xamarin-ci-sample'
p263
tp264
a(S'linked-csv'
p265
S'JeniT'
p266
S'JeniT/linked-csv'
p267
tp268
a(S'webarch'
p269
S'w3ctag'
p270
S'w3ctag/webarch'
p271
tp272
a(S'book-old'
p273
S'nlpwp'
p274
S'nlpwp/book-old'
p275
tp276
a(S'emotion-detection'
p277
S'liy9393'
p278
S'liy9393/emotion-detection'
p279
tp280
a(S'spring-net-social-twitter'
p281
S'spring-projects'
p282
S'spring-projects/spring-net-social-twitter'
p283
tp284
a(S'tronCircles'
p285
S'lab101'
p286
S'lab101/tronCircles'
p287
tp288
a(S'mapbox-studio-picture-book.tm2'
p289
S'mapbox'
p290
S'mapbox/mapbox-studio-picture-book.tm2'
p291
tp292
a(S'kiwi-mac-demo'
p293
S'shepting'
p294
S'shepting/kiwi-mac-demo'
p295
tp296
a(S'StackExchangeSolrIndexing'
p297
S'o19s'
p298
S'o19s/StackExchangeSolrIndexing'
p299
tp300
a.