(lp0
(S'scripts'
p1
S'rustymyers'
p2
S'rustymyers/scripts'
p3
tp4
a(S'iOSKit'
p5
S'kingj5'
p6
S'kingj5/iOSKit'
p7
tp8
a(S'CalendarTimeChooser'
p9
S'IntelligentVisibility'
p10
S'IntelligentVisibility/CalendarTimeChooser'
p11
tp12
a(S'Kaju'
p13
S'ktekinay'
p14
S'ktekinay/Kaju'
p15
tp16
a(S'XojoUnit'
p17
S'xojo'
p18
S'xojo/XojoUnit'
p19
tp20
a(S'mongodb-xojodriver'
p21
S'Zoclee'
p22
S'Zoclee/mongodb-xojodriver'
p23
tp24
a(S'xojo-format-code'
p25
S'jcowgar'
p26
S'jcowgar/xojo-format-code'
p27
tp28
a(S'XojoiOSWrapper'
p29
S'Mitchboo'
p30
S'Mitchboo/XojoiOSWrapper'
p31
tp32
a(S'DropboxAPI'
p33
S'IntelligentVisibility'
p34
S'IntelligentVisibility/DropboxAPI'
p35
tp36
a(S'storm'
p37
S'paullefebvre'
p38
S'paullefebvre/storm'
p39
tp40
a(S'Xojo-iosLib'
p41
S'UBogun'
p42
S'UBogun/Xojo-iosLib'
p43
tp44
a(S'xojo-option-parser'
p45
S'jcowgar'
p46
S'jcowgar/xojo-option-parser'
p47
tp48
a(S'xojoGestures'
p49
S'sbeardsl'
p50
S'sbeardsl/xojoGestures'
p51
tp52
a(S'JSONItem_MTC'
p53
S'ktekinay'
p54
S'ktekinay/JSONItem_MTC'
p55
tp56
a(S'Blowfish'
p57
S'ktekinay'
p58
S'ktekinay/Blowfish'
p59
tp60
a(S'AuthenticationKit'
p61
S'thommcgrath'
p62
S'thommcgrath/AuthenticationKit'
p63
tp64
a(S'Data-Serialization'
p65
S'ktekinay'
p66
S'ktekinay/Data-Serialization'
p67
tp68
a(S'Xojo-OpenLib'
p69
S'campsoftware'
p70
S'campsoftware/Xojo-OpenLib'
p71
tp72
a(S'Xojo-EasyData'
p73
S'campsoftware'
p74
S'campsoftware/Xojo-EasyData'
p75
tp76
a(S'Shade'
p77
S'Zoclee'
p78
S'Zoclee/Shade'
p79
tp80
a(S'XojoORM'
p81
S'Budjhete'
p82
S'Budjhete/XojoORM'
p83
tp84
a(S'XojoWars'
p85
S'xojo'
p86
S'xojo/XojoWars'
p87
tp88
a(S'xojo-ide-scripts-misc'
p89
S'jcowgar'
p90
S'jcowgar/xojo-ide-scripts-misc'
p91
tp92
a(S'XsEdit'
p93
S'ktekinay'
p94
S'ktekinay/XsEdit'
p95
tp96
a(S'ASCIImage-Xojo'
p97
S'jkleroy'
p98
S'jkleroy/ASCIImage-Xojo'
p99
tp100
a(S'scripts'
p101
S'rustymyers'
p102
S'rustymyers/scripts'
p103
tp104
a(S'iOSKit'
p105
S'kingj5'
p106
S'kingj5/iOSKit'
p107
tp108
a(S'CalendarTimeChooser'
p109
S'IntelligentVisibility'
p110
S'IntelligentVisibility/CalendarTimeChooser'
p111
tp112
a(S'Kaju'
p113
S'ktekinay'
p114
S'ktekinay/Kaju'
p115
tp116
a(S'XojoUnit'
p117
S'xojo'
p118
S'xojo/XojoUnit'
p119
tp120
a(S'mongodb-xojodriver'
p121
S'Zoclee'
p122
S'Zoclee/mongodb-xojodriver'
p123
tp124
a(S'xojo-format-code'
p125
S'jcowgar'
p126
S'jcowgar/xojo-format-code'
p127
tp128
a(S'XojoiOSWrapper'
p129
S'Mitchboo'
p130
S'Mitchboo/XojoiOSWrapper'
p131
tp132
a(S'DropboxAPI'
p133
S'IntelligentVisibility'
p134
S'IntelligentVisibility/DropboxAPI'
p135
tp136
a(S'storm'
p137
S'paullefebvre'
p138
S'paullefebvre/storm'
p139
tp140
a(S'Xojo-iosLib'
p141
S'UBogun'
p142
S'UBogun/Xojo-iosLib'
p143
tp144
a(S'xojo-option-parser'
p145
S'jcowgar'
p146
S'jcowgar/xojo-option-parser'
p147
tp148
a(S'xojoGestures'
p149
S'sbeardsl'
p150
S'sbeardsl/xojoGestures'
p151
tp152
a(S'JSONItem_MTC'
p153
S'ktekinay'
p154
S'ktekinay/JSONItem_MTC'
p155
tp156
a(S'Blowfish'
p157
S'ktekinay'
p158
S'ktekinay/Blowfish'
p159
tp160
a(S'AuthenticationKit'
p161
S'thommcgrath'
p162
S'thommcgrath/AuthenticationKit'
p163
tp164
a(S'Data-Serialization'
p165
S'ktekinay'
p166
S'ktekinay/Data-Serialization'
p167
tp168
a(S'Xojo-OpenLib'
p169
S'campsoftware'
p170
S'campsoftware/Xojo-OpenLib'
p171
tp172
a(S'Xojo-EasyData'
p173
S'campsoftware'
p174
S'campsoftware/Xojo-EasyData'
p175
tp176
a(S'Shade'
p177
S'Zoclee'
p178
S'Zoclee/Shade'
p179
tp180
a(S'XojoORM'
p181
S'Budjhete'
p182
S'Budjhete/XojoORM'
p183
tp184
a(S'XojoWars'
p185
S'xojo'
p186
S'xojo/XojoWars'
p187
tp188
a(S'xojo-ide-scripts-misc'
p189
S'jcowgar'
p190
S'jcowgar/xojo-ide-scripts-misc'
p191
tp192
a(S'XsEdit'
p193
S'ktekinay'
p194
S'ktekinay/XsEdit'
p195
tp196
a(S'ASCIImage-Xojo'
p197
S'jkleroy'
p198
S'jkleroy/ASCIImage-Xojo'
p199
tp200
a(S'scripts'
p201
S'rustymyers'
p202
S'rustymyers/scripts'
p203
tp204
a(S'iOSKit'
p205
S'kingj5'
p206
S'kingj5/iOSKit'
p207
tp208
a(S'CalendarTimeChooser'
p209
S'IntelligentVisibility'
p210
S'IntelligentVisibility/CalendarTimeChooser'
p211
tp212
a(S'Kaju'
p213
S'ktekinay'
p214
S'ktekinay/Kaju'
p215
tp216
a(S'XojoUnit'
p217
S'xojo'
p218
S'xojo/XojoUnit'
p219
tp220
a(S'mongodb-xojodriver'
p221
S'Zoclee'
p222
S'Zoclee/mongodb-xojodriver'
p223
tp224
a(S'xojo-format-code'
p225
S'jcowgar'
p226
S'jcowgar/xojo-format-code'
p227
tp228
a(S'XojoiOSWrapper'
p229
S'Mitchboo'
p230
S'Mitchboo/XojoiOSWrapper'
p231
tp232
a(S'DropboxAPI'
p233
S'IntelligentVisibility'
p234
S'IntelligentVisibility/DropboxAPI'
p235
tp236
a(S'storm'
p237
S'paullefebvre'
p238
S'paullefebvre/storm'
p239
tp240
a(S'Xojo-iosLib'
p241
S'UBogun'
p242
S'UBogun/Xojo-iosLib'
p243
tp244
a(S'xojo-option-parser'
p245
S'jcowgar'
p246
S'jcowgar/xojo-option-parser'
p247
tp248
a(S'xojoGestures'
p249
S'sbeardsl'
p250
S'sbeardsl/xojoGestures'
p251
tp252
a(S'JSONItem_MTC'
p253
S'ktekinay'
p254
S'ktekinay/JSONItem_MTC'
p255
tp256
a(S'Blowfish'
p257
S'ktekinay'
p258
S'ktekinay/Blowfish'
p259
tp260
a(S'AuthenticationKit'
p261
S'thommcgrath'
p262
S'thommcgrath/AuthenticationKit'
p263
tp264
a(S'Data-Serialization'
p265
S'ktekinay'
p266
S'ktekinay/Data-Serialization'
p267
tp268
a(S'Xojo-OpenLib'
p269
S'campsoftware'
p270
S'campsoftware/Xojo-OpenLib'
p271
tp272
a(S'Xojo-EasyData'
p273
S'campsoftware'
p274
S'campsoftware/Xojo-EasyData'
p275
tp276
a(S'Shade'
p277
S'Zoclee'
p278
S'Zoclee/Shade'
p279
tp280
a(S'XojoORM'
p281
S'Budjhete'
p282
S'Budjhete/XojoORM'
p283
tp284
a(S'XojoWars'
p285
S'xojo'
p286
S'xojo/XojoWars'
p287
tp288
a(S'xojo-ide-scripts-misc'
p289
S'jcowgar'
p290
S'jcowgar/xojo-ide-scripts-misc'
p291
tp292
a(S'XsEdit'
p293
S'ktekinay'
p294
S'ktekinay/XsEdit'
p295
tp296
a(S'ASCIImage-Xojo'
p297
S'jkleroy'
p298
S'jkleroy/ASCIImage-Xojo'
p299
tp300
a.