(lp0
(S'AnAppOfIceAndFire'
p1
S'edm00se'
p2
S'edm00se/AnAppOfIceAndFire'
p3
tp4
a(S'Re_QA_ntf'
p5
S'RitsNishi'
p6
S'RitsNishi/Re_QA_ntf'
p7
tp8
a(S'HouseholdAccountBook'
p9
S'HYoshi1230'
p10
S'HYoshi1230/HouseholdAccountBook'
p11
tp12
a(S'TektekLotusHandsOn'
p13
S'tikejima'
p14
S'tikejima/TektekLotusHandsOn'
p15
tp16
a(S'XLibMobile'
p17
S'MurugavelE'
p18
S'MurugavelE/XLibMobile'
p19
tp20
a(S'XPagesSamples'
p21
S'MurugavelE'
p22
S'MurugavelE/XPagesSamples'
p23
tp24
a(S'webrtcapp'
p25
S'csakis'
p26
S'csakis/webrtcapp'
p27
tp28
a(S'Ice-And-Fire-On-Bluemix'
p29
S'edm00se'
p30
S'edm00se/Ice-And-Fire-On-Bluemix'
p31
tp32
a(S'my_forum'
p33
S'nhsanura'
p34
S'nhsanura/my_forum'
p35
tp36
a(S'Forum'
p37
S'nhsanura'
p38
S'nhsanura/Forum'
p39
tp40
a(S'HouseholdAccountBook'
p41
S'TakashiOnota'
p42
S'TakashiOnota/HouseholdAccountBook'
p43
tp44
a(S'AnAppOfIceAndFire'
p45
S'edm00se'
p46
S'edm00se/AnAppOfIceAndFire'
p47
tp48
a(S'Re_QA_ntf'
p49
S'RitsNishi'
p50
S'RitsNishi/Re_QA_ntf'
p51
tp52
a(S'HouseholdAccountBook'
p53
S'HYoshi1230'
p54
S'HYoshi1230/HouseholdAccountBook'
p55
tp56
a(S'TektekLotusHandsOn'
p57
S'tikejima'
p58
S'tikejima/TektekLotusHandsOn'
p59
tp60
a(S'XLibMobile'
p61
S'MurugavelE'
p62
S'MurugavelE/XLibMobile'
p63
tp64
a(S'XPagesSamples'
p65
S'MurugavelE'
p66
S'MurugavelE/XPagesSamples'
p67
tp68
a(S'webrtcapp'
p69
S'csakis'
p70
S'csakis/webrtcapp'
p71
tp72
a(S'Ice-And-Fire-On-Bluemix'
p73
S'edm00se'
p74
S'edm00se/Ice-And-Fire-On-Bluemix'
p75
tp76
a(S'my_forum'
p77
S'nhsanura'
p78
S'nhsanura/my_forum'
p79
tp80
a(S'Forum'
p81
S'nhsanura'
p82
S'nhsanura/Forum'
p83
tp84
a(S'HouseholdAccountBook'
p85
S'TakashiOnota'
p86
S'TakashiOnota/HouseholdAccountBook'
p87
tp88
a(S'AnAppOfIceAndFire'
p89
S'edm00se'
p90
S'edm00se/AnAppOfIceAndFire'
p91
tp92
a(S'Re_QA_ntf'
p93
S'RitsNishi'
p94
S'RitsNishi/Re_QA_ntf'
p95
tp96
a(S'HouseholdAccountBook'
p97
S'HYoshi1230'
p98
S'HYoshi1230/HouseholdAccountBook'
p99
tp100
a(S'TektekLotusHandsOn'
p101
S'tikejima'
p102
S'tikejima/TektekLotusHandsOn'
p103
tp104
a(S'XLibMobile'
p105
S'MurugavelE'
p106
S'MurugavelE/XLibMobile'
p107
tp108
a(S'XPagesSamples'
p109
S'MurugavelE'
p110
S'MurugavelE/XPagesSamples'
p111
tp112
a(S'webrtcapp'
p113
S'csakis'
p114
S'csakis/webrtcapp'
p115
tp116
a(S'Ice-And-Fire-On-Bluemix'
p117
S'edm00se'
p118
S'edm00se/Ice-And-Fire-On-Bluemix'
p119
tp120
a(S'my_forum'
p121
S'nhsanura'
p122
S'nhsanura/my_forum'
p123
tp124
a(S'Forum'
p125
S'nhsanura'
p126
S'nhsanura/Forum'
p127
tp128
a(S'HouseholdAccountBook'
p129
S'TakashiOnota'
p130
S'TakashiOnota/HouseholdAccountBook'
p131
tp132
a.