(lp0
(S'XProc-Z'
p1
S'Conal-Tuohy'
p2
S'Conal-Tuohy/XProc-Z'
p3
tp4
a(S'docx2tex'
p5
S'transpect'
p6
S'transpect/docx2tex'
p7
tp8
a(S'xforms-manager'
p9
S'Everteam-Software'
p10
S'Everteam-Software/xforms-manager'
p11
tp12
a(S'cxan'
p13
S'fgeorges'
p14
S'fgeorges/cxan'
p15
tp16
a(S'depify-client'
p17
S'depify'
p18
S'depify/depify-client'
p19
tp20
a(S'xprocspec'
p21
S'daisy'
p22
S'daisy/xprocspec'
p23
tp24
a(S'xproc-tools'
p25
S'Corbas'
p26
S'Corbas/xproc-tools'
p27
tp28
a(S'xprocbook'
p29
S'ndw'
p30
S'ndw/xprocbook'
p31
tp32
a(S'pipeline-modules-common'
p33
S'daisy'
p34
S'daisy/pipeline-modules-common'
p35
tp36
a(S'AVOSEIS'
p37
S'giseislab'
p38
S'giseislab/AVOSEIS'
p39
tp40
a(S'test-suite'
p41
S'xproc'
p42
S'xproc/test-suite'
p43
tp44
a(S'xproc'
p45
S'innovimax'
p46
S'innovimax/xproc'
p47
tp48
a(S'depify-packages'
p49
S'depify'
p50
S'depify/depify-packages'
p51
tp52
a(S'ZAMG_Antelope'
p53
S'Nikolaus'
p54
S'Nikolaus/ZAMG_Antelope'
p55
tp56
a(S'ExtPlane'
p57
S'wurfkeks'
p58
S'wurfkeks/ExtPlane'
p59
tp60
a(S'ExtPlane'
p61
S'jamiepg1'
p62
S'jamiepg1/ExtPlane'
p63
tp64
a(S'xprocbook'
p65
S'Zearin'
p66
S'Zearin/xprocbook'
p67
tp68
a(S'pipeline-scripts'
p69
S'benetech'
p70
S'benetech/pipeline-scripts'
p71
tp72
a(S'xproc-enrich'
p73
S'apb2006'
p74
S'apb2006/xproc-enrich'
p75
tp76
a(S'ExtPlane'
p77
S'nbenford'
p78
S'nbenford/ExtPlane'
p79
tp80
a(S'xproc-graphviz'
p81
S'apb2006'
p82
S'apb2006/xproc-graphviz'
p83
tp84
a(S'xforms-manager'
p85
S'jamiepg1'
p86
S'jamiepg1/xforms-manager'
p87
tp88
a(S'home-networking'
p89
S'liupengking1'
p90
S'liupengking1/home-networking'
p91
tp92
a(S'xforms-manager'
p93
S'satish-pokala'
p94
S'satish-pokala/xforms-manager'
p95
tp96
a(S'moving_map'
p97
S'neumanrq'
p98
S'neumanrq/moving_map'
p99
tp100
a(S'XProc-Z'
p101
S'Conal-Tuohy'
p102
S'Conal-Tuohy/XProc-Z'
p103
tp104
a(S'docx2tex'
p105
S'transpect'
p106
S'transpect/docx2tex'
p107
tp108
a(S'xforms-manager'
p109
S'Everteam-Software'
p110
S'Everteam-Software/xforms-manager'
p111
tp112
a(S'cxan'
p113
S'fgeorges'
p114
S'fgeorges/cxan'
p115
tp116
a(S'depify-client'
p117
S'depify'
p118
S'depify/depify-client'
p119
tp120
a(S'xprocspec'
p121
S'daisy'
p122
S'daisy/xprocspec'
p123
tp124
a(S'xproc-tools'
p125
S'Corbas'
p126
S'Corbas/xproc-tools'
p127
tp128
a(S'xprocbook'
p129
S'ndw'
p130
S'ndw/xprocbook'
p131
tp132
a(S'pipeline-modules-common'
p133
S'daisy'
p134
S'daisy/pipeline-modules-common'
p135
tp136
a(S'AVOSEIS'
p137
S'giseislab'
p138
S'giseislab/AVOSEIS'
p139
tp140
a(S'test-suite'
p141
S'xproc'
p142
S'xproc/test-suite'
p143
tp144
a(S'xproc'
p145
S'innovimax'
p146
S'innovimax/xproc'
p147
tp148
a(S'depify-packages'
p149
S'depify'
p150
S'depify/depify-packages'
p151
tp152
a(S'ZAMG_Antelope'
p153
S'Nikolaus'
p154
S'Nikolaus/ZAMG_Antelope'
p155
tp156
a(S'ExtPlane'
p157
S'wurfkeks'
p158
S'wurfkeks/ExtPlane'
p159
tp160
a(S'ExtPlane'
p161
S'jamiepg1'
p162
S'jamiepg1/ExtPlane'
p163
tp164
a(S'xprocbook'
p165
S'Zearin'
p166
S'Zearin/xprocbook'
p167
tp168
a(S'pipeline-scripts'
p169
S'benetech'
p170
S'benetech/pipeline-scripts'
p171
tp172
a(S'xproc-enrich'
p173
S'apb2006'
p174
S'apb2006/xproc-enrich'
p175
tp176
a(S'ExtPlane'
p177
S'nbenford'
p178
S'nbenford/ExtPlane'
p179
tp180
a(S'xproc-graphviz'
p181
S'apb2006'
p182
S'apb2006/xproc-graphviz'
p183
tp184
a(S'xforms-manager'
p185
S'jamiepg1'
p186
S'jamiepg1/xforms-manager'
p187
tp188
a(S'home-networking'
p189
S'liupengking1'
p190
S'liupengking1/home-networking'
p191
tp192
a(S'xforms-manager'
p193
S'satish-pokala'
p194
S'satish-pokala/xforms-manager'
p195
tp196
a(S'moving_map'
p197
S'neumanrq'
p198
S'neumanrq/moving_map'
p199
tp200
a(S'XProc-Z'
p201
S'Conal-Tuohy'
p202
S'Conal-Tuohy/XProc-Z'
p203
tp204
a(S'docx2tex'
p205
S'transpect'
p206
S'transpect/docx2tex'
p207
tp208
a(S'xforms-manager'
p209
S'Everteam-Software'
p210
S'Everteam-Software/xforms-manager'
p211
tp212
a(S'cxan'
p213
S'fgeorges'
p214
S'fgeorges/cxan'
p215
tp216
a(S'depify-client'
p217
S'depify'
p218
S'depify/depify-client'
p219
tp220
a(S'xprocspec'
p221
S'daisy'
p222
S'daisy/xprocspec'
p223
tp224
a(S'xproc-tools'
p225
S'Corbas'
p226
S'Corbas/xproc-tools'
p227
tp228
a(S'xprocbook'
p229
S'ndw'
p230
S'ndw/xprocbook'
p231
tp232
a(S'pipeline-modules-common'
p233
S'daisy'
p234
S'daisy/pipeline-modules-common'
p235
tp236
a(S'AVOSEIS'
p237
S'giseislab'
p238
S'giseislab/AVOSEIS'
p239
tp240
a(S'test-suite'
p241
S'xproc'
p242
S'xproc/test-suite'
p243
tp244
a(S'xproc'
p245
S'innovimax'
p246
S'innovimax/xproc'
p247
tp248
a(S'depify-packages'
p249
S'depify'
p250
S'depify/depify-packages'
p251
tp252
a(S'ZAMG_Antelope'
p253
S'Nikolaus'
p254
S'Nikolaus/ZAMG_Antelope'
p255
tp256
a(S'ExtPlane'
p257
S'wurfkeks'
p258
S'wurfkeks/ExtPlane'
p259
tp260
a(S'ExtPlane'
p261
S'jamiepg1'
p262
S'jamiepg1/ExtPlane'
p263
tp264
a(S'xprocbook'
p265
S'Zearin'
p266
S'Zearin/xprocbook'
p267
tp268
a(S'pipeline-scripts'
p269
S'benetech'
p270
S'benetech/pipeline-scripts'
p271
tp272
a(S'xproc-enrich'
p273
S'apb2006'
p274
S'apb2006/xproc-enrich'
p275
tp276
a(S'ExtPlane'
p277
S'nbenford'
p278
S'nbenford/ExtPlane'
p279
tp280
a(S'xproc-graphviz'
p281
S'apb2006'
p282
S'apb2006/xproc-graphviz'
p283
tp284
a(S'xforms-manager'
p285
S'jamiepg1'
p286
S'jamiepg1/xforms-manager'
p287
tp288
a(S'home-networking'
p289
S'liupengking1'
p290
S'liupengking1/home-networking'
p291
tp292
a(S'xforms-manager'
p293
S'satish-pokala'
p294
S'satish-pokala/xforms-manager'
p295
tp296
a(S'moving_map'
p297
S'neumanrq'
p298
S'neumanrq/moving_map'
p299
tp300
a.