(lp0
(S'roxy'
p1
S'marklogic'
p2
S'marklogic/roxy'
p3
tp4
a(S'marc2bibframe'
p5
S'lcnetdev'
p6
S'lcnetdev/marc2bibframe'
p7
tp8
a(S'xray'
p9
S'robwhitby'
p10
S'robwhitby/xray'
p11
tp12
a(S'Corona'
p13
S'marklogic'
p14
S'marklogic/Corona'
p15
tp16
a(S'xquerydoc'
p17
S'xquery'
p18
S'xquery/xquerydoc'
p19
tp20
a(S'commons'
p21
S'marklogic'
p22
S'marklogic/commons'
p23
tp24
a(S'semantic'
p25
S'marklogic'
p26
S'marklogic/semantic'
p27
tp28
a(S'taskbot'
p29
S'mblakele'
p30
S'mblakele/taskbot'
p31
tp32
a(S'rxq'
p33
S'xquery'
p34
S'xquery/rxq'
p35
tp36
a(S'xq-modules'
p37
S'LeoWoerteler'
p38
S'LeoWoerteler/xq-modules'
p39
tp40
a(S'docbook.github.com'
p41
S'docbook'
p42
S'docbook/docbook.github.com'
p43
tp44
a(S'mustache.xq'
p45
S'dscape'
p46
S'dscape/mustache.xq'
p47
tp48
a(S'xqjson'
p49
S'joewiz'
p50
S'joewiz/xqjson'
p51
tp52
a(S'xquerrail'
p53
S'garyvidal'
p54
S'garyvidal/xquerrail'
p55
tp56
a(S'dbclass-exercises'
p57
S'yangchenyun'
p58
S'yangchenyun/dbclass-exercises'
p59
tp60
a(S'specification'
p61
S'xproc'
p62
S'xproc/specification'
p63
tp64
a(S'HisTEI'
p65
S'odaata'
p66
S'odaata/HisTEI'
p67
tp68
a(S'dbclass'
p69
S'sumeetsk'
p70
S'sumeetsk/dbclass'
p71
tp72
a(S'mljson'
p73
S'ryangrimm'
p74
S'ryangrimm/mljson'
p75
tp76
a(S'WeGA-WebApp'
p77
S'Edirom'
p78
S'Edirom/WeGA-WebApp'
p79
tp80
a(S'ml-rest-lib'
p81
S'marklogic'
p82
S'marklogic/ml-rest-lib'
p83
tp84
a(S'isbn'
p85
S'holmesw'
p86
S'holmesw/isbn'
p87
tp88
a(S'Carrot'
p89
S'evanlenz'
p90
S'evanlenz/Carrot'
p91
tp92
a(S'transform.xq'
p93
S'jpcs'
p94
S'jpcs/transform.xq'
p95
tp96
a(S'marklogic-ant-tasks'
p97
S'garyvidal'
p98
S'garyvidal/marklogic-ant-tasks'
p99
tp100
a(S'roxy'
p101
S'marklogic'
p102
S'marklogic/roxy'
p103
tp104
a(S'marc2bibframe'
p105
S'lcnetdev'
p106
S'lcnetdev/marc2bibframe'
p107
tp108
a(S'xray'
p109
S'robwhitby'
p110
S'robwhitby/xray'
p111
tp112
a(S'Corona'
p113
S'marklogic'
p114
S'marklogic/Corona'
p115
tp116
a(S'xquerydoc'
p117
S'xquery'
p118
S'xquery/xquerydoc'
p119
tp120
a(S'commons'
p121
S'marklogic'
p122
S'marklogic/commons'
p123
tp124
a(S'semantic'
p125
S'marklogic'
p126
S'marklogic/semantic'
p127
tp128
a(S'taskbot'
p129
S'mblakele'
p130
S'mblakele/taskbot'
p131
tp132
a(S'rxq'
p133
S'xquery'
p134
S'xquery/rxq'
p135
tp136
a(S'xq-modules'
p137
S'LeoWoerteler'
p138
S'LeoWoerteler/xq-modules'
p139
tp140
a(S'docbook.github.com'
p141
S'docbook'
p142
S'docbook/docbook.github.com'
p143
tp144
a(S'mustache.xq'
p145
S'dscape'
p146
S'dscape/mustache.xq'
p147
tp148
a(S'xqjson'
p149
S'joewiz'
p150
S'joewiz/xqjson'
p151
tp152
a(S'xquerrail'
p153
S'garyvidal'
p154
S'garyvidal/xquerrail'
p155
tp156
a(S'dbclass-exercises'
p157
S'yangchenyun'
p158
S'yangchenyun/dbclass-exercises'
p159
tp160
a(S'specification'
p161
S'xproc'
p162
S'xproc/specification'
p163
tp164
a(S'HisTEI'
p165
S'odaata'
p166
S'odaata/HisTEI'
p167
tp168
a(S'dbclass'
p169
S'sumeetsk'
p170
S'sumeetsk/dbclass'
p171
tp172
a(S'mljson'
p173
S'ryangrimm'
p174
S'ryangrimm/mljson'
p175
tp176
a(S'WeGA-WebApp'
p177
S'Edirom'
p178
S'Edirom/WeGA-WebApp'
p179
tp180
a(S'ml-rest-lib'
p181
S'marklogic'
p182
S'marklogic/ml-rest-lib'
p183
tp184
a(S'isbn'
p185
S'holmesw'
p186
S'holmesw/isbn'
p187
tp188
a(S'Carrot'
p189
S'evanlenz'
p190
S'evanlenz/Carrot'
p191
tp192
a(S'transform.xq'
p193
S'jpcs'
p194
S'jpcs/transform.xq'
p195
tp196
a(S'marklogic-ant-tasks'
p197
S'garyvidal'
p198
S'garyvidal/marklogic-ant-tasks'
p199
tp200
a(S'roxy'
p201
S'marklogic'
p202
S'marklogic/roxy'
p203
tp204
a(S'marc2bibframe'
p205
S'lcnetdev'
p206
S'lcnetdev/marc2bibframe'
p207
tp208
a(S'xray'
p209
S'robwhitby'
p210
S'robwhitby/xray'
p211
tp212
a(S'Corona'
p213
S'marklogic'
p214
S'marklogic/Corona'
p215
tp216
a(S'xquerydoc'
p217
S'xquery'
p218
S'xquery/xquerydoc'
p219
tp220
a(S'commons'
p221
S'marklogic'
p222
S'marklogic/commons'
p223
tp224
a(S'semantic'
p225
S'marklogic'
p226
S'marklogic/semantic'
p227
tp228
a(S'taskbot'
p229
S'mblakele'
p230
S'mblakele/taskbot'
p231
tp232
a(S'rxq'
p233
S'xquery'
p234
S'xquery/rxq'
p235
tp236
a(S'xq-modules'
p237
S'LeoWoerteler'
p238
S'LeoWoerteler/xq-modules'
p239
tp240
a(S'docbook.github.com'
p241
S'docbook'
p242
S'docbook/docbook.github.com'
p243
tp244
a(S'mustache.xq'
p245
S'dscape'
p246
S'dscape/mustache.xq'
p247
tp248
a(S'xqjson'
p249
S'joewiz'
p250
S'joewiz/xqjson'
p251
tp252
a(S'xquerrail'
p253
S'garyvidal'
p254
S'garyvidal/xquerrail'
p255
tp256
a(S'dbclass-exercises'
p257
S'yangchenyun'
p258
S'yangchenyun/dbclass-exercises'
p259
tp260
a(S'specification'
p261
S'xproc'
p262
S'xproc/specification'
p263
tp264
a(S'HisTEI'
p265
S'odaata'
p266
S'odaata/HisTEI'
p267
tp268
a(S'dbclass'
p269
S'sumeetsk'
p270
S'sumeetsk/dbclass'
p271
tp272
a(S'mljson'
p273
S'ryangrimm'
p274
S'ryangrimm/mljson'
p275
tp276
a(S'WeGA-WebApp'
p277
S'Edirom'
p278
S'Edirom/WeGA-WebApp'
p279
tp280
a(S'ml-rest-lib'
p281
S'marklogic'
p282
S'marklogic/ml-rest-lib'
p283
tp284
a(S'isbn'
p285
S'holmesw'
p286
S'holmesw/isbn'
p287
tp288
a(S'Carrot'
p289
S'evanlenz'
p290
S'evanlenz/Carrot'
p291
tp292
a(S'transform.xq'
p293
S'jpcs'
p294
S'jpcs/transform.xq'
p295
tp296
a(S'marklogic-ant-tasks'
p297
S'garyvidal'
p298
S'garyvidal/marklogic-ant-tasks'
p299
tp300
a.