(lp0
(S'Data-UUID'
p1
S'rjbs'
p2
S'rjbs/Data-UUID'
p3
tp4
a(S'b-generate'
p5
S'rurban'
p6
S'rurban/b-generate'
p7
tp8
a(S'PadWalker'
p9
S'robinhouston'
p10
S'robinhouston/PadWalker'
p11
tp12
a(S'perlio-utf8_strict'
p13
S'Leont'
p14
S'Leont/perlio-utf8_strict'
p15
tp16
a(S'perl-nss'
p17
S'0xxon'
p18
S'0xxon/perl-nss'
p19
tp20
a(S'penmsh'
p21
S'critcel'
p22
S'critcel/penmsh'
p23
tp24
a(S'Test-Stream-XS'
p25
S'Test-More'
p26
S'Test-More/Test-Stream-XS'
p27
tp28
a(S'perl-BSSolv'
p29
S'openSUSE'
p30
S'openSUSE/perl-BSSolv'
p31
tp32
a(S'perl-Glib'
p33
S'GNOME'
p34
S'GNOME/perl-Glib'
p35
tp36
a(S're-engine-lua'
p37
S'fperrad'
p38
S'fperrad/re-engine-lua'
p39
tp40
a(S'perl-Gnome2'
p41
S'GNOME'
p42
S'GNOME/perl-Gnome2'
p43
tp44
a(S'logger-fq'
p45
S'postwait'
p46
S'postwait/logger-fq'
p47
tp48
a(S'RTOS_Alarm'
p49
S'NoahBirdman'
p50
S'NoahBirdman/RTOS_Alarm'
p51
tp52
a(S'math-gmpz'
p53
S'sisyphus'
p54
S'sisyphus/math-gmpz'
p55
tp56
a(S'b-flags'
p57
S'rurban'
p58
S'rurban/b-flags'
p59
tp60
a(S'perlAPI'
p61
S'PlatformLSF'
p62
S'PlatformLSF/perlAPI'
p63
tp64
a(S'AoE3ImpMod_Base'
p65
S'mandosrex'
p66
S'mandosrex/AoE3ImpMod_Base'
p67
tp68
a(S'packaging'
p69
S'xsuchy'
p70
S'xsuchy/packaging'
p71
tp72
a(S'perl-Gtk2'
p73
S'GNOME'
p74
S'GNOME/perl-Gtk2'
p75
tp76
a(S'sophia-perl'
p77
S'vitalif'
p78
S'vitalif/sophia-perl'
p79
tp80
a(S'win32-taskscheduler'
p81
S'unicolet'
p82
S'unicolet/win32-taskscheduler'
p83
tp84
a(S'IEEER5CHAD'
p85
S'AlpNov'
p86
S'AlpNov/IEEER5CHAD'
p87
tp88
a(S'math-complex_c-q'
p89
S'sisyphus'
p90
S'sisyphus/math-complex_c-q'
p91
tp92
a(S'perl-database-cassandra-client'
p93
S'lexborisov'
p94
S'lexborisov/perl-database-cassandra-client'
p95
tp96
a(S'RTOS_Alarm'
p97
S'jvens'
p98
S'jvens/RTOS_Alarm'
p99
tp100
a(S'Data-UUID'
p101
S'rjbs'
p102
S'rjbs/Data-UUID'
p103
tp104
a(S'b-generate'
p105
S'rurban'
p106
S'rurban/b-generate'
p107
tp108
a(S'PadWalker'
p109
S'robinhouston'
p110
S'robinhouston/PadWalker'
p111
tp112
a(S'perlio-utf8_strict'
p113
S'Leont'
p114
S'Leont/perlio-utf8_strict'
p115
tp116
a(S'perl-nss'
p117
S'0xxon'
p118
S'0xxon/perl-nss'
p119
tp120
a(S'penmsh'
p121
S'critcel'
p122
S'critcel/penmsh'
p123
tp124
a(S'Test-Stream-XS'
p125
S'Test-More'
p126
S'Test-More/Test-Stream-XS'
p127
tp128
a(S'perl-BSSolv'
p129
S'openSUSE'
p130
S'openSUSE/perl-BSSolv'
p131
tp132
a(S'perl-Glib'
p133
S'GNOME'
p134
S'GNOME/perl-Glib'
p135
tp136
a(S're-engine-lua'
p137
S'fperrad'
p138
S'fperrad/re-engine-lua'
p139
tp140
a(S'perl-Gnome2'
p141
S'GNOME'
p142
S'GNOME/perl-Gnome2'
p143
tp144
a(S'logger-fq'
p145
S'postwait'
p146
S'postwait/logger-fq'
p147
tp148
a(S'RTOS_Alarm'
p149
S'NoahBirdman'
p150
S'NoahBirdman/RTOS_Alarm'
p151
tp152
a(S'math-gmpz'
p153
S'sisyphus'
p154
S'sisyphus/math-gmpz'
p155
tp156
a(S'b-flags'
p157
S'rurban'
p158
S'rurban/b-flags'
p159
tp160
a(S'perlAPI'
p161
S'PlatformLSF'
p162
S'PlatformLSF/perlAPI'
p163
tp164
a(S'AoE3ImpMod_Base'
p165
S'mandosrex'
p166
S'mandosrex/AoE3ImpMod_Base'
p167
tp168
a(S'packaging'
p169
S'xsuchy'
p170
S'xsuchy/packaging'
p171
tp172
a(S'perl-Gtk2'
p173
S'GNOME'
p174
S'GNOME/perl-Gtk2'
p175
tp176
a(S'sophia-perl'
p177
S'vitalif'
p178
S'vitalif/sophia-perl'
p179
tp180
a(S'win32-taskscheduler'
p181
S'unicolet'
p182
S'unicolet/win32-taskscheduler'
p183
tp184
a(S'IEEER5CHAD'
p185
S'AlpNov'
p186
S'AlpNov/IEEER5CHAD'
p187
tp188
a(S'math-complex_c-q'
p189
S'sisyphus'
p190
S'sisyphus/math-complex_c-q'
p191
tp192
a(S'perl-database-cassandra-client'
p193
S'lexborisov'
p194
S'lexborisov/perl-database-cassandra-client'
p195
tp196
a(S'RTOS_Alarm'
p197
S'jvens'
p198
S'jvens/RTOS_Alarm'
p199
tp200
a(S'Data-UUID'
p201
S'rjbs'
p202
S'rjbs/Data-UUID'
p203
tp204
a(S'b-generate'
p205
S'rurban'
p206
S'rurban/b-generate'
p207
tp208
a(S'PadWalker'
p209
S'robinhouston'
p210
S'robinhouston/PadWalker'
p211
tp212
a(S'perlio-utf8_strict'
p213
S'Leont'
p214
S'Leont/perlio-utf8_strict'
p215
tp216
a(S'perl-nss'
p217
S'0xxon'
p218
S'0xxon/perl-nss'
p219
tp220
a(S'penmsh'
p221
S'critcel'
p222
S'critcel/penmsh'
p223
tp224
a(S'Test-Stream-XS'
p225
S'Test-More'
p226
S'Test-More/Test-Stream-XS'
p227
tp228
a(S'perl-BSSolv'
p229
S'openSUSE'
p230
S'openSUSE/perl-BSSolv'
p231
tp232
a(S'perl-Glib'
p233
S'GNOME'
p234
S'GNOME/perl-Glib'
p235
tp236
a(S're-engine-lua'
p237
S'fperrad'
p238
S'fperrad/re-engine-lua'
p239
tp240
a(S'perl-Gnome2'
p241
S'GNOME'
p242
S'GNOME/perl-Gnome2'
p243
tp244
a(S'logger-fq'
p245
S'postwait'
p246
S'postwait/logger-fq'
p247
tp248
a(S'RTOS_Alarm'
p249
S'NoahBirdman'
p250
S'NoahBirdman/RTOS_Alarm'
p251
tp252
a(S'math-gmpz'
p253
S'sisyphus'
p254
S'sisyphus/math-gmpz'
p255
tp256
a(S'b-flags'
p257
S'rurban'
p258
S'rurban/b-flags'
p259
tp260
a(S'perlAPI'
p261
S'PlatformLSF'
p262
S'PlatformLSF/perlAPI'
p263
tp264
a(S'AoE3ImpMod_Base'
p265
S'mandosrex'
p266
S'mandosrex/AoE3ImpMod_Base'
p267
tp268
a(S'packaging'
p269
S'xsuchy'
p270
S'xsuchy/packaging'
p271
tp272
a(S'perl-Gtk2'
p273
S'GNOME'
p274
S'GNOME/perl-Gtk2'
p275
tp276
a(S'sophia-perl'
p277
S'vitalif'
p278
S'vitalif/sophia-perl'
p279
tp280
a(S'win32-taskscheduler'
p281
S'unicolet'
p282
S'unicolet/win32-taskscheduler'
p283
tp284
a(S'IEEER5CHAD'
p285
S'AlpNov'
p286
S'AlpNov/IEEER5CHAD'
p287
tp288
a(S'math-complex_c-q'
p289
S'sisyphus'
p290
S'sisyphus/math-complex_c-q'
p291
tp292
a(S'perl-database-cassandra-client'
p293
S'lexborisov'
p294
S'lexborisov/perl-database-cassandra-client'
p295
tp296
a(S'RTOS_Alarm'
p297
S'jvens'
p298
S'jvens/RTOS_Alarm'
p299
tp300
a.