(lp0
(S'tutorials'
p1
S'eugenp'
p2
S'eugenp/tutorials'
p3
tp4
a(S'pcgen'
p5
S'BahamutDragon'
p6
S'BahamutDragon/pcgen'
p7
tp8
a(S'http2-spec'
p9
S'http2'
p10
S'http2/http2-spec'
p11
tp12
a(S'game-of-life'
p13
S'wakaleo'
p14
S'wakaleo/game-of-life'
p15
tp16
a(S'git-scribe'
p17
S'schacon'
p18
S'schacon/git-scribe'
p19
tp20
a(S'http2-spec'
p21
S'fex-team'
p22
S'fex-team/http2-spec'
p23
tp24
a(S'HTMLBook'
p25
S'oreillymedia'
p26
S'oreillymedia/HTMLBook'
p27
tp28
a(S'jQuery'
p29
S'mrmartineau'
p30
S'mrmartineau/jQuery'
p31
tp32
a(S'bottomupcs'
p33
S'ianw'
p34
S'ianw/bottomupcs'
p35
tp36
a(S'jQuery'
p37
S'SublimeText'
p38
S'SublimeText/jQuery'
p39
tp40
a(S'clojurescript-unraveled'
p41
S'funcool'
p42
S'funcool/clojurescript-unraveled'
p43
tp44
a(S'vogella'
p45
S'vogellacompany'
p46
S'vogellacompany/vogella'
p47
tp48
a(S'ironbee'
p49
S'ironbee'
p50
S'ironbee/ironbee'
p51
tp52
a(S'spring-data-keyvalue-examples'
p53
S'spring-projects'
p54
S'spring-projects/spring-data-keyvalue-examples'
p55
tp56
a(S'word2markdown'
p57
S'Versal'
p58
S'Versal/word2markdown'
p59
tp60
a(S'lastfm-android'
p61
S'lastfm'
p62
S'lastfm/lastfm-android'
p63
tp64
a(S'koalixcrm'
p65
S'scaphilo'
p66
S'scaphilo/koalixcrm'
p67
tp68
a(S'ceylon-spec'
p69
S'ceylon'
p70
S'ceylon/ceylon-spec'
p71
tp72
a(S'HTML5-overview'
p73
S'dret'
p74
S'dret/HTML5-overview'
p75
tp76
a(S'dita-ot'
p77
S'dita-ot'
p78
S'dita-ot/dita-ot'
p79
tp80
a(S'maven-examples'
p81
S'pkainulainen'
p82
S'pkainulainen/maven-examples'
p83
tp84
a(S'sample_ccdas'
p85
S'chb'
p86
S'chb/sample_ccdas'
p87
tp88
a(S'xsltjson'
p89
S'bramstein'
p90
S'bramstein/xsltjson'
p91
tp92
a(S'succinct-for-colloquy'
p93
S'JohnAlbin'
p94
S'JohnAlbin/succinct-for-colloquy'
p95
tp96
a(S'hadoop-tutorials-examples'
p97
S'romainr'
p98
S'romainr/hadoop-tutorials-examples'
p99
tp100
a(S'clojurescript-unraveled'
p101
S'funcool'
p102
S'funcool/clojurescript-unraveled'
p103
tp104
a(S'pcgen'
p105
S'BahamutDragon'
p106
S'BahamutDragon/pcgen'
p107
tp108
a(S'cll'
p109
S'lojban'
p110
S'lojban/cll'
p111
tp112
a(S'scap-security-guide'
p113
S'OpenSCAP'
p114
S'OpenSCAP/scap-security-guide'
p115
tp116
a(S'hadoop-tutorials-examples'
p117
S'romainr'
p118
S'romainr/hadoop-tutorials-examples'
p119
tp120
a(S'http2-spec'
p121
S'http2'
p122
S'http2/http2-spec'
p123
tp124
a(S'game-of-life'
p125
S'wakaleo'
p126
S'wakaleo/game-of-life'
p127
tp128
a(S'git-scribe'
p129
S'schacon'
p130
S'schacon/git-scribe'
p131
tp132
a(S'http2-spec'
p133
S'fex-team'
p134
S'fex-team/http2-spec'
p135
tp136
a(S'tutorials'
p137
S'eugenp'
p138
S'eugenp/tutorials'
p139
tp140
a(S'HTMLBook'
p141
S'oreillymedia'
p142
S'oreillymedia/HTMLBook'
p143
tp144
a(S'jQuery'
p145
S'mrmartineau'
p146
S'mrmartineau/jQuery'
p147
tp148
a(S'bottomupcs'
p149
S'ianw'
p150
S'ianw/bottomupcs'
p151
tp152
a(S'jQuery'
p153
S'SublimeText'
p154
S'SublimeText/jQuery'
p155
tp156
a(S'vogella'
p157
S'vogellacompany'
p158
S'vogellacompany/vogella'
p159
tp160
a(S'ironbee'
p161
S'ironbee'
p162
S'ironbee/ironbee'
p163
tp164
a(S'spring-data-keyvalue-examples'
p165
S'spring-projects'
p166
S'spring-projects/spring-data-keyvalue-examples'
p167
tp168
a(S'word2markdown'
p169
S'Versal'
p170
S'Versal/word2markdown'
p171
tp172
a(S'lastfm-android'
p173
S'lastfm'
p174
S'lastfm/lastfm-android'
p175
tp176
a(S'koalixcrm'
p177
S'scaphilo'
p178
S'scaphilo/koalixcrm'
p179
tp180
a(S'ceylon-spec'
p181
S'ceylon'
p182
S'ceylon/ceylon-spec'
p183
tp184
a(S'HTML5-overview'
p185
S'dret'
p186
S'dret/HTML5-overview'
p187
tp188
a(S'dita-ot'
p189
S'dita-ot'
p190
S'dita-ot/dita-ot'
p191
tp192
a(S'maven-examples'
p193
S'pkainulainen'
p194
S'pkainulainen/maven-examples'
p195
tp196
a(S'xsltjson'
p197
S'bramstein'
p198
S'bramstein/xsltjson'
p199
tp200
a(S'tutorials'
p201
S'eugenp'
p202
S'eugenp/tutorials'
p203
tp204
a(S'clojurescript-unraveled'
p205
S'funcool'
p206
S'funcool/clojurescript-unraveled'
p207
tp208
a(S'bottomupcs'
p209
S'ianw'
p210
S'ianw/bottomupcs'
p211
tp212
a(S'scap-security-guide'
p213
S'OpenSCAP'
p214
S'OpenSCAP/scap-security-guide'
p215
tp216
a(S'api-site'
p217
S'openstack'
p218
S'openstack/api-site'
p219
tp220
a(S'xeps'
p221
S'xsf'
p222
S'xsf/xeps'
p223
tp224
a(S'haltr'
p225
S'descala'
p226
S'descala/haltr'
p227
tp228
a(S'http2-spec'
p229
S'http2'
p230
S'http2/http2-spec'
p231
tp232
a(S'game-of-life'
p233
S'wakaleo'
p234
S'wakaleo/game-of-life'
p235
tp236
a(S'git-scribe'
p237
S'schacon'
p238
S'schacon/git-scribe'
p239
tp240
a(S'http2-spec'
p241
S'fex-team'
p242
S'fex-team/http2-spec'
p243
tp244
a(S'HTMLBook'
p245
S'oreillymedia'
p246
S'oreillymedia/HTMLBook'
p247
tp248
a(S'jQuery'
p249
S'mrmartineau'
p250
S'mrmartineau/jQuery'
p251
tp252
a(S'jQuery'
p253
S'SublimeText'
p254
S'SublimeText/jQuery'
p255
tp256
a(S'vogella'
p257
S'vogellacompany'
p258
S'vogellacompany/vogella'
p259
tp260
a(S'ironbee'
p261
S'ironbee'
p262
S'ironbee/ironbee'
p263
tp264
a(S'spring-data-keyvalue-examples'
p265
S'spring-projects'
p266
S'spring-projects/spring-data-keyvalue-examples'
p267
tp268
a(S'word2markdown'
p269
S'Versal'
p270
S'Versal/word2markdown'
p271
tp272
a(S'lastfm-android'
p273
S'lastfm'
p274
S'lastfm/lastfm-android'
p275
tp276
a(S'koalixcrm'
p277
S'scaphilo'
p278
S'scaphilo/koalixcrm'
p279
tp280
a(S'ceylon-spec'
p281
S'ceylon'
p282
S'ceylon/ceylon-spec'
p283
tp284
a(S'HTML5-overview'
p285
S'dret'
p286
S'dret/HTML5-overview'
p287
tp288
a(S'dita-ot'
p289
S'dita-ot'
p290
S'dita-ot/dita-ot'
p291
tp292
a(S'maven-examples'
p293
S'pkainulainen'
p294
S'pkainulainen/maven-examples'
p295
tp296
a(S'xsltjson'
p297
S'bramstein'
p298
S'bramstein/xsltjson'
p299
tp300
a.