(lp0
(S'Xtendroid'
p1
S'tobykurien'
p2
S'tobykurien/Xtendroid'
p3
tp4
a(S'xtend-gradle-plugin'
p5
S'xtext'
p6
S'xtext/xtend-gradle-plugin'
p7
tp8
a(S'xtendfx'
p9
S'svenefftinge'
p10
S'svenefftinge/xtendfx'
p11
tp12
a(S'maven-xtext-example'
p13
S'xtext'
p14
S'xtext/maven-xtext-example'
p15
tp16
a(S'xtend-contrib'
p17
S'oehme'
p18
S'oehme/xtend-contrib'
p19
tp20
a(S'MostGenerator'
p21
S'Guite'
p22
S'Guite/MostGenerator'
p23
tp24
a(S'Sparkler'
p25
S'tobykurien'
p26
S'tobykurien/Sparkler'
p27
tp28
a(S'java2xtend'
p29
S'rzymek'
p30
S'rzymek/java2xtend'
p31
tp32
a(S'xtend-tools'
p33
S'blueneogeo'
p34
S'blueneogeo/xtend-tools'
p35
tp36
a(S'auto-gwt'
p37
S'xtext'
p38
S'xtext/auto-gwt'
p39
tp40
a(S'WebApps'
p41
S'tobykurien'
p42
S'tobykurien/WebApps'
p43
tp44
a(S'xtext-protected-regions'
p45
S'danieldietrich'
p46
S'danieldietrich/xtext-protected-regions'
p47
tp48
a(S'polipoid'
p49
S'splondike'
p50
S'splondike/polipoid'
p51
tp52
a(S'jsonized'
p53
S'svenefftinge'
p54
S'svenefftinge/jsonized'
p55
tp56
a(S'jpa'
p57
S'plugback'
p58
S'plugback/jpa'
p59
tp60
a(S'xtext-gradle-plugin'
p61
S'xtext'
p62
S'xtext/xtext-gradle-plugin'
p63
tp64
a(S'wollok'
p65
S'uqbar-project'
p66
S'uqbar-project/wollok'
p67
tp68
a(S'md2-framework'
p69
S'wwu-pi'
p70
S'wwu-pi/md2-framework'
p71
tp72
a(S'xtend-async'
p73
S'blueneogeo'
p74
S'blueneogeo/xtend-async'
p75
tp76
a(S'logging-annotation'
p77
S'gzsombor'
p78
S'gzsombor/logging-annotation'
p79
tp80
a(S'wallet-key-tool'
p81
S'prof7bit'
p82
S'prof7bit/wallet-key-tool'
p83
tp84
a(S'DocXtend'
p85
S'mvvvv'
p86
S'mvvvv/DocXtend'
p87
tp88
a(S'robovm-sample-ios-app-xtend'
p89
S'svenefftinge'
p90
S'svenefftinge/robovm-sample-ios-app-xtend'
p91
tp92
a(S'sobula'
p93
S'oehme'
p94
S'oehme/sobula'
p95
tp96
a(S'util-xtend-gdx'
p97
S'codepoke'
p98
S'codepoke/util-xtend-gdx'
p99
tp100
a(S'Xtendroid'
p101
S'tobykurien'
p102
S'tobykurien/Xtendroid'
p103
tp104
a(S'xtend-gradle-plugin'
p105
S'xtext'
p106
S'xtext/xtend-gradle-plugin'
p107
tp108
a(S'xtendfx'
p109
S'svenefftinge'
p110
S'svenefftinge/xtendfx'
p111
tp112
a(S'maven-xtext-example'
p113
S'xtext'
p114
S'xtext/maven-xtext-example'
p115
tp116
a(S'xtend-contrib'
p117
S'oehme'
p118
S'oehme/xtend-contrib'
p119
tp120
a(S'MostGenerator'
p121
S'Guite'
p122
S'Guite/MostGenerator'
p123
tp124
a(S'Sparkler'
p125
S'tobykurien'
p126
S'tobykurien/Sparkler'
p127
tp128
a(S'java2xtend'
p129
S'rzymek'
p130
S'rzymek/java2xtend'
p131
tp132
a(S'xtend-tools'
p133
S'blueneogeo'
p134
S'blueneogeo/xtend-tools'
p135
tp136
a(S'auto-gwt'
p137
S'xtext'
p138
S'xtext/auto-gwt'
p139
tp140
a(S'WebApps'
p141
S'tobykurien'
p142
S'tobykurien/WebApps'
p143
tp144
a(S'xtext-protected-regions'
p145
S'danieldietrich'
p146
S'danieldietrich/xtext-protected-regions'
p147
tp148
a(S'polipoid'
p149
S'splondike'
p150
S'splondike/polipoid'
p151
tp152
a(S'jsonized'
p153
S'svenefftinge'
p154
S'svenefftinge/jsonized'
p155
tp156
a(S'jpa'
p157
S'plugback'
p158
S'plugback/jpa'
p159
tp160
a(S'xtext-gradle-plugin'
p161
S'xtext'
p162
S'xtext/xtext-gradle-plugin'
p163
tp164
a(S'wollok'
p165
S'uqbar-project'
p166
S'uqbar-project/wollok'
p167
tp168
a(S'md2-framework'
p169
S'wwu-pi'
p170
S'wwu-pi/md2-framework'
p171
tp172
a(S'xtend-async'
p173
S'blueneogeo'
p174
S'blueneogeo/xtend-async'
p175
tp176
a(S'logging-annotation'
p177
S'gzsombor'
p178
S'gzsombor/logging-annotation'
p179
tp180
a(S'wallet-key-tool'
p181
S'prof7bit'
p182
S'prof7bit/wallet-key-tool'
p183
tp184
a(S'DocXtend'
p185
S'mvvvv'
p186
S'mvvvv/DocXtend'
p187
tp188
a(S'robovm-sample-ios-app-xtend'
p189
S'svenefftinge'
p190
S'svenefftinge/robovm-sample-ios-app-xtend'
p191
tp192
a(S'sobula'
p193
S'oehme'
p194
S'oehme/sobula'
p195
tp196
a(S'util-xtend-gdx'
p197
S'codepoke'
p198
S'codepoke/util-xtend-gdx'
p199
tp200
a(S'Xtendroid'
p201
S'tobykurien'
p202
S'tobykurien/Xtendroid'
p203
tp204
a(S'xtend-gradle-plugin'
p205
S'xtext'
p206
S'xtext/xtend-gradle-plugin'
p207
tp208
a(S'xtendfx'
p209
S'svenefftinge'
p210
S'svenefftinge/xtendfx'
p211
tp212
a(S'maven-xtext-example'
p213
S'xtext'
p214
S'xtext/maven-xtext-example'
p215
tp216
a(S'xtend-contrib'
p217
S'oehme'
p218
S'oehme/xtend-contrib'
p219
tp220
a(S'MostGenerator'
p221
S'Guite'
p222
S'Guite/MostGenerator'
p223
tp224
a(S'Sparkler'
p225
S'tobykurien'
p226
S'tobykurien/Sparkler'
p227
tp228
a(S'java2xtend'
p229
S'rzymek'
p230
S'rzymek/java2xtend'
p231
tp232
a(S'xtend-tools'
p233
S'blueneogeo'
p234
S'blueneogeo/xtend-tools'
p235
tp236
a(S'auto-gwt'
p237
S'xtext'
p238
S'xtext/auto-gwt'
p239
tp240
a(S'WebApps'
p241
S'tobykurien'
p242
S'tobykurien/WebApps'
p243
tp244
a(S'xtext-protected-regions'
p245
S'danieldietrich'
p246
S'danieldietrich/xtext-protected-regions'
p247
tp248
a(S'polipoid'
p249
S'splondike'
p250
S'splondike/polipoid'
p251
tp252
a(S'jsonized'
p253
S'svenefftinge'
p254
S'svenefftinge/jsonized'
p255
tp256
a(S'jpa'
p257
S'plugback'
p258
S'plugback/jpa'
p259
tp260
a(S'xtext-gradle-plugin'
p261
S'xtext'
p262
S'xtext/xtext-gradle-plugin'
p263
tp264
a(S'wollok'
p265
S'uqbar-project'
p266
S'uqbar-project/wollok'
p267
tp268
a(S'md2-framework'
p269
S'wwu-pi'
p270
S'wwu-pi/md2-framework'
p271
tp272
a(S'xtend-async'
p273
S'blueneogeo'
p274
S'blueneogeo/xtend-async'
p275
tp276
a(S'logging-annotation'
p277
S'gzsombor'
p278
S'gzsombor/logging-annotation'
p279
tp280
a(S'wallet-key-tool'
p281
S'prof7bit'
p282
S'prof7bit/wallet-key-tool'
p283
tp284
a(S'DocXtend'
p285
S'mvvvv'
p286
S'mvvvv/DocXtend'
p287
tp288
a(S'robovm-sample-ios-app-xtend'
p289
S'svenefftinge'
p290
S'svenefftinge/robovm-sample-ios-app-xtend'
p291
tp292
a(S'sobula'
p293
S'oehme'
p294
S'oehme/sobula'
p295
tp296
a(S'util-xtend-gdx'
p297
S'codepoke'
p298
S'codepoke/util-xtend-gdx'
p299
tp300
a.