(lp0
(S'parser'
p1
S'whitequark'
p2
S'whitequark/parser'
p3
tp4
a(S'gregkh-linux'
p5
S'gregkh'
p6
S'gregkh/gregkh-linux'
p7
tp8
a(S'flex-bison-example'
p9
S'meyerd'
p10
S'meyerd/flex-bison-example'
p11
tp12
a(S'y'
p13
S'cznic'
p14
S'cznic/y'
p15
tp16
a(S'lua-checker'
p17
S'rjpower'
p18
S'rjpower/lua-checker'
p19
tp20
a(S'parser'
p21
S'cznic'
p22
S'cznic/parser'
p23
tp24
a(S'language-fortran'
p25
S'dorchard'
p26
S'dorchard/language-fortran'
p27
tp28
a(S'FlexBisonQt'
p29
S'hipersayanX'
p30
S'hipersayanX/FlexBisonQt'
p31
tp32
a(S'tlsparser'
p33
S'richsalz'
p34
S'richsalz/tlsparser'
p35
tp36
a(S'unspec'
p37
S'euromake'
p38
S'euromake/unspec'
p39
tp40
a(S'ambidexter'
p41
S'cwi-swat'
p42
S'cwi-swat/ambidexter'
p43
tp44
a(S'vhd2vl'
p45
S'pliu6'
p46
S'pliu6/vhd2vl'
p47
tp48
a(S'libcanardbc'
p49
S'Polyconseil'
p50
S'Polyconseil/libcanardbc'
p51
tp52
a(S'pyparser'
p53
S'agudulin'
p54
S'agudulin/pyparser'
p55
tp56
a(S'CompilerCourse'
p57
S'leVirve'
p58
S'leVirve/CompilerCourse'
p59
tp60
a(S'COSLayoutParser'
p61
S'tang3w'
p62
S'tang3w/COSLayoutParser'
p63
tp64
a(S'optimusc'
p65
S'vitornere'
p66
S'vitornere/optimusc'
p67
tp68
a(S'compiladores'
p69
S'cassianohsilva'
p70
S'cassianohsilva/compiladores'
p71
tp72
a(S'SPIN'
p73
S'hongyusu'
p74
S'hongyusu/SPIN'
p75
tp76
a(S'lyc'
p77
S'romeroyonatan'
p78
S'romeroyonatan/lyc'
p79
tp80
a(S'ASPP3'
p81
S'Novskilol'
p82
S'Novskilol/ASPP3'
p83
tp84
a(S'cr_mc_j2k'
p85
S'josejuansanchez'
p86
S'josejuansanchez/cr_mc_j2k'
p87
tp88
a(S'intervision'
p89
S'exebook'
p90
S'exebook/intervision'
p91
tp92
a(S'calculator'
p93
S'wedesoft'
p94
S'wedesoft/calculator'
p95
tp96
a(S'RSnippet'
p97
S'chao787'
p98
S'chao787/RSnippet'
p99
tp100
a(S'parser'
p101
S'whitequark'
p102
S'whitequark/parser'
p103
tp104
a(S'gregkh-linux'
p105
S'gregkh'
p106
S'gregkh/gregkh-linux'
p107
tp108
a(S'flex-bison-example'
p109
S'meyerd'
p110
S'meyerd/flex-bison-example'
p111
tp112
a(g13
S'cznic'
p113
S'cznic/y'
p114
tp115
a(S'lua-checker'
p116
S'rjpower'
p117
S'rjpower/lua-checker'
p118
tp119
a(S'parser'
p120
S'cznic'
p121
S'cznic/parser'
p122
tp123
a(S'language-fortran'
p124
S'dorchard'
p125
S'dorchard/language-fortran'
p126
tp127
a(S'FlexBisonQt'
p128
S'hipersayanX'
p129
S'hipersayanX/FlexBisonQt'
p130
tp131
a(S'tlsparser'
p132
S'richsalz'
p133
S'richsalz/tlsparser'
p134
tp135
a(S'unspec'
p136
S'euromake'
p137
S'euromake/unspec'
p138
tp139
a(S'ambidexter'
p140
S'cwi-swat'
p141
S'cwi-swat/ambidexter'
p142
tp143
a(S'vhd2vl'
p144
S'pliu6'
p145
S'pliu6/vhd2vl'
p146
tp147
a(S'libcanardbc'
p148
S'Polyconseil'
p149
S'Polyconseil/libcanardbc'
p150
tp151
a(S'pyparser'
p152
S'agudulin'
p153
S'agudulin/pyparser'
p154
tp155
a(S'CompilerCourse'
p156
S'leVirve'
p157
S'leVirve/CompilerCourse'
p158
tp159
a(S'COSLayoutParser'
p160
S'tang3w'
p161
S'tang3w/COSLayoutParser'
p162
tp163
a(S'optimusc'
p164
S'vitornere'
p165
S'vitornere/optimusc'
p166
tp167
a(S'compiladores'
p168
S'cassianohsilva'
p169
S'cassianohsilva/compiladores'
p170
tp171
a(S'SPIN'
p172
S'hongyusu'
p173
S'hongyusu/SPIN'
p174
tp175
a(S'lyc'
p176
S'romeroyonatan'
p177
S'romeroyonatan/lyc'
p178
tp179
a(S'ASPP3'
p180
S'Novskilol'
p181
S'Novskilol/ASPP3'
p182
tp183
a(S'cr_mc_j2k'
p184
S'josejuansanchez'
p185
S'josejuansanchez/cr_mc_j2k'
p186
tp187
a(S'intervision'
p188
S'exebook'
p189
S'exebook/intervision'
p190
tp191
a(S'calculator'
p192
S'wedesoft'
p193
S'wedesoft/calculator'
p194
tp195
a(S'RSnippet'
p196
S'chao787'
p197
S'chao787/RSnippet'
p198
tp199
a(S'parser'
p200
S'whitequark'
p201
S'whitequark/parser'
p202
tp203
a(S'gregkh-linux'
p204
S'gregkh'
p205
S'gregkh/gregkh-linux'
p206
tp207
a(S'flex-bison-example'
p208
S'meyerd'
p209
S'meyerd/flex-bison-example'
p210
tp211
a(g13
S'cznic'
p212
S'cznic/y'
p213
tp214
a(S'lua-checker'
p215
S'rjpower'
p216
S'rjpower/lua-checker'
p217
tp218
a(S'parser'
p219
S'cznic'
p220
S'cznic/parser'
p221
tp222
a(S'language-fortran'
p223
S'dorchard'
p224
S'dorchard/language-fortran'
p225
tp226
a(S'FlexBisonQt'
p227
S'hipersayanX'
p228
S'hipersayanX/FlexBisonQt'
p229
tp230
a(S'tlsparser'
p231
S'richsalz'
p232
S'richsalz/tlsparser'
p233
tp234
a(S'unspec'
p235
S'euromake'
p236
S'euromake/unspec'
p237
tp238
a(S'ambidexter'
p239
S'cwi-swat'
p240
S'cwi-swat/ambidexter'
p241
tp242
a(S'vhd2vl'
p243
S'pliu6'
p244
S'pliu6/vhd2vl'
p245
tp246
a(S'libcanardbc'
p247
S'Polyconseil'
p248
S'Polyconseil/libcanardbc'
p249
tp250
a(S'pyparser'
p251
S'agudulin'
p252
S'agudulin/pyparser'
p253
tp254
a(S'CompilerCourse'
p255
S'leVirve'
p256
S'leVirve/CompilerCourse'
p257
tp258
a(S'COSLayoutParser'
p259
S'tang3w'
p260
S'tang3w/COSLayoutParser'
p261
tp262
a(S'optimusc'
p263
S'vitornere'
p264
S'vitornere/optimusc'
p265
tp266
a(S'compiladores'
p267
S'cassianohsilva'
p268
S'cassianohsilva/compiladores'
p269
tp270
a(S'SPIN'
p271
S'hongyusu'
p272
S'hongyusu/SPIN'
p273
tp274
a(S'lyc'
p275
S'romeroyonatan'
p276
S'romeroyonatan/lyc'
p277
tp278
a(S'ASPP3'
p279
S'Novskilol'
p280
S'Novskilol/ASPP3'
p281
tp282
a(S'cr_mc_j2k'
p283
S'josejuansanchez'
p284
S'josejuansanchez/cr_mc_j2k'
p285
tp286
a(S'intervision'
p287
S'exebook'
p288
S'exebook/intervision'
p289
tp290
a(S'calculator'
p291
S'wedesoft'
p292
S'wedesoft/calculator'
p293
tp294
a(S'RSnippet'
p295
S'chao787'
p296
S'chao787/RSnippet'
p297
tp298
a.