(lp0
(S'owl'
p1
S'owl-framework'
p2
S'owl-framework/owl'
p3
tp4
a(S'lynx'
p5
S'lynx'
p6
S'lynx/lynx'
p7
tp8
a(S'php-shell'
p9
S'wapmorgan'
p10
S'wapmorgan/php-shell'
p11
tp12
a(S'celastica'
p13
S'nekulin'
p14
S'nekulin/celastica'
p15
tp16
a(S'cakephp-ext'
p17
S'jrbasso'
p18
S'jrbasso/cakephp-ext'
p19
tp20
a(S'hoard-utils'
p21
S'marcqualie'
p22
S'marcqualie/hoard-utils'
p23
tp24
a(S'php-htmlfilter'
p25
S'bolovsky'
p26
S'bolovsky/php-htmlfilter'
p27
tp28
a(S'OrientDB-Extension'
p29
S'hugohiram'
p30
S'hugohiram/OrientDB-Extension'
p31
tp32
a(S'zephir-symfony-stopwatch'
p33
S'john-ko'
p34
S'john-ko/zephir-symfony-stopwatch'
p35
tp36
a(S'nc'
p37
S'hylent'
p38
S'hylent/nc'
p39
tp40
a(S'Drupal-Zephir'
p41
S'ivanboring'
p42
S'ivanboring/Drupal-Zephir'
p43
tp44
a(S'ext-scale'
p45
S'scalephp'
p46
S'scalephp/ext-scale'
p47
tp48
a(S'zep'
p49
S'smceframework2'
p50
S'smceframework2/zep'
p51
tp52
a(S'zephir_crash_sample'
p53
S'steffengy'
p54
S'steffengy/zephir_crash_sample'
p55
tp56
a(S'celastica'
p57
S'bartbresse'
p58
S'bartbresse/celastica'
p59
tp60
a(S'accelleratii'
p61
S'marciopaiva'
p62
S'marciopaiva/accelleratii'
p63
tp64
a(S'celastica'
p65
S'jamiepg1'
p66
S'jamiepg1/celastica'
p67
tp68
a(S'zephir-demo'
p69
S'dreamsxin'
p70
S'dreamsxin/zephir-demo'
p71
tp72
a(S'CTwig'
p73
S'SDpower'
p74
S'SDpower/CTwig'
p75
tp76
a(S'zephir-framework'
p77
S'smceframework'
p78
S'smceframework/zephir-framework'
p79
tp80
a(S'magento-to-zephir'
p81
S'sergoslav'
p82
S'sergoslav/magento-to-zephir'
p83
tp84
a(S'Nano'
p85
S'jamiepg1'
p86
S'jamiepg1/Nano'
p87
tp88
a(S'php-extension'
p89
S'loint'
p90
S'loint/php-extension'
p91
tp92
a(S'zephir-epic'
p93
S'aaroncox'
p94
S'aaroncox/zephir-epic'
p95
tp96
a(S'zephir-demo'
p97
S'jamiepg1'
p98
S'jamiepg1/zephir-demo'
p99
tp100
a(S'owl'
p101
S'owl-framework'
p102
S'owl-framework/owl'
p103
tp104
a(S'lynx'
p105
S'lynx'
p106
S'lynx/lynx'
p107
tp108
a(S'php-shell'
p109
S'wapmorgan'
p110
S'wapmorgan/php-shell'
p111
tp112
a(S'celastica'
p113
S'nekulin'
p114
S'nekulin/celastica'
p115
tp116
a(S'cakephp-ext'
p117
S'jrbasso'
p118
S'jrbasso/cakephp-ext'
p119
tp120
a(S'hoard-utils'
p121
S'marcqualie'
p122
S'marcqualie/hoard-utils'
p123
tp124
a(S'php-htmlfilter'
p125
S'bolovsky'
p126
S'bolovsky/php-htmlfilter'
p127
tp128
a(S'OrientDB-Extension'
p129
S'hugohiram'
p130
S'hugohiram/OrientDB-Extension'
p131
tp132
a(S'zephir-symfony-stopwatch'
p133
S'john-ko'
p134
S'john-ko/zephir-symfony-stopwatch'
p135
tp136
a(S'nc'
p137
S'hylent'
p138
S'hylent/nc'
p139
tp140
a(S'Drupal-Zephir'
p141
S'ivanboring'
p142
S'ivanboring/Drupal-Zephir'
p143
tp144
a(S'ext-scale'
p145
S'scalephp'
p146
S'scalephp/ext-scale'
p147
tp148
a(S'zep'
p149
S'smceframework2'
p150
S'smceframework2/zep'
p151
tp152
a(S'zephir_crash_sample'
p153
S'steffengy'
p154
S'steffengy/zephir_crash_sample'
p155
tp156
a(S'celastica'
p157
S'bartbresse'
p158
S'bartbresse/celastica'
p159
tp160
a(S'accelleratii'
p161
S'marciopaiva'
p162
S'marciopaiva/accelleratii'
p163
tp164
a(S'celastica'
p165
S'jamiepg1'
p166
S'jamiepg1/celastica'
p167
tp168
a(S'zephir-demo'
p169
S'dreamsxin'
p170
S'dreamsxin/zephir-demo'
p171
tp172
a(S'CTwig'
p173
S'SDpower'
p174
S'SDpower/CTwig'
p175
tp176
a(S'zephir-framework'
p177
S'smceframework'
p178
S'smceframework/zephir-framework'
p179
tp180
a(S'magento-to-zephir'
p181
S'sergoslav'
p182
S'sergoslav/magento-to-zephir'
p183
tp184
a(S'Nano'
p185
S'jamiepg1'
p186
S'jamiepg1/Nano'
p187
tp188
a(S'php-extension'
p189
S'loint'
p190
S'loint/php-extension'
p191
tp192
a(S'zephir-epic'
p193
S'aaroncox'
p194
S'aaroncox/zephir-epic'
p195
tp196
a(S'zephir-demo'
p197
S'jamiepg1'
p198
S'jamiepg1/zephir-demo'
p199
tp200
a(S'owl'
p201
S'owl-framework'
p202
S'owl-framework/owl'
p203
tp204
a(S'lynx'
p205
S'lynx'
p206
S'lynx/lynx'
p207
tp208
a(S'php-shell'
p209
S'wapmorgan'
p210
S'wapmorgan/php-shell'
p211
tp212
a(S'celastica'
p213
S'nekulin'
p214
S'nekulin/celastica'
p215
tp216
a(S'cakephp-ext'
p217
S'jrbasso'
p218
S'jrbasso/cakephp-ext'
p219
tp220
a(S'hoard-utils'
p221
S'marcqualie'
p222
S'marcqualie/hoard-utils'
p223
tp224
a(S'php-htmlfilter'
p225
S'bolovsky'
p226
S'bolovsky/php-htmlfilter'
p227
tp228
a(S'OrientDB-Extension'
p229
S'hugohiram'
p230
S'hugohiram/OrientDB-Extension'
p231
tp232
a(S'zephir-symfony-stopwatch'
p233
S'john-ko'
p234
S'john-ko/zephir-symfony-stopwatch'
p235
tp236
a(S'nc'
p237
S'hylent'
p238
S'hylent/nc'
p239
tp240
a(S'Drupal-Zephir'
p241
S'ivanboring'
p242
S'ivanboring/Drupal-Zephir'
p243
tp244
a(S'ext-scale'
p245
S'scalephp'
p246
S'scalephp/ext-scale'
p247
tp248
a(S'zep'
p249
S'smceframework2'
p250
S'smceframework2/zep'
p251
tp252
a(S'zephir_crash_sample'
p253
S'steffengy'
p254
S'steffengy/zephir_crash_sample'
p255
tp256
a(S'celastica'
p257
S'bartbresse'
p258
S'bartbresse/celastica'
p259
tp260
a(S'accelleratii'
p261
S'marciopaiva'
p262
S'marciopaiva/accelleratii'
p263
tp264
a(S'celastica'
p265
S'jamiepg1'
p266
S'jamiepg1/celastica'
p267
tp268
a(S'zephir-demo'
p269
S'dreamsxin'
p270
S'dreamsxin/zephir-demo'
p271
tp272
a(S'CTwig'
p273
S'SDpower'
p274
S'SDpower/CTwig'
p275
tp276
a(S'zephir-framework'
p277
S'smceframework'
p278
S'smceframework/zephir-framework'
p279
tp280
a(S'magento-to-zephir'
p281
S'sergoslav'
p282
S'sergoslav/magento-to-zephir'
p283
tp284
a(S'Nano'
p285
S'jamiepg1'
p286
S'jamiepg1/Nano'
p287
tp288
a(S'php-extension'
p289
S'loint'
p290
S'loint/php-extension'
p291
tp292
a(S'zephir-epic'
p293
S'aaroncox'
p294
S'aaroncox/zephir-epic'
p295
tp296
a(S'zephir-demo'
p297
S'jamiepg1'
p298
S'jamiepg1/zephir-demo'
p299
tp300
a.