(lp0
(S'diet'
p1
S'jvail'
p2
S'jvail/diet'
p3
tp4
a(S'diet'
p5
S'jamiepg1'
p6
S'jamiepg1/diet'
p7
tp8
a(S'hydrolp-a'
p9
S'orthopteroid'
p10
S'orthopteroid/hydrolp-a'
p11
tp12
a(S'Zzz'
p13
S'jamiepg1'
p14
S'jamiepg1/Zzz'
p15
tp16
a(S'hydrolp-a'
p17
S'jamiepg1'
p18
S'jamiepg1/hydrolp-a'
p19
tp20
a(S'SRL-Fr'
p21
S'shafqatvirk'
p22
S'shafqatvirk/SRL-Fr'
p23
tp24
a(S'collielabelprinter'
p25
S'WMTU'
p26
S'WMTU/collielabelprinter'
p27
tp28
a(S'Git-Test'
p29
S'ChipNevins'
p30
S'ChipNevins/Git-Test'
p31
tp32
a(S'Zzz'
p33
S'Whispe'
p34
S'Whispe/Zzz'
p35
tp36
a(S'Git-Test'
p37
S'jamiepg1'
p38
S'jamiepg1/Git-Test'
p39
tp40
a(S'diet'
p41
S'jvail'
p42
S'jvail/diet'
p43
tp44
a(S'diet'
p45
S'jamiepg1'
p46
S'jamiepg1/diet'
p47
tp48
a(S'hydrolp-a'
p49
S'orthopteroid'
p50
S'orthopteroid/hydrolp-a'
p51
tp52
a(S'Zzz'
p53
S'jamiepg1'
p54
S'jamiepg1/Zzz'
p55
tp56
a(S'hydrolp-a'
p57
S'jamiepg1'
p58
S'jamiepg1/hydrolp-a'
p59
tp60
a(S'SRL-Fr'
p61
S'shafqatvirk'
p62
S'shafqatvirk/SRL-Fr'
p63
tp64
a(S'collielabelprinter'
p65
S'WMTU'
p66
S'WMTU/collielabelprinter'
p67
tp68
a(S'Git-Test'
p69
S'ChipNevins'
p70
S'ChipNevins/Git-Test'
p71
tp72
a(S'Zzz'
p73
S'Whispe'
p74
S'Whispe/Zzz'
p75
tp76
a(S'Git-Test'
p77
S'jamiepg1'
p78
S'jamiepg1/Git-Test'
p79
tp80
a(S'diet'
p81
S'jvail'
p82
S'jvail/diet'
p83
tp84
a(S'diet'
p85
S'jamiepg1'
p86
S'jamiepg1/diet'
p87
tp88
a(S'hydrolp-a'
p89
S'orthopteroid'
p90
S'orthopteroid/hydrolp-a'
p91
tp92
a(S'Zzz'
p93
S'jamiepg1'
p94
S'jamiepg1/Zzz'
p95
tp96
a(S'hydrolp-a'
p97
S'jamiepg1'
p98
S'jamiepg1/hydrolp-a'
p99
tp100
a(S'SRL-Fr'
p101
S'shafqatvirk'
p102
S'shafqatvirk/SRL-Fr'
p103
tp104
a(S'collielabelprinter'
p105
S'WMTU'
p106
S'WMTU/collielabelprinter'
p107
tp108
a(S'Git-Test'
p109
S'ChipNevins'
p110
S'ChipNevins/Git-Test'
p111
tp112
a(S'Zzz'
p113
S'Whispe'
p114
S'Whispe/Zzz'
p115
tp116
a(S'Git-Test'
p117
S'jamiepg1'
p118
S'jamiepg1/Git-Test'
p119
tp120
a.